TMS320C6x Assembler PC v8.1.3 Thu Apr 20 05:51:10 2017

Tools Copyright (c) 1996-2015 Texas Instruments Incorporated
LCD.asm                                                              PAGE    1

       1                    ;******************************************************************************
       2                    ;* G3 TMS320C6x C/C++ Codegen                                       PC v8.1.3 *
       3                    ;* Date/Time created: Thu Apr 20 05:51:08 2017                                *
       4                    ;******************************************************************************
       5                            .compiler_opts --abi=eabi --array_alignment=8 --diag_wrap=off --endian=little --hll_source=on 
       6                    
       7                    ;******************************************************************************
       8                    ;* GLOBAL FILE PARAMETERS                                                     *
       9                    ;*                                                                            *
      10                    ;*   Architecture      : TMS320C674x                                          *
      11                    ;*   Optimization      : Enabled at level 3                                   *
      12                    ;*   Optimizing for    : Speed                                                *
      13                    ;*                       Based on options: -o3, no -ms                        *
      14                    ;*   Endian            : Little                                               *
      15                    ;*   Interrupt Thrshld : Disabled                                             *
      16                    ;*   Data Access Model : Far Aggregate Data                                   *
      17                    ;*   Pipelining        : Enabled                                              *
      18                    ;*   Speculate Loads   : Enabled with threshold = 0                           *
      19                    ;*   Memory Aliases    : Presume are aliases (pessimistic)                    *
      20                    ;*   Debug Info        : DWARF Debug                                          *
      21                    ;*                                                                            *
      22                    ;******************************************************************************
      23                    
      24                            .asg    A15, FP
      25                            .asg    B14, DP
      26                            .asg    B15, SP
      27                            .global $bss
      28                    
      29                    
      30                    $C$DW$CU        .dwtag  DW_TAG_compile_unit
      31                            .dwattr $C$DW$CU, DW_AT_name("C:/Users/Raz Aloni/OneDrive/School/EEL4924/DSP/C_Libs/MicCheckPe
      32                            .dwattr $C$DW$CU, DW_AT_producer("TI G3 TMS320C6x C/C++ Codegen PC v8.1.3 Copyright (c) 1996-2
      33                            .dwattr $C$DW$CU, DW_AT_TI_version(0x01)
      34                            .dwattr $C$DW$CU, DW_AT_comp_dir("C:\Users\Raz Aloni\OneDrive\School\EEL4924\DSP\DSP_Workspace
      35                    
      36                    $C$DW$1 .dwtag  DW_TAG_subprogram
      37                            .dwattr $C$DW$1, DW_AT_name("ti_sysbios_knl_Semaphore_pend__E")
      38                            .dwattr $C$DW$1, DW_AT_TI_symbol_name("ti_sysbios_knl_Semaphore_pend__E")
      39                            .dwattr $C$DW$1, DW_AT_type(*$C$DW$T$204)
      40                            .dwattr $C$DW$1, DW_AT_declaration
      41                            .dwattr $C$DW$1, DW_AT_external
      42                            .dwattr $C$DW$1, DW_AT_decl_file("C:/ti/bios_6_50_00_10/packages/ti/sysbios/knl/Semaphore.h")
      43                            .dwattr $C$DW$1, DW_AT_decl_line(0x1dc)
      44                            .dwattr $C$DW$1, DW_AT_decl_column(0x13)
      45                    $C$DW$2 .dwtag  DW_TAG_formal_parameter
      46                            .dwattr $C$DW$2, DW_AT_type(*$C$DW$T$857)
      47                    
      48                    $C$DW$3 .dwtag  DW_TAG_formal_parameter
      49                            .dwattr $C$DW$3, DW_AT_type(*$C$DW$T$153)
      50                    
      51                            .dwendtag $C$DW$1
      52                    
      53                    
      54                    $C$DW$4 .dwtag  DW_TAG_subprogram
      55                            .dwattr $C$DW$4, DW_AT_name("ti_sysbios_knl_Semaphore_post__E")
TMS320C6x Assembler PC v8.1.3 Thu Apr 20 05:51:10 2017

Tools Copyright (c) 1996-2015 Texas Instruments Incorporated
LCD.asm                                                              PAGE    2

      56                            .dwattr $C$DW$4, DW_AT_TI_symbol_name("ti_sysbios_knl_Semaphore_post__E")
      57                            .dwattr $C$DW$4, DW_AT_declaration
      58                            .dwattr $C$DW$4, DW_AT_external
      59                            .dwattr $C$DW$4, DW_AT_decl_file("C:/ti/bios_6_50_00_10/packages/ti/sysbios/knl/Semaphore.h")
      60                            .dwattr $C$DW$4, DW_AT_decl_line(0x1e1)
      61                            .dwattr $C$DW$4, DW_AT_decl_column(0x13)
      62                    $C$DW$5 .dwtag  DW_TAG_formal_parameter
      63                            .dwattr $C$DW$5, DW_AT_type(*$C$DW$T$857)
      64                    
      65                            .dwendtag $C$DW$4
      66                    
      67                    
      68                    $C$DW$6 .dwtag  DW_TAG_subprogram
      69                            .dwattr $C$DW$6, DW_AT_name("PSCModuleControl")
      70                            .dwattr $C$DW$6, DW_AT_TI_symbol_name("PSCModuleControl")
      71                            .dwattr $C$DW$6, DW_AT_type(*$C$DW$T$10)
      72                            .dwattr $C$DW$6, DW_AT_declaration
      73                            .dwattr $C$DW$6, DW_AT_external
      74                            .dwattr $C$DW$6, DW_AT_decl_file("C:/ti/OMAPL138_StarterWare_1_10_04_01/include/psc.h")
      75                            .dwattr $C$DW$6, DW_AT_decl_line(0x3a)
      76                            .dwattr $C$DW$6, DW_AT_decl_column(0x05)
      77                    $C$DW$7 .dwtag  DW_TAG_formal_parameter
      78                            .dwattr $C$DW$7, DW_AT_type(*$C$DW$T$11)
      79                    
      80                    $C$DW$8 .dwtag  DW_TAG_formal_parameter
      81                            .dwattr $C$DW$8, DW_AT_type(*$C$DW$T$11)
      82                    
      83                    $C$DW$9 .dwtag  DW_TAG_formal_parameter
      84                            .dwattr $C$DW$9, DW_AT_type(*$C$DW$T$11)
      85                    
      86                    $C$DW$10        .dwtag  DW_TAG_formal_parameter
      87                            .dwattr $C$DW$10, DW_AT_type(*$C$DW$T$11)
      88                    
      89                            .dwendtag $C$DW$6
      90                    
      91                    
      92                    $C$DW$11        .dwtag  DW_TAG_subprogram
      93                            .dwattr $C$DW$11, DW_AT_name("RasterEnable")
      94                            .dwattr $C$DW$11, DW_AT_TI_symbol_name("RasterEnable")
      95                            .dwattr $C$DW$11, DW_AT_declaration
      96                            .dwattr $C$DW$11, DW_AT_external
      97                            .dwattr $C$DW$11, DW_AT_decl_file("C:/ti/OMAPL138_StarterWare_1_10_04_01/include/raster.h")
      98                            .dwattr $C$DW$11, DW_AT_decl_line(0x152)
      99                            .dwattr $C$DW$11, DW_AT_decl_column(0x0d)
     100                    $C$DW$12        .dwtag  DW_TAG_formal_parameter
     101                            .dwattr $C$DW$12, DW_AT_type(*$C$DW$T$11)
     102                    
     103                            .dwendtag $C$DW$11
     104                    
     105                    
     106                    $C$DW$13        .dwtag  DW_TAG_subprogram
     107                            .dwattr $C$DW$13, DW_AT_name("RasterDisable")
     108                            .dwattr $C$DW$13, DW_AT_TI_symbol_name("RasterDisable")
     109                            .dwattr $C$DW$13, DW_AT_declaration
     110                            .dwattr $C$DW$13, DW_AT_external
TMS320C6x Assembler PC v8.1.3 Thu Apr 20 05:51:10 2017

Tools Copyright (c) 1996-2015 Texas Instruments Incorporated
LCD.asm                                                              PAGE    3

     111                            .dwattr $C$DW$13, DW_AT_decl_file("C:/ti/OMAPL138_StarterWare_1_10_04_01/include/raster.h")
     112                            .dwattr $C$DW$13, DW_AT_decl_line(0x153)
     113                            .dwattr $C$DW$13, DW_AT_decl_column(0x0d)
     114                    $C$DW$14        .dwtag  DW_TAG_formal_parameter
     115                            .dwattr $C$DW$14, DW_AT_type(*$C$DW$T$11)
     116                    
     117                            .dwendtag $C$DW$13
     118                    
     119                    
     120                    $C$DW$15        .dwtag  DW_TAG_subprogram
     121                            .dwattr $C$DW$15, DW_AT_name("RasterNibbleModeDisable")
     122                            .dwattr $C$DW$15, DW_AT_TI_symbol_name("RasterNibbleModeDisable")
     123                            .dwattr $C$DW$15, DW_AT_declaration
     124                            .dwattr $C$DW$15, DW_AT_external
     125                            .dwattr $C$DW$15, DW_AT_decl_file("C:/ti/OMAPL138_StarterWare_1_10_04_01/include/raster.h")
     126                            .dwattr $C$DW$15, DW_AT_decl_line(0x155)
     127                            .dwattr $C$DW$15, DW_AT_decl_column(0x0d)
     128                    $C$DW$16        .dwtag  DW_TAG_formal_parameter
     129                            .dwattr $C$DW$16, DW_AT_type(*$C$DW$T$11)
     130                    
     131                            .dwendtag $C$DW$15
     132                    
     133                    
     134                    $C$DW$17        .dwtag  DW_TAG_subprogram
     135                            .dwattr $C$DW$17, DW_AT_name("RasterLSBDataOrderSelect")
     136                            .dwattr $C$DW$17, DW_AT_TI_symbol_name("RasterLSBDataOrderSelect")
     137                            .dwattr $C$DW$17, DW_AT_declaration
     138                            .dwattr $C$DW$17, DW_AT_external
     139                            .dwattr $C$DW$17, DW_AT_decl_file("C:/ti/OMAPL138_StarterWare_1_10_04_01/include/raster.h")
     140                            .dwattr $C$DW$17, DW_AT_decl_line(0x157)
     141                            .dwattr $C$DW$17, DW_AT_decl_column(0x0d)
     142                    $C$DW$18        .dwtag  DW_TAG_formal_parameter
     143                            .dwattr $C$DW$18, DW_AT_type(*$C$DW$T$11)
     144                    
     145                            .dwendtag $C$DW$17
     146                    
     147                    
     148                    $C$DW$19        .dwtag  DW_TAG_subprogram
     149                            .dwattr $C$DW$19, DW_AT_name("RasterIntEnable")
     150                            .dwattr $C$DW$19, DW_AT_TI_symbol_name("RasterIntEnable")
     151                            .dwattr $C$DW$19, DW_AT_declaration
     152                            .dwattr $C$DW$19, DW_AT_external
     153                            .dwattr $C$DW$19, DW_AT_decl_file("C:/ti/OMAPL138_StarterWare_1_10_04_01/include/raster.h")
     154                            .dwattr $C$DW$19, DW_AT_decl_line(0x15a)
     155                            .dwattr $C$DW$19, DW_AT_decl_column(0x0d)
     156                    $C$DW$20        .dwtag  DW_TAG_formal_parameter
     157                            .dwattr $C$DW$20, DW_AT_type(*$C$DW$T$11)
     158                    
     159                    $C$DW$21        .dwtag  DW_TAG_formal_parameter
     160                            .dwattr $C$DW$21, DW_AT_type(*$C$DW$T$11)
     161                    
     162                            .dwendtag $C$DW$19
     163                    
     164                    
     165                    $C$DW$22        .dwtag  DW_TAG_subprogram
TMS320C6x Assembler PC v8.1.3 Thu Apr 20 05:51:10 2017

Tools Copyright (c) 1996-2015 Texas Instruments Incorporated
LCD.asm                                                              PAGE    4

     166                            .dwattr $C$DW$22, DW_AT_name("RasterDMAFBConfig")
     167                            .dwattr $C$DW$22, DW_AT_TI_symbol_name("RasterDMAFBConfig")
     168                            .dwattr $C$DW$22, DW_AT_declaration
     169                            .dwattr $C$DW$22, DW_AT_external
     170                            .dwattr $C$DW$22, DW_AT_decl_file("C:/ti/OMAPL138_StarterWare_1_10_04_01/include/raster.h")
     171                            .dwattr $C$DW$22, DW_AT_decl_line(0x15b)
     172                            .dwattr $C$DW$22, DW_AT_decl_column(0x0d)
     173                    $C$DW$23        .dwtag  DW_TAG_formal_parameter
     174                            .dwattr $C$DW$23, DW_AT_type(*$C$DW$T$11)
     175                    
     176                    $C$DW$24        .dwtag  DW_TAG_formal_parameter
     177                            .dwattr $C$DW$24, DW_AT_type(*$C$DW$T$11)
     178                    
     179                    $C$DW$25        .dwtag  DW_TAG_formal_parameter
     180                            .dwattr $C$DW$25, DW_AT_type(*$C$DW$T$11)
     181                    
     182                    $C$DW$26        .dwtag  DW_TAG_formal_parameter
     183                            .dwattr $C$DW$26, DW_AT_type(*$C$DW$T$11)
     184                    
     185                            .dwendtag $C$DW$22
     186                    
     187                    
     188                    $C$DW$27        .dwtag  DW_TAG_subprogram
     189                            .dwattr $C$DW$27, DW_AT_name("RasterDMAConfig")
     190                            .dwattr $C$DW$27, DW_AT_TI_symbol_name("RasterDMAConfig")
     191                            .dwattr $C$DW$27, DW_AT_declaration
     192                            .dwattr $C$DW$27, DW_AT_external
     193                            .dwattr $C$DW$27, DW_AT_decl_file("C:/ti/OMAPL138_StarterWare_1_10_04_01/include/raster.h")
     194                            .dwattr $C$DW$27, DW_AT_decl_line(0x15d)
     195                            .dwattr $C$DW$27, DW_AT_decl_column(0x0d)
     196                    $C$DW$28        .dwtag  DW_TAG_formal_parameter
     197                            .dwattr $C$DW$28, DW_AT_type(*$C$DW$T$11)
     198                    
     199                    $C$DW$29        .dwtag  DW_TAG_formal_parameter
     200                            .dwattr $C$DW$29, DW_AT_type(*$C$DW$T$11)
     201                    
     202                    $C$DW$30        .dwtag  DW_TAG_formal_parameter
     203                            .dwattr $C$DW$30, DW_AT_type(*$C$DW$T$11)
     204                    
     205                    $C$DW$31        .dwtag  DW_TAG_formal_parameter
     206                            .dwattr $C$DW$31, DW_AT_type(*$C$DW$T$11)
     207                    
     208                    $C$DW$32        .dwtag  DW_TAG_formal_parameter
     209                            .dwattr $C$DW$32, DW_AT_type(*$C$DW$T$11)
     210                    
     211                            .dwendtag $C$DW$27
     212                    
     213                    
     214                    $C$DW$33        .dwtag  DW_TAG_subprogram
     215                            .dwattr $C$DW$33, DW_AT_name("RasterClkConfig")
     216                            .dwattr $C$DW$33, DW_AT_TI_symbol_name("RasterClkConfig")
     217                            .dwattr $C$DW$33, DW_AT_declaration
     218                            .dwattr $C$DW$33, DW_AT_external
     219                            .dwattr $C$DW$33, DW_AT_decl_file("C:/ti/OMAPL138_StarterWare_1_10_04_01/include/raster.h")
     220                            .dwattr $C$DW$33, DW_AT_decl_line(0x161)
TMS320C6x Assembler PC v8.1.3 Thu Apr 20 05:51:10 2017

Tools Copyright (c) 1996-2015 Texas Instruments Incorporated
LCD.asm                                                              PAGE    5

     221                            .dwattr $C$DW$33, DW_AT_decl_column(0x0d)
     222                    $C$DW$34        .dwtag  DW_TAG_formal_parameter
     223                            .dwattr $C$DW$34, DW_AT_type(*$C$DW$T$11)
     224                    
     225                    $C$DW$35        .dwtag  DW_TAG_formal_parameter
     226                            .dwattr $C$DW$35, DW_AT_type(*$C$DW$T$11)
     227                    
     228                    $C$DW$36        .dwtag  DW_TAG_formal_parameter
     229                            .dwattr $C$DW$36, DW_AT_type(*$C$DW$T$11)
     230                    
     231                            .dwendtag $C$DW$33
     232                    
     233                    
     234                    $C$DW$37        .dwtag  DW_TAG_subprogram
     235                            .dwattr $C$DW$37, DW_AT_name("RasterModeConfig")
     236                            .dwattr $C$DW$37, DW_AT_TI_symbol_name("RasterModeConfig")
     237                            .dwattr $C$DW$37, DW_AT_declaration
     238                            .dwattr $C$DW$37, DW_AT_external
     239                            .dwattr $C$DW$37, DW_AT_decl_file("C:/ti/OMAPL138_StarterWare_1_10_04_01/include/raster.h")
     240                            .dwattr $C$DW$37, DW_AT_decl_line(0x163)
     241                            .dwattr $C$DW$37, DW_AT_decl_column(0x0d)
     242                    $C$DW$38        .dwtag  DW_TAG_formal_parameter
     243                            .dwattr $C$DW$38, DW_AT_type(*$C$DW$T$11)
     244                    
     245                    $C$DW$39        .dwtag  DW_TAG_formal_parameter
     246                            .dwattr $C$DW$39, DW_AT_type(*$C$DW$T$11)
     247                    
     248                    $C$DW$40        .dwtag  DW_TAG_formal_parameter
     249                            .dwattr $C$DW$40, DW_AT_type(*$C$DW$T$11)
     250                    
     251                    $C$DW$41        .dwtag  DW_TAG_formal_parameter
     252                            .dwattr $C$DW$41, DW_AT_type(*$C$DW$T$11)
     253                    
     254                    $C$DW$42        .dwtag  DW_TAG_formal_parameter
     255                            .dwattr $C$DW$42, DW_AT_type(*$C$DW$T$11)
     256                    
     257                            .dwendtag $C$DW$37
     258                    
     259                    
     260                    $C$DW$43        .dwtag  DW_TAG_subprogram
     261                            .dwattr $C$DW$43, DW_AT_name("RasterVparamConfig")
     262                            .dwattr $C$DW$43, DW_AT_TI_symbol_name("RasterVparamConfig")
     263                            .dwattr $C$DW$43, DW_AT_declaration
     264                            .dwattr $C$DW$43, DW_AT_external
     265                            .dwattr $C$DW$43, DW_AT_decl_file("C:/ti/OMAPL138_StarterWare_1_10_04_01/include/raster.h")
     266                            .dwattr $C$DW$43, DW_AT_decl_line(0x168)
     267                            .dwattr $C$DW$43, DW_AT_decl_column(0x0d)
     268                    $C$DW$44        .dwtag  DW_TAG_formal_parameter
     269                            .dwattr $C$DW$44, DW_AT_type(*$C$DW$T$11)
     270                    
     271                    $C$DW$45        .dwtag  DW_TAG_formal_parameter
     272                            .dwattr $C$DW$45, DW_AT_type(*$C$DW$T$11)
     273                    
     274                    $C$DW$46        .dwtag  DW_TAG_formal_parameter
     275                            .dwattr $C$DW$46, DW_AT_type(*$C$DW$T$11)
TMS320C6x Assembler PC v8.1.3 Thu Apr 20 05:51:10 2017

Tools Copyright (c) 1996-2015 Texas Instruments Incorporated
LCD.asm                                                              PAGE    6

     276                    
     277                    $C$DW$47        .dwtag  DW_TAG_formal_parameter
     278                            .dwattr $C$DW$47, DW_AT_type(*$C$DW$T$11)
     279                    
     280                    $C$DW$48        .dwtag  DW_TAG_formal_parameter
     281                            .dwattr $C$DW$48, DW_AT_type(*$C$DW$T$11)
     282                    
     283                            .dwendtag $C$DW$43
     284                    
     285                    
     286                    $C$DW$49        .dwtag  DW_TAG_subprogram
     287                            .dwattr $C$DW$49, DW_AT_name("RasterHparamConfig")
     288                            .dwattr $C$DW$49, DW_AT_TI_symbol_name("RasterHparamConfig")
     289                            .dwattr $C$DW$49, DW_AT_declaration
     290                            .dwattr $C$DW$49, DW_AT_external
     291                            .dwattr $C$DW$49, DW_AT_decl_file("C:/ti/OMAPL138_StarterWare_1_10_04_01/include/raster.h")
     292                            .dwattr $C$DW$49, DW_AT_decl_line(0x16c)
     293                            .dwattr $C$DW$49, DW_AT_decl_column(0x0d)
     294                    $C$DW$50        .dwtag  DW_TAG_formal_parameter
     295                            .dwattr $C$DW$50, DW_AT_type(*$C$DW$T$11)
     296                    
     297                    $C$DW$51        .dwtag  DW_TAG_formal_parameter
     298                            .dwattr $C$DW$51, DW_AT_type(*$C$DW$T$11)
     299                    
     300                    $C$DW$52        .dwtag  DW_TAG_formal_parameter
     301                            .dwattr $C$DW$52, DW_AT_type(*$C$DW$T$11)
     302                    
     303                    $C$DW$53        .dwtag  DW_TAG_formal_parameter
     304                            .dwattr $C$DW$53, DW_AT_type(*$C$DW$T$11)
     305                    
     306                    $C$DW$54        .dwtag  DW_TAG_formal_parameter
     307                            .dwattr $C$DW$54, DW_AT_type(*$C$DW$T$11)
     308                    
     309                            .dwendtag $C$DW$49
     310                    
     311                    
     312                    $C$DW$55        .dwtag  DW_TAG_subprogram
     313                            .dwattr $C$DW$55, DW_AT_name("RasterTiming2Configure")
     314                            .dwattr $C$DW$55, DW_AT_TI_symbol_name("RasterTiming2Configure")
     315                            .dwattr $C$DW$55, DW_AT_declaration
     316                            .dwattr $C$DW$55, DW_AT_external
     317                            .dwattr $C$DW$55, DW_AT_decl_file("C:/ti/OMAPL138_StarterWare_1_10_04_01/include/raster.h")
     318                            .dwattr $C$DW$55, DW_AT_decl_line(0x170)
     319                            .dwattr $C$DW$55, DW_AT_decl_column(0x0d)
     320                    $C$DW$56        .dwtag  DW_TAG_formal_parameter
     321                            .dwattr $C$DW$56, DW_AT_type(*$C$DW$T$11)
     322                    
     323                    $C$DW$57        .dwtag  DW_TAG_formal_parameter
     324                            .dwattr $C$DW$57, DW_AT_type(*$C$DW$T$11)
     325                    
     326                    $C$DW$58        .dwtag  DW_TAG_formal_parameter
     327                            .dwattr $C$DW$58, DW_AT_type(*$C$DW$T$11)
     328                    
     329                    $C$DW$59        .dwtag  DW_TAG_formal_parameter
     330                            .dwattr $C$DW$59, DW_AT_type(*$C$DW$T$11)
TMS320C6x Assembler PC v8.1.3 Thu Apr 20 05:51:10 2017

Tools Copyright (c) 1996-2015 Texas Instruments Incorporated
LCD.asm                                                              PAGE    7

     331                    
     332                            .dwendtag $C$DW$55
     333                    
     334                    
     335                    $C$DW$60        .dwtag  DW_TAG_subprogram
     336                            .dwattr $C$DW$60, DW_AT_name("RasterFIFODMADelayConfig")
     337                            .dwattr $C$DW$60, DW_AT_TI_symbol_name("RasterFIFODMADelayConfig")
     338                            .dwattr $C$DW$60, DW_AT_declaration
     339                            .dwattr $C$DW$60, DW_AT_external
     340                            .dwattr $C$DW$60, DW_AT_decl_file("C:/ti/OMAPL138_StarterWare_1_10_04_01/include/raster.h")
     341                            .dwattr $C$DW$60, DW_AT_decl_line(0x173)
     342                            .dwattr $C$DW$60, DW_AT_decl_column(0x0d)
     343                    $C$DW$61        .dwtag  DW_TAG_formal_parameter
     344                            .dwattr $C$DW$61, DW_AT_type(*$C$DW$T$11)
     345                    
     346                    $C$DW$62        .dwtag  DW_TAG_formal_parameter
     347                            .dwattr $C$DW$62, DW_AT_type(*$C$DW$T$11)
     348                    
     349                            .dwendtag $C$DW$60
     350                    
     351                    
     352                    $C$DW$63        .dwtag  DW_TAG_subprogram
     353                            .dwattr $C$DW$63, DW_AT_name("GPIODirModeSet")
     354                            .dwattr $C$DW$63, DW_AT_TI_symbol_name("GPIODirModeSet")
     355                            .dwattr $C$DW$63, DW_AT_declaration
     356                            .dwattr $C$DW$63, DW_AT_external
     357                            .dwattr $C$DW$63, DW_AT_decl_file("C:/ti/OMAPL138_StarterWare_1_10_04_01/include/gpio.h")
     358                            .dwattr $C$DW$63, DW_AT_decl_line(0x77)
     359                            .dwattr $C$DW$63, DW_AT_decl_column(0x06)
     360                    $C$DW$64        .dwtag  DW_TAG_formal_parameter
     361                            .dwattr $C$DW$64, DW_AT_type(*$C$DW$T$11)
     362                    
     363                    $C$DW$65        .dwtag  DW_TAG_formal_parameter
     364                            .dwattr $C$DW$65, DW_AT_type(*$C$DW$T$11)
     365                    
     366                    $C$DW$66        .dwtag  DW_TAG_formal_parameter
     367                            .dwattr $C$DW$66, DW_AT_type(*$C$DW$T$11)
     368                    
     369                            .dwendtag $C$DW$63
     370                    
     371                    
     372                    $C$DW$67        .dwtag  DW_TAG_subprogram
     373                            .dwattr $C$DW$67, DW_AT_name("GPIOPinWrite")
     374                            .dwattr $C$DW$67, DW_AT_TI_symbol_name("GPIOPinWrite")
     375                            .dwattr $C$DW$67, DW_AT_declaration
     376                            .dwattr $C$DW$67, DW_AT_external
     377                            .dwattr $C$DW$67, DW_AT_decl_file("C:/ti/OMAPL138_StarterWare_1_10_04_01/include/gpio.h")
     378                            .dwattr $C$DW$67, DW_AT_decl_line(0x7a)
     379                            .dwattr $C$DW$67, DW_AT_decl_column(0x06)
     380                    $C$DW$68        .dwtag  DW_TAG_formal_parameter
     381                            .dwattr $C$DW$68, DW_AT_type(*$C$DW$T$11)
     382                    
     383                    $C$DW$69        .dwtag  DW_TAG_formal_parameter
     384                            .dwattr $C$DW$69, DW_AT_type(*$C$DW$T$11)
     385                    
TMS320C6x Assembler PC v8.1.3 Thu Apr 20 05:51:10 2017

Tools Copyright (c) 1996-2015 Texas Instruments Incorporated
LCD.asm                                                              PAGE    8

     386                    $C$DW$70        .dwtag  DW_TAG_formal_parameter
     387                            .dwattr $C$DW$70, DW_AT_type(*$C$DW$T$11)
     388                    
     389                            .dwendtag $C$DW$67
     390                    
     391                    
     392                    $C$DW$71        .dwtag  DW_TAG_subprogram
     393                            .dwattr $C$DW$71, DW_AT_name("GPIOPinRead")
     394                            .dwattr $C$DW$71, DW_AT_TI_symbol_name("GPIOPinRead")
     395                            .dwattr $C$DW$71, DW_AT_type(*$C$DW$T$10)
     396                            .dwattr $C$DW$71, DW_AT_declaration
     397                            .dwattr $C$DW$71, DW_AT_external
     398                            .dwattr $C$DW$71, DW_AT_decl_file("C:/ti/OMAPL138_StarterWare_1_10_04_01/include/gpio.h")
     399                            .dwattr $C$DW$71, DW_AT_decl_line(0x7c)
     400                            .dwattr $C$DW$71, DW_AT_decl_column(0x05)
     401                    $C$DW$72        .dwtag  DW_TAG_formal_parameter
     402                            .dwattr $C$DW$72, DW_AT_type(*$C$DW$T$11)
     403                    
     404                    $C$DW$73        .dwtag  DW_TAG_formal_parameter
     405                            .dwattr $C$DW$73, DW_AT_type(*$C$DW$T$11)
     406                    
     407                            .dwendtag $C$DW$71
     408                    
     409                    
     410                    $C$DW$74        .dwtag  DW_TAG_subprogram
     411                            .dwattr $C$DW$74, DW_AT_name("GPIOIntTypeSet")
     412                            .dwattr $C$DW$74, DW_AT_TI_symbol_name("GPIOIntTypeSet")
     413                            .dwattr $C$DW$74, DW_AT_declaration
     414                            .dwattr $C$DW$74, DW_AT_external
     415                            .dwattr $C$DW$74, DW_AT_decl_file("C:/ti/OMAPL138_StarterWare_1_10_04_01/include/gpio.h")
     416                            .dwattr $C$DW$74, DW_AT_decl_line(0x7d)
     417                            .dwattr $C$DW$74, DW_AT_decl_column(0x06)
     418                    $C$DW$75        .dwtag  DW_TAG_formal_parameter
     419                            .dwattr $C$DW$75, DW_AT_type(*$C$DW$T$11)
     420                    
     421                    $C$DW$76        .dwtag  DW_TAG_formal_parameter
     422                            .dwattr $C$DW$76, DW_AT_type(*$C$DW$T$11)
     423                    
     424                    $C$DW$77        .dwtag  DW_TAG_formal_parameter
     425                            .dwattr $C$DW$77, DW_AT_type(*$C$DW$T$11)
     426                    
     427                            .dwendtag $C$DW$74
     428                    
     429                    
     430                    $C$DW$78        .dwtag  DW_TAG_subprogram
     431                            .dwattr $C$DW$78, DW_AT_name("GPIOBankIntEnable")
     432                            .dwattr $C$DW$78, DW_AT_TI_symbol_name("GPIOBankIntEnable")
     433                            .dwattr $C$DW$78, DW_AT_declaration
     434                            .dwattr $C$DW$78, DW_AT_external
     435                            .dwattr $C$DW$78, DW_AT_decl_file("C:/ti/OMAPL138_StarterWare_1_10_04_01/include/gpio.h")
     436                            .dwattr $C$DW$78, DW_AT_decl_line(0x82)
     437                            .dwattr $C$DW$78, DW_AT_decl_column(0x06)
     438                    $C$DW$79        .dwtag  DW_TAG_formal_parameter
     439                            .dwattr $C$DW$79, DW_AT_type(*$C$DW$T$11)
     440                    
TMS320C6x Assembler PC v8.1.3 Thu Apr 20 05:51:10 2017

Tools Copyright (c) 1996-2015 Texas Instruments Incorporated
LCD.asm                                                              PAGE    9

     441                    $C$DW$80        .dwtag  DW_TAG_formal_parameter
     442                            .dwattr $C$DW$80, DW_AT_type(*$C$DW$T$11)
     443                    
     444                            .dwendtag $C$DW$78
     445                    
     446                    
     447                    $C$DW$81        .dwtag  DW_TAG_subprogram
     448                            .dwattr $C$DW$81, DW_AT_name("I2CMasterInitExpClk")
     449                            .dwattr $C$DW$81, DW_AT_TI_symbol_name("I2CMasterInitExpClk")
     450                            .dwattr $C$DW$81, DW_AT_declaration
     451                            .dwattr $C$DW$81, DW_AT_external
     452                            .dwattr $C$DW$81, DW_AT_decl_file("C:/ti/OMAPL138_StarterWare_1_10_04_01/include/i2c.h")
     453                            .dwattr $C$DW$81, DW_AT_decl_line(0x83)
     454                            .dwattr $C$DW$81, DW_AT_decl_column(0x0d)
     455                    $C$DW$82        .dwtag  DW_TAG_formal_parameter
     456                            .dwattr $C$DW$82, DW_AT_type(*$C$DW$T$11)
     457                    
     458                    $C$DW$83        .dwtag  DW_TAG_formal_parameter
     459                            .dwattr $C$DW$83, DW_AT_type(*$C$DW$T$11)
     460                    
     461                    $C$DW$84        .dwtag  DW_TAG_formal_parameter
     462                            .dwattr $C$DW$84, DW_AT_type(*$C$DW$T$11)
     463                    
     464                    $C$DW$85        .dwtag  DW_TAG_formal_parameter
     465                            .dwattr $C$DW$85, DW_AT_type(*$C$DW$T$11)
     466                    
     467                            .dwendtag $C$DW$81
     468                    
     469                    
     470                    $C$DW$86        .dwtag  DW_TAG_subprogram
     471                            .dwattr $C$DW$86, DW_AT_name("I2CMasterEnable")
     472                            .dwattr $C$DW$86, DW_AT_TI_symbol_name("I2CMasterEnable")
     473                            .dwattr $C$DW$86, DW_AT_declaration
     474                            .dwattr $C$DW$86, DW_AT_external
     475                            .dwattr $C$DW$86, DW_AT_decl_file("C:/ti/OMAPL138_StarterWare_1_10_04_01/include/i2c.h")
     476                            .dwattr $C$DW$86, DW_AT_decl_line(0x85)
     477                            .dwattr $C$DW$86, DW_AT_decl_column(0x0d)
     478                    $C$DW$87        .dwtag  DW_TAG_formal_parameter
     479                            .dwattr $C$DW$87, DW_AT_type(*$C$DW$T$11)
     480                    
     481                            .dwendtag $C$DW$86
     482                    
     483                    
     484                    $C$DW$88        .dwtag  DW_TAG_subprogram
     485                            .dwattr $C$DW$88, DW_AT_name("I2CMasterDisable")
     486                            .dwattr $C$DW$88, DW_AT_TI_symbol_name("I2CMasterDisable")
     487                            .dwattr $C$DW$88, DW_AT_declaration
     488                            .dwattr $C$DW$88, DW_AT_external
     489                            .dwattr $C$DW$88, DW_AT_decl_file("C:/ti/OMAPL138_StarterWare_1_10_04_01/include/i2c.h")
     490                            .dwattr $C$DW$88, DW_AT_decl_line(0x86)
     491                            .dwattr $C$DW$88, DW_AT_decl_column(0x0d)
     492                    $C$DW$89        .dwtag  DW_TAG_formal_parameter
     493                            .dwattr $C$DW$89, DW_AT_type(*$C$DW$T$11)
     494                    
     495                            .dwendtag $C$DW$88
TMS320C6x Assembler PC v8.1.3 Thu Apr 20 05:51:10 2017

Tools Copyright (c) 1996-2015 Texas Instruments Incorporated
LCD.asm                                                              PAGE   10

     496                    
     497                    
     498                    $C$DW$90        .dwtag  DW_TAG_subprogram
     499                            .dwattr $C$DW$90, DW_AT_name("I2CMasterIntEnableEx")
     500                            .dwattr $C$DW$90, DW_AT_TI_symbol_name("I2CMasterIntEnableEx")
     501                            .dwattr $C$DW$90, DW_AT_declaration
     502                            .dwattr $C$DW$90, DW_AT_external
     503                            .dwattr $C$DW$90, DW_AT_decl_file("C:/ti/OMAPL138_StarterWare_1_10_04_01/include/i2c.h")
     504                            .dwattr $C$DW$90, DW_AT_decl_line(0x87)
     505                            .dwattr $C$DW$90, DW_AT_decl_column(0x0d)
     506                    $C$DW$91        .dwtag  DW_TAG_formal_parameter
     507                            .dwattr $C$DW$91, DW_AT_type(*$C$DW$T$11)
     508                    
     509                    $C$DW$92        .dwtag  DW_TAG_formal_parameter
     510                            .dwattr $C$DW$92, DW_AT_type(*$C$DW$T$11)
     511                    
     512                            .dwendtag $C$DW$90
     513                    
     514                    
     515                    $C$DW$93        .dwtag  DW_TAG_subprogram
     516                            .dwattr $C$DW$93, DW_AT_name("I2CMasterIntDisableEx")
     517                            .dwattr $C$DW$93, DW_AT_TI_symbol_name("I2CMasterIntDisableEx")
     518                            .dwattr $C$DW$93, DW_AT_declaration
     519                            .dwattr $C$DW$93, DW_AT_external
     520                            .dwattr $C$DW$93, DW_AT_decl_file("C:/ti/OMAPL138_StarterWare_1_10_04_01/include/i2c.h")
     521                            .dwattr $C$DW$93, DW_AT_decl_line(0x89)
     522                            .dwattr $C$DW$93, DW_AT_decl_column(0x0d)
     523                    $C$DW$94        .dwtag  DW_TAG_formal_parameter
     524                            .dwattr $C$DW$94, DW_AT_type(*$C$DW$T$11)
     525                    
     526                    $C$DW$95        .dwtag  DW_TAG_formal_parameter
     527                            .dwattr $C$DW$95, DW_AT_type(*$C$DW$T$11)
     528                    
     529                            .dwendtag $C$DW$93
     530                    
     531                    
     532                    $C$DW$96        .dwtag  DW_TAG_subprogram
     533                            .dwattr $C$DW$96, DW_AT_name("I2CMasterSlaveAddrSet")
     534                            .dwattr $C$DW$96, DW_AT_TI_symbol_name("I2CMasterSlaveAddrSet")
     535                            .dwattr $C$DW$96, DW_AT_declaration
     536                            .dwattr $C$DW$96, DW_AT_external
     537                            .dwattr $C$DW$96, DW_AT_decl_file("C:/ti/OMAPL138_StarterWare_1_10_04_01/include/i2c.h")
     538                            .dwattr $C$DW$96, DW_AT_decl_line(0x8d)
     539                            .dwattr $C$DW$96, DW_AT_decl_column(0x0d)
     540                    $C$DW$97        .dwtag  DW_TAG_formal_parameter
     541                            .dwattr $C$DW$97, DW_AT_type(*$C$DW$T$11)
     542                    
     543                    $C$DW$98        .dwtag  DW_TAG_formal_parameter
     544                            .dwattr $C$DW$98, DW_AT_type(*$C$DW$T$11)
     545                    
     546                            .dwendtag $C$DW$96
     547                    
     548                    
     549                    $C$DW$99        .dwtag  DW_TAG_subprogram
     550                            .dwattr $C$DW$99, DW_AT_name("I2CMasterControl")
TMS320C6x Assembler PC v8.1.3 Thu Apr 20 05:51:10 2017

Tools Copyright (c) 1996-2015 Texas Instruments Incorporated
LCD.asm                                                              PAGE   11

     551                            .dwattr $C$DW$99, DW_AT_TI_symbol_name("I2CMasterControl")
     552                            .dwattr $C$DW$99, DW_AT_declaration
     553                            .dwattr $C$DW$99, DW_AT_external
     554                            .dwattr $C$DW$99, DW_AT_decl_file("C:/ti/OMAPL138_StarterWare_1_10_04_01/include/i2c.h")
     555                            .dwattr $C$DW$99, DW_AT_decl_line(0x8e)
     556                            .dwattr $C$DW$99, DW_AT_decl_column(0x0d)
     557                    $C$DW$100       .dwtag  DW_TAG_formal_parameter
     558                            .dwattr $C$DW$100, DW_AT_type(*$C$DW$T$11)
     559                    
     560                    $C$DW$101       .dwtag  DW_TAG_formal_parameter
     561                            .dwattr $C$DW$101, DW_AT_type(*$C$DW$T$11)
     562                    
     563                            .dwendtag $C$DW$99
     564                    
     565                    
     566                    $C$DW$102       .dwtag  DW_TAG_subprogram
     567                            .dwattr $C$DW$102, DW_AT_name("I2CMasterDataPut")
     568                            .dwattr $C$DW$102, DW_AT_TI_symbol_name("I2CMasterDataPut")
     569                            .dwattr $C$DW$102, DW_AT_declaration
     570                            .dwattr $C$DW$102, DW_AT_external
     571                            .dwattr $C$DW$102, DW_AT_decl_file("C:/ti/OMAPL138_StarterWare_1_10_04_01/include/i2c.h")
     572                            .dwattr $C$DW$102, DW_AT_decl_line(0x8f)
     573                            .dwattr $C$DW$102, DW_AT_decl_column(0x0d)
     574                    $C$DW$103       .dwtag  DW_TAG_formal_parameter
     575                            .dwattr $C$DW$103, DW_AT_type(*$C$DW$T$11)
     576                    
     577                    $C$DW$104       .dwtag  DW_TAG_formal_parameter
     578                            .dwattr $C$DW$104, DW_AT_type(*$C$DW$T$6)
     579                    
     580                            .dwendtag $C$DW$102
     581                    
     582                    
     583                    $C$DW$105       .dwtag  DW_TAG_subprogram
     584                            .dwattr $C$DW$105, DW_AT_name("I2CMasterDataGet")
     585                            .dwattr $C$DW$105, DW_AT_TI_symbol_name("I2CMasterDataGet")
     586                            .dwattr $C$DW$105, DW_AT_type(*$C$DW$T$11)
     587                            .dwattr $C$DW$105, DW_AT_declaration
     588                            .dwattr $C$DW$105, DW_AT_external
     589                            .dwattr $C$DW$105, DW_AT_decl_file("C:/ti/OMAPL138_StarterWare_1_10_04_01/include/i2c.h")
     590                            .dwattr $C$DW$105, DW_AT_decl_line(0x95)
     591                            .dwattr $C$DW$105, DW_AT_decl_column(0x15)
     592                    $C$DW$106       .dwtag  DW_TAG_formal_parameter
     593                            .dwattr $C$DW$106, DW_AT_type(*$C$DW$T$11)
     594                    
     595                            .dwendtag $C$DW$105
     596                    
     597                    
     598                    $C$DW$107       .dwtag  DW_TAG_subprogram
     599                            .dwattr $C$DW$107, DW_AT_name("I2CSetDataCount")
     600                            .dwattr $C$DW$107, DW_AT_TI_symbol_name("I2CSetDataCount")
     601                            .dwattr $C$DW$107, DW_AT_declaration
     602                            .dwattr $C$DW$107, DW_AT_external
     603                            .dwattr $C$DW$107, DW_AT_decl_file("C:/ti/OMAPL138_StarterWare_1_10_04_01/include/i2c.h")
     604                            .dwattr $C$DW$107, DW_AT_decl_line(0x9a)
     605                            .dwattr $C$DW$107, DW_AT_decl_column(0x0d)
TMS320C6x Assembler PC v8.1.3 Thu Apr 20 05:51:10 2017

Tools Copyright (c) 1996-2015 Texas Instruments Incorporated
LCD.asm                                                              PAGE   12

     606                    $C$DW$108       .dwtag  DW_TAG_formal_parameter
     607                            .dwattr $C$DW$108, DW_AT_type(*$C$DW$T$11)
     608                    
     609                    $C$DW$109       .dwtag  DW_TAG_formal_parameter
     610                            .dwattr $C$DW$109, DW_AT_type(*$C$DW$T$11)
     611                    
     612                            .dwendtag $C$DW$107
     613                    
     614                    
     615                    $C$DW$110       .dwtag  DW_TAG_subprogram
     616                            .dwattr $C$DW$110, DW_AT_name("I2CMasterStart")
     617                            .dwattr $C$DW$110, DW_AT_TI_symbol_name("I2CMasterStart")
     618                            .dwattr $C$DW$110, DW_AT_declaration
     619                            .dwattr $C$DW$110, DW_AT_external
     620                            .dwattr $C$DW$110, DW_AT_decl_file("C:/ti/OMAPL138_StarterWare_1_10_04_01/include/i2c.h")
     621                            .dwattr $C$DW$110, DW_AT_decl_line(0x9b)
     622                            .dwattr $C$DW$110, DW_AT_decl_column(0x0d)
     623                    $C$DW$111       .dwtag  DW_TAG_formal_parameter
     624                            .dwattr $C$DW$111, DW_AT_type(*$C$DW$T$11)
     625                    
     626                            .dwendtag $C$DW$110
     627                    
     628                    
     629                    $C$DW$112       .dwtag  DW_TAG_subprogram
     630                            .dwattr $C$DW$112, DW_AT_name("I2CInterruptVectorGet")
     631                            .dwattr $C$DW$112, DW_AT_TI_symbol_name("I2CInterruptVectorGet")
     632                            .dwattr $C$DW$112, DW_AT_type(*$C$DW$T$11)
     633                            .dwattr $C$DW$112, DW_AT_declaration
     634                            .dwattr $C$DW$112, DW_AT_external
     635                            .dwattr $C$DW$112, DW_AT_decl_file("C:/ti/OMAPL138_StarterWare_1_10_04_01/include/i2c.h")
     636                            .dwattr $C$DW$112, DW_AT_decl_line(0x9c)
     637                            .dwattr $C$DW$112, DW_AT_decl_column(0x15)
     638                    $C$DW$113       .dwtag  DW_TAG_formal_parameter
     639                            .dwattr $C$DW$113, DW_AT_type(*$C$DW$T$11)
     640                    
     641                            .dwendtag $C$DW$112
     642                    
     643                    $C$DW$114       .dwtag  DW_TAG_variable
     644                            .dwattr $C$DW$114, DW_AT_name("TouchEventSem")
     645                            .dwattr $C$DW$114, DW_AT_TI_symbol_name("TouchEventSem")
     646                            .dwattr $C$DW$114, DW_AT_type(*$C$DW$T$1773)
     647                            .dwattr $C$DW$114, DW_AT_declaration
     648                            .dwattr $C$DW$114, DW_AT_external
     649                            .dwattr $C$DW$114, DW_AT_decl_file("C:/Users/Raz Aloni/OneDrive/School/EEL4924/DSP/DSP_Workspa
     650                            .dwattr $C$DW$114, DW_AT_decl_line(0x2f)
     651                            .dwattr $C$DW$114, DW_AT_decl_column(0x2e)
     652                    
     653                    $C$DW$115       .dwtag  DW_TAG_variable
     654                            .dwattr $C$DW$115, DW_AT_name("I2CTransferCompleteSem")
     655                            .dwattr $C$DW$115, DW_AT_TI_symbol_name("I2CTransferCompleteSem")
     656                            .dwattr $C$DW$115, DW_AT_type(*$C$DW$T$1773)
     657                            .dwattr $C$DW$115, DW_AT_declaration
     658                            .dwattr $C$DW$115, DW_AT_external
     659                            .dwattr $C$DW$115, DW_AT_decl_file("C:/Users/Raz Aloni/OneDrive/School/EEL4924/DSP/DSP_Workspa
     660                            .dwattr $C$DW$115, DW_AT_decl_line(0x32)
TMS320C6x Assembler PC v8.1.3 Thu Apr 20 05:51:10 2017

Tools Copyright (c) 1996-2015 Texas Instruments Incorporated
LCD.asm                                                              PAGE   13

     661                            .dwattr $C$DW$115, DW_AT_decl_column(0x2e)
     662                    
     663                            .global Pallete
     664 00000000                   .sect   ".lcdFrames:init"
     665                            .align  8
     666                            .elfsym Pallete,SYM_SIZE(32)
     667 00000000           Pallete:
     668 00000000 00004000          .bits   16384,16                        ; Pallete[0] @ 0
     669 00000000 00004000          .bits   0,16                    ; Pallete[1] @ 16
     670 00000004 00000000          .bits   0,16                    ; Pallete[2] @ 32
     671 00000004 00000000          .bits   0,16                    ; Pallete[3] @ 48
     672 00000008 00000000          .bits   0,16                    ; Pallete[4] @ 64
     673 00000008 00000000          .bits   0,16                    ; Pallete[5] @ 80
     674 0000000c 00000000          .bits   0,16                    ; Pallete[6] @ 96
     675 0000000c 00000000          .bits   0,16                    ; Pallete[7] @ 112
     676 00000010 00000000          .bits   0,16                    ; Pallete[8] @ 128
     677 00000010 00000000          .bits   0,16                    ; Pallete[9] @ 144
     678 00000014 00000000          .bits   0,16                    ; Pallete[10] @ 160
     679 00000014 00000000          .bits   0,16                    ; Pallete[11] @ 176
     680 00000018 00000000          .bits   0,16                    ; Pallete[12] @ 192
     681 00000018 00000000          .bits   0,16                    ; Pallete[13] @ 208
     682 0000001c 00000000          .bits   0,16                    ; Pallete[14] @ 224
     683 0000001c 00000000          .bits   0,16                    ; Pallete[15] @ 240
     684                    
     685                    $C$DW$116       .dwtag  DW_TAG_variable
     686                            .dwattr $C$DW$116, DW_AT_name("Pallete")
     687                            .dwattr $C$DW$116, DW_AT_TI_symbol_name("Pallete")
     688                            .dwattr $C$DW$116, DW_AT_location[DW_OP_addr Pallete]
     689                            .dwattr $C$DW$116, DW_AT_type(*$C$DW$T$1088)
     690                            .dwattr $C$DW$116, DW_AT_external
     691                            .dwattr $C$DW$116, DW_AT_decl_file("C:/Users/Raz Aloni/OneDrive/School/EEL4924/DSP/C_Libs/MicC
     692                            .dwattr $C$DW$116, DW_AT_decl_line(0x7b)
     693                            .dwattr $C$DW$116, DW_AT_decl_column(0x0d)
     694                    
     695                            .global FrameBuffer
     696 00000000           FrameBuffer:    .usect  ".lcdFrames:uninit",261152,8
     697                    $C$DW$117       .dwtag  DW_TAG_variable
     698                            .dwattr $C$DW$117, DW_AT_name("FrameBuffer")
     699                            .dwattr $C$DW$117, DW_AT_TI_symbol_name("FrameBuffer")
     700                            .dwattr $C$DW$117, DW_AT_location[DW_OP_addr FrameBuffer]
     701                            .dwattr $C$DW$117, DW_AT_type(*$C$DW$T$1090)
     702                            .dwattr $C$DW$117, DW_AT_external
     703                            .dwattr $C$DW$117, DW_AT_decl_file("C:/Users/Raz Aloni/OneDrive/School/EEL4924/DSP/C_Libs/MicC
     704                            .dwattr $C$DW$117, DW_AT_decl_line(0x83)
     705                            .dwattr $C$DW$117, DW_AT_decl_column(0x07)
     706                    
     707                            .global FrameBufferData
     708 00000000                   .sect   ".neardata", RW
     709                            .align  4
     710                            .elfsym FrameBufferData,SYM_SIZE(4)
     711 00000000           FrameBufferData:
     712 00000000 00000020!         .bits   FrameBuffer + 32,32             ; FrameBufferData @ 0
     713                    
     714                    $C$DW$118       .dwtag  DW_TAG_variable
     715                            .dwattr $C$DW$118, DW_AT_name("FrameBufferData")
TMS320C6x Assembler PC v8.1.3 Thu Apr 20 05:51:10 2017

Tools Copyright (c) 1996-2015 Texas Instruments Incorporated
LCD.asm                                                              PAGE   14

     716                            .dwattr $C$DW$118, DW_AT_TI_symbol_name("FrameBufferData")
     717                            .dwattr $C$DW$118, DW_AT_location[DW_OP_addr FrameBufferData]
     718                            .dwattr $C$DW$118, DW_AT_type(*$C$DW$T$876)
     719                            .dwattr $C$DW$118, DW_AT_external
     720                            .dwattr $C$DW$118, DW_AT_decl_file("C:/Users/Raz Aloni/OneDrive/School/EEL4924/DSP/C_Libs/MicC
     721                            .dwattr $C$DW$118, DW_AT_decl_line(0x85)
     722                            .dwattr $C$DW$118, DW_AT_decl_column(0x09)
     723                    
     724 00000000                   .sect   ".rodata"
     725                            .align  4
     726                            .elfsym sysConfigRegs,SYM_SIZE(4)
     727 00000000           sysConfigRegs:
     728 00000000 01C14000          .bits   29442048,32                     ; sysConfigRegs @ 0
     729                    
     730                    $C$DW$119       .dwtag  DW_TAG_variable
     731                            .dwattr $C$DW$119, DW_AT_name("sysConfigRegs")
     732                            .dwattr $C$DW$119, DW_AT_TI_symbol_name("sysConfigRegs")
     733                            .dwattr $C$DW$119, DW_AT_type(*$C$DW$T$696)
     734                            .dwattr $C$DW$119, DW_AT_location[DW_OP_addr sysConfigRegs]
     735                            .dwattr $C$DW$119, DW_AT_decl_file("C:/Users/Raz Aloni/OneDrive/School/EEL4924/DSP/C_Libs/MicC
     736                            .dwattr $C$DW$119, DW_AT_decl_line(0x8b)
     737                            .dwattr $C$DW$119, DW_AT_decl_column(0x1b)
     738                    
     739                            .nearcommon     touchDataIndex,1,1
     740                    $C$DW$120       .dwtag  DW_TAG_variable
     741                            .dwattr $C$DW$120, DW_AT_name("touchDataIndex")
     742                            .dwattr $C$DW$120, DW_AT_TI_symbol_name("touchDataIndex")
     743                            .dwattr $C$DW$120, DW_AT_type(*$C$DW$T$159)
     744                            .dwattr $C$DW$120, DW_AT_location[DW_OP_addr touchDataIndex]
     745                            .dwattr $C$DW$120, DW_AT_decl_file("C:/Users/Raz Aloni/OneDrive/School/EEL4924/DSP/C_Libs/MicC
     746                            .dwattr $C$DW$120, DW_AT_decl_line(0x93)
     747                            .dwattr $C$DW$120, DW_AT_decl_column(0x0e)
     748                    
     749                            .nearcommon     touchDataBufferPtr,4,4
     750                    $C$DW$121       .dwtag  DW_TAG_variable
     751                            .dwattr $C$DW$121, DW_AT_name("touchDataBufferPtr")
     752                            .dwattr $C$DW$121, DW_AT_TI_symbol_name("touchDataBufferPtr")
     753                            .dwattr $C$DW$121, DW_AT_type(*$C$DW$T$879)
     754                            .dwattr $C$DW$121, DW_AT_location[DW_OP_addr touchDataBufferPtr]
     755                            .dwattr $C$DW$121, DW_AT_decl_file("C:/Users/Raz Aloni/OneDrive/School/EEL4924/DSP/C_Libs/MicC
     756                            .dwattr $C$DW$121, DW_AT_decl_line(0x96)
     757                            .dwattr $C$DW$121, DW_AT_decl_column(0x10)
     758                    
     759                    ;       C:\ti\ccsv7\tools\compiler\ti-cgt-c6000_8.1.3\bin\opt6x.exe C:\\Users\\RAZALO~1\\AppData\\Loca
     760 00000000                   .sect   ".text"
     761                            .clink
     762                            .global LCD_TouchScreenEvent
     763                    
     764                    $C$DW$122       .dwtag  DW_TAG_subprogram
     765                            .dwattr $C$DW$122, DW_AT_name("LCD_TouchScreenEvent")
     766                            .dwattr $C$DW$122, DW_AT_low_pc(LCD_TouchScreenEvent)
     767                            .dwattr $C$DW$122, DW_AT_high_pc(0x00)
     768                            .dwattr $C$DW$122, DW_AT_TI_symbol_name("LCD_TouchScreenEvent")
     769                            .dwattr $C$DW$122, DW_AT_external
     770                            .dwattr $C$DW$122, DW_AT_TI_begin_file("C:/Users/Raz Aloni/OneDrive/School/EEL4924/DSP/C_Libs/
TMS320C6x Assembler PC v8.1.3 Thu Apr 20 05:51:10 2017

Tools Copyright (c) 1996-2015 Texas Instruments Incorporated
LCD.asm                                                              PAGE   15

     771                            .dwattr $C$DW$122, DW_AT_TI_begin_line(0x28c)
     772                            .dwattr $C$DW$122, DW_AT_TI_begin_column(0x06)
     773                            .dwattr $C$DW$122, DW_AT_decl_file("C:/Users/Raz Aloni/OneDrive/School/EEL4924/DSP/C_Libs/MicC
     774                            .dwattr $C$DW$122, DW_AT_decl_line(0x28c)
     775                            .dwattr $C$DW$122, DW_AT_decl_column(0x06)
     776                            .dwattr $C$DW$122, DW_AT_TI_max_frame_size(0x08)
     777                            .dwpsn  file "C:/Users/Raz Aloni/OneDrive/School/EEL4924/DSP/C_Libs/MicCheckPeripherals/src/LC
     778                    
     779                            .dwfde $C$DW$CIE, LCD_TouchScreenEvent
     780                    
     781                    ;******************************************************************************
     782                    ;* FUNCTION NAME: LCD_TouchScreenEvent                                        *
     783                    ;*                                                                            *
     784                    ;*   Regs Modified     : A0,A1,A2,A3,A4,A5,A6,A7,A8,A9,A16,A17,A18,A19,A20,   *
     785                    ;*                           A21,A22,A23,A24,A25,A26,A27,A28,A29,A30,A31,B0,  *
     786                    ;*                           B1,B2,B3,B4,B5,B6,B7,B8,B9,B16,B17,B18,B19,B20,  *
     787                    ;*                           B21,B22,B23,B24,B25,B26,B27,B28,B29,B30,B31      *
     788                    ;*   Regs Used         : A0,A1,A2,A3,A4,A5,A6,A7,A8,A9,A16,A17,A18,A19,A20,   *
     789                    ;*                           A21,A22,A23,A24,A25,A26,A27,A28,A29,A30,A31,B0,  *
     790                    ;*                           B1,B2,B3,B4,B5,B6,B7,B8,B9,DP,SP,B16,B17,B18,B19,*
     791                    ;*                           B20,B21,B22,B23,B24,B25,B26,B27,B28,B29,B30,B31  *
     792                    ;*   Local Frame Size  : 0 Args + 0 Auto + 4 Save = 4 byte                    *
     793                    ;******************************************************************************
     794 00000000           LCD_TouchScreenEvent:
     795                    ;** --------------------------------------------------------------------------*
     796                            .dwcfi  cfa_offset, 0
     797                            .dwpsn  file "C:/Users/Raz Aloni/OneDrive/School/EEL4924/DSP/C_Libs/MicCheckPeripherals/src/LC
     798                    $C$DW$123       .dwtag  DW_TAG_TI_branch
     799                            .dwattr $C$DW$123, DW_AT_low_pc(0x00)
     800                            .dwattr $C$DW$123, DW_AT_name("ti_sysbios_knl_Semaphore_post__E")
     801                            .dwattr $C$DW$123, DW_AT_TI_call
     802                            .dwattr $C$DW$123, DW_AT_TI_return
     803                    
     804 00000000 00000010!            CALLRET .S1     ti_sysbios_knl_Semaphore_post__E ; [A_S674] |655| 
     805 00000004 0200006c!            LDW     .D2T1   *+DP(TouchEventSem),A4 ; [B_D64P] |655| 
     806 00000008 00000000             NOP             4                 ; [A_L674] 
     807                    $C$RL0:    ; CALL-RETURN OCCURS {ti_sysbios_knl_Semaphore_post__E} 0  ; [] |655| 
     808                            .dwattr $C$DW$122, DW_AT_TI_end_file("C:/Users/Raz Aloni/OneDrive/School/EEL4924/DSP/C_Libs/Mi
     809                            .dwattr $C$DW$122, DW_AT_TI_end_line(0x290)
     810                            .dwattr $C$DW$122, DW_AT_TI_end_column(0x01)
     811                            .dwendentry
     812                            .dwendtag $C$DW$122
     813                    
     814 00000008                   .sect   ".text"
     815                            .clink
     816                            .global LCD_TouchInit
     817                    
     818                    $C$DW$124       .dwtag  DW_TAG_subprogram
     819                            .dwattr $C$DW$124, DW_AT_name("LCD_TouchInit")
     820                            .dwattr $C$DW$124, DW_AT_low_pc(LCD_TouchInit)
     821                            .dwattr $C$DW$124, DW_AT_high_pc(0x00)
     822                            .dwattr $C$DW$124, DW_AT_TI_symbol_name("LCD_TouchInit")
     823                            .dwattr $C$DW$124, DW_AT_external
     824                            .dwattr $C$DW$124, DW_AT_TI_begin_file("C:/Users/Raz Aloni/OneDrive/School/EEL4924/DSP/C_Libs/
     825                            .dwattr $C$DW$124, DW_AT_TI_begin_line(0x1e2)
TMS320C6x Assembler PC v8.1.3 Thu Apr 20 05:51:10 2017

Tools Copyright (c) 1996-2015 Texas Instruments Incorporated
LCD.asm                                                              PAGE   16

     826                            .dwattr $C$DW$124, DW_AT_TI_begin_column(0x06)
     827                            .dwattr $C$DW$124, DW_AT_decl_file("C:/Users/Raz Aloni/OneDrive/School/EEL4924/DSP/C_Libs/MicC
     828                            .dwattr $C$DW$124, DW_AT_decl_line(0x1e2)
     829                            .dwattr $C$DW$124, DW_AT_decl_column(0x06)
     830                            .dwattr $C$DW$124, DW_AT_TI_max_frame_size(0x08)
     831                            .dwpsn  file "C:/Users/Raz Aloni/OneDrive/School/EEL4924/DSP/C_Libs/MicCheckPeripherals/src/LC
     832                    
     833                            .dwfde $C$DW$CIE, LCD_TouchInit
     834                    
     835                    ;******************************************************************************
     836                    ;* FUNCTION NAME: LCD_TouchInit                                               *
     837                    ;*                                                                            *
     838                    ;*   Regs Modified     : A0,A1,A2,A3,A4,A5,A6,A7,A8,A9,A10,A11,A16,A17,A18,   *
     839                    ;*                           A19,A20,A21,A22,A23,A24,A25,A26,A27,A28,A29,A30, *
     840                    ;*                           A31,B0,B1,B2,B3,B4,B5,B6,B7,B8,B9,SP,B16,B17,B18,*
     841                    ;*                           B19,B20,B21,B22,B23,B24,B25,B26,B27,B28,B29,B30, *
     842                    ;*                           B31                                              *
     843                    ;*   Regs Used         : A0,A1,A2,A3,A4,A5,A6,A7,A8,A9,A10,A11,A16,A17,A18,   *
     844                    ;*                           A19,A20,A21,A22,A23,A24,A25,A26,A27,A28,A29,A30, *
     845                    ;*                           A31,B0,B1,B2,B3,B4,B5,B6,B7,B8,B9,DP,SP,B16,B17, *
     846                    ;*                           B18,B19,B20,B21,B22,B23,B24,B25,B26,B27,B28,B29, *
     847                    ;*                           B30,B31                                          *
     848                    ;*   Local Frame Size  : 0 Args + 0 Auto + 8 Save = 8 byte                    *
     849                    ;******************************************************************************
     850                    LCD_TouchInit:
     851                    ;** --------------------------------------------------------------------------*
     852                    $C$DW$125       .dwtag  DW_TAG_variable
     853                            .dwattr $C$DW$125, DW_AT_name("savePinMux")
     854                            .dwattr $C$DW$125, DW_AT_TI_symbol_name("savePinMux")
     855                            .dwattr $C$DW$125, DW_AT_type(*$C$DW$T$154)
     856                            .dwattr $C$DW$125, DW_AT_location[DW_OP_reg20]
     857                    
     858                    $C$DW$126       .dwtag  DW_TAG_variable
     859                            .dwattr $C$DW$126, DW_AT_name("savePinMux")
     860                            .dwattr $C$DW$126, DW_AT_TI_symbol_name("savePinMux")
     861                            .dwattr $C$DW$126, DW_AT_type(*$C$DW$T$154)
     862                            .dwattr $C$DW$126, DW_AT_location[DW_OP_reg3]
     863                    
     864                            .dwcfi  cfa_offset, 0
     865                            .dwpsn  file "C:/Users/Raz Aloni/OneDrive/School/EEL4924/DSP/C_Libs/MicCheckPeripherals/src/LC
     866                    
     867 00000008 02380029             MVKL    .S1     0x1e27000,A4      ; [A_S674] |253| 
     868 0000000c     25f7  ||         STW     .D2T1   A11,*SP++(-8)     ; [B_D64P] |483| 
     869 0000000e     6727  ||         MVK     .L2     3,B6              ; [B_L674] |253| 
     870                    
     871                            .dwcfi  cfa_offset, 8
     872                            .dwcfi  save_reg_to_mem, 11, 0
     873                    $C$DW$127       .dwtag  DW_TAG_TI_branch
     874                            .dwattr $C$DW$127, DW_AT_low_pc(0x10)
     875                            .dwattr $C$DW$127, DW_AT_name("PSCModuleControl")
     876                            .dwattr $C$DW$127, DW_AT_TI_call
     877                    
     878                    
     879 00000010 0200f169             MVKH    .S1     0x1e27000,A4      ; [A_S674] |253| 
     880 00000014 053c22f5  ||         STW     .D2T1   A10,*SP(4)        ; [B_D64P] |483| 
TMS320C6x Assembler PC v8.1.3 Thu Apr 20 05:51:10 2017

Tools Copyright (c) 1996-2015 Texas Instruments Incorporated
LCD.asm                                                              PAGE   17

     881 00000018     8347  ||         MV      .L2     B6,B4             ; [B_L674] |253| 
     882 0000001a     75c6  ||         MV      .L1X    B3,A11            ; [A_L674] |483| 
     883 00000020 10000013! ||         CALLP   .S2     PSCModuleControl,B3 ; [B_Sb674] |253| 
     884 00000024 03000040  ||         ZERO    .D1     A6                ; [A_D64P] |253| 
     885                    
     886                            .dwcfi  save_reg_to_mem, 10, -4
     887                            .dwcfi  save_reg_to_reg, 19, 11
     888 00000028           $C$RL2:    ; CALLP OCCURS {PSCModuleControl} {0}  ; [] |253| 
     889                            .dwpsn  file "C:/Users/Raz Aloni/OneDrive/School/EEL4924/DSP/C_Libs/MicCheckPeripherals/src/LC
     890 00000028 05209a28             MVKL    .S1     0x1c14134,A10     ; [A_S674] |257| 
     891 0000002c 0500e0e8             MVKH    .S1     0x1c14134,A10     ; [A_S674] |257| 
     892 00000030 02280266             LDW     .D1T2   *A10(0),B4        ; [A_D64P] |257| 
     893                            .dwpsn  file "C:/Users/Raz Aloni/OneDrive/School/EEL4924/DSP/C_Libs/MicCheckPeripherals/src/LC
     894 00000034 02a81fda             MV      .L2X    A10,B5            ; [B_L674] |258| 
     895                            .dwpsn  file "C:/Users/Raz Aloni/OneDrive/School/EEL4924/DSP/C_Libs/MicCheckPeripherals/src/LC
     896 00000038 02300028             MVKL    .S1     0x1e26000,A4      ; [A_S674] |261| 
     897 0000003c 0200f168             MVKH    .S1     0x1e26000,A4      ; [A_S674] |261| 
     898 00000040 0304a358             MVK     .L1     1,A6              ; [A_L674] |261| 
     899                            .dwpsn  file "C:/Users/Raz Aloni/OneDrive/School/EEL4924/DSP/C_Libs/MicCheckPeripherals/src/LC
     900 00000044 021297ca             CLR     .S2     B4,20,23,B4       ; [B_Sb674] |257| 
     901                            .dwpsn  file "C:/Users/Raz Aloni/OneDrive/School/EEL4924/DSP/C_Libs/MicCheckPeripherals/src/LC
     902 00000048     f223             SET     .S2     B4,23,23,B4       ; [B_Sb674] |258| 
     903                    
     904 0000004a     10c5             STW     .D2T2   B4,*B5(0)         ; [B_D64P] |258| 
     905 0000004c 020015aa  ||         MVK     .S2     0x2b,B4           ; [B_Sb674] |261| 
     906                    
     907                            .dwpsn  file "C:/Users/Raz Aloni/OneDrive/School/EEL4924/DSP/C_Libs/MicCheckPeripherals/src/LC
     908                    $C$DW$128       .dwtag  DW_TAG_TI_branch
     909                            .dwattr $C$DW$128, DW_AT_low_pc(0x00)
     910                            .dwattr $C$DW$128, DW_AT_name("GPIODirModeSet")
     911                            .dwattr $C$DW$128, DW_AT_TI_call
     912                    
     913 00000050 10000012!            CALLP   .S2     GPIODirModeSet,B3 ; [B_Sb674] |261| 
     914 00000054           $C$RL4:    ; CALLP OCCURS {GPIODirModeSet} {0}  ; [] |261| 
     915                            .dwpsn  file "C:/Users/Raz Aloni/OneDrive/School/EEL4924/DSP/C_Libs/MicCheckPeripherals/src/LC
     916 00000054 02300028             MVKL    .S1     0x1e26000,A4      ; [A_S674] |264| 
     917                    $C$DW$129       .dwtag  DW_TAG_TI_branch
     918                            .dwattr $C$DW$129, DW_AT_low_pc(0x04)
     919                            .dwattr $C$DW$129, DW_AT_name("GPIOBankIntEnable")
     920                            .dwattr $C$DW$129, DW_AT_TI_call
     921                    
     922                    
     923 00000058 0200f169             MVKH    .S1     0x1e26000,A4      ; [A_S674] |264| 
     924 00000060 10000013! ||         CALLP   .S2     GPIOBankIntEnable,B3 ; [B_Sb674] |264| 
     925 00000064 0208a35a  ||         MVK     .L2     2,B4              ; [B_L674] |264| 
     926                    
     927 00000068           $C$RL6:    ; CALLP OCCURS {GPIOBankIntEnable} {0}  ; [] |264| 
     928                            .dwpsn  file "C:/Users/Raz Aloni/OneDrive/School/EEL4924/DSP/C_Libs/MicCheckPeripherals/src/LC
     929                    
     930 00000068 02300029             MVKL    .S1     0x1e26000,A4      ; [A_S674] |267| 
     931 0000006c     6a33  ||         MVK     .S2     0x2b,B4           ; [B_Sb674] |267| 
     932                    
     933                    $C$DW$130       .dwtag  DW_TAG_TI_branch
     934                            .dwattr $C$DW$130, DW_AT_low_pc(0x04)
     935                            .dwattr $C$DW$130, DW_AT_name("GPIOIntTypeSet")
TMS320C6x Assembler PC v8.1.3 Thu Apr 20 05:51:10 2017

Tools Copyright (c) 1996-2015 Texas Instruments Incorporated
LCD.asm                                                              PAGE   18

     936                            .dwattr $C$DW$130, DW_AT_TI_call
     937                    
     938                    
     939 00000074 0200f168             MVKH    .S1     0x1e26000,A4      ; [A_S674] |267| 
     940 00000070 10000013! ||         CALLP   .S2     GPIOIntTypeSet,B3 ; [B_Sb674] |267| 
     941 0000006e     2726  ||         MVK     .L1     1,A6              ; [A_L674] |267| 
     942                    
     943 00000078           $C$RL8:    ; CALLP OCCURS {GPIOIntTypeSet} {0}  ; [] |267| 
     944 00000078 022b8058             ADD     .L1     -4,A10,A4         ; [A_L674] 
     945                            .dwpsn  file "C:/Users/Raz Aloni/OneDrive/School/EEL4924/DSP/C_Libs/MicCheckPeripherals/src/LC
     946 00000080 01900264             LDW     .D1T1   *A4(0),A3         ; [A_D64P] |278| 
     947                            .dwpsn  file "C:/Users/Raz Aloni/OneDrive/School/EEL4924/DSP/C_Libs/MicCheckPeripherals/src/LC
     948 00000084 0211002a             MVK     .S2     8704,B4           ; [B_Sb674] |279| 
     949 00000088 02ab905a             ADD     .L2X    -4,A10,B5         ; [B_L674] 
     950                            .dwpsn  file "C:/Users/Raz Aloni/OneDrive/School/EEL4924/DSP/C_Libs/MicCheckPeripherals/src/LC
     951 0000008c 02100028             MVKL    .S1     0x1c22000,A4      ; [A_S674] |282| 
     952 00000090 0200e168             MVKH    .S1     0x1c22000,A4      ; [A_S674] |282| 
     953                            .dwpsn  file "C:/Users/Raz Aloni/OneDrive/School/EEL4924/DSP/C_Libs/MicCheckPeripherals/src/LC
     954 00000094 018d0fc8             CLR     .S1     A3,8,15,A3        ; [A_S674] |278| 
     955 00000098 00000000             NOP             1                 ; [A_L674] 
     956                            .dwpsn  file "C:/Users/Raz Aloni/OneDrive/School/EEL4924/DSP/C_Libs/MicCheckPeripherals/src/LC
     957 0000009c 020c9ffa             OR      .L2X    B4,A3,B4          ; [B_L674] |279| 
     958                    $C$DW$131       .dwtag  DW_TAG_TI_branch
     959                            .dwattr $C$DW$131, DW_AT_low_pc(0x00)
     960                            .dwattr $C$DW$131, DW_AT_name("I2CMasterDisable")
     961                            .dwattr $C$DW$131, DW_AT_TI_call
     962                    
     963                    
     964 000000a0 10000013!            CALLP   .S2     I2CMasterDisable,B3 ; [B_Sb674] |282| 
     965 000000a4 021402f6  ||         STW     .D2T2   B4,*B5(0)         ; [B_D64P] |279| 
     966                    
     967                            .dwpsn  file "C:/Users/Raz Aloni/OneDrive/School/EEL4924/DSP/C_Libs/MicCheckPeripherals/src/LC
     968 000000a8           $C$RL10:   ; CALLP OCCURS {I2CMasterDisable} {0}  ; [] |282| 
     969                            .dwpsn  file "C:/Users/Raz Aloni/OneDrive/School/EEL4924/DSP/C_Libs/MicCheckPeripherals/src/LC
     970 000000a8 021b002a             MVKL    .S2     0x16e3600,B4      ; [B_Sb674] |285| 
     971                    
     972 000000ac 0343502b             MVKL    .S2     0x186a0,B6        ; [B_Sb674] |285| 
     973 000000b0 02100028  ||         MVKL    .S1     0x1c22000,A4      ; [A_S674] |285| 
     974                    
     975 000000b4 03090029             MVKL    .S1     0x7a1200,A6       ; [A_S674] |285| 
     976 000000b8 0200b76a  ||         MVKH    .S2     0x16e3600,B4      ; [B_Sb674] |285| 
     977                    
     978 000000bc 030000eb             MVKH    .S2     0x186a0,B6        ; [B_Sb674] |285| 
     979 000000c0 0200e168  ||         MVKH    .S1     0x1c22000,A4      ; [A_S674] |285| 
     980                    
     981                    $C$DW$132       .dwtag  DW_TAG_TI_branch
     982                            .dwattr $C$DW$132, DW_AT_low_pc(0x04)
     983                            .dwattr $C$DW$132, DW_AT_name("I2CMasterInitExpClk")
     984                            .dwattr $C$DW$132, DW_AT_TI_call
     985                    
     986                    
     987 000000c4 03003d69             MVKH    .S1     0x7a1200,A6       ; [A_S674] |285| 
     988 000000c8 10000012! ||         CALLP   .S2     I2CMasterInitExpClk,B3 ; [B_Sb674] |285| 
     989                    
     990 000000cc           $C$RL12:   ; CALLP OCCURS {I2CMasterInitExpClk} {0}  ; [] |285| 
TMS320C6x Assembler PC v8.1.3 Thu Apr 20 05:51:10 2017

Tools Copyright (c) 1996-2015 Texas Instruments Incorporated
LCD.asm                                                              PAGE   19

     991                            .dwpsn  file "C:/Users/Raz Aloni/OneDrive/School/EEL4924/DSP/C_Libs/MicCheckPeripherals/src/LC
     992                    
     993 000000cc 02100029             MVKL    .S1     0x1c22000,A4      ; [A_S674] |288| 
     994 000000d0 02001c2a  ||         MVK     .S2     0x38,B4           ; [B_Sb674] |288| 
     995                    
     996                    $C$DW$133       .dwtag  DW_TAG_TI_branch
     997                            .dwattr $C$DW$133, DW_AT_low_pc(0x04)
     998                            .dwattr $C$DW$133, DW_AT_name("I2CMasterSlaveAddrSet")
     999                            .dwattr $C$DW$133, DW_AT_TI_call
    1000                    
    1001                    
    1002 000000d4 0200e169             MVKH    .S1     0x1c22000,A4      ; [A_S674] |288| 
    1003 000000d8 10000012! ||         CALLP   .S2     I2CMasterSlaveAddrSet,B3 ; [B_Sb674] |288| 
    1004                    
    1005 000000dc           $C$RL14:   ; CALLP OCCURS {I2CMasterSlaveAddrSet} {0}  ; [] |288| 
    1006                            .dwpsn  file "C:/Users/Raz Aloni/OneDrive/School/EEL4924/DSP/C_Libs/MicCheckPeripherals/src/LC
    1007 000000dc 02100028             MVKL    .S1     0x1c22000,A4      ; [A_S674] |291| 
    1008                    $C$DW$134       .dwtag  DW_TAG_TI_branch
    1009                            .dwattr $C$DW$134, DW_AT_low_pc(0x04)
    1010                            .dwattr $C$DW$134, DW_AT_name("I2CMasterEnable")
    1011                            .dwattr $C$DW$134, DW_AT_TI_call
    1012                    
    1013                    
    1014 000000e0 0200e169             MVKH    .S1     0x1c22000,A4      ; [A_S674] |291| 
    1015 000000e4 10000012! ||         CALLP   .S2     I2CMasterEnable,B3 ; [B_Sb674] |291| 
    1016                    
    1017 000000e8           $C$RL16:   ; CALLP OCCURS {I2CMasterEnable} {0}  ; [] |291| 
    1018                            .dwpsn  file "C:/Users/Raz Aloni/OneDrive/School/EEL4924/DSP/C_Libs/MicCheckPeripherals/src/LC
    1019 000000e8     7587             MV      .L2X    A11,B3            ; [B_L674] |489| 
    1020                            .dwcfi  restore_reg, 19
    1021                    $C$DW$135       .dwtag  DW_TAG_TI_branch
    1022                            .dwattr $C$DW$135, DW_AT_low_pc(0x00)
    1023                            .dwattr $C$DW$135, DW_AT_TI_return
    1024                    
    1025                    
    1026 000000ea     01ef             RET     .S2     B3                ; [B_Sb674] |489| 
    1027 000000ec 053c22e4  ||         LDW     .D2T1   *SP(4),A10        ; [B_D64P] |489| 
    1028                    
    1029                            .dwcfi  restore_reg, 10
    1030 000000f0     65f7             LDW     .D2T1   *++SP(8),A11      ; [B_D64P] |489| 
    1031                            .dwcfi  cfa_offset, 0
    1032                            .dwcfi  restore_reg, 11
    1033 000000f2     6c6e             NOP             4                 ; [A_L674] 
    1034                               ; BRANCH OCCURS {B3}              ; [] |489| 
    1035                            .dwattr $C$DW$124, DW_AT_TI_end_file("C:/Users/Raz Aloni/OneDrive/School/EEL4924/DSP/C_Libs/Mi
    1036                            .dwattr $C$DW$124, DW_AT_TI_end_line(0x1e9)
    1037                            .dwattr $C$DW$124, DW_AT_TI_end_column(0x01)
    1038                            .dwendentry
    1039                            .dwendtag $C$DW$124
    1040                    
    1041 000000f4                   .sect   ".text"
    1042                            .clink
    1043                            .global LCD_ReadTouchReg
    1044                    
    1045                    $C$DW$136       .dwtag  DW_TAG_subprogram
TMS320C6x Assembler PC v8.1.3 Thu Apr 20 05:51:10 2017

Tools Copyright (c) 1996-2015 Texas Instruments Incorporated
LCD.asm                                                              PAGE   20

    1046                            .dwattr $C$DW$136, DW_AT_name("LCD_ReadTouchReg")
    1047                            .dwattr $C$DW$136, DW_AT_low_pc(LCD_ReadTouchReg)
    1048                            .dwattr $C$DW$136, DW_AT_high_pc(0x00)
    1049                            .dwattr $C$DW$136, DW_AT_TI_symbol_name("LCD_ReadTouchReg")
    1050                            .dwattr $C$DW$136, DW_AT_external
    1051                            .dwattr $C$DW$136, DW_AT_TI_begin_file("C:/Users/Raz Aloni/OneDrive/School/EEL4924/DSP/C_Libs/
    1052                            .dwattr $C$DW$136, DW_AT_TI_begin_line(0x1f1)
    1053                            .dwattr $C$DW$136, DW_AT_TI_begin_column(0x06)
    1054                            .dwattr $C$DW$136, DW_AT_decl_file("C:/Users/Raz Aloni/OneDrive/School/EEL4924/DSP/C_Libs/MicC
    1055                            .dwattr $C$DW$136, DW_AT_decl_line(0x1f1)
    1056                            .dwattr $C$DW$136, DW_AT_decl_column(0x06)
    1057                            .dwattr $C$DW$136, DW_AT_TI_max_frame_size(0x18)
    1058                            .dwpsn  file "C:/Users/Raz Aloni/OneDrive/School/EEL4924/DSP/C_Libs/MicCheckPeripherals/src/LC
    1059                    
    1060                            .dwfde $C$DW$CIE, LCD_ReadTouchReg
    1061                    $C$DW$137       .dwtag  DW_TAG_formal_parameter
    1062                            .dwattr $C$DW$137, DW_AT_name("regAddress")
    1063                            .dwattr $C$DW$137, DW_AT_TI_symbol_name("regAddress")
    1064                            .dwattr $C$DW$137, DW_AT_type(*$C$DW$T$159)
    1065                            .dwattr $C$DW$137, DW_AT_location[DW_OP_reg4]
    1066                    
    1067                    $C$DW$138       .dwtag  DW_TAG_formal_parameter
    1068                            .dwattr $C$DW$138, DW_AT_name("touchDataRaw")
    1069                            .dwattr $C$DW$138, DW_AT_TI_symbol_name("touchDataRaw")
    1070                            .dwattr $C$DW$138, DW_AT_type(*$C$DW$T$879)
    1071                            .dwattr $C$DW$138, DW_AT_location[DW_OP_reg20]
    1072                    
    1073                    $C$DW$139       .dwtag  DW_TAG_formal_parameter
    1074                            .dwattr $C$DW$139, DW_AT_name("numValues")
    1075                            .dwattr $C$DW$139, DW_AT_TI_symbol_name("numValues")
    1076                            .dwattr $C$DW$139, DW_AT_type(*$C$DW$T$159)
    1077                            .dwattr $C$DW$139, DW_AT_location[DW_OP_reg6]
    1078                    
    1079                    
    1080                    ;******************************************************************************
    1081                    ;* FUNCTION NAME: LCD_ReadTouchReg                                            *
    1082                    ;*                                                                            *
    1083                    ;*   Regs Modified     : A0,A1,A2,A3,A4,A5,A6,A7,A8,A9,A10,A11,A16,A17,A18,   *
    1084                    ;*                           A19,A20,A21,A22,A23,A24,A25,A26,A27,A28,A29,A30, *
    1085                    ;*                           A31,B0,B1,B2,B3,B4,B5,B6,B7,B8,B9,B10,SP,B16,B17,*
    1086                    ;*                           B18,B19,B20,B21,B22,B23,B24,B25,B26,B27,B28,B29, *
    1087                    ;*                           B30,B31                                          *
    1088                    ;*   Regs Used         : A0,A1,A2,A3,A4,A5,A6,A7,A8,A9,A10,A11,A16,A17,A18,   *
    1089                    ;*                           A19,A20,A21,A22,A23,A24,A25,A26,A27,A28,A29,A30, *
    1090                    ;*                           A31,B0,B1,B2,B3,B4,B5,B6,B7,B8,B9,B10,DP,SP,B16, *
    1091                    ;*                           B17,B18,B19,B20,B21,B22,B23,B24,B25,B26,B27,B28, *
    1092                    ;*                           B29,B30,B31                                      *
    1093                    ;*   Local Frame Size  : 0 Args + 0 Auto + 24 Save = 24 byte                  *
    1094                    ;******************************************************************************
    1095                    LCD_ReadTouchReg:
    1096                    ;** --------------------------------------------------------------------------*
    1097                    $C$DW$140       .dwtag  DW_TAG_variable
    1098                            .dwattr $C$DW$140, DW_AT_name("touchDataRaw")
    1099                            .dwattr $C$DW$140, DW_AT_TI_symbol_name("touchDataRaw")
    1100                            .dwattr $C$DW$140, DW_AT_type(*$C$DW$T$1058)
TMS320C6x Assembler PC v8.1.3 Thu Apr 20 05:51:10 2017

Tools Copyright (c) 1996-2015 Texas Instruments Incorporated
LCD.asm                                                              PAGE   21

    1101                            .dwattr $C$DW$140, DW_AT_location[DW_OP_reg3]
    1102                    
    1103                    $C$DW$141       .dwtag  DW_TAG_variable
    1104                            .dwattr $C$DW$141, DW_AT_name("regAddress")
    1105                            .dwattr $C$DW$141, DW_AT_TI_symbol_name("regAddress")
    1106                            .dwattr $C$DW$141, DW_AT_type(*$C$DW$T$1057)
    1107                            .dwattr $C$DW$141, DW_AT_location[DW_OP_reg20]
    1108                    
    1109                            .dwcfi  cfa_offset, 0
    1110                    
    1111 000000f4     7246             MV      .L1X    B4,A3             ; [A_L674] |498| 
    1112 000000f6     3577  ||         STW     .D2T2   B10,*SP++(-8)     ; [B_D64P] |498| 
    1113                            .dwcfi  cfa_offset, 8
    1114                            .dwcfi  save_reg_to_mem, 26, 0
    1115                    
    1116 00000100     9247             MV      .L2X    A4,B4             ; [B_L674] |498| 
    1117 000000f8 0180007d! ||         STW     .D2T1   A3,*+DP(touchDataBufferPtr) ; [B_D64P] |500| 
    1118                    
    1119 00000104 020c0237             STB     .D1T2   B4,*A3(0)         ; [A_D64P] |503| 
    1120 00000102     05a6  ||         ZERO    .L1     A3                ; [A_L674] |506| 
    1121 00000108 02100029  ||         MVKL    .S1     0x1c22000,A4      ; [A_S674] |509| 
    1122 0000010c     8577  ||         STDW    .D2T1   A11:A10,*SP++(-8) ; [B_D64P] |498| 
    1123                    
    1124                            .dwcfi  cfa_offset, 16
    1125                            .dwcfi  save_reg_to_mem, 11, -4
    1126                            .dwcfi  save_reg_to_mem, 10, -8
    1127                    $C$DW$142       .dwtag  DW_TAG_TI_branch
    1128                            .dwattr $C$DW$142, DW_AT_low_pc(0x10)
    1129                            .dwattr $C$DW$142, DW_AT_name("I2CSetDataCount")
    1130                            .dwattr $C$DW$142, DW_AT_TI_call
    1131                    
    1132                    
    1133 00000110 0180003d!            STB     .D2T1   A3,*+DP(touchDataIndex) ; [B_D64P] |506| 
    1134 0000010e     2627  ||         MVK     .L2     1,B4              ; [B_L674] |509| 
    1135 00000114 0200e169  ||         MVKH    .S1     0x1c22000,A4      ; [A_S674] |509| 
    1136 00000118     75c6  ||         MV      .L1X    B3,A11            ; [A_L674] |498| 
    1137 00000120 10000012! ||         CALLP   .S2     I2CSetDataCount,B3 ; [B_Sb674] |509| 
    1138 0000011a     4756  ||         MV      .D1     A6,A10            ; [A_D64P] |498| 
    1139                    
    1140                            .dwcfi  save_reg_to_reg, 19, 11
    1141                            .dwpsn  file "C:/Users/Raz Aloni/OneDrive/School/EEL4924/DSP/C_Libs/MicCheckPeripherals/src/LC
    1142 00000124           $C$RL18:   ; CALLP OCCURS {I2CSetDataCount} {0}  ; [] |509| 
    1143                            .dwpsn  file "C:/Users/Raz Aloni/OneDrive/School/EEL4924/DSP/C_Libs/MicCheckPeripherals/src/LC
    1144                    
    1145 00000124 02100029             MVKL    .S1     0x1c22000,A4      ; [A_S674] |512| 
    1146 00000128 0207002a  ||         MVK     .S2     0xe00,B4          ; [B_Sb674] |512| 
    1147                    
    1148                    $C$DW$143       .dwtag  DW_TAG_TI_branch
    1149                            .dwattr $C$DW$143, DW_AT_low_pc(0x04)
    1150                            .dwattr $C$DW$143, DW_AT_name("I2CMasterControl")
    1151                            .dwattr $C$DW$143, DW_AT_TI_call
    1152                    
    1153                    
    1154 0000012c 0200e169             MVKH    .S1     0x1c22000,A4      ; [A_S674] |512| 
    1155 00000130 10000012! ||         CALLP   .S2     I2CMasterControl,B3 ; [B_Sb674] |512| 
TMS320C6x Assembler PC v8.1.3 Thu Apr 20 05:51:10 2017

Tools Copyright (c) 1996-2015 Texas Instruments Incorporated
LCD.asm                                                              PAGE   22

    1156                    
    1157 00000134           $C$RL20:   ; CALLP OCCURS {I2CMasterControl} {0}  ; [] |512| 
    1158                            .dwpsn  file "C:/Users/Raz Aloni/OneDrive/School/EEL4924/DSP/C_Libs/MicCheckPeripherals/src/LC
    1159                    
    1160 00000134 02100029             MVKL    .S1     0x1c22000,A4      ; [A_S674] |515| 
    1161 00000138 0200182a  ||         MVK     .S2     0x30,B4           ; [B_Sb674] |515| 
    1162                    
    1163                    $C$DW$144       .dwtag  DW_TAG_TI_branch
    1164                            .dwattr $C$DW$144, DW_AT_low_pc(0x04)
    1165                            .dwattr $C$DW$144, DW_AT_name("I2CMasterIntEnableEx")
    1166                            .dwattr $C$DW$144, DW_AT_TI_call
    1167                    
    1168                    
    1169 0000013c 0200e169             MVKH    .S1     0x1c22000,A4      ; [A_S674] |515| 
    1170 00000140 10000012! ||         CALLP   .S2     I2CMasterIntEnableEx,B3 ; [B_Sb674] |515| 
    1171                    
    1172 00000144           $C$RL22:   ; CALLP OCCURS {I2CMasterIntEnableEx} {0}  ; [] |515| 
    1173                            .dwpsn  file "C:/Users/Raz Aloni/OneDrive/School/EEL4924/DSP/C_Libs/MicCheckPeripherals/src/LC
    1174 00000144 02100028             MVKL    .S1     0x1c22000,A4      ; [A_S674] |518| 
    1175                    $C$DW$145       .dwtag  DW_TAG_TI_branch
    1176                            .dwattr $C$DW$145, DW_AT_low_pc(0x04)
    1177                            .dwattr $C$DW$145, DW_AT_name("I2CMasterStart")
    1178                            .dwattr $C$DW$145, DW_AT_TI_call
    1179                    
    1180                    
    1181 00000148 0200e169             MVKH    .S1     0x1c22000,A4      ; [A_S674] |518| 
    1182 0000014c 10000012! ||         CALLP   .S2     I2CMasterStart,B3 ; [B_Sb674] |518| 
    1183                    
    1184 00000150           $C$RL24:   ; CALLP OCCURS {I2CMasterStart} {0}  ; [] |518| 
    1185                            .dwpsn  file "C:/Users/Raz Aloni/OneDrive/School/EEL4924/DSP/C_Libs/MicCheckPeripherals/src/LC
    1186 00000150 0500006e!            LDW     .D2T2   *+DP(I2CTransferCompleteSem),B10 ; [B_D64P] |521| 
    1187 00000154     fe27             MVK     .L2     -1,B4             ; [B_L674] |521| 
    1188 00000156     4c6e             NOP             3                 ; [A_L674] 
    1189                    $C$DW$146       .dwtag  DW_TAG_TI_branch
    1190                            .dwattr $C$DW$146, DW_AT_low_pc(0x04)
    1191                            .dwattr $C$DW$146, DW_AT_name("ti_sysbios_knl_Semaphore_pend__E")
    1192                            .dwattr $C$DW$146, DW_AT_TI_call
    1193                    
    1194                    
    1195 00000160 02281fd8             MV      .L1X    B10,A4            ; [A_L674] |521| 
    1196 00000158 10000013! ||         CALLP   .S2     ti_sysbios_knl_Semaphore_pend__E,B3 ; [B_Sb674] |521| 
    1197                    
    1198 00000164           $C$RL26:   ; CALLP OCCURS {ti_sysbios_knl_Semaphore_pend__E} {0}  ; [] |521| 
    1199                            .dwpsn  file "C:/Users/Raz Aloni/OneDrive/School/EEL4924/DSP/C_Libs/MicCheckPeripherals/src/LC
    1200                    
    1201 00000164 02100029             MVKL    .S1     0x1c22000,A4      ; [A_S674] |526| 
    1202 00000168     05a6  ||         ZERO    .L1     A3                ; [A_L674] |524| 
    1203                    
    1204                            .dwpsn  file "C:/Users/Raz Aloni/OneDrive/School/EEL4924/DSP/C_Libs/MicCheckPeripherals/src/LC
    1205                    $C$DW$147       .dwtag  DW_TAG_TI_branch
    1206                            .dwattr $C$DW$147, DW_AT_low_pc(0x0c)
    1207                            .dwattr $C$DW$147, DW_AT_name("I2CSetDataCount")
    1208                            .dwattr $C$DW$147, DW_AT_TI_call
    1209                    
    1210                    
TMS320C6x Assembler PC v8.1.3 Thu Apr 20 05:51:10 2017

Tools Copyright (c) 1996-2015 Texas Instruments Incorporated
LCD.asm                                                              PAGE   23

    1211 00000170 0180003d!            STB     .D2T1   A3,*+DP(touchDataIndex) ; [B_D64P] |524| 
    1212 0000016c 0200e169  ||         MVKH    .S1     0x1c22000,A4      ; [A_S674] |526| 
    1213 0000016a     9507  ||         MV      .L2X    A10,B4            ; [B_L674] |498| 
    1214 00000174 10000013! ||         CALLP   .S2     I2CSetDataCount,B3 ; [B_Sb674] |526| 
    1215                    
    1216                            .dwpsn  file "C:/Users/Raz Aloni/OneDrive/School/EEL4924/DSP/C_Libs/MicCheckPeripherals/src/LC
    1217 00000180           $C$RL28:   ; CALLP OCCURS {I2CSetDataCount} {0}  ; [] |526| 
    1218                            .dwpsn  file "C:/Users/Raz Aloni/OneDrive/School/EEL4924/DSP/C_Libs/MicCheckPeripherals/src/LC
    1219                    
    1220 00000180 02100029             MVKL    .S1     0x1c22000,A4      ; [A_S674] |529| 
    1221 00000184 0206002a  ||         MVK     .S2     0xc00,B4          ; [B_Sb674] |529| 
    1222                    
    1223                    $C$DW$148       .dwtag  DW_TAG_TI_branch
    1224                            .dwattr $C$DW$148, DW_AT_low_pc(0x04)
    1225                            .dwattr $C$DW$148, DW_AT_name("I2CMasterControl")
    1226                            .dwattr $C$DW$148, DW_AT_TI_call
    1227                    
    1228                    
    1229 00000188 0200e169             MVKH    .S1     0x1c22000,A4      ; [A_S674] |529| 
    1230 0000018c 10000012! ||         CALLP   .S2     I2CMasterControl,B3 ; [B_Sb674] |529| 
    1231                    
    1232 00000190           $C$RL30:   ; CALLP OCCURS {I2CMasterControl} {0}  ; [] |529| 
    1233                            .dwpsn  file "C:/Users/Raz Aloni/OneDrive/School/EEL4924/DSP/C_Libs/MicCheckPeripherals/src/LC
    1234                    
    1235 00000190 02100029             MVKL    .S1     0x1c22000,A4      ; [A_S674] |532| 
    1236 00000194 0200142a  ||         MVK     .S2     0x28,B4           ; [B_Sb674] |532| 
    1237                    
    1238                    $C$DW$149       .dwtag  DW_TAG_TI_branch
    1239                            .dwattr $C$DW$149, DW_AT_low_pc(0x04)
    1240                            .dwattr $C$DW$149, DW_AT_name("I2CMasterIntEnableEx")
    1241                            .dwattr $C$DW$149, DW_AT_TI_call
    1242                    
    1243                    
    1244 00000198 0200e169             MVKH    .S1     0x1c22000,A4      ; [A_S674] |532| 
    1245 0000019c 10000012! ||         CALLP   .S2     I2CMasterIntEnableEx,B3 ; [B_Sb674] |532| 
    1246                    
    1247 000001a0           $C$RL32:   ; CALLP OCCURS {I2CMasterIntEnableEx} {0}  ; [] |532| 
    1248                            .dwpsn  file "C:/Users/Raz Aloni/OneDrive/School/EEL4924/DSP/C_Libs/MicCheckPeripherals/src/LC
    1249 000001a0 02100028             MVKL    .S1     0x1c22000,A4      ; [A_S674] |535| 
    1250                    $C$DW$150       .dwtag  DW_TAG_TI_branch
    1251                            .dwattr $C$DW$150, DW_AT_low_pc(0x04)
    1252                            .dwattr $C$DW$150, DW_AT_name("I2CMasterStart")
    1253                            .dwattr $C$DW$150, DW_AT_TI_call
    1254                    
    1255                    
    1256 000001a4 0200e169             MVKH    .S1     0x1c22000,A4      ; [A_S674] |535| 
    1257 000001a8 10000012! ||         CALLP   .S2     I2CMasterStart,B3 ; [B_Sb674] |535| 
    1258                    
    1259 000001ac           $C$RL34:   ; CALLP OCCURS {I2CMasterStart} {0}  ; [] |535| 
    1260                            .dwpsn  file "C:/Users/Raz Aloni/OneDrive/School/EEL4924/DSP/C_Libs/MicCheckPeripherals/src/LC
    1261                    $C$DW$151       .dwtag  DW_TAG_TI_branch
    1262                            .dwattr $C$DW$151, DW_AT_low_pc(0x04)
    1263                            .dwattr $C$DW$151, DW_AT_name("ti_sysbios_knl_Semaphore_pend__E")
    1264                            .dwattr $C$DW$151, DW_AT_TI_call
    1265                    
TMS320C6x Assembler PC v8.1.3 Thu Apr 20 05:51:10 2017

Tools Copyright (c) 1996-2015 Texas Instruments Incorporated
LCD.asm                                                              PAGE   24

    1266                    
    1267 000001ac     9506             MV      .L1X    B10,A4            ; [A_L674] |538| 
    1268 000001b0 10000012! ||         CALLP   .S2     ti_sysbios_knl_Semaphore_pend__E,B3 ; [B_Sb674] |538| 
    1269 000001ae     fe27  ||         MVK     .L2     -1,B4             ; [B_L674] |538| 
    1270                    
    1271 000001b4           $C$RL36:   ; CALLP OCCURS {ti_sysbios_knl_Semaphore_pend__E} {0}  ; [] |538| 
    1272                            .dwpsn  file "C:/Users/Raz Aloni/OneDrive/School/EEL4924/DSP/C_Libs/MicCheckPeripherals/src/LC
    1273 000001b4     7587             MV      .L2X    A11,B3            ; [B_L674] |539| 
    1274                            .dwcfi  restore_reg, 19
    1275                    $C$DW$152       .dwtag  DW_TAG_TI_branch
    1276                            .dwattr $C$DW$152, DW_AT_low_pc(0x00)
    1277                            .dwattr $C$DW$152, DW_AT_TI_return
    1278                    
    1279                    
    1280 000001b6     01ef             RET     .S2     B3                ; [B_Sb674] |539| 
    1281 000001b8     c577  ||         LDDW    .D2T1   *++SP(8),A11:A10  ; [B_D64P] |539| 
    1282                    
    1283                            .dwcfi  cfa_offset, 8
    1284                            .dwcfi  restore_reg, 11
    1285                            .dwcfi  restore_reg, 10
    1286 000001ba     7577             LDW     .D2T2   *++SP(8),B10      ; [B_D64P] |539| 
    1287                            .dwcfi  cfa_offset, 0
    1288                            .dwcfi  restore_reg, 26
    1289 000001c0 00006000             NOP             4                 ; [A_L674] 
    1290                               ; BRANCH OCCURS {B3}              ; [] |539| 
    1291                            .dwattr $C$DW$136, DW_AT_TI_end_file("C:/Users/Raz Aloni/OneDrive/School/EEL4924/DSP/C_Libs/Mi
    1292                            .dwattr $C$DW$136, DW_AT_TI_end_line(0x21b)
    1293                            .dwattr $C$DW$136, DW_AT_TI_end_column(0x01)
    1294                            .dwendentry
    1295                            .dwendtag $C$DW$136
    1296                    
    1297 000001c4                   .sect   ".text"
    1298                            .clink
    1299                            .global LCD_RasterInit
    1300                    
    1301                    $C$DW$153       .dwtag  DW_TAG_subprogram
    1302                            .dwattr $C$DW$153, DW_AT_name("LCD_RasterInit")
    1303                            .dwattr $C$DW$153, DW_AT_low_pc(LCD_RasterInit)
    1304                            .dwattr $C$DW$153, DW_AT_high_pc(0x00)
    1305                            .dwattr $C$DW$153, DW_AT_TI_symbol_name("LCD_RasterInit")
    1306                            .dwattr $C$DW$153, DW_AT_external
    1307                            .dwattr $C$DW$153, DW_AT_TI_begin_file("C:/Users/Raz Aloni/OneDrive/School/EEL4924/DSP/C_Libs/
    1308                            .dwattr $C$DW$153, DW_AT_TI_begin_line(0x137)
    1309                            .dwattr $C$DW$153, DW_AT_TI_begin_column(0x06)
    1310                            .dwattr $C$DW$153, DW_AT_decl_file("C:/Users/Raz Aloni/OneDrive/School/EEL4924/DSP/C_Libs/MicC
    1311                            .dwattr $C$DW$153, DW_AT_decl_line(0x137)
    1312                            .dwattr $C$DW$153, DW_AT_decl_column(0x06)
    1313                            .dwattr $C$DW$153, DW_AT_TI_max_frame_size(0x18)
    1314                            .dwpsn  file "C:/Users/Raz Aloni/OneDrive/School/EEL4924/DSP/C_Libs/MicCheckPeripherals/src/LC
    1315                    
    1316                            .dwfde $C$DW$CIE, LCD_RasterInit
    1317                    $C$DW$154       .dwtag  DW_TAG_formal_parameter
    1318                            .dwattr $C$DW$154, DW_AT_name("LCDCClock")
    1319                            .dwattr $C$DW$154, DW_AT_TI_symbol_name("LCDCClock")
    1320                            .dwattr $C$DW$154, DW_AT_type(*$C$DW$T$154)
TMS320C6x Assembler PC v8.1.3 Thu Apr 20 05:51:10 2017

Tools Copyright (c) 1996-2015 Texas Instruments Incorporated
LCD.asm                                                              PAGE   25

    1321                            .dwattr $C$DW$154, DW_AT_location[DW_OP_reg4]
    1322                    
    1323                    
    1324                    ;******************************************************************************
    1325                    ;* FUNCTION NAME: LCD_RasterInit                                              *
    1326                    ;*                                                                            *
    1327                    ;*   Regs Modified     : A0,A1,A2,A3,A4,A5,A6,A7,A8,A9,A10,A11,A16,A17,A18,   *
    1328                    ;*                           A19,A20,A21,A22,A23,A24,A25,A26,A27,A28,A29,A30, *
    1329                    ;*                           A31,B0,B1,B2,B3,B4,B5,B6,B7,B8,B9,B10,SP,B16,B17,*
    1330                    ;*                           B18,B19,B20,B21,B22,B23,B24,B25,B26,B27,B28,B29, *
    1331                    ;*                           B30,B31                                          *
    1332                    ;*   Regs Used         : A0,A1,A2,A3,A4,A5,A6,A7,A8,A9,A10,A11,A16,A17,A18,   *
    1333                    ;*                           A19,A20,A21,A22,A23,A24,A25,A26,A27,A28,A29,A30, *
    1334                    ;*                           A31,B0,B1,B2,B3,B4,B5,B6,B7,B8,B9,B10,DP,SP,B16, *
    1335                    ;*                           B17,B18,B19,B20,B21,B22,B23,B24,B25,B26,B27,B28, *
    1336                    ;*                           B29,B30,B31                                      *
    1337                    ;*   Local Frame Size  : 0 Args + 0 Auto + 24 Save = 24 byte                  *
    1338                    ;******************************************************************************
    1339                    LCD_RasterInit:
    1340                    ;** --------------------------------------------------------------------------*
    1341                    $C$DW$155       .dwtag  DW_TAG_variable
    1342                            .dwattr $C$DW$155, DW_AT_name("savePinMux")
    1343                            .dwattr $C$DW$155, DW_AT_TI_symbol_name("savePinMux")
    1344                            .dwattr $C$DW$155, DW_AT_type(*$C$DW$T$154)
    1345                            .dwattr $C$DW$155, DW_AT_location[DW_OP_reg22]
    1346                    
    1347                    $C$DW$156       .dwtag  DW_TAG_variable
    1348                            .dwattr $C$DW$156, DW_AT_name("savePinMux")
    1349                            .dwattr $C$DW$156, DW_AT_TI_symbol_name("savePinMux")
    1350                            .dwattr $C$DW$156, DW_AT_type(*$C$DW$T$154)
    1351                            .dwattr $C$DW$156, DW_AT_location[DW_OP_reg3]
    1352                    
    1353                    $C$DW$157       .dwtag  DW_TAG_variable
    1354                            .dwattr $C$DW$157, DW_AT_name("savePinMux")
    1355                            .dwattr $C$DW$157, DW_AT_TI_symbol_name("savePinMux")
    1356                            .dwattr $C$DW$157, DW_AT_type(*$C$DW$T$154)
    1357                            .dwattr $C$DW$157, DW_AT_location[DW_OP_reg3]
    1358                    
    1359                    $C$DW$158       .dwtag  DW_TAG_variable
    1360                            .dwattr $C$DW$158, DW_AT_name("LCDCClock")
    1361                            .dwattr $C$DW$158, DW_AT_TI_symbol_name("LCDCClock")
    1362                            .dwattr $C$DW$158, DW_AT_type(*$C$DW$T$1309)
    1363                            .dwattr $C$DW$158, DW_AT_location[DW_OP_reg10]
    1364                    
    1365                            .dwcfi  cfa_offset, 0
    1366                    ;** --------------------------------------------------------------------------*
    1367                    
    1368 000001c4 053c54f7             STW     .D2T2   B10,*SP++(-8)     ; [B_D64P] |312| 
    1369 000001c8 05208c2a  ||         MVKL    .S2     0x1c14118,B10     ; [B_Sb674] |314| 
    1370                    
    1371                            .dwcfi  cfa_offset, 8
    1372                            .dwcfi  save_reg_to_mem, 26, 0
    1373                            .dwpsn  file "C:/Users/Raz Aloni/OneDrive/School/EEL4924/DSP/C_Libs/MicCheckPeripherals/src/LC
    1374 000001cc 0500e0ea             MVKH    .S2     0x1c14118,B10     ; [B_Sb674] |314| 
    1375 000001d0 01a802e4             LDW     .D2T1   *B10(0),A3        ; [B_D64P] |314| 
TMS320C6x Assembler PC v8.1.3 Thu Apr 20 05:51:10 2017

Tools Copyright (c) 1996-2015 Texas Instruments Incorporated
LCD.asm                                                              PAGE   26

    1376                            .dwpsn  file "C:/Users/Raz Aloni/OneDrive/School/EEL4924/DSP/C_Libs/MicCheckPeripherals/src/LC
    1377 000001d4     8577             STDW    .D2T1   A11:A10,*SP++(-8) ; [B_D64P] |312| 
    1378                            .dwcfi  cfa_offset, 16
    1379                            .dwcfi  save_reg_to_mem, 11, -4
    1380                            .dwcfi  save_reg_to_mem, 10, -8
    1381 000001d6     4646             MV      .L1     A4,A10            ; [A_L674] |312| 
    1382                            .dwpsn  file "C:/Users/Raz Aloni/OneDrive/School/EEL4924/DSP/C_Libs/MicCheckPeripherals/src/LC
    1383 000001d8 02380028             MVKL    .S1     0x1e27000,A4      ; [A_S674] |317| 
    1384 000001e0 0200082a             MVK     .S2     0x10,B4           ; [B_Sb674] |317| 
    1385                            .dwpsn  file "C:/Users/Raz Aloni/OneDrive/School/EEL4924/DSP/C_Libs/MicCheckPeripherals/src/LC
    1386 000001e4 018c8408             EXTU    .S1     A3,4,4,A3         ; [A_S674] |314| 
    1387                            .dwpsn  file "C:/Users/Raz Aloni/OneDrive/School/EEL4924/DSP/C_Libs/MicCheckPeripherals/src/LC
    1388                    $C$DW$159       .dwtag  DW_TAG_TI_branch
    1389                            .dwattr $C$DW$159, DW_AT_low_pc(0x0c)
    1390                            .dwattr $C$DW$159, DW_AT_name("PSCModuleControl")
    1391                            .dwattr $C$DW$159, DW_AT_TI_call
    1392                    
    1393                    
    1394 000001e8 01a802f5             STW     .D2T1   A3,*B10(0)        ; [B_D64P] |314| 
    1395 000001ec 0200f169  ||         MVKH    .S1     0x1e27000,A4      ; [A_S674] |317| 
    1396 000001f0     75c6  ||         MV      .L1X    B3,A11            ; [A_L674] |312| 
    1397 000001f4 10000013! ||         CALLP   .S2     PSCModuleControl,B3 ; [B_Sb674] |317| 
    1398 000001f2     1b76  ||         ZERO    .D1     A6                ; [A_D64P] |317| 
    1399 000001f8 030ca35a  ||         MVK     .L2     3,B6              ; [B_L674] |317| 
    1400                    
    1401                            .dwcfi  save_reg_to_reg, 19, 11
    1402                            .dwpsn  file "C:/Users/Raz Aloni/OneDrive/School/EEL4924/DSP/C_Libs/MicCheckPeripherals/src/LC
    1403 00000200           $C$RL38:   ; CALLP OCCURS {PSCModuleControl} {0}  ; [] |317| 
    1404 00000200 02a93ec2             ADDAD   .D2     B10,9,B5          ; [B_D64P] 
    1405                            .dwpsn  file "C:/Users/Raz Aloni/OneDrive/School/EEL4924/DSP/C_Libs/MicCheckPeripherals/src/LC
    1406 00000204 019402e4             LDW     .D2T1   *B5(0),A3         ; [B_D64P] |169| 
    1407                            .dwpsn  file "C:/Users/Raz Aloni/OneDrive/School/EEL4924/DSP/C_Libs/MicCheckPeripherals/src/LC
    1408 00000208 02910028             MVKL    .S1     0x22222200,A5     ; [A_S674] |182| 
    1409 0000020c 02911168             MVKH    .S1     0x22222200,A5     ; [A_S674] |182| 
    1410 00000210     4233             MVK     .S2     34,B4             ; [B_Sb674] 
    1411 00000212     96c0             ADD     .L1X    4,B5,A4           ; [A_L674] 
    1412                            .dwpsn  file "C:/Users/Raz Aloni/OneDrive/School/EEL4924/DSP/C_Libs/MicCheckPeripherals/src/LC
    1413 00000214 018f1808             EXTU    .S1     A3,24,24,A3       ; [A_S674] |169| 
    1414                            .dwpsn  file "C:/Users/Raz Aloni/OneDrive/School/EEL4924/DSP/C_Libs/MicCheckPeripherals/src/LC
    1415 00000218 018caff8             OR      .L1     A5,A3,A3          ; [A_L674] |182| 
    1416 00000220     00b5             STW     .D2T1   A3,*B5(0)         ; [B_D64P] |182| 
    1417                            .dwpsn  file "C:/Users/Raz Aloni/OneDrive/School/EEL4924/DSP/C_Libs/MicCheckPeripherals/src/LC
    1418                    
    1419 00000222     92c1             ADD     .L2X    B4,A5,B4          ; [B_L674] 
    1420 00000224     003c  ||         LDW     .D1T1   *A4(0),A3         ; [A_D64P] |190| 
    1421                    
    1422                            .dwpsn  file "C:/Users/Raz Aloni/OneDrive/School/EEL4924/DSP/C_Libs/MicCheckPeripherals/src/LC
    1423                    
    1424 00000226     1044             STW     .D1T2   B4,*A4(0)         ; [A_D64P] |204| 
    1425 00000228     06e1  ||         ADD     .L2     8,B5,B6           ; [B_L674] 
    1426                    
    1427                            .dwpsn  file "C:/Users/Raz Aloni/OneDrive/School/EEL4924/DSP/C_Libs/MicCheckPeripherals/src/LC
    1428 0000022a     013d             LDW     .D2T1   *B6(0),A3         ; [B_D64P] |212| 
    1429                            .dwpsn  file "C:/Users/Raz Aloni/OneDrive/School/EEL4924/DSP/C_Libs/MicCheckPeripherals/src/LC
    1430 0000022c 0200112a             MVKL    .S2     0x2000022,B4      ; [B_Sb674] |221| 
TMS320C6x Assembler PC v8.1.3 Thu Apr 20 05:51:10 2017

Tools Copyright (c) 1996-2015 Texas Instruments Incorporated
LCD.asm                                                              PAGE   27

    1431                            .dwpsn  file "C:/Users/Raz Aloni/OneDrive/School/EEL4924/DSP/C_Libs/MicCheckPeripherals/src/LC
    1432 00000230 02ff8028             MVKL    .S1     0xf0ffff00,A5     ; [A_S674] |212| 
    1433                            .dwpsn  file "C:/Users/Raz Aloni/OneDrive/School/EEL4924/DSP/C_Libs/MicCheckPeripherals/src/LC
    1434 00000234 0201006a             MVKH    .S2     0x2000022,B4      ; [B_Sb674] |221| 
    1435                            .dwpsn  file "C:/Users/Raz Aloni/OneDrive/School/EEL4924/DSP/C_Libs/MicCheckPeripherals/src/LC
    1436 00000238 02f87fe8             MVKH    .S1     0xf0ffff00,A5     ; [A_S674] |212| 
    1437                    
    1438 00000240 018ca7e1             AND     .S1     A5,A3,A3          ; [A_S674] |212| 
    1439 00000244 02151058  ||         ADD     .L1X    8,B5,A4           ; [A_L674] 
    1440                    
    1441                            .dwpsn  file "C:/Users/Raz Aloni/OneDrive/School/EEL4924/DSP/C_Libs/MicCheckPeripherals/src/LC
    1442 00000248 01907ff8             OR      .L1X    B4,A3,A3          ; [A_L674] |221| 
    1443                    
    1444 00000250     0034             STW     .D1T1   A3,*A4(0)         ; [A_D64P] |221| 
    1445 0000024c 0295805b  ||         ADD     .L2     12,B5,B5          ; [B_L674] 
    1446                    
    1447                            .dwpsn  file "C:/Users/Raz Aloni/OneDrive/School/EEL4924/DSP/C_Libs/MicCheckPeripherals/src/LC
    1448 00000252     10fd             LDW     .D2T2   *B5(0),B7         ; [B_D64P] |230| 
    1449 00000254 03141fda             MV      .L2X    A5,B6             ; [B_L674] |230| 
    1450                            .dwpsn  file "C:/Users/Raz Aloni/OneDrive/School/EEL4924/DSP/C_Libs/MicCheckPeripherals/src/LC
    1451 00000258 02180028             MVKL    .S1     0x1e13000,A4      ; [A_S674] |323| 
    1452 00000260 0200f0e8             MVKH    .S1     0x1e13000,A4      ; [A_S674] |323| 
    1453 00000264 00000000             NOP             1                 ; [A_L674] 
    1454                            .dwpsn  file "C:/Users/Raz Aloni/OneDrive/School/EEL4924/DSP/C_Libs/MicCheckPeripherals/src/LC
    1455 00000268 031ccf7a             AND     .L2     B6,B7,B6          ; [B_L674] |230| 
    1456                            .dwpsn  file "C:/Users/Raz Aloni/OneDrive/School/EEL4924/DSP/C_Libs/MicCheckPeripherals/src/LC
    1457 0000026c 02188ffa             OR      .L2     B4,B6,B4          ; [B_L674] |239| 
    1458                    $C$DW$160       .dwtag  DW_TAG_TI_branch
    1459                            .dwattr $C$DW$160, DW_AT_low_pc(0x00)
    1460                            .dwattr $C$DW$160, DW_AT_name("RasterDisable")
    1461                            .dwattr $C$DW$160, DW_AT_TI_call
    1462                    
    1463                    
    1464 00000270 10000013!            CALLP   .S2     RasterDisable,B3  ; [B_Sb674] |323| 
    1465 00000274 021402f6  ||         STW     .D2T2   B4,*B5(0)         ; [B_D64P] |239| 
    1466                    
    1467                            .dwpsn  file "C:/Users/Raz Aloni/OneDrive/School/EEL4924/DSP/C_Libs/MicCheckPeripherals/src/LC
    1468 00000278           $C$RL40:   ; CALLP OCCURS {RasterDisable} {0}  ; [] |323| 
    1469                            .dwpsn  file "C:/Users/Raz Aloni/OneDrive/School/EEL4924/DSP/C_Libs/MicCheckPeripherals/src/LC
    1470 00000278 022a202a             MVKL    .S2     0x895440,B4       ; [B_Sb674] |326| 
    1471                    
    1472 0000027c 02180029             MVKL    .S1     0x1e13000,A4      ; [A_S674] |326| 
    1473 00000280 020044ea  ||         MVKH    .S2     0x895440,B4       ; [B_Sb674] |326| 
    1474                    
    1475                    $C$DW$161       .dwtag  DW_TAG_TI_branch
    1476                            .dwattr $C$DW$161, DW_AT_low_pc(0x08)
    1477                            .dwattr $C$DW$161, DW_AT_name("RasterClkConfig")
    1478                            .dwattr $C$DW$161, DW_AT_TI_call
    1479                    
    1480                    
    1481 00000284 0200f0e9             MVKH    .S1     0x1e13000,A4      ; [A_S674] |326| 
    1482 0000028c 03280fd8  ||         MV      .L1     A10,A6            ; [A_L674] |326| 
    1483 00000288 10000013! ||         CALLP   .S2     RasterClkConfig,B3 ; [B_Sb674] |326| 
    1484                    
    1485 00000290           $C$RL42:   ; CALLP OCCURS {RasterClkConfig} {0}  ; [] |326| 
TMS320C6x Assembler PC v8.1.3 Thu Apr 20 05:51:10 2017

Tools Copyright (c) 1996-2015 Texas Instruments Incorporated
LCD.asm                                                              PAGE   28

    1486                            .dwpsn  file "C:/Users/Raz Aloni/OneDrive/School/EEL4924/DSP/C_Libs/MicCheckPeripherals/src/LC
    1487 00000290 02180028             MVKL    .S1     0x1e13000,A4      ; [A_S674] |329| 
    1488 00000294     0352             MVK     .S1     0x40,A6           ; [A_S674] |329| 
    1489                    $C$DW$162       .dwtag  DW_TAG_TI_branch
    1490                            .dwattr $C$DW$162, DW_AT_low_pc(0x04)
    1491                            .dwattr $C$DW$162, DW_AT_name("RasterDMAConfig")
    1492                            .dwattr $C$DW$162, DW_AT_TI_call
    1493                    
    1494                    
    1495 000002a0 0200f0e9             MVKH    .S1     0x1e13000,A4      ; [A_S674] |329| 
    1496 00000298 10000013! ||         CALLP   .S2     RasterDMAConfig,B3 ; [B_Sb674] |329| 
    1497 00000296     0727  ||         ZERO    .L2     B6                ; [B_L674] |329| 
    1498 000002a8 02000042  ||         ZERO    .D2     B4                ; [B_D64P] |329| 
    1499 000002a4 0400a359  ||         ZERO    .L1     A8                ; [A_L674] |329| 
    1500                    
    1501 000002ac           $C$RL44:   ; CALLP OCCURS {RasterDMAConfig} {0}  ; [] |329| 
    1502                            .dwpsn  file "C:/Users/Raz Aloni/OneDrive/School/EEL4924/DSP/C_Libs/MicCheckPeripherals/src/LC
    1503                    
    1504 000002ac 02180029             MVKL    .S1     0x1e13000,A4      ; [A_S674] |332| 
    1505 000002b0     0613  ||         MVK     .S2     0x80,B4           ; [B_Sb674] |332| 
    1506                    
    1507                    $C$DW$163       .dwtag  DW_TAG_TI_branch
    1508                            .dwattr $C$DW$163, DW_AT_low_pc(0x04)
    1509                            .dwattr $C$DW$163, DW_AT_name("RasterModeConfig")
    1510                            .dwattr $C$DW$163, DW_AT_TI_call
    1511                    
    1512                    
    1513 000002b8 0200f0e9             MVKH    .S1     0x1e13000,A4      ; [A_S674] |332| 
    1514 000002b4 10000013! ||         CALLP   .S2     RasterModeConfig,B3 ; [B_Sb674] |332| 
    1515 000002b2     0727  ||         ZERO    .L2     B6                ; [B_L674] |332| 
    1516 000002c0 0400a359  ||         ZERO    .L1     A8                ; [A_L674] |332| 
    1517 000002c4 03000040  ||         ZERO    .D1     A6                ; [A_D64P] |332| 
    1518                    
    1519 000002c8           $C$RL46:   ; CALLP OCCURS {RasterModeConfig} {0}  ; [] |332| 
    1520                            .dwpsn  file "C:/Users/Raz Aloni/OneDrive/School/EEL4924/DSP/C_Libs/MicCheckPeripherals/src/LC
    1521 000002c8 02180028             MVKL    .S1     0x1e13000,A4      ; [A_S674] |335| 
    1522                    $C$DW$164       .dwtag  DW_TAG_TI_branch
    1523                            .dwattr $C$DW$164, DW_AT_low_pc(0x04)
    1524                            .dwattr $C$DW$164, DW_AT_name("RasterLSBDataOrderSelect")
    1525                            .dwattr $C$DW$164, DW_AT_TI_call
    1526                    
    1527                    
    1528 000002cc 0200f0e9             MVKH    .S1     0x1e13000,A4      ; [A_S674] |335| 
    1529 000002d0 10000012! ||         CALLP   .S2     RasterLSBDataOrderSelect,B3 ; [B_Sb674] |335| 
    1530                    
    1531 000002d4           $C$RL48:   ; CALLP OCCURS {RasterLSBDataOrderSelect} {0}  ; [] |335| 
    1532                            .dwpsn  file "C:/Users/Raz Aloni/OneDrive/School/EEL4924/DSP/C_Libs/MicCheckPeripherals/src/LC
    1533 000002d4 02180028             MVKL    .S1     0x1e13000,A4      ; [A_S674] |338| 
    1534                    $C$DW$165       .dwtag  DW_TAG_TI_branch
    1535                            .dwattr $C$DW$165, DW_AT_low_pc(0x04)
    1536                            .dwattr $C$DW$165, DW_AT_name("RasterNibbleModeDisable")
    1537                            .dwattr $C$DW$165, DW_AT_TI_call
    1538                    
    1539                    
    1540 000002d8 0200f0e9             MVKH    .S1     0x1e13000,A4      ; [A_S674] |338| 
TMS320C6x Assembler PC v8.1.3 Thu Apr 20 05:51:10 2017

Tools Copyright (c) 1996-2015 Texas Instruments Incorporated
LCD.asm                                                              PAGE   29

    1541 000002dc 10000012! ||         CALLP   .S2     RasterNibbleModeDisable,B3 ; [B_Sb674] |338| 
    1542                    
    1543 000002e0           $C$RL50:   ; CALLP OCCURS {RasterNibbleModeDisable} {0}  ; [] |338| 
    1544                            .dwpsn  file "C:/Users/Raz Aloni/OneDrive/School/EEL4924/DSP/C_Libs/MicCheckPeripherals/src/LC
    1545                    
    1546 000002e0     0627             ZERO    .L2     B4                ; [B_L674] |349| 
    1547 000002e2     ff73  ||         MVK     .S2     0xff,B6           ; [B_Sb674] |349| 
    1548                    
    1549 000002e4 02180029             MVKL    .S1     0x1e13000,A4      ; [A_S674] |349| 
    1550 000002e8 0201186a  ||         MVKH    .S2     0x2300000,B4      ; [B_Sb674] |349| 
    1551                    
    1552                    $C$DW$166       .dwtag  DW_TAG_TI_branch
    1553                            .dwattr $C$DW$166, DW_AT_low_pc(0x04)
    1554                            .dwattr $C$DW$166, DW_AT_name("RasterTiming2Configure")
    1555                            .dwattr $C$DW$166, DW_AT_TI_call
    1556                    
    1557                    
    1558 000002ec 0200f0e9             MVKH    .S1     0x1e13000,A4      ; [A_S674] |349| 
    1559 000002f0 10000013! ||         CALLP   .S2     RasterTiming2Configure,B3 ; [B_Sb674] |349| 
    1560 000002f4     0726  ||         ZERO    .L1     A6                ; [A_L674] |349| 
    1561                    
    1562 000002f6           $C$RL52:   ; CALLP OCCURS {RasterTiming2Configure} {0}  ; [] |349| 
    1563                            .dwpsn  file "C:/Users/Raz Aloni/OneDrive/School/EEL4924/DSP/C_Libs/MicCheckPeripherals/src/LC
    1564                    
    1565 000002f6     4727             MVK     .L2     2,B6              ; [B_L674] |352| 
    1566 000002f8 02180028  ||         MVKL    .S1     0x1e13000,A4      ; [A_S674] |352| 
    1567                    
    1568 00000300 0200f02b             MVK     .S2     0x1e0,B4          ; [B_Sb674] |352| 
    1569 00000304     2b32  ||         MVK     .S1     0x29,A6           ; [A_S674] |352| 
    1570                    
    1571                    $C$DW$167       .dwtag  DW_TAG_TI_branch
    1572                            .dwattr $C$DW$167, DW_AT_low_pc(0x08)
    1573                            .dwattr $C$DW$167, DW_AT_name("RasterHparamConfig")
    1574                            .dwattr $C$DW$167, DW_AT_TI_call
    1575                    
    1576                    
    1577 00000306     1746             MV      .L1X    B6,A8             ; [A_L674] |352| 
    1578 00000308 0200f0e9  ||         MVKH    .S1     0x1e13000,A4      ; [A_S674] |352| 
    1579 0000030c 10000012! ||         CALLP   .S2     RasterHparamConfig,B3 ; [B_Sb674] |352| 
    1580                    
    1581 00000310           $C$RL54:   ; CALLP OCCURS {RasterHparamConfig} {0}  ; [] |352| 
    1582                            .dwpsn  file "C:/Users/Raz Aloni/OneDrive/School/EEL4924/DSP/C_Libs/MicCheckPeripherals/src/LC
    1583 00000310 0308a35a             MVK     .L2     2,B6              ; [B_L674] |355| 
    1584                    
    1585 00000314 02180029             MVKL    .S1     0x1e13000,A4      ; [A_S674] |355| 
    1586 00000318 0200882a  ||         MVK     .S2     0x110,B4          ; [B_Sb674] |355| 
    1587                    
    1588                    $C$DW$168       .dwtag  DW_TAG_TI_branch
    1589                            .dwattr $C$DW$168, DW_AT_low_pc(0x08)
    1590                            .dwattr $C$DW$168, DW_AT_name("RasterVparamConfig")
    1591                            .dwattr $C$DW$168, DW_AT_TI_call
    1592                    
    1593                    
    1594 00000320 04181fd9             MV      .L1X    B6,A8             ; [A_L674] |355| 
    1595 00000324 0200f0e9  ||         MVKH    .S1     0x1e13000,A4      ; [A_S674] |355| 
TMS320C6x Assembler PC v8.1.3 Thu Apr 20 05:51:10 2017

Tools Copyright (c) 1996-2015 Texas Instruments Incorporated
LCD.asm                                                              PAGE   30

    1596 00000328 10000013! ||         CALLP   .S2     RasterVparamConfig,B3 ; [B_Sb674] |355| 
    1597 0000032c 03014040  ||         MVK     .D1     10,A6             ; [A_D64P] |355| 
    1598                    
    1599 00000330           $C$RL56:   ; CALLP OCCURS {RasterVparamConfig} {0}  ; [] |355| 
    1600                            .dwpsn  file "C:/Users/Raz Aloni/OneDrive/School/EEL4924/DSP/C_Libs/MicCheckPeripherals/src/LC
    1601 00000330 02180028             MVKL    .S1     0x1e13000,A4      ; [A_S674] |358| 
    1602                    $C$DW$169       .dwtag  DW_TAG_TI_branch
    1603                            .dwattr $C$DW$169, DW_AT_low_pc(0x04)
    1604                            .dwattr $C$DW$169, DW_AT_name("RasterFIFODMADelayConfig")
    1605                            .dwattr $C$DW$169, DW_AT_TI_call
    1606                    
    1607                    
    1608 00000334 0200f0e9             MVKH    .S1     0x1e13000,A4      ; [A_S674] |358| 
    1609 00000338 10000013! ||         CALLP   .S2     RasterFIFODMADelayConfig,B3 ; [B_Sb674] |358| 
    1610 0000033c 0200a35a  ||         ZERO    .L2     B4                ; [B_L674] |358| 
    1611                    
    1612 00000340           $C$RL58:   ; CALLP OCCURS {RasterFIFODMADelayConfig} {0}  ; [] |358| 
    1613                            .dwpsn  file "C:/Users/Raz Aloni/OneDrive/School/EEL4924/DSP/C_Libs/MicCheckPeripherals/src/LC
    1614 00000340 02fe0f2a             MVKL    .S2     0x3fc1e,B5        ; [B_Sb674] |361| 
    1615 00000344 028001ea             MVKH    .S2     0x3fc1e,B5        ; [B_Sb674] |361| 
    1616 00000348 0500002a!            MVKL    .S2     FrameBuffer,B10   ; [B_Sb674] |361| 
    1617 0000034c 0500006a!            MVKH    .S2     FrameBuffer,B10   ; [B_Sb674] |361| 
    1618 00000350 02a8a07a             ADD     .L2     B5,B10,B5         ; [B_L674] |361| 
    1619 00000354 02180028             MVKL    .S1     0x1e13000,A4      ; [A_S674] |361| 
    1620                    $C$DW$170       .dwtag  DW_TAG_TI_branch
    1621                            .dwattr $C$DW$170, DW_AT_low_pc(0x0c)
    1622                            .dwattr $C$DW$170, DW_AT_name("RasterDMAFBConfig")
    1623                            .dwattr $C$DW$170, DW_AT_TI_call
    1624                    
    1625                    
    1626 00000358     d2c6             MV      .L1X    B5,A6             ; [A_L674] |361| 
    1627 0000035a     8507  ||         MV      .L2     B10,B4            ; [B_L674] |361| 
    1628 00000360 0200f0e9  ||         MVKH    .S1     0x1e13000,A4      ; [A_S674] |361| 
    1629 00000364 10000013! ||         CALLP   .S2     RasterDMAFBConfig,B3 ; [B_Sb674] |361| 
    1630 00000368 03000042  ||         ZERO    .D2     B6                ; [B_D64P] |361| 
    1631                    
    1632 0000036c           $C$RL60:   ; CALLP OCCURS {RasterDMAFBConfig} {0}  ; [] |361| 
    1633                            .dwpsn  file "C:/Users/Raz Aloni/OneDrive/School/EEL4924/DSP/C_Libs/MicCheckPeripherals/src/LC
    1634                    
    1635 0000036c 02180029             MVKL    .S1     0x1e13000,A4      ; [A_S674] |364| 
    1636 00000370 0200102a  ||         MVK     .S2     0x20,B4           ; [B_Sb674] |364| 
    1637                    
    1638                    $C$DW$171       .dwtag  DW_TAG_TI_branch
    1639                            .dwattr $C$DW$171, DW_AT_low_pc(0x04)
    1640                            .dwattr $C$DW$171, DW_AT_name("RasterIntEnable")
    1641                            .dwattr $C$DW$171, DW_AT_TI_call
    1642                    
    1643                    
    1644 00000374 0200f0e9             MVKH    .S1     0x1e13000,A4      ; [A_S674] |364| 
    1645 00000378 10000012! ||         CALLP   .S2     RasterIntEnable,B3 ; [B_Sb674] |364| 
    1646                    
    1647 0000037c           $C$RL62:   ; CALLP OCCURS {RasterIntEnable} {0}  ; [] |364| 
    1648                            .dwpsn  file "C:/Users/Raz Aloni/OneDrive/School/EEL4924/DSP/C_Libs/MicCheckPeripherals/src/LC
    1649 0000037c 02180028             MVKL    .S1     0x1e13000,A4      ; [A_S674] |367| 
    1650                    $C$DW$172       .dwtag  DW_TAG_TI_branch
TMS320C6x Assembler PC v8.1.3 Thu Apr 20 05:51:10 2017

Tools Copyright (c) 1996-2015 Texas Instruments Incorporated
LCD.asm                                                              PAGE   31

    1651                            .dwattr $C$DW$172, DW_AT_low_pc(0x04)
    1652                            .dwattr $C$DW$172, DW_AT_name("RasterEnable")
    1653                            .dwattr $C$DW$172, DW_AT_TI_call
    1654                    
    1655                    
    1656 00000380 0200f0e9             MVKH    .S1     0x1e13000,A4      ; [A_S674] |367| 
    1657 00000384 10000012! ||         CALLP   .S2     RasterEnable,B3   ; [B_Sb674] |367| 
    1658                    
    1659 00000388           $C$RL64:   ; CALLP OCCURS {RasterEnable} {0}  ; [] |367| 
    1660                            .dwpsn  file "C:/Users/Raz Aloni/OneDrive/School/EEL4924/DSP/C_Libs/MicCheckPeripherals/src/LC
    1661 00000388     4627             MVK     .L2     2,B4              ; [B_L674] |370| 
    1662                    
    1663 0000038a     da6f             MVC     .S2     B4,ILC            ; [B_Sb674] 
    1664 0000038c 01800028! ||         MVKL    .S1     Pallete,A3        ; [A_S674] 
    1665                    
    1666                    ;*----------------------------------------------------------------------------*
    1667                    ;*   SOFTWARE PIPELINE INFORMATION
    1668                    ;*
    1669                    ;*      Loop found in file               : C:/Users/Raz Aloni/OneDrive/School/EEL4924/DSP/C_Libs/MicCh
    1670                    ;*      Loop source line                 : 370
    1671                    ;*      Loop opening brace source line   : 371
    1672                    ;*      Loop closing brace source line   : 373
    1673                    ;*      Loop Unroll Multiple             : 4x
    1674                    ;*      Known Minimum Trip Count         : 4                    
    1675                    ;*      Known Maximum Trip Count         : 4                    
    1676                    ;*      Known Max Trip Count Factor      : 4
    1677                    ;*      Loop Carried Dependency Bound(^) : 0
    1678                    ;*      Unpartitioned Resource Bound     : 1
    1679                    ;*      Partitioned Resource Bound(*)    : 2
    1680                    ;*      Resource Partition:
    1681                    ;*                                A-side   B-side
    1682                    ;*      .L units                     0        0     
    1683                    ;*      .S units                     0        0     
    1684                    ;*      .D units                     1*       1*    
    1685                    ;*      .M units                     0        0     
    1686                    ;*      .X cross paths               0        2     
    1687                    ;*      .T address paths             1        1     
    1688                    ;*      Logical  ops (.LS)           0        0     (.L or .S unit)
    1689                    ;*      Addition ops (.LSD)          0        2     (.L or .S or .D unit)
    1690                    ;*      Bound(.L .S .LS)             0        0     
    1691                    ;*      Bound(.L .S .D .LS .LSD)     1*       1*    
    1692                    ;*
    1693                    ;*      Searching for software pipeline schedule at ...
    1694                    ;*         ii = 2  Schedule found with 4 iterations in parallel
    1695                    ;*      Done
    1696                    ;*
    1697                    ;*      Loop will be splooped
    1698                    ;*      Collapsed epilog stages       : 0
    1699                    ;*      Collapsed prolog stages       : 0
    1700                    ;*      Minimum required memory pad   : 0 bytes
    1701                    ;*
    1702                    ;*      Minimum safe trip count       : 1 (after unrolling)
    1703                    ;*----------------------------------------------------------------------------*
    1704 00000390           $C$L1:    ; PIPED LOOP PROLOG
    1705                    
TMS320C6x Assembler PC v8.1.3 Thu Apr 20 05:51:10 2017

Tools Copyright (c) 1996-2015 Texas Instruments Incorporated
LCD.asm                                                              PAGE   32

    1706 00000390 0083a001             SPLOOPD         2                 ;8 ; [A_L674] (P) 
    1707 00000394 01800068! ||         MVKH    .S1     Pallete,A3        ; [A_S674] 
    1708                    
    1709                    ;** --------------------------------------------------------------------------*
    1710 00000398           $C$L2:    ; PIPED LOOP KERNEL
    1711                            .dwpsn  file "C:/Users/Raz Aloni/OneDrive/School/EEL4924/DSP/C_Libs/MicCheckPeripherals/src/LC
    1712 00000398 020c3764             LDDW    .D1T1   *A3++(8),A5:A4    ; [A_D64P] |372| (P) <0,0> 
    1713 0000039c 00000000             NOP             4                 ; [A_L674] 
    1714                            .dwpsn  file "C:/Users/Raz Aloni/OneDrive/School/EEL4924/DSP/C_Libs/MicCheckPeripherals/src/LC
    1715                    
    1716 000003a0     2e66             SPMASK                            ; [] 
    1717 000003a2     c50f  ||^        MV      .S2     B10,B6            ; [B_Sb674] |361| 
    1718 000003a4     b2c7  ||         MV      .L2X    A5,B5             ; [B_L674] |372| (P) <0,5> Define a twin register
    1719                    
    1720                            .dwpsn  file "C:/Users/Raz Aloni/OneDrive/School/EEL4924/DSP/C_Libs/MicCheckPeripherals/src/LC
    1721 000003a6     9247             MV      .L2X    A4,B4             ; [B_L674] |372| <0,6> Define a twin register
    1722                    
    1723 000003a8     9c66             SPKERNEL        2,0               ; [] NOP possibly not pulled into SPKERNEL due to potenti
    1724 000003aa     1d45  ||         STDW    .D2T2   B5:B4,*B6++(8)    ; [B_D64P] |372| <0,7> 
    1725                    
    1726                    ;** --------------------------------------------------------------------------*
    1727 000003ac           $C$L3:    ; PIPED LOOP EPILOG
    1728 000003ac     0c6e             NOP             1                 ; [A_L674] 
    1729                            .dwpsn  file "C:/Users/Raz Aloni/OneDrive/School/EEL4924/DSP/C_Libs/MicCheckPeripherals/src/LC
    1730 000003ae     7587             MV      .L2X    A11,B3            ; [B_L674] |374| 
    1731                            .dwcfi  restore_reg, 19
    1732                    ;** --------------------------------------------------------------------------*
    1733                    $C$DW$173       .dwtag  DW_TAG_TI_branch
    1734                            .dwattr $C$DW$173, DW_AT_low_pc(0x04)
    1735                            .dwattr $C$DW$173, DW_AT_TI_return
    1736                    
    1737                    
    1738 000003b0     c577             LDDW    .D2T1   *++SP(8),A11:A10  ; [B_D64P] |374| 
    1739 000003b2     01ef  ||         RET     .S2     B3                ; [B_Sb674] |374| 
    1740                    
    1741                            .dwcfi  cfa_offset, 8
    1742                            .dwcfi  restore_reg, 11
    1743                            .dwcfi  restore_reg, 10
    1744 000003b4     7577             LDW     .D2T2   *++SP(8),B10      ; [B_D64P] |374| 
    1745                            .dwcfi  cfa_offset, 0
    1746                            .dwcfi  restore_reg, 26
    1747 000003b6     6c6e             NOP             4                 ; [A_L674] 
    1748                               ; BRANCH OCCURS {B3}              ; [] |374| 
    1749                            .dwattr $C$DW$153, DW_AT_TI_end_file("C:/Users/Raz Aloni/OneDrive/School/EEL4924/DSP/C_Libs/Mi
    1750                            .dwattr $C$DW$153, DW_AT_TI_end_line(0x176)
    1751                            .dwattr $C$DW$153, DW_AT_TI_end_column(0x01)
    1752                            .dwendentry
    1753                            .dwendtag $C$DW$153
    1754                    
    1755 000003c0                   .sect   ".text"
    1756                            .clink
    1757                            .global LCD_GpioInit
    1758                    
    1759                    $C$DW$174       .dwtag  DW_TAG_subprogram
    1760                            .dwattr $C$DW$174, DW_AT_name("LCD_GpioInit")
TMS320C6x Assembler PC v8.1.3 Thu Apr 20 05:51:10 2017

Tools Copyright (c) 1996-2015 Texas Instruments Incorporated
LCD.asm                                                              PAGE   33

    1761                            .dwattr $C$DW$174, DW_AT_low_pc(LCD_GpioInit)
    1762                            .dwattr $C$DW$174, DW_AT_high_pc(0x00)
    1763                            .dwattr $C$DW$174, DW_AT_TI_symbol_name("LCD_GpioInit")
    1764                            .dwattr $C$DW$174, DW_AT_external
    1765                            .dwattr $C$DW$174, DW_AT_TI_begin_file("C:/Users/Raz Aloni/OneDrive/School/EEL4924/DSP/C_Libs/
    1766                            .dwattr $C$DW$174, DW_AT_TI_begin_line(0x223)
    1767                            .dwattr $C$DW$174, DW_AT_TI_begin_column(0x06)
    1768                            .dwattr $C$DW$174, DW_AT_decl_file("C:/Users/Raz Aloni/OneDrive/School/EEL4924/DSP/C_Libs/MicC
    1769                            .dwattr $C$DW$174, DW_AT_decl_line(0x223)
    1770                            .dwattr $C$DW$174, DW_AT_decl_column(0x06)
    1771                            .dwattr $C$DW$174, DW_AT_TI_max_frame_size(0x30)
    1772                            .dwpsn  file "C:/Users/Raz Aloni/OneDrive/School/EEL4924/DSP/C_Libs/MicCheckPeripherals/src/LC
    1773                    
    1774                            .dwfde $C$DW$CIE, LCD_GpioInit
    1775                    $C$DW$175       .dwtag  DW_TAG_formal_parameter
    1776                            .dwattr $C$DW$175, DW_AT_name("masterMode")
    1777                            .dwattr $C$DW$175, DW_AT_TI_symbol_name("masterMode")
    1778                            .dwattr $C$DW$175, DW_AT_type(*$C$DW$T$881)
    1779                            .dwattr $C$DW$175, DW_AT_location[DW_OP_reg4]
    1780                    
    1781                    
    1782                    ;******************************************************************************
    1783                    ;* FUNCTION NAME: LCD_GpioInit                                                *
    1784                    ;*                                                                            *
    1785                    ;*   Regs Modified     : A0,A1,A2,A3,A4,A5,A6,A7,A8,A9,A10,A11,A12,A13,A14,   *
    1786                    ;*                           A16,A17,A18,A19,A20,A21,A22,A23,A24,A25,A26,A27, *
    1787                    ;*                           A28,A29,A30,A31,B0,B1,B2,B3,B4,B5,B6,B7,B8,B9,   *
    1788                    ;*                           B10,B11,B12,B13,SP,B16,B17,B18,B19,B20,B21,B22,  *
    1789                    ;*                           B23,B24,B25,B26,B27,B28,B29,B30,B31              *
    1790                    ;*   Regs Used         : A0,A1,A2,A3,A4,A5,A6,A7,A8,A9,A10,A11,A12,A13,A14,   *
    1791                    ;*                           A16,A17,A18,A19,A20,A21,A22,A23,A24,A25,A26,A27, *
    1792                    ;*                           A28,A29,A30,A31,B0,B1,B2,B3,B4,B5,B6,B7,B8,B9,   *
    1793                    ;*                           B10,B11,B12,B13,DP,SP,B16,B17,B18,B19,B20,B21,   *
    1794                    ;*                           B22,B23,B24,B25,B26,B27,B28,B29,B30,B31          *
    1795                    ;*   Local Frame Size  : 0 Args + 0 Auto + 48 Save = 48 byte                  *
    1796                    ;******************************************************************************
    1797                    LCD_GpioInit:
    1798                    ;** --------------------------------------------------------------------------*
    1799                    $C$DW$176       .dwtag  DW_TAG_variable
    1800                            .dwattr $C$DW$176, DW_AT_name("masterMode")
    1801                            .dwattr $C$DW$176, DW_AT_TI_symbol_name("masterMode")
    1802                            .dwattr $C$DW$176, DW_AT_type(*$C$DW$T$1144)
    1803                            .dwattr $C$DW$176, DW_AT_location[DW_OP_reg0]
    1804                    
    1805                            .dwcfi  cfa_offset, 0
    1806                    
    1807 000003c0     2777             STW     .D2T1   A14,*SP++(-8)     ; [B_D64P] |548| 
    1808 000003c2     0246  ||         MV      .L1     A4,A0             ; [A_L674] |548| 
    1809 000003c4 02380029  ||         MVKL    .S1     0x1e27000,A4      ; [A_S674] |578| 
    1810 000003c8 07000041  ||         ZERO    .D1     A14               ; [A_D64P] |557| 
    1811 000003cc     6727  ||         MVK     .L2     3,B6              ; [B_L674] |578| 
    1812                            .dwcfi  cfa_offset, 8
    1813                            .dwcfi  save_reg_to_mem, 14, 0
    1814                    
    1815 000003ce     9677             STDW    .D2T2   B13:B12,*SP++(-8) ; [B_D64P] |548| 
TMS320C6x Assembler PC v8.1.3 Thu Apr 20 05:51:10 2017

Tools Copyright (c) 1996-2015 Texas Instruments Incorporated
LCD.asm                                                              PAGE   34

    1816 000003d0 0600442b  ||         MVK     .S2     136,B12           ; [B_Sb674] |558| 
    1817 000003d4 0200f169  ||         MVKH    .S1     0x1e27000,A4      ; [A_S674] |578| 
    1818 000003d8     8347  ||         MV      .L2     B6,B4             ; [B_L674] |578| 
    1819 000003da     0726  ||         ZERO    .L1     A6                ; [A_L674] |578| 
    1820                            .dwcfi  cfa_offset, 16
    1821                            .dwcfi  save_reg_to_mem, 29, -4
    1822                            .dwcfi  save_reg_to_mem, 28, -8
    1823                    
    1824 000003e8     9577             STDW    .D2T2   B11:B10,*SP++(-8) ; [B_D64P] |548| 
    1825 000003e4 05209e2b  ||         MVKL    .S2     0x1c1413c,B10     ; [B_Sb674] |580| 
    1826 000003e0 07004469  ||         MVKH    .S1     0x880000,A14      ; [A_S674] |557| 
    1827                            .dwcfi  cfa_offset, 24
    1828                            .dwcfi  save_reg_to_mem, 27, -12
    1829                            .dwcfi  save_reg_to_mem, 26, -16
    1830                    
    1831 000003ea     8677             STDW    .D2T1   A13:A12,*SP++(-8) ; [B_D64P] |548| 
    1832 000003ec 0500e0ea  ||         MVKH    .S2     0x1c1413c,B10     ; [B_Sb674] |580| 
    1833                            .dwcfi  cfa_offset, 32
    1834                            .dwcfi  save_reg_to_mem, 13, -20
    1835                            .dwcfi  save_reg_to_mem, 12, -24
    1836                    
    1837 000003f0 c0002193     [ A0]   B       .S2     $C$L4             ; [B_Sb674] |549| 
    1838 00000400     8577  ||         STDW    .D2T1   A11:A10,*SP++(-8) ; [B_D64P] |548| 
    1839 000003f8 05801629  ||         MVK     .S1     44,A11            ; [A_S674] 
    1840 000003f4 06a80fdb  ||         MV      .L2     B10,B13           ; [B_L674] |580| 
    1841                    
    1842                            .dwcfi  cfa_offset, 40
    1843                            .dwcfi  save_reg_to_mem, 11, -28
    1844                            .dwcfi  save_reg_to_mem, 10, -32
    1845                    $C$DW$177       .dwtag  DW_TAG_TI_branch
    1846                            .dwattr $C$DW$177, DW_AT_low_pc(0x00)
    1847                            .dwattr $C$DW$177, DW_AT_name("PSCModuleControl")
    1848                            .dwattr $C$DW$177, DW_AT_TI_call
    1849                    
    1850                    
    1851 0000040c d0000010!    [!A0]   CALL    .S1     PSCModuleControl  ; [A_S674] |578| 
    1852 00000404 05a97079  ||         ADD     .L1X    A11,B10,A11       ; [A_L674] 
    1853 00000408 05c4002b  ||         MVKL    .S2     0x88800,B11       ; [B_Sb674] |582| 
    1854 00000402     31f7  ||         STW     .D2T2   B3,*SP++(-8)      ; [B_D64P] |548| 
    1855                    
    1856                            .dwcfi  cfa_offset, 48
    1857                            .dwcfi  save_reg_to_mem, 19, -40
    1858                            .dwpsn  file "C:/Users/Raz Aloni/OneDrive/School/EEL4924/DSP/C_Libs/MicCheckPeripherals/src/LC
    1859                    $C$DW$178       .dwtag  DW_TAG_TI_branch
    1860                            .dwattr $C$DW$178, DW_AT_low_pc(0x04)
    1861                            .dwattr $C$DW$178, DW_AT_name("PSCModuleControl")
    1862                            .dwattr $C$DW$178, DW_AT_TI_call
    1863                    
    1864                    
    1865 00000410 0580046b             MVKH    .S2     0x88800,B11       ; [B_Sb674] |582| 
    1866 00000414 c0000010! || [ A0]   CALL    .S1     PSCModuleControl  ; [A_S674] |554| 
    1867                    
    1868 00000418 062c8058             ADD     .L1     4,A11,A12         ; [A_L674] 
    1869 00000420 0530ddc0             SUBAW   .D1     A12,6,A10         ; [A_D64P] 
    1870 00000424 06a88058             ADD     .L1     4,A10,A13         ; [A_L674] 
TMS320C6x Assembler PC v8.1.3 Thu Apr 20 05:51:10 2017

Tools Copyright (c) 1996-2015 Texas Instruments Incorporated
LCD.asm                                                              PAGE   35

    1871                            .dwpsn  file "C:/Users/Raz Aloni/OneDrive/School/EEL4924/DSP/C_Libs/MicCheckPeripherals/src/LC
    1872                               ; BRANCHCC OCCURS {$C$L4}         ; [] |549| 
    1873                    ;** --------------------------------------------------------------------------*
    1874                            .dwcfi  remember_state
    1875                            .dwpsn  file "C:/Users/Raz Aloni/OneDrive/School/EEL4924/DSP/C_Libs/MicCheckPeripherals/src/LC
    1876 00000428 01830162             ADDKPC  .S2     $C$RL66,B3,0      ; [B_Sb674] |578| 
    1877 0000042c           $C$RL66:   ; CALL OCCURS {PSCModuleControl} {0}  ; [] |578| 
    1878                    ;** --------------------------------------------------------------------------*
    1879                            .dwpsn  file "C:/Users/Raz Aloni/OneDrive/School/EEL4924/DSP/C_Libs/MicCheckPeripherals/src/LC
    1880 0000042c 01a802e4             LDW     .D2T1   *B10(0),A3        ; [B_D64P] |580| 
    1881 00000430 02340fda             MV      .L2     B13,B4            ; [B_L674] |580| 
    1882                            .dwpsn  file "C:/Users/Raz Aloni/OneDrive/School/EEL4924/DSP/C_Libs/MicCheckPeripherals/src/LC
    1883 00000434 02300028             MVKL    .S1     0x1e26000,A4      ; [A_S674] |584| 
    1884 00000438 0200f168             MVKH    .S1     0x1e26000,A4      ; [A_S674] |584| 
    1885 0000043c 0304a358             MVK     .L1     1,A6              ; [A_L674] |584| 
    1886                            .dwpsn  file "C:/Users/Raz Aloni/OneDrive/School/EEL4924/DSP/C_Libs/MicCheckPeripherals/src/LC
    1887 00000440     e9a2             SET     .S1     A3,15,15,A3       ; [A_S674] |580| 
    1888 00000442     0035             STW     .D2T1   A3,*B4(0)         ; [B_D64P] |580| 
    1889                            .dwpsn  file "C:/Users/Raz Aloni/OneDrive/School/EEL4924/DSP/C_Libs/MicCheckPeripherals/src/LC
    1890 00000444 022c0266             LDW     .D1T2   *A11(0),B4        ; [A_D64P] |581| 
    1891 00000448 00000000             NOP             4                 ; [A_L674] 
    1892 00000448 02116b8a             SET     .S2     B4,11,11,B4       ; [B_Sb674] |581| 
    1893 0000044c 022c0276             STW     .D1T2   B4,*A11(0)        ; [A_D64P] |581| 
    1894                            .dwpsn  file "C:/Users/Raz Aloni/OneDrive/School/EEL4924/DSP/C_Libs/MicCheckPeripherals/src/LC
    1895 00000450 02300266             LDW     .D1T2   *A12(0),B4        ; [A_D64P] |582| 
    1896 00000454 00000000             NOP             4                 ; [A_L674] 
    1897 00000454 02116ffa             OR      .L2     B11,B4,B4         ; [B_L674] |582| 
    1898                    
    1899 00000458 02300277             STW     .D1T2   B4,*A12(0)        ; [A_D64P] |582| 
    1900 00000460 02001eaa  ||         MVK     .S2     0x3d,B4           ; [B_Sb674] |584| 
    1901                    
    1902                            .dwpsn  file "C:/Users/Raz Aloni/OneDrive/School/EEL4924/DSP/C_Libs/MicCheckPeripherals/src/LC
    1903                    $C$DW$179       .dwtag  DW_TAG_TI_branch
    1904                            .dwattr $C$DW$179, DW_AT_low_pc(0x00)
    1905                            .dwattr $C$DW$179, DW_AT_name("GPIODirModeSet")
    1906                            .dwattr $C$DW$179, DW_AT_TI_call
    1907                    
    1908 00000464 10000012!            CALLP   .S2     GPIODirModeSet,B3 ; [B_Sb674] |584| 
    1909 00000468           $C$RL68:   ; CALLP OCCURS {GPIODirModeSet} {0}  ; [] |584| 
    1910                            .dwpsn  file "C:/Users/Raz Aloni/OneDrive/School/EEL4924/DSP/C_Libs/MicCheckPeripherals/src/LC
    1911                    
    1912 00000468 02300029             MVKL    .S1     0x1e26000,A4      ; [A_S674] |585| 
    1913 0000046c     a273  ||         MVK     .S2     0x65,B4           ; [B_Sb674] |585| 
    1914                    
    1915                    $C$DW$180       .dwtag  DW_TAG_TI_branch
    1916                            .dwattr $C$DW$180, DW_AT_low_pc(0x04)
    1917                            .dwattr $C$DW$180, DW_AT_name("GPIODirModeSet")
    1918                            .dwattr $C$DW$180, DW_AT_TI_call
    1919                    
    1920                    
    1921 00000474 0200f169             MVKH    .S1     0x1e26000,A4      ; [A_S674] |585| 
    1922 00000470 10000013! ||         CALLP   .S2     GPIODirModeSet,B3 ; [B_Sb674] |585| 
    1923 0000046e     2726  ||         MVK     .L1     1,A6              ; [A_L674] |585| 
    1924                    
    1925 00000480           $C$RL70:   ; CALLP OCCURS {GPIODirModeSet} {0}  ; [] |585| 
TMS320C6x Assembler PC v8.1.3 Thu Apr 20 05:51:10 2017

Tools Copyright (c) 1996-2015 Texas Instruments Incorporated
LCD.asm                                                              PAGE   36

    1926                            .dwpsn  file "C:/Users/Raz Aloni/OneDrive/School/EEL4924/DSP/C_Libs/MicCheckPeripherals/src/LC
    1927                    
    1928 00000480 02300029             MVKL    .S1     0x1e26000,A4      ; [A_S674] |586| 
    1929 00000484     8273  ||         MVK     .S2     0x64,B4           ; [B_Sb674] |586| 
    1930                    
    1931                    $C$DW$181       .dwtag  DW_TAG_TI_branch
    1932                            .dwattr $C$DW$181, DW_AT_low_pc(0x04)
    1933                            .dwattr $C$DW$181, DW_AT_name("GPIODirModeSet")
    1934                            .dwattr $C$DW$181, DW_AT_TI_call
    1935                    
    1936                    
    1937 0000048c 0200f168             MVKH    .S1     0x1e26000,A4      ; [A_S674] |586| 
    1938 00000488 10000013! ||         CALLP   .S2     GPIODirModeSet,B3 ; [B_Sb674] |586| 
    1939 00000486     2726  ||         MVK     .L1     1,A6              ; [A_L674] |586| 
    1940                    
    1941 00000490           $C$RL72:   ; CALLP OCCURS {GPIODirModeSet} {0}  ; [] |586| 
    1942                            .dwpsn  file "C:/Users/Raz Aloni/OneDrive/School/EEL4924/DSP/C_Libs/MicCheckPeripherals/src/LC
    1943                    
    1944 00000490 02300029             MVKL    .S1     0x1e26000,A4      ; [A_S674] |587| 
    1945 00000494     6273  ||         MVK     .S2     0x63,B4           ; [B_Sb674] |587| 
    1946                    
    1947                    $C$DW$182       .dwtag  DW_TAG_TI_branch
    1948                            .dwattr $C$DW$182, DW_AT_low_pc(0x04)
    1949                            .dwattr $C$DW$182, DW_AT_name("GPIODirModeSet")
    1950                            .dwattr $C$DW$182, DW_AT_TI_call
    1951                    
    1952                    
    1953 000004a0 0200f168             MVKH    .S1     0x1e26000,A4      ; [A_S674] |587| 
    1954 00000498 10000013! ||         CALLP   .S2     GPIODirModeSet,B3 ; [B_Sb674] |587| 
    1955 00000496     2726  ||         MVK     .L1     1,A6              ; [A_L674] |587| 
    1956                    
    1957 000004a4           $C$RL74:   ; CALLP OCCURS {GPIODirModeSet} {0}  ; [] |587| 
    1958                            .dwpsn  file "C:/Users/Raz Aloni/OneDrive/School/EEL4924/DSP/C_Libs/MicCheckPeripherals/src/LC
    1959                    
    1960 000004a4 02300029             MVKL    .S1     0x1e26000,A4      ; [A_S674] |588| 
    1961 000004a8     1613  ||         MVK     .S2     0x90,B4           ; [B_Sb674] |588| 
    1962                    
    1963                    $C$DW$183       .dwtag  DW_TAG_TI_branch
    1964                            .dwattr $C$DW$183, DW_AT_low_pc(0x04)
    1965                            .dwattr $C$DW$183, DW_AT_name("GPIODirModeSet")
    1966                            .dwattr $C$DW$183, DW_AT_TI_call
    1967                    
    1968                    
    1969 000004b0 0200f168             MVKH    .S1     0x1e26000,A4      ; [A_S674] |588| 
    1970 000004ac 10000013! ||         CALLP   .S2     GPIODirModeSet,B3 ; [B_Sb674] |588| 
    1971 000004aa     2726  ||         MVK     .L1     1,A6              ; [A_L674] |588| 
    1972                    
    1973 000004b4           $C$RL76:   ; CALLP OCCURS {GPIODirModeSet} {0}  ; [] |588| 
    1974                            .dwpsn  file "C:/Users/Raz Aloni/OneDrive/School/EEL4924/DSP/C_Libs/MicCheckPeripherals/src/LC
    1975 000004b4 02300028             MVKL    .S1     0x1e26000,A4      ; [A_S674] |591| 
    1976                    $C$DW$184       .dwtag  DW_TAG_TI_branch
    1977                            .dwattr $C$DW$184, DW_AT_low_pc(0x04)
    1978                            .dwattr $C$DW$184, DW_AT_name("GPIOBankIntEnable")
    1979                            .dwattr $C$DW$184, DW_AT_TI_call
    1980                    
TMS320C6x Assembler PC v8.1.3 Thu Apr 20 05:51:10 2017

Tools Copyright (c) 1996-2015 Texas Instruments Incorporated
LCD.asm                                                              PAGE   37

    1981                    
    1982 000004b8 0200f169             MVKH    .S1     0x1e26000,A4      ; [A_S674] |591| 
    1983 000004c0 10000013! ||         CALLP   .S2     GPIOBankIntEnable,B3 ; [B_Sb674] |591| 
    1984 000004c4 020ca35a  ||         MVK     .L2     3,B4              ; [B_L674] |591| 
    1985                    
    1986 000004c8           $C$RL78:   ; CALLP OCCURS {GPIOBankIntEnable} {0}  ; [] |591| 
    1987                            .dwpsn  file "C:/Users/Raz Aloni/OneDrive/School/EEL4924/DSP/C_Libs/MicCheckPeripherals/src/LC
    1988                    
    1989 000004c8 02300029             MVKL    .S1     0x1e26000,A4      ; [A_S674] |594| 
    1990 000004cc     ba33  ||         MVK     .S2     0x3d,B4           ; [B_Sb674] |594| 
    1991                    
    1992                    $C$DW$185       .dwtag  DW_TAG_TI_branch
    1993                            .dwattr $C$DW$185, DW_AT_low_pc(0x04)
    1994                            .dwattr $C$DW$185, DW_AT_name("GPIOIntTypeSet")
    1995                            .dwattr $C$DW$185, DW_AT_TI_call
    1996                    
    1997                    
    1998 000004d4 0200f168             MVKH    .S1     0x1e26000,A4      ; [A_S674] |594| 
    1999 000004d0 10000013! ||         CALLP   .S2     GPIOIntTypeSet,B3 ; [B_Sb674] |594| 
    2000 000004ce     2726  ||         MVK     .L1     1,A6              ; [A_L674] |594| 
    2001                    
    2002 000004d8           $C$RL80:   ; CALLP OCCURS {GPIOIntTypeSet} {0}  ; [] |594| 
    2003                            .dwpsn  file "C:/Users/Raz Aloni/OneDrive/School/EEL4924/DSP/C_Libs/MicCheckPeripherals/src/LC
    2004 000004d8     71f7             LDW     .D2T2   *++SP(8),B3       ; [B_D64P] |597| 
    2005                            .dwcfi  cfa_offset, 40
    2006                            .dwcfi  restore_reg, 19
    2007 000004da     c577             LDDW    .D2T1   *++SP(8),A11:A10  ; [B_D64P] |597| 
    2008                            .dwcfi  cfa_offset, 32
    2009                            .dwcfi  restore_reg, 11
    2010                            .dwcfi  restore_reg, 10
    2011 000004e0     c677             LDDW    .D2T1   *++SP(8),A13:A12  ; [B_D64P] |597| 
    2012                            .dwcfi  cfa_offset, 24
    2013                            .dwcfi  restore_reg, 13
    2014                            .dwcfi  restore_reg, 12
    2015 000004e2     d577             LDDW    .D2T2   *++SP(8),B11:B10  ; [B_D64P] |597| 
    2016                            .dwcfi  cfa_offset, 16
    2017                            .dwcfi  restore_reg, 27
    2018                            .dwcfi  restore_reg, 26
    2019 000004e4     d677             LDDW    .D2T2   *++SP(8),B13:B12  ; [B_D64P] |597| 
    2020                            .dwcfi  cfa_offset, 8
    2021                            .dwcfi  restore_reg, 29
    2022                            .dwcfi  restore_reg, 28
    2023                    $C$DW$186       .dwtag  DW_TAG_TI_branch
    2024                            .dwattr $C$DW$186, DW_AT_low_pc(0x00)
    2025                            .dwattr $C$DW$186, DW_AT_TI_return
    2026                    
    2027 000004e6     01ef             RET     .S2     B3                ; [B_Sb674] |597| 
    2028 000004e8     6777             LDW     .D2T1   *++SP(8),A14      ; [B_D64P] |597| 
    2029                            .dwcfi  cfa_offset, 0
    2030                            .dwcfi  restore_reg, 14
    2031 000004ea     6c6e             NOP             4                 ; [A_L674] 
    2032                               ; BRANCH OCCURS {B3}              ; [] |597| 
    2033                            .dwcfi  restore_state
    2034                    ;** --------------------------------------------------------------------------*
    2035 000004ec           $C$L4:    
TMS320C6x Assembler PC v8.1.3 Thu Apr 20 05:51:10 2017

Tools Copyright (c) 1996-2015 Texas Instruments Incorporated
LCD.asm                                                              PAGE   38

    2036                            .dwpsn  file "C:/Users/Raz Aloni/OneDrive/School/EEL4924/DSP/C_Libs/MicCheckPeripherals/src/LC
    2037 000004ec 01842162             ADDKPC  .S2     $C$RL82,B3,1      ; [B_Sb674] |554| 
    2038 000004f0           $C$RL82:   ; CALL OCCURS {PSCModuleControl} {0}  ; [] |554| 
    2039                    ;** --------------------------------------------------------------------------*
    2040                            .dwpsn  file "C:/Users/Raz Aloni/OneDrive/School/EEL4924/DSP/C_Libs/MicCheckPeripherals/src/LC
    2041 000004f0 022802e6             LDW     .D2T2   *B10(0),B4        ; [B_D64P] |556| 
    2042                            .dwpsn  file "C:/Users/Raz Aloni/OneDrive/School/EEL4924/DSP/C_Libs/MicCheckPeripherals/src/LC
    2043 000004f4 02300028             MVKL    .S1     0x1e26000,A4      ; [A_S674] |560| 
    2044 000004f8 0200f168             MVKH    .S1     0x1e26000,A4      ; [A_S674] |560| 
    2045 00000500     0726             ZERO    .L1     A6                ; [A_L674] |560| 
    2046 00000502     0c6e             NOP             1                 ; [A_L674] 
    2047                            .dwpsn  file "C:/Users/Raz Aloni/OneDrive/School/EEL4924/DSP/C_Libs/MicCheckPeripherals/src/LC
    2048 00000504 0211ef8a             SET     .S2     B4,15,15,B4       ; [B_Sb674] |556| 
    2049 00000508 023402f6             STW     .D2T2   B4,*B13(0)        ; [B_D64P] |556| 
    2050                            .dwpsn  file "C:/Users/Raz Aloni/OneDrive/School/EEL4924/DSP/C_Libs/MicCheckPeripherals/src/LC
    2051 0000050c 01a80264             LDW     .D1T1   *A10(0),A3        ; [A_D64P] |557| 
    2052 00000510 00000000             NOP             4                 ; [A_L674] 
    2053 00000510 018dcff8             OR      .L1     A14,A3,A3         ; [A_L674] |557| 
    2054 00000514 01a80274             STW     .D1T1   A3,*A10(0)        ; [A_D64P] |557| 
    2055                            .dwpsn  file "C:/Users/Raz Aloni/OneDrive/School/EEL4924/DSP/C_Libs/MicCheckPeripherals/src/LC
    2056 00000518 02340266             LDW     .D1T2   *A13(0),B4        ; [A_D64P] |558| 
    2057 0000051c 00000000             NOP             4                 ; [A_L674] 
    2058 00000520 02118ffa             OR      .L2     B12,B4,B4         ; [B_L674] |558| 
    2059                    
    2060 00000524 02340277             STW     .D1T2   B4,*A13(0)        ; [A_D64P] |558| 
    2061 00000528 02001eaa  ||         MVK     .S2     0x3d,B4           ; [B_Sb674] |560| 
    2062                    
    2063                            .dwpsn  file "C:/Users/Raz Aloni/OneDrive/School/EEL4924/DSP/C_Libs/MicCheckPeripherals/src/LC
    2064                    $C$DW$187       .dwtag  DW_TAG_TI_branch
    2065                            .dwattr $C$DW$187, DW_AT_low_pc(0x00)
    2066                            .dwattr $C$DW$187, DW_AT_name("GPIODirModeSet")
    2067                            .dwattr $C$DW$187, DW_AT_TI_call
    2068                    
    2069 0000052c 10000012!            CALLP   .S2     GPIODirModeSet,B3 ; [B_Sb674] |560| 
    2070 00000530           $C$RL84:   ; CALLP OCCURS {GPIODirModeSet} {0}  ; [] |560| 
    2071                            .dwpsn  file "C:/Users/Raz Aloni/OneDrive/School/EEL4924/DSP/C_Libs/MicCheckPeripherals/src/LC
    2072                    
    2073 00000530 02300029             MVKL    .S1     0x1e26000,A4      ; [A_S674] |561| 
    2074 00000534     0a73  ||         MVK     .S2     0x68,B4           ; [B_Sb674] |561| 
    2075                    
    2076                    $C$DW$188       .dwtag  DW_TAG_TI_branch
    2077                            .dwattr $C$DW$188, DW_AT_low_pc(0x04)
    2078                            .dwattr $C$DW$188, DW_AT_name("GPIODirModeSet")
    2079                            .dwattr $C$DW$188, DW_AT_TI_call
    2080                    
    2081                    
    2082 00000540 0200f168             MVKH    .S1     0x1e26000,A4      ; [A_S674] |561| 
    2083 00000538 10000013! ||         CALLP   .S2     GPIODirModeSet,B3 ; [B_Sb674] |561| 
    2084 00000536     0726  ||         ZERO    .L1     A6                ; [A_L674] |561| 
    2085                    
    2086 00000544           $C$RL86:   ; CALLP OCCURS {GPIODirModeSet} {0}  ; [] |561| 
    2087                            .dwpsn  file "C:/Users/Raz Aloni/OneDrive/School/EEL4924/DSP/C_Libs/MicCheckPeripherals/src/LC
    2088                    
    2089 00000544 02300029             MVKL    .S1     0x1e26000,A4      ; [A_S674] |562| 
    2090 00000548     6a73  ||         MVK     .S2     0x6b,B4           ; [B_Sb674] |562| 
TMS320C6x Assembler PC v8.1.3 Thu Apr 20 05:51:10 2017

Tools Copyright (c) 1996-2015 Texas Instruments Incorporated
LCD.asm                                                              PAGE   39

    2091                    
    2092                    $C$DW$189       .dwtag  DW_TAG_TI_branch
    2093                            .dwattr $C$DW$189, DW_AT_low_pc(0x04)
    2094                            .dwattr $C$DW$189, DW_AT_name("GPIODirModeSet")
    2095                            .dwattr $C$DW$189, DW_AT_TI_call
    2096                    
    2097                    
    2098 00000550 0200f168             MVKH    .S1     0x1e26000,A4      ; [A_S674] |562| 
    2099 0000054c 10000013! ||         CALLP   .S2     GPIODirModeSet,B3 ; [B_Sb674] |562| 
    2100 0000054a     0726  ||         ZERO    .L1     A6                ; [A_L674] |562| 
    2101                    
    2102 00000554           $C$RL88:   ; CALLP OCCURS {GPIODirModeSet} {0}  ; [] |562| 
    2103                            .dwpsn  file "C:/Users/Raz Aloni/OneDrive/School/EEL4924/DSP/C_Libs/MicCheckPeripherals/src/LC
    2104                    
    2105 00000554 02300029             MVKL    .S1     0x1e26000,A4      ; [A_S674] |563| 
    2106 00000558     e273  ||         MVK     .S2     0x67,B4           ; [B_Sb674] |563| 
    2107                    
    2108                    $C$DW$190       .dwtag  DW_TAG_TI_branch
    2109                            .dwattr $C$DW$190, DW_AT_low_pc(0x04)
    2110                            .dwattr $C$DW$190, DW_AT_name("GPIODirModeSet")
    2111                            .dwattr $C$DW$190, DW_AT_TI_call
    2112                    
    2113                    
    2114 00000564 0200f168             MVKH    .S1     0x1e26000,A4      ; [A_S674] |563| 
    2115 00000560 10000013! ||         CALLP   .S2     GPIODirModeSet,B3 ; [B_Sb674] |563| 
    2116 0000055a     0726  ||         ZERO    .L1     A6                ; [A_L674] |563| 
    2117                    
    2118 00000568           $C$RL90:   ; CALLP OCCURS {GPIODirModeSet} {0}  ; [] |563| 
    2119                            .dwpsn  file "C:/Users/Raz Aloni/OneDrive/School/EEL4924/DSP/C_Libs/MicCheckPeripherals/src/LC
    2120                    
    2121 00000568 02300029             MVKL    .S1     0x1e26000,A4      ; [A_S674] |564| 
    2122 0000056c     8a73  ||         MVK     .S2     0x6c,B4           ; [B_Sb674] |564| 
    2123                    
    2124                    $C$DW$191       .dwtag  DW_TAG_TI_branch
    2125                            .dwattr $C$DW$191, DW_AT_low_pc(0x04)
    2126                            .dwattr $C$DW$191, DW_AT_name("GPIODirModeSet")
    2127                            .dwattr $C$DW$191, DW_AT_TI_call
    2128                    
    2129                    
    2130 00000574 0200f169             MVKH    .S1     0x1e26000,A4      ; [A_S674] |564| 
    2131 00000570 10000013! ||         CALLP   .S2     GPIODirModeSet,B3 ; [B_Sb674] |564| 
    2132 0000056e     0726  ||         ZERO    .L1     A6                ; [A_L674] |564| 
    2133                    
    2134 00000580           $C$RL92:   ; CALLP OCCURS {GPIODirModeSet} {0}  ; [] |564| 
    2135                    ;** --------------------------------------------------------------------------*
    2136                            .dwpsn  file "C:/Users/Raz Aloni/OneDrive/School/EEL4924/DSP/C_Libs/MicCheckPeripherals/src/LC
    2137                    
    2138 00000580 02300029             MVKL    .S1     0x1e26000,A4      ; [A_S674] |567| 
    2139 00000584     0a73  ||         MVK     .S2     0x68,B4           ; [B_Sb674] |567| 
    2140                    
    2141                    $C$DW$192       .dwtag  DW_TAG_TI_branch
    2142                            .dwattr $C$DW$192, DW_AT_low_pc(0x08)
    2143                            .dwattr $C$DW$192, DW_AT_name("GPIOPinWrite")
    2144                            .dwattr $C$DW$192, DW_AT_TI_call
    2145                    
TMS320C6x Assembler PC v8.1.3 Thu Apr 20 05:51:10 2017

Tools Copyright (c) 1996-2015 Texas Instruments Incorporated
LCD.asm                                                              PAGE   40

    2146                    
    2147 00000588 0200f169             MVKH    .S1     0x1e26000,A4      ; [A_S674] |567| 
    2148 00000586     0726  ||         ZERO    .L1     A6                ; [A_L674] |567| 
    2149 0000058c 10000012! ||         CALLP   .S2     GPIOPinWrite,B3   ; [B_Sb674] |567| 
    2150                    
    2151 00000590           $C$RL94:   ; CALLP OCCURS {GPIOPinWrite} {0}  ; [] |567| 
    2152                            .dwpsn  file "C:/Users/Raz Aloni/OneDrive/School/EEL4924/DSP/C_Libs/MicCheckPeripherals/src/LC
    2153                    
    2154 00000590 02300029             MVKL    .S1     0x1e26000,A4      ; [A_S674] |568| 
    2155 00000594     6a73  ||         MVK     .S2     0x6b,B4           ; [B_Sb674] |568| 
    2156                    
    2157                    $C$DW$193       .dwtag  DW_TAG_TI_branch
    2158                            .dwattr $C$DW$193, DW_AT_low_pc(0x04)
    2159                            .dwattr $C$DW$193, DW_AT_name("GPIOPinWrite")
    2160                            .dwattr $C$DW$193, DW_AT_TI_call
    2161                    
    2162                    
    2163 000005a0 0200f168             MVKH    .S1     0x1e26000,A4      ; [A_S674] |568| 
    2164 00000598 10000013! ||         CALLP   .S2     GPIOPinWrite,B3   ; [B_Sb674] |568| 
    2165 00000596     0726  ||         ZERO    .L1     A6                ; [A_L674] |568| 
    2166                    
    2167 000005a4           $C$RL96:   ; CALLP OCCURS {GPIOPinWrite} {0}  ; [] |568| 
    2168                            .dwpsn  file "C:/Users/Raz Aloni/OneDrive/School/EEL4924/DSP/C_Libs/MicCheckPeripherals/src/LC
    2169                    
    2170 000005a4 02300029             MVKL    .S1     0x1e26000,A4      ; [A_S674] |569| 
    2171 000005a8     e273  ||         MVK     .S2     0x67,B4           ; [B_Sb674] |569| 
    2172                    
    2173                    $C$DW$194       .dwtag  DW_TAG_TI_branch
    2174                            .dwattr $C$DW$194, DW_AT_low_pc(0x04)
    2175                            .dwattr $C$DW$194, DW_AT_name("GPIOPinWrite")
    2176                            .dwattr $C$DW$194, DW_AT_TI_call
    2177                    
    2178                    
    2179 000005b0 0200f168             MVKH    .S1     0x1e26000,A4      ; [A_S674] |569| 
    2180 000005ac 10000013! ||         CALLP   .S2     GPIOPinWrite,B3   ; [B_Sb674] |569| 
    2181 000005aa     0726  ||         ZERO    .L1     A6                ; [A_L674] |569| 
    2182                    
    2183 000005b4           $C$RL98:   ; CALLP OCCURS {GPIOPinWrite} {0}  ; [] |569| 
    2184                            .dwpsn  file "C:/Users/Raz Aloni/OneDrive/School/EEL4924/DSP/C_Libs/MicCheckPeripherals/src/LC
    2185                    
    2186 000005b4 02300029             MVKL    .S1     0x1e26000,A4      ; [A_S674] |570| 
    2187 000005b8     8a73  ||         MVK     .S2     0x6c,B4           ; [B_Sb674] |570| 
    2188                    
    2189                    $C$DW$195       .dwtag  DW_TAG_TI_branch
    2190                            .dwattr $C$DW$195, DW_AT_low_pc(0x04)
    2191                            .dwattr $C$DW$195, DW_AT_name("GPIOPinWrite")
    2192                            .dwattr $C$DW$195, DW_AT_TI_call
    2193                    
    2194                    
    2195 000005c4 0200f168             MVKH    .S1     0x1e26000,A4      ; [A_S674] |570| 
    2196 000005c0 10000013! ||         CALLP   .S2     GPIOPinWrite,B3   ; [B_Sb674] |570| 
    2197 000005ba     0726  ||         ZERO    .L1     A6                ; [A_L674] |570| 
    2198                    
    2199 000005c8           $C$RL100:  ; CALLP OCCURS {GPIOPinWrite} {0}  ; [] |570| 
    2200                            .dwpsn  file "C:/Users/Raz Aloni/OneDrive/School/EEL4924/DSP/C_Libs/MicCheckPeripherals/src/LC
TMS320C6x Assembler PC v8.1.3 Thu Apr 20 05:51:10 2017

Tools Copyright (c) 1996-2015 Texas Instruments Incorporated
LCD.asm                                                              PAGE   41

    2201                    
    2202 000005c8 02300029             MVKL    .S1     0x1e26000,A4      ; [A_S674] |571| 
    2203 000005cc     ba33  ||         MVK     .S2     0x3d,B4           ; [B_Sb674] |571| 
    2204                    
    2205                    $C$DW$196       .dwtag  DW_TAG_TI_branch
    2206                            .dwattr $C$DW$196, DW_AT_low_pc(0x04)
    2207                            .dwattr $C$DW$196, DW_AT_name("GPIOPinWrite")
    2208                            .dwattr $C$DW$196, DW_AT_TI_call
    2209                    
    2210                    
    2211 000005d4 0200f168             MVKH    .S1     0x1e26000,A4      ; [A_S674] |571| 
    2212 000005d0 10000013! ||         CALLP   .S2     GPIOPinWrite,B3   ; [B_Sb674] |571| 
    2213 000005ce     0726  ||         ZERO    .L1     A6                ; [A_L674] |571| 
    2214                    
    2215 000005d8           $C$RL102:  ; CALLP OCCURS {GPIOPinWrite} {0}  ; [] |571| 
    2216                            .dwpsn  file "C:/Users/Raz Aloni/OneDrive/School/EEL4924/DSP/C_Libs/MicCheckPeripherals/src/LC
    2217 000005d8     71f7             LDW     .D2T2   *++SP(8),B3       ; [B_D64P] |597| 
    2218                            .dwcfi  cfa_offset, 40
    2219                            .dwcfi  restore_reg, 19
    2220 000005da     c577             LDDW    .D2T1   *++SP(8),A11:A10  ; [B_D64P] |597| 
    2221                            .dwcfi  cfa_offset, 32
    2222                            .dwcfi  restore_reg, 11
    2223                            .dwcfi  restore_reg, 10
    2224 000005e0     c677             LDDW    .D2T1   *++SP(8),A13:A12  ; [B_D64P] |597| 
    2225                            .dwcfi  cfa_offset, 24
    2226                            .dwcfi  restore_reg, 13
    2227                            .dwcfi  restore_reg, 12
    2228 000005e2     d577             LDDW    .D2T2   *++SP(8),B11:B10  ; [B_D64P] |597| 
    2229                            .dwcfi  cfa_offset, 16
    2230                            .dwcfi  restore_reg, 27
    2231                            .dwcfi  restore_reg, 26
    2232 000005e4     d677             LDDW    .D2T2   *++SP(8),B13:B12  ; [B_D64P] |597| 
    2233                            .dwcfi  cfa_offset, 8
    2234                            .dwcfi  restore_reg, 29
    2235                            .dwcfi  restore_reg, 28
    2236                    $C$DW$197       .dwtag  DW_TAG_TI_branch
    2237                            .dwattr $C$DW$197, DW_AT_low_pc(0x00)
    2238                            .dwattr $C$DW$197, DW_AT_TI_return
    2239                    
    2240 000005e6     01ef             RET     .S2     B3                ; [B_Sb674] |597| 
    2241 000005e8     6777             LDW     .D2T1   *++SP(8),A14      ; [B_D64P] |597| 
    2242                            .dwcfi  cfa_offset, 0
    2243                            .dwcfi  restore_reg, 14
    2244 000005ea     6c6e             NOP             4                 ; [A_L674] 
    2245                               ; BRANCH OCCURS {B3}              ; [] |597| 
    2246                            .dwattr $C$DW$174, DW_AT_TI_end_file("C:/Users/Raz Aloni/OneDrive/School/EEL4924/DSP/C_Libs/Mi
    2247                            .dwattr $C$DW$174, DW_AT_TI_end_line(0x255)
    2248                            .dwattr $C$DW$174, DW_AT_TI_end_column(0x01)
    2249                            .dwendentry
    2250                            .dwendtag $C$DW$174
    2251                    
    2252 000005ec                   .sect   ".text"
    2253                            .clink
    2254                            .global LCD_FrameSyncLostFix
    2255                    
TMS320C6x Assembler PC v8.1.3 Thu Apr 20 05:51:10 2017

Tools Copyright (c) 1996-2015 Texas Instruments Incorporated
LCD.asm                                                              PAGE   42

    2256                    $C$DW$198       .dwtag  DW_TAG_subprogram
    2257                            .dwattr $C$DW$198, DW_AT_name("LCD_FrameSyncLostFix")
    2258                            .dwattr $C$DW$198, DW_AT_low_pc(LCD_FrameSyncLostFix)
    2259                            .dwattr $C$DW$198, DW_AT_high_pc(0x00)
    2260                            .dwattr $C$DW$198, DW_AT_TI_symbol_name("LCD_FrameSyncLostFix")
    2261                            .dwattr $C$DW$198, DW_AT_external
    2262                            .dwattr $C$DW$198, DW_AT_TI_begin_file("C:/Users/Raz Aloni/OneDrive/School/EEL4924/DSP/C_Libs/
    2263                            .dwattr $C$DW$198, DW_AT_TI_begin_line(0x27e)
    2264                            .dwattr $C$DW$198, DW_AT_TI_begin_column(0x06)
    2265                            .dwattr $C$DW$198, DW_AT_decl_file("C:/Users/Raz Aloni/OneDrive/School/EEL4924/DSP/C_Libs/MicC
    2266                            .dwattr $C$DW$198, DW_AT_decl_line(0x27e)
    2267                            .dwattr $C$DW$198, DW_AT_decl_column(0x06)
    2268                            .dwattr $C$DW$198, DW_AT_TI_max_frame_size(0x08)
    2269                            .dwpsn  file "C:/Users/Raz Aloni/OneDrive/School/EEL4924/DSP/C_Libs/MicCheckPeripherals/src/LC
    2270                    
    2271                            .dwfde $C$DW$CIE, LCD_FrameSyncLostFix
    2272                    
    2273                    ;******************************************************************************
    2274                    ;* FUNCTION NAME: LCD_FrameSyncLostFix                                        *
    2275                    ;*                                                                            *
    2276                    ;*   Regs Modified     : A0,A1,A2,A3,A4,A5,A6,A7,A8,A9,A16,A17,A18,A19,A20,   *
    2277                    ;*                           A21,A22,A23,A24,A25,A26,A27,A28,A29,A30,A31,B0,  *
    2278                    ;*                           B1,B2,B3,B4,B5,B6,B7,B8,B9,SP,B16,B17,B18,B19,   *
    2279                    ;*                           B20,B21,B22,B23,B24,B25,B26,B27,B28,B29,B30,B31  *
    2280                    ;*   Regs Used         : A0,A1,A2,A3,A4,A5,A6,A7,A8,A9,A16,A17,A18,A19,A20,   *
    2281                    ;*                           A21,A22,A23,A24,A25,A26,A27,A28,A29,A30,A31,B0,  *
    2282                    ;*                           B1,B2,B3,B4,B5,B6,B7,B8,B9,DP,SP,B16,B17,B18,B19,*
    2283                    ;*                           B20,B21,B22,B23,B24,B25,B26,B27,B28,B29,B30,B31  *
    2284                    ;*   Local Frame Size  : 0 Args + 0 Auto + 4 Save = 4 byte                    *
    2285                    ;******************************************************************************
    2286 000005ec           LCD_FrameSyncLostFix:
    2287                    ;** --------------------------------------------------------------------------*
    2288                            .dwcfi  cfa_offset, 0
    2289                            .dwpsn  file "C:/Users/Raz Aloni/OneDrive/School/EEL4924/DSP/C_Libs/MicCheckPeripherals/src/LC
    2290 000005ec 02180028             MVKL    .S1     0x1e13000,A4      ; [A_S674] |641| 
    2291                            .dwpsn  file "C:/Users/Raz Aloni/OneDrive/School/EEL4924/DSP/C_Libs/MicCheckPeripherals/src/LC
    2292                    $C$DW$199       .dwtag  DW_TAG_TI_branch
    2293                            .dwattr $C$DW$199, DW_AT_low_pc(0x08)
    2294                            .dwattr $C$DW$199, DW_AT_name("RasterDisable")
    2295                            .dwattr $C$DW$199, DW_AT_TI_call
    2296                    
    2297                    
    2298 000005f0 0200f0e9             MVKH    .S1     0x1e13000,A4      ; [A_S674] |641| 
    2299 000005f8 01bc54f6  ||         STW     .D2T2   B3,*SP++(-8)      ; [B_D64P] |639| 
    2300 000005f4 10000013! ||         CALLP   .S2     RasterDisable,B3  ; [B_Sb674] |641| 
    2301                    
    2302                            .dwcfi  cfa_offset, 8
    2303                            .dwcfi  save_reg_to_mem, 19, 0
    2304                            .dwpsn  file "C:/Users/Raz Aloni/OneDrive/School/EEL4924/DSP/C_Libs/MicCheckPeripherals/src/LC
    2305 00000600           $C$RL104:  ; CALLP OCCURS {RasterDisable} {0}  ; [] |641| 
    2306                            .dwpsn  file "C:/Users/Raz Aloni/OneDrive/School/EEL4924/DSP/C_Libs/MicCheckPeripherals/src/LC
    2307                    $C$DW$200       .dwtag  DW_TAG_TI_branch
    2308                            .dwattr $C$DW$200, DW_AT_low_pc(0x00)
    2309                            .dwattr $C$DW$200, DW_AT_name("RasterEnable")
    2310                            .dwattr $C$DW$200, DW_AT_TI_call
TMS320C6x Assembler PC v8.1.3 Thu Apr 20 05:51:10 2017

Tools Copyright (c) 1996-2015 Texas Instruments Incorporated
LCD.asm                                                              PAGE   43

    2311                            .dwattr $C$DW$200, DW_AT_TI_return
    2312                    
    2313 00000600 00000010!            CALLRET .S1     RasterEnable      ; [A_S674] |644| 
    2314                            .dwpsn  file "C:/Users/Raz Aloni/OneDrive/School/EEL4924/DSP/C_Libs/MicCheckPeripherals/src/LC
    2315 00000604 01bc52e6             LDW     .D2T2   *++SP(8),B3       ; [B_D64P] |645| 
    2316                            .dwcfi  cfa_offset, 0
    2317                            .dwcfi  restore_reg, 19
    2318                            .dwpsn  file "C:/Users/Raz Aloni/OneDrive/School/EEL4924/DSP/C_Libs/MicCheckPeripherals/src/LC
    2319 00000608 02180028             MVKL    .S1     0x1e13000,A4      ; [A_S674] |644| 
    2320 0000060c 0200f0e8             MVKH    .S1     0x1e13000,A4      ; [A_S674] |644| 
    2321 00000610     2c6e             NOP             2                 ; [A_L674] 
    2322                    $C$RL106:  ; CALL-RETURN OCCURS {RasterEnable} 0  ; [] |644| 
    2323                            .dwattr $C$DW$198, DW_AT_TI_end_file("C:/Users/Raz Aloni/OneDrive/School/EEL4924/DSP/C_Libs/Mi
    2324                            .dwattr $C$DW$198, DW_AT_TI_end_line(0x285)
    2325                            .dwattr $C$DW$198, DW_AT_TI_end_column(0x01)
    2326                            .dwendentry
    2327                            .dwendtag $C$DW$198
    2328                    
    2329 00000620                   .sect   ".text"
    2330                            .clink
    2331                            .global LCD_DrawRectangle
    2332                    
    2333                    $C$DW$201       .dwtag  DW_TAG_subprogram
    2334                            .dwattr $C$DW$201, DW_AT_name("LCD_DrawRectangle")
    2335                            .dwattr $C$DW$201, DW_AT_low_pc(LCD_DrawRectangle)
    2336                            .dwattr $C$DW$201, DW_AT_high_pc(0x00)
    2337                            .dwattr $C$DW$201, DW_AT_TI_symbol_name("LCD_DrawRectangle")
    2338                            .dwattr $C$DW$201, DW_AT_external
    2339                            .dwattr $C$DW$201, DW_AT_TI_begin_file("C:/Users/Raz Aloni/OneDrive/School/EEL4924/DSP/C_Libs/
    2340                            .dwattr $C$DW$201, DW_AT_TI_begin_line(0x180)
    2341                            .dwattr $C$DW$201, DW_AT_TI_begin_column(0x06)
    2342                            .dwattr $C$DW$201, DW_AT_decl_file("C:/Users/Raz Aloni/OneDrive/School/EEL4924/DSP/C_Libs/MicC
    2343                            .dwattr $C$DW$201, DW_AT_decl_line(0x180)
    2344                            .dwattr $C$DW$201, DW_AT_decl_column(0x06)
    2345                            .dwattr $C$DW$201, DW_AT_TI_max_frame_size(0x00)
    2346                            .dwpsn  file "C:/Users/Raz Aloni/OneDrive/School/EEL4924/DSP/C_Libs/MicCheckPeripherals/src/LC
    2347                    
    2348                            .dwfde $C$DW$CIE, LCD_DrawRectangle
    2349                    $C$DW$202       .dwtag  DW_TAG_formal_parameter
    2350                            .dwattr $C$DW$202, DW_AT_name("color")
    2351                            .dwattr $C$DW$202, DW_AT_TI_symbol_name("color")
    2352                            .dwattr $C$DW$202, DW_AT_type(*$C$DW$T$874)
    2353                            .dwattr $C$DW$202, DW_AT_location[DW_OP_reg4]
    2354                    
    2355                    $C$DW$203       .dwtag  DW_TAG_formal_parameter
    2356                            .dwattr $C$DW$203, DW_AT_name("originX")
    2357                            .dwattr $C$DW$203, DW_AT_TI_symbol_name("originX")
    2358                            .dwattr $C$DW$203, DW_AT_type(*$C$DW$T$188)
    2359                            .dwattr $C$DW$203, DW_AT_location[DW_OP_reg20]
    2360                    
    2361                    $C$DW$204       .dwtag  DW_TAG_formal_parameter
    2362                            .dwattr $C$DW$204, DW_AT_name("originY")
    2363                            .dwattr $C$DW$204, DW_AT_TI_symbol_name("originY")
    2364                            .dwattr $C$DW$204, DW_AT_type(*$C$DW$T$188)
    2365                            .dwattr $C$DW$204, DW_AT_location[DW_OP_reg6]
TMS320C6x Assembler PC v8.1.3 Thu Apr 20 05:51:10 2017

Tools Copyright (c) 1996-2015 Texas Instruments Incorporated
LCD.asm                                                              PAGE   44

    2366                    
    2367                    $C$DW$205       .dwtag  DW_TAG_formal_parameter
    2368                            .dwattr $C$DW$205, DW_AT_name("width")
    2369                            .dwattr $C$DW$205, DW_AT_TI_symbol_name("width")
    2370                            .dwattr $C$DW$205, DW_AT_type(*$C$DW$T$188)
    2371                            .dwattr $C$DW$205, DW_AT_location[DW_OP_reg22]
    2372                    
    2373                    $C$DW$206       .dwtag  DW_TAG_formal_parameter
    2374                            .dwattr $C$DW$206, DW_AT_name("height")
    2375                            .dwattr $C$DW$206, DW_AT_TI_symbol_name("height")
    2376                            .dwattr $C$DW$206, DW_AT_type(*$C$DW$T$188)
    2377                            .dwattr $C$DW$206, DW_AT_location[DW_OP_reg8]
    2378                    
    2379                    
    2380                    ;******************************************************************************
    2381                    ;* FUNCTION NAME: LCD_DrawRectangle                                           *
    2382                    ;*                                                                            *
    2383                    ;*   Regs Modified     : A0,A1,A2,A3,A4,A5,A6,B0,B4,B5,B6,B7,B8,B9,B16,B17,   *
    2384                    ;*                           B31                                              *
    2385                    ;*   Regs Used         : A0,A1,A2,A3,A4,A5,A6,A8,B0,B3,B4,B5,B6,B7,B8,B9,DP,  *
    2386                    ;*                           B16,B17,B31                                      *
    2387                    ;*   Local Frame Size  : 0 Args + 0 Auto + 0 Save = 0 byte                    *
    2388                    ;******************************************************************************
    2389                    LCD_DrawRectangle:
    2390                    ;** --------------------------------------------------------------------------*
    2391                    $C$DW$207       .dwtag  DW_TAG_variable
    2392                            .dwattr $C$DW$207, DW_AT_name("y")
    2393                            .dwattr $C$DW$207, DW_AT_TI_symbol_name("y")
    2394                            .dwattr $C$DW$207, DW_AT_type(*$C$DW$T$10)
    2395                            .dwattr $C$DW$207, DW_AT_location[DW_OP_reg23]
    2396                    
    2397                    $C$DW$208       .dwtag  DW_TAG_variable
    2398                            .dwattr $C$DW$208, DW_AT_name("color")
    2399                            .dwattr $C$DW$208, DW_AT_TI_symbol_name("color")
    2400                            .dwattr $C$DW$208, DW_AT_type(*$C$DW$T$1087)
    2401                            .dwattr $C$DW$208, DW_AT_location[DW_OP_reg21]
    2402                    
    2403                    $C$DW$209       .dwtag  DW_TAG_variable
    2404                            .dwattr $C$DW$209, DW_AT_name("originX")
    2405                            .dwattr $C$DW$209, DW_AT_TI_symbol_name("originX")
    2406                            .dwattr $C$DW$209, DW_AT_type(*$C$DW$T$1091)
    2407                            .dwattr $C$DW$209, DW_AT_location[DW_OP_reg24]
    2408                    
    2409                    $C$DW$210       .dwtag  DW_TAG_variable
    2410                            .dwattr $C$DW$210, DW_AT_name("width")
    2411                            .dwattr $C$DW$210, DW_AT_TI_symbol_name("width")
    2412                            .dwattr $C$DW$210, DW_AT_type(*$C$DW$T$1091)
    2413                            .dwattr $C$DW$210, DW_AT_location[DW_OP_reg0]
    2414                    
    2415                            .dwcfi  cfa_offset, 0
    2416                    
    2417 00000620     c251             ADD     .L2     B6,B4,B5          ; [B_L674] |387| 
    2418 00000628 02990079  ||         ADD     .L1     A8,A6,A5          ; [A_L674] |387| 
    2419 00000624 0180f029  ||         MVK     .S1     480,A3            ; [A_S674] |387| 
    2420 00000622     1356  ||         MV      .D1X    B6,A0             ; [A_D64P] |385| 
TMS320C6x Assembler PC v8.1.3 Thu Apr 20 05:51:10 2017

Tools Copyright (c) 1996-2015 Texas Instruments Incorporated
LCD.asm                                                              PAGE   45

    2421 0000062c     064f  ||         MV      .S2     B4,B8             ; [B_Sb674] |385| 
    2422 0000062e     f357  ||         MV      .D2X    A6,B7             ; [B_D64P] |385| 
    2423                    
    2424                            .dwpsn  file "C:/Users/Raz Aloni/OneDrive/School/EEL4924/DSP/C_Libs/MicCheckPeripherals/src/LC
    2425                    
    2426 00000630 c201e02b     [ A0]   MVK     .S2     960,B4            ; [B_Sb674] 
    2427 00000634 01202058  ||         ADD     .L1     1,A8,A2           ; [A_L674] |397| 
    2428                    
    2429                            .dwpsn  file "C:/Users/Raz Aloni/OneDrive/School/EEL4924/DSP/C_Libs/MicCheckPeripherals/src/LC
    2430                    
    2431 00000638 01947bf9             CMPGTU  .L1X    B5,A3,A3          ; [A_L674] |387| 
    2432 00000640 0280882b  ||         MVK     .S2     272,B5            ; [B_Sb674] |387| 
    2433 00000644 c81c8572  || [ A0]   MPYLI   .M2     B4,B7,B17:B16     ; [B_M674] 
    2434                    
    2435 00000648 0294bbfa             CMPGTU  .L2X    A5,B5,B5          ; [B_L674] |387| 
    2436 0000064c     b5a9             OR      .L2X    A3,B5,B0          ; [B_L674] 
    2437                            .dwpsn  file "C:/Users/Raz Aloni/OneDrive/School/EEL4924/DSP/C_Libs/MicCheckPeripherals/src/LC
    2438                    
    2439 00000650 206da120     [ B0]   BNOP            $C$L18,5          ; [] |387| 
    2440 0000064e     b247  ||         MV      .L2X    A4,B5             ; [B_L674] |385| 
    2441                    
    2442                            .dwpsn  file "C:/Users/Raz Aloni/OneDrive/School/EEL4924/DSP/C_Libs/MicCheckPeripherals/src/LC
    2443                               ; BRANCHCC OCCURS {$C$L18}        ; [] |387| 
    2444                    ;** --------------------------------------------------------------------------*
    2445                            .dwpsn  file "C:/Users/Raz Aloni/OneDrive/School/EEL4924/DSP/C_Libs/MicCheckPeripherals/src/LC
    2446                    
    2447 00000654 d0001511     [!A0]   B       .S1     $C$L17            ; [A_S674] |399| 
    2448 00000664 c300006f! || [ A0]   LDW     .D2T2   *+DP(FrameBufferData),B6 ; [B_D64P] 
    2449 00000660 d10be059  || [!A0]   SUB     .L1     A2,1,A2           ; [A_L674] |397| 
    2450 00000668 d0802040  || [!A0]   MVK     .D1     1,A1              ; [A_D64P] nullify predicate
    2451 00000658 0f8059a3  ||         SHRU    .S2X    A0,2,B31          ; [B_Sb674] 
    2452                    
    2453 0000066c c1800828     [ A0]   MVK     .S1     16,A3             ; [A_S674] 
    2454 00000670 c08c0bf8     [ A0]   CMPLTU  .L1     A0,A3,A1          ; [A_L674] 
    2455                    ;** --------------------------------------------------------------------------*
    2456                    ;**   BEGIN LOOP $C$L5
    2457                    ;** --------------------------------------------------------------------------*
    2458 00000674           $C$L5:    
    2459                    
    2460 00000674 90104121     [!A1]   BNOP            $C$L9,2           ; [] 
    2461 00000678 c2400fda  || [ A0]   MV      .L2     B16,B4            ; [B_L674] 
    2462                    
    2463                            .dwpsn  file "C:/Users/Raz Aloni/OneDrive/School/EEL4924/DSP/C_Libs/MicCheckPeripherals/src/LC
    2464                               ; BRANCHCC OCCURS {$C$L17}        ; [] |399| 
    2465                    ;** --------------------------------------------------------------------------*
    2466 0000067c 8210c07a     [ A1]   ADD     .L2     B6,B4,B4          ; [B_L674] 
    2467 00000680 83001fda     [ A1]   MV      .L2X    A0,B6             ; [B_L674] 
    2468 00000684 00000000             NOP             1                 ; [A_L674] 
    2469                               ; BRANCHCC OCCURS {$C$L9}         ; [] 
    2470                    ;** --------------------------------------------------------------------------*
    2471 00000688 869803a2     [ A1]   MVC     .S2     B6,ILC            ; [B_Sb674] 
    2472 0000068c     4c6e             NOP             3                 ; [A_L674] 
    2473                    ;*----------------------------------------------------------------------------*
    2474                    ;*   SOFTWARE PIPELINE INFORMATION
    2475                    ;*
TMS320C6x Assembler PC v8.1.3 Thu Apr 20 05:51:10 2017

Tools Copyright (c) 1996-2015 Texas Instruments Incorporated
LCD.asm                                                              PAGE   46

    2476                    ;*      Loop found in file               : C:/Users/Raz Aloni/OneDrive/School/EEL4924/DSP/C_Libs/MicCh
    2477                    ;*      Loop source line                 : 399
    2478                    ;*      Loop opening brace source line   : 400
    2479                    ;*      Loop closing brace source line   : 402
    2480                    ;*      Known Minimum Trip Count         : 1                    
    2481                    ;*      Known Maximum Trip Count         : 15                    
    2482                    ;*      Known Max Trip Count Factor      : 1
    2483                    ;*      Loop Carried Dependency Bound(^) : 0
    2484                    ;*      Unpartitioned Resource Bound     : 1
    2485                    ;*      Partitioned Resource Bound(*)    : 1
    2486                    ;*      Resource Partition:
    2487                    ;*                                A-side   B-side
    2488                    ;*      .L units                     0        0     
    2489                    ;*      .S units                     0        0     
    2490                    ;*      .D units                     0        1*    
    2491                    ;*      .M units                     0        0     
    2492                    ;*      .X cross paths               0        0     
    2493                    ;*      .T address paths             0        1     
    2494                    ;*      Logical  ops (.LS)           0        0     (.L or .S unit)
    2495                    ;*      Addition ops (.LSD)          0        0     (.L or .S or .D unit)
    2496                    ;*      Bound(.L .S .LS)             0        0     
    2497                    ;*      Bound(.L .S .D .LS .LSD)     0        1*    
    2498                    ;*
    2499                    ;*      Searching for software pipeline schedule at ...
    2500                    ;*         ii = 1  Schedule found with 2 iterations in parallel
    2501                    ;*      Done
    2502                    ;*
    2503                    ;*      Loop will be splooped
    2504                    ;*      Collapsed epilog stages       : 0
    2505                    ;*      Collapsed prolog stages       : 0
    2506                    ;*      Minimum required memory pad   : 0 bytes
    2507                    ;*
    2508                    ;*      Minimum safe trip count       : 1
    2509                    ;*
    2510                    ;*      (Performance) If you know that this loop will always execute at a multiple of <2> and at least
    2511                    ;*----------------------------------------------------------------------------*
    2512 0000068e           $C$L6:    ; PIPED LOOP PROLOG
    2513                    
    2514 0000068e     0c66             SPLOOP          1                 ;2 ; [A_L674] (P) 
    2515 00000690 02111a42  ||         ADDAH   .D2     B4,B8,B4          ; [B_D64P] 
    2516                    
    2517                    ;** --------------------------------------------------------------------------*
    2518 00000694           $C$L7:    ; PIPED LOOP KERNEL
    2519                            .dwpsn  file "C:/Users/Raz Aloni/OneDrive/School/EEL4924/DSP/C_Libs/MicCheckPeripherals/src/LC
    2520 00000694     1e55             STH     .D2T2   B5,*B4++(2)       ; [B_D64P] |401| (P) <0,0> 
    2521 00000696     1c66             SPKERNEL        0,0               ; [] 
    2522                    ;** --------------------------------------------------------------------------*
    2523 00000698           $C$L8:    ; PIPED LOOP EPILOG
    2524                            .dwpsn  file "C:/Users/Raz Aloni/OneDrive/School/EEL4924/DSP/C_Libs/MicCheckPeripherals/src/LC
    2525 00000698 0032a120             BNOP            $C$L16,5          ; [] |399| 
    2526                               ; BRANCH OCCURS {$C$L16}          ; [] |399| 
    2527                    ;** --------------------------------------------------------------------------*
    2528 000006a0           $C$L9:    
    2529                    
    2530 000006a0 04ff805b             SUB     .L2     B31,4,B9          ; [B_L674] 
TMS320C6x Assembler PC v8.1.3 Thu Apr 20 05:51:10 2017

Tools Copyright (c) 1996-2015 Texas Instruments Incorporated
LCD.asm                                                              PAGE   47

    2531 000006ac     d2c6  ||         MV      .L1X    B5,A6             ; [A_L674] 
    2532 000006a8 008067a1  ||         AND     .S1     3,A0,A1           ; [A_S674] 
    2533 000006a4 02111a43  ||         ADDAH   .D2     B4,B8,B4          ; [B_D64P] 
    2534                    
    2535 000006ae     72c6             MV      .L1X    B5,A3             ; [A_L674] 
    2536 000006b0 06a403a2             MVC     .S2     B9,ILC            ; [B_Sb674] 
    2537                    ;*----------------------------------------------------------------------------*
    2538                    ;*   SOFTWARE PIPELINE INFORMATION
    2539                    ;*
    2540                    ;*      Loop found in file               : C:/Users/Raz Aloni/OneDrive/School/EEL4924/DSP/C_Libs/MicCh
    2541                    ;*      Loop source line                 : 399
    2542                    ;*      Loop opening brace source line   : 400
    2543                    ;*      Loop closing brace source line   : 402
    2544                    ;*      Loop Unroll Multiple             : 4x
    2545                    ;*      Known Minimum Trip Count         : 4                    
    2546                    ;*      Known Maximum Trip Count         : 16383                    
    2547                    ;*      Known Max Trip Count Factor      : 1
    2548                    ;*      Loop Carried Dependency Bound(^) : 0
    2549                    ;*      Unpartitioned Resource Bound     : 1
    2550                    ;*      Partitioned Resource Bound(*)    : 1
    2551                    ;*      Resource Partition:
    2552                    ;*                                A-side   B-side
    2553                    ;*      .L units                     0        0     
    2554                    ;*      .S units                     0        0     
    2555                    ;*      .D units                     1*       0     
    2556                    ;*      .M units                     0        0     
    2557                    ;*      .X cross paths               0        0     
    2558                    ;*      .T address paths             1        0     
    2559                    ;*      Logical  ops (.LS)           0        0     (.L or .S unit)
    2560                    ;*      Addition ops (.LSD)          2        0     (.L or .S or .D unit)
    2561                    ;*      Bound(.L .S .LS)             0        0     
    2562                    ;*      Bound(.L .S .D .LS .LSD)     1*       0     
    2563                    ;*
    2564                    ;*      Searching for software pipeline schedule at ...
    2565                    ;*         ii = 1  Schedule found with 2 iterations in parallel
    2566                    ;*      Done
    2567                    ;*
    2568                    ;*      Loop will be splooped
    2569                    ;*      Collapsed epilog stages       : 0
    2570                    ;*      Collapsed prolog stages       : 0
    2571                    ;*      Minimum required memory pad   : 0 bytes
    2572                    ;*
    2573                    ;*      Minimum safe trip count       : 1 (after unrolling)
    2574                    ;*
    2575                    ;*      (Performance) If you know that this loop will always execute at a multiple of <8> and at least
    2576                    ;*----------------------------------------------------------------------------*
    2577 000006b4           $C$L10:    ; PIPED LOOP PROLOG
    2578                    
    2579 000006b4     0c67             SPLOOPD         1                 ;2 ; [A_L674] (P) 
    2580 000006b6     d256  ||         MV      .D1X    B4,A6             ; [A_D64P] Define a twin register
    2581 000006b8 01986ff0  ||         PACK2   .S1     A3,A6,A3          ; [A_S674] 
    2582                    
    2583                    ;** --------------------------------------------------------------------------*
    2584 000006c0           $C$L11:    ; PIPED LOOP KERNEL
    2585                            .dwpsn  file "C:/Users/Raz Aloni/OneDrive/School/EEL4924/DSP/C_Libs/MicCheckPeripherals/src/LC
TMS320C6x Assembler PC v8.1.3 Thu Apr 20 05:51:10 2017

Tools Copyright (c) 1996-2015 Texas Instruments Incorporated
LCD.asm                                                              PAGE   48

    2586                    
    2587 000006c0     6c66             SPMASK                            ; [] 
    2588 000006c2     d336  ||^        ADD     .D1X    B6,A6,A6          ; [A_D64P] 
    2589 000006c4     81c6  ||         MV      .L1     A3,A4             ; [A_L674] |401| (P) <0,0> 
    2590 000006c6     a1ce  ||         MV      .S1     A3,A5             ; [A_S674] |401| (P) <0,0> 
    2591                    
    2592 000006c8     1c66             SPKERNEL        0,0               ; [] 
    2593 000006ca     0d54  ||         STNDW   .D1T1   A5:A4,*A6++(8)    ; [A_D64P] |401| <0,1> 
    2594                    
    2595                    ;** --------------------------------------------------------------------------*
    2596 000006cc           $C$L12:    ; PIPED LOOP EPILOG
    2597 000006cc 9012a120     [!A1]   BNOP            $C$L16,5          ; [] 
    2598                               ; BRANCHCC OCCURS {$C$L16}        ; [] 
    2599                    ;** --------------------------------------------------------------------------*
    2600                    ; Peeled loop iterations for unrolled loop:
    2601 000006d0     90c7             MV      .L2X    A1,B4             ; [B_L674] 
    2602 000006d2     da6f             MVC     .S2     B4,ILC            ; [B_Sb674] 
    2603 000006d4     4c6e             NOP             3                 ; [A_L674] 
    2604                    ;*----------------------------------------------------------------------------*
    2605                    ;*   SOFTWARE PIPELINE INFORMATION
    2606                    ;*
    2607                    ;*      Loop found in file               : C:/Users/Raz Aloni/OneDrive/School/EEL4924/DSP/C_Libs/MicCh
    2608                    ;*      Loop source line                 : 399
    2609                    ;*      Loop opening brace source line   : 400
    2610                    ;*      Loop closing brace source line   : 402
    2611                    ;*      Known Minimum Trip Count         : 1                    
    2612                    ;*      Known Maximum Trip Count         : 3                    
    2613                    ;*      Known Max Trip Count Factor      : 1
    2614                    ;*      Loop Carried Dependency Bound(^) : 0
    2615                    ;*      Unpartitioned Resource Bound     : 1
    2616                    ;*      Partitioned Resource Bound(*)    : 1
    2617                    ;*      Resource Partition:
    2618                    ;*                                A-side   B-side
    2619                    ;*      .L units                     0        0     
    2620                    ;*      .S units                     0        0     
    2621                    ;*      .D units                     0        1*    
    2622                    ;*      .M units                     0        0     
    2623                    ;*      .X cross paths               0        0     
    2624                    ;*      .T address paths             0        1     
    2625                    ;*      Logical  ops (.LS)           0        0     (.L or .S unit)
    2626                    ;*      Addition ops (.LSD)          0        0     (.L or .S or .D unit)
    2627                    ;*      Bound(.L .S .LS)             0        0     
    2628                    ;*      Bound(.L .S .D .LS .LSD)     0        1*    
    2629                    ;*
    2630                    ;*      Searching for software pipeline schedule at ...
    2631                    ;*         ii = 1  Schedule found with 2 iterations in parallel
    2632                    ;*      Done
    2633                    ;*
    2634                    ;*      Loop will be splooped
    2635                    ;*      Collapsed epilog stages       : 0
    2636                    ;*      Collapsed prolog stages       : 0
    2637                    ;*      Minimum required memory pad   : 0 bytes
    2638                    ;*
    2639                    ;*      Minimum safe trip count       : 1
    2640                    ;*----------------------------------------------------------------------------*
TMS320C6x Assembler PC v8.1.3 Thu Apr 20 05:51:10 2017

Tools Copyright (c) 1996-2015 Texas Instruments Incorporated
LCD.asm                                                              PAGE   49

    2641 000006d6           $C$L13:    ; PIPED LOOP PROLOG
    2642                    
    2643 000006d6     0c66             SPLOOP          1                 ;2 ; [A_L674] (P) 
    2644 000006d8     9347  ||         MV      .L2X    A6,B4             ; [B_L674] 
    2645                    
    2646                    ;** --------------------------------------------------------------------------*
    2647 000006da           $C$L14:    ; PIPED LOOP KERNEL
    2648 000006da     1e55             STH     .D2T2   B5,*B4++(2)       ; [B_D64P] |401| (P) <0,0> 
    2649 000006e0 08034000             SPKERNEL        1,0               ; [] 
    2650                    ;** --------------------------------------------------------------------------*
    2651 000006e4           $C$L15:    ; PIPED LOOP EPILOG
    2652                    ;** --------------------------------------------------------------------------*
    2653 000006e4           $C$L16:    
    2654                            .dwpsn  file "C:/Users/Raz Aloni/OneDrive/School/EEL4924/DSP/C_Libs/MicCheckPeripherals/src/LC
    2655 000006e4 010be058             SUB     .L1     A2,1,A2           ; [A_L674] |397| 
    2656                    ;** --------------------------------------------------------------------------*
    2657 000006e8           $C$L17:    
    2658                    
    2659 000006e8 b004a359     [!A2]   MVK     .L1     1,A0              ; [A_L674] nullify predicate
    2660 000006ec affff291  || [ A2]   B       .S1     $C$L5             ; [A_S674] |397| 
    2661 000006f0 039c205b  ||         ADD     .L2     1,B7,B7           ; [B_L674] |397| 
    2662                    
    2663 0000070c c201e02a     [ A0]   MVK     .S2     960,B4            ; [B_Sb674] 
    2664 00000700 c300006f! || [ A0]   LDW     .D2T2   *+DP(FrameBufferData),B6 ; [B_D64P] 
    2665 00000704 c1800829  || [ A0]   MVK     .S1     16,A3             ; [A_S674] 
    2666 00000708 d10be059  || [!A0]   SUB     .L1     A2,1,A2           ; [A_L674] |397| 
    2667 000006fc d0802041  || [!A0]   MVK     .D1     1,A1              ; [A_D64P] nullify predicate
    2668                    
    2669 00000710 c81c8573     [ A0]   MPYLI   .M2     B4,B7,B17:B16     ; [B_M674] 
    2670 00000714 c08c0bf8  || [ A0]   CMPLTU  .L1     A0,A3,A1          ; [A_L674] 
    2671                    
    2672                            .dwpsn  file "C:/Users/Raz Aloni/OneDrive/School/EEL4924/DSP/C_Libs/MicCheckPeripherals/src/LC
    2673 00000718     5d3a     [!A0]   BNOP            $C$L17,2          ; [] |399| 
    2674                            .dwpsn  file "C:/Users/Raz Aloni/OneDrive/School/EEL4924/DSP/C_Libs/MicCheckPeripherals/src/LC
    2675                               ; BRANCHCC OCCURS {$C$L5}         ; [] |397| 
    2676                    ;** --------------------------------------------------------------------------*
    2677 0000071a           $C$L18:    
    2678                            .dwpsn  file "C:/Users/Raz Aloni/OneDrive/School/EEL4924/DSP/C_Libs/MicCheckPeripherals/src/LC
    2679                    $C$DW$211       .dwtag  DW_TAG_TI_branch
    2680                            .dwattr $C$DW$211, DW_AT_low_pc(0x00)
    2681                            .dwattr $C$DW$211, DW_AT_TI_return
    2682                    
    2683 0000071a     a1ef             RETNOP          B3,5              ; [] |404| 
    2684                               ; BRANCH OCCURS {B3}              ; [] |404| 
    2685                            .dwattr $C$DW$201, DW_AT_TI_end_file("C:/Users/Raz Aloni/OneDrive/School/EEL4924/DSP/C_Libs/Mi
    2686                            .dwattr $C$DW$201, DW_AT_TI_end_line(0x194)
    2687                            .dwattr $C$DW$201, DW_AT_TI_end_column(0x01)
    2688                            .dwendentry
    2689                            .dwendtag $C$DW$201
    2690                    
    2691 00000720                   .sect   ".text"
    2692                            .clink
    2693                            .global LCD_DrawImageAlpha
    2694                    
    2695                    $C$DW$212       .dwtag  DW_TAG_subprogram
TMS320C6x Assembler PC v8.1.3 Thu Apr 20 05:51:10 2017

Tools Copyright (c) 1996-2015 Texas Instruments Incorporated
LCD.asm                                                              PAGE   50

    2696                            .dwattr $C$DW$212, DW_AT_name("LCD_DrawImageAlpha")
    2697                            .dwattr $C$DW$212, DW_AT_low_pc(LCD_DrawImageAlpha)
    2698                            .dwattr $C$DW$212, DW_AT_high_pc(0x00)
    2699                            .dwattr $C$DW$212, DW_AT_TI_symbol_name("LCD_DrawImageAlpha")
    2700                            .dwattr $C$DW$212, DW_AT_external
    2701                            .dwattr $C$DW$212, DW_AT_TI_begin_file("C:/Users/Raz Aloni/OneDrive/School/EEL4924/DSP/C_Libs/
    2702                            .dwattr $C$DW$212, DW_AT_TI_begin_line(0x1bf)
    2703                            .dwattr $C$DW$212, DW_AT_TI_begin_column(0x06)
    2704                            .dwattr $C$DW$212, DW_AT_decl_file("C:/Users/Raz Aloni/OneDrive/School/EEL4924/DSP/C_Libs/MicC
    2705                            .dwattr $C$DW$212, DW_AT_decl_line(0x1bf)
    2706                            .dwattr $C$DW$212, DW_AT_decl_column(0x06)
    2707                            .dwattr $C$DW$212, DW_AT_TI_max_frame_size(0x00)
    2708                            .dwpsn  file "C:/Users/Raz Aloni/OneDrive/School/EEL4924/DSP/C_Libs/MicCheckPeripherals/src/LC
    2709                    
    2710                            .dwfde $C$DW$CIE, LCD_DrawImageAlpha
    2711                    $C$DW$213       .dwtag  DW_TAG_formal_parameter
    2712                            .dwattr $C$DW$213, DW_AT_name("image")
    2713                            .dwattr $C$DW$213, DW_AT_TI_symbol_name("image")
    2714                            .dwattr $C$DW$213, DW_AT_type(*$C$DW$T$876)
    2715                            .dwattr $C$DW$213, DW_AT_location[DW_OP_reg4]
    2716                    
    2717                    $C$DW$214       .dwtag  DW_TAG_formal_parameter
    2718                            .dwattr $C$DW$214, DW_AT_name("alpha")
    2719                            .dwattr $C$DW$214, DW_AT_TI_symbol_name("alpha")
    2720                            .dwattr $C$DW$214, DW_AT_type(*$C$DW$T$874)
    2721                            .dwattr $C$DW$214, DW_AT_location[DW_OP_reg20]
    2722                    
    2723                    $C$DW$215       .dwtag  DW_TAG_formal_parameter
    2724                            .dwattr $C$DW$215, DW_AT_name("originX")
    2725                            .dwattr $C$DW$215, DW_AT_TI_symbol_name("originX")
    2726                            .dwattr $C$DW$215, DW_AT_type(*$C$DW$T$188)
    2727                            .dwattr $C$DW$215, DW_AT_location[DW_OP_reg6]
    2728                    
    2729                    $C$DW$216       .dwtag  DW_TAG_formal_parameter
    2730                            .dwattr $C$DW$216, DW_AT_name("originY")
    2731                            .dwattr $C$DW$216, DW_AT_TI_symbol_name("originY")
    2732                            .dwattr $C$DW$216, DW_AT_type(*$C$DW$T$188)
    2733                            .dwattr $C$DW$216, DW_AT_location[DW_OP_reg22]
    2734                    
    2735                    $C$DW$217       .dwtag  DW_TAG_formal_parameter
    2736                            .dwattr $C$DW$217, DW_AT_name("width")
    2737                            .dwattr $C$DW$217, DW_AT_TI_symbol_name("width")
    2738                            .dwattr $C$DW$217, DW_AT_type(*$C$DW$T$188)
    2739                            .dwattr $C$DW$217, DW_AT_location[DW_OP_reg8]
    2740                    
    2741                    $C$DW$218       .dwtag  DW_TAG_formal_parameter
    2742                            .dwattr $C$DW$218, DW_AT_name("height")
    2743                            .dwattr $C$DW$218, DW_AT_TI_symbol_name("height")
    2744                            .dwattr $C$DW$218, DW_AT_type(*$C$DW$T$188)
    2745                            .dwattr $C$DW$218, DW_AT_location[DW_OP_reg24]
    2746                    
    2747                    
    2748                    ;******************************************************************************
    2749                    ;* FUNCTION NAME: LCD_DrawImageAlpha                                          *
    2750                    ;*                                                                            *
TMS320C6x Assembler PC v8.1.3 Thu Apr 20 05:51:10 2017

Tools Copyright (c) 1996-2015 Texas Instruments Incorporated
LCD.asm                                                              PAGE   51

    2751                    ;*   Regs Modified     : A0,A3,A5,A7,A8,A9,A16,B0,B1,B2,B5,B6,B7              *
    2752                    ;*   Regs Used         : A0,A3,A4,A5,A6,A7,A8,A9,A16,B0,B1,B2,B3,B4,B5,B6,B7, *
    2753                    ;*                           B8,DP                                            *
    2754                    ;*   Local Frame Size  : 0 Args + 0 Auto + 0 Save = 0 byte                    *
    2755                    ;******************************************************************************
    2756                    LCD_DrawImageAlpha:
    2757                    ;** --------------------------------------------------------------------------*
    2758                    $C$DW$219       .dwtag  DW_TAG_variable
    2759                            .dwattr $C$DW$219, DW_AT_name("width")
    2760                            .dwattr $C$DW$219, DW_AT_TI_symbol_name("width")
    2761                            .dwattr $C$DW$219, DW_AT_type(*$C$DW$T$1091)
    2762                            .dwattr $C$DW$219, DW_AT_location[DW_OP_reg18]
    2763                    
    2764                    $C$DW$220       .dwtag  DW_TAG_variable
    2765                            .dwattr $C$DW$220, DW_AT_name("originX")
    2766                            .dwattr $C$DW$220, DW_AT_TI_symbol_name("originX")
    2767                            .dwattr $C$DW$220, DW_AT_type(*$C$DW$T$1091)
    2768                            .dwattr $C$DW$220, DW_AT_location[DW_OP_reg6]
    2769                    
    2770                    $C$DW$221       .dwtag  DW_TAG_variable
    2771                            .dwattr $C$DW$221, DW_AT_name("alpha")
    2772                            .dwattr $C$DW$221, DW_AT_TI_symbol_name("alpha")
    2773                            .dwattr $C$DW$221, DW_AT_type(*$C$DW$T$1087)
    2774                            .dwattr $C$DW$221, DW_AT_location[DW_OP_reg20]
    2775                    
    2776                    $C$DW$222       .dwtag  DW_TAG_variable
    2777                            .dwattr $C$DW$222, DW_AT_name("image")
    2778                            .dwattr $C$DW$222, DW_AT_TI_symbol_name("image")
    2779                            .dwattr $C$DW$222, DW_AT_type(*$C$DW$T$1089)
    2780                            .dwattr $C$DW$222, DW_AT_location[DW_OP_reg4]
    2781                    
    2782                    $C$DW$223       .dwtag  DW_TAG_variable
    2783                            .dwattr $C$DW$223, DW_AT_name("i")
    2784                            .dwattr $C$DW$223, DW_AT_TI_symbol_name("i")
    2785                            .dwattr $C$DW$223, DW_AT_type(*$C$DW$T$154)
    2786                            .dwattr $C$DW$223, DW_AT_location[DW_OP_reg5]
    2787                    
    2788                    $C$DW$224       .dwtag  DW_TAG_variable
    2789                            .dwattr $C$DW$224, DW_AT_name("y")
    2790                            .dwattr $C$DW$224, DW_AT_TI_symbol_name("y")
    2791                            .dwattr $C$DW$224, DW_AT_type(*$C$DW$T$10)
    2792                            .dwattr $C$DW$224, DW_AT_location[DW_OP_reg7]
    2793                    
    2794                    $C$DW$225       .dwtag  DW_TAG_variable
    2795                            .dwattr $C$DW$225, DW_AT_name("x")
    2796                            .dwattr $C$DW$225, DW_AT_TI_symbol_name("x")
    2797                            .dwattr $C$DW$225, DW_AT_type(*$C$DW$T$10)
    2798                            .dwattr $C$DW$225, DW_AT_location[DW_OP_reg3]
    2799                    
    2800                            .dwcfi  cfa_offset, 0
    2801                    
    2802 00000720 01a0c841             ADD     .D1     A8,A6,A3          ; [A_D64P] |450| 
    2803 00000724 0280f029  ||         MVK     .S1     480,A5            ; [A_S674] |450| 
    2804 00000728 0299007b  ||         ADD     .L2     B8,B6,B5          ; [B_L674] |450| 
    2805 0000072c 00203059  ||         ADD     .L1X    1,B8,A0           ; [A_L674] |462| 
TMS320C6x Assembler PC v8.1.3 Thu Apr 20 05:51:10 2017

Tools Copyright (c) 1996-2015 Texas Instruments Incorporated
LCD.asm                                                              PAGE   52

    2806 00000730 012016a2  ||         MV      .S2X    A8,B2             ; [B_Sb674] |448| 
    2807                    
    2808                            .dwpsn  file "C:/Users/Raz Aloni/OneDrive/School/EEL4924/DSP/C_Libs/MicCheckPeripherals/src/LC
    2809                    
    2810 00000734 03808829             MVK     .S1     272,A7            ; [A_S674] |450| 
    2811 00000738 019469f8  ||         CMPGTU  .L1     A3,A5,A3          ; [A_L674] |450| 
    2812                    
    2813                            .dwpsn  file "C:/Users/Raz Aloni/OneDrive/School/EEL4924/DSP/C_Libs/MicCheckPeripherals/src/LC
    2814 0000073c 0280a358             ZERO    .L1     A5                ; [A_L674] |460| 
    2815                            .dwpsn  file "C:/Users/Raz Aloni/OneDrive/School/EEL4924/DSP/C_Libs/MicCheckPeripherals/src/LC
    2816                    
    2817 00000740 029cb9fb             CMPGTU  .L2X    B5,A7,B5          ; [B_L674] |450| 
    2818 00000744     f346  ||         MV      .L1X    B6,A7             ; [A_L674] |448| 
    2819                    
    2820 00000746     b5a9             OR      .L2X    A3,B5,B0          ; [B_L674] 
    2821                            .dwpsn  file "C:/Users/Raz Aloni/OneDrive/School/EEL4924/DSP/C_Libs/MicCheckPeripherals/src/LC
    2822 00000748 204ea120     [ B0]   BNOP            $C$L22,5          ; [] |450| 
    2823                               ; BRANCHCC OCCURS {$C$L22}        ; [] |450| 
    2824                    ;** --------------------------------------------------------------------------*
    2825                            .dwpsn  file "C:/Users/Raz Aloni/OneDrive/School/EEL4924/DSP/C_Libs/MicCheckPeripherals/src/LC
    2826                    
    2827 0000074c 703a2121     [!B2]   BNOP            $C$L21,1          ; [] |464| 
    2828 00000750 60880fdb  || [ B2]   MV      .L2     B2,B1             ; [B_L674] 
    2829 00000754 6417e058  || [ B2]   SUB     .L1     A5,1,A8           ; [A_L674] 
    2830                    
    2831 00000758 64911a40     [ B2]   ADDAH   .D1     A4,A8,A9          ; [A_D64P] 
    2832 00000760 6400006c!    [ B2]   LDW     .D2T1   *+DP(FrameBufferData),A8 ; [B_D64P] 
    2833                            .dwpsn  file "C:/Users/Raz Aloni/OneDrive/School/EEL4924/DSP/C_Libs/MicCheckPeripherals/src/LC
    2834 00000764 01980fd8             MV      .L1     A6,A3             ; [A_L674] |464| 
    2835                    ;** --------------------------------------------------------------------------*
    2836                    ;**   BEGIN LOOP $C$L19
    2837                    ;** --------------------------------------------------------------------------*
    2838 00000768           $C$L19:    
    2839 00000768 00000000             NOP             1                 ; [A_L674] 
    2840                            .dwpsn  file "C:/Users/Raz Aloni/OneDrive/School/EEL4924/DSP/C_Libs/MicCheckPeripherals/src/LC
    2841                               ; BRANCHCC OCCURS {$C$L21}        ; [] |464| 
    2842                    ;*----------------------------------------------------------------------------*
    2843                    ;*   SOFTWARE PIPELINE INFORMATION
    2844                    ;*
    2845                    ;*      Loop found in file               : C:/Users/Raz Aloni/OneDrive/School/EEL4924/DSP/C_Libs/MicCh
    2846                    ;*      Loop source line                 : 464
    2847                    ;*      Loop opening brace source line   : 465
    2848                    ;*      Loop closing brace source line   : 472
    2849                    ;*      Known Minimum Trip Count         : 1                    
    2850                    ;*      Known Maximum Trip Count         : 65535                    
    2851                    ;*      Known Max Trip Count Factor      : 1
    2852                    ;*      Loop Carried Dependency Bound(^) : 14
    2853                    ;*      Unpartitioned Resource Bound     : 3
    2854                    ;*      Partitioned Resource Bound(*)    : 3
    2855                    ;*      Resource Partition:
    2856                    ;*                                A-side   B-side
    2857                    ;*      .L units                     0        1     
    2858                    ;*      .S units                     3*       2     
    2859                    ;*      .D units                     1        3*    
    2860                    ;*      .M units                     0        0     
TMS320C6x Assembler PC v8.1.3 Thu Apr 20 05:51:10 2017

Tools Copyright (c) 1996-2015 Texas Instruments Incorporated
LCD.asm                                                              PAGE   53

    2861                    ;*      .X cross paths               1        1     
    2862                    ;*      .T address paths             2        1     
    2863                    ;*      Logical  ops (.LS)           0        0     (.L or .S unit)
    2864                    ;*      Addition ops (.LSD)          2        3     (.L or .S or .D unit)
    2865                    ;*      Bound(.L .S .LS)             2        2     
    2866                    ;*      Bound(.L .S .D .LS .LSD)     2        3*    
    2867                    ;*
    2868                    ;*      Searching for software pipeline schedule at ...
    2869                    ;*         ii = 14 Did not find schedule
    2870                    ;*      Disqualified loop: Did not find schedule
    2871                    ;*----------------------------------------------------------------------------*
    2872 0000076c           $C$L20:    
    2873                            .dwpsn  file "C:/Users/Raz Aloni/OneDrive/School/EEL4924/DSP/C_Libs/MicCheckPeripherals/src/LC
    2874                    
    2875 0000076c 081d4ca1             SHL     .S1     A7,10,A16         ; [A_S674] |470| 
    2876 00000770 02a41fda  ||         MV      .L2X    A9,B5             ; [B_L674] 
    2877                    
    2878                            .dwpsn  file "C:/Users/Raz Aloni/OneDrive/School/EEL4924/DSP/C_Libs/MicCheckPeripherals/src/LC
    2879 00000774 03143286             LDHU    .D2T2   *++B5(2),B6       ; [B_D64P] |466| 
    2880                            .dwpsn  file "C:/Users/Raz Aloni/OneDrive/School/EEL4924/DSP/C_Libs/MicCheckPeripherals/src/LC
    2881 00000778     ec91             SUB     .L2     B1,1,B1           ; [B_L674] |464| 
    2882                            .dwpsn  file "C:/Users/Raz Aloni/OneDrive/School/EEL4924/DSP/C_Libs/MicCheckPeripherals/src/LC
    2883                    
    2884 0000077a     36c6             MV      .L1X    B5,A9             ; [A_L674] |466| 
    2885 00000780     d7db  ||         SHL     .S2X    A7,6,B5           ; [B_Sb674] |470| 
    2886                    
    2887 00000782     26d0             ADD     .L1     1,A5,A5           ; [A_L674] |466| 
    2888                            .dwpsn  file "C:/Users/Raz Aloni/OneDrive/School/EEL4924/DSP/C_Libs/MicCheckPeripherals/src/LC
    2889 00000784 081610f8             SUB     .L1X    A16,B5,A16        ; [A_L674] |470| 
    2890                            .dwpsn  file "C:/Users/Raz Aloni/OneDrive/School/EEL4924/DSP/C_Libs/MicCheckPeripherals/src/LC
    2891                    
    2892 0000078c 0010ca7a             CMPEQ   .L2     B6,B4,B0          ; [B_L674] |466| 
    2893 00000788 08407a41  ||         ADDAH   .D1     A16,A3,A16        ; [A_D64P] |470| 
    2894                    
    2895                            .dwpsn  file "C:/Users/Raz Aloni/OneDrive/School/EEL4924/DSP/C_Libs/MicCheckPeripherals/src/LC
    2896 00000790 3390aa06     [!B0]   LDHU    .D1T2   *+A4[A5],B7       ; [A_D64P] |470| 
    2897                            .dwpsn  file "C:/Users/Raz Aloni/OneDrive/School/EEL4924/DSP/C_Libs/MicCheckPeripherals/src/LC
    2898 00000794 018c2058             ADD     .L1     1,A3,A3           ; [A_L674] |464| 
    2899                            .dwpsn  file "C:/Users/Raz Aloni/OneDrive/School/EEL4924/DSP/C_Libs/MicCheckPeripherals/src/LC
    2900 00000798 08410078             ADD     .L1     A8,A16,A16        ; [A_L674] |470| 
    2901                            .dwpsn  file "C:/Users/Raz Aloni/OneDrive/School/EEL4924/DSP/C_Libs/MicCheckPeripherals/src/LC
    2902 000007a0 4fe62120     [ B1]   BNOP            $C$L20,1          ; [] |464| 
    2903                            .dwpsn  file "C:/Users/Raz Aloni/OneDrive/School/EEL4924/DSP/C_Libs/MicCheckPeripherals/src/LC
    2904 000007a4 331f100a     [!B0]   EXTU    .S2     B7,24,16,B6       ; [B_Sb674] |470| 
    2905 000007a8 329d09a2     [!B0]   SHRU    .S2     B7,8,B5           ; [B_Sb674] |470| 
    2906 000007ac 3298affa     [!B0]   OR      .L2     B5,B6,B5          ; [B_L674] |470| 
    2907 000007b0 32c00256     [!B0]   STH     .D1T2   B5,*A16(0)        ; [A_D64P] |470| 
    2908                            .dwpsn  file "C:/Users/Raz Aloni/OneDrive/School/EEL4924/DSP/C_Libs/MicCheckPeripherals/src/LC
    2909                               ; BRANCHCC OCCURS {$C$L20}        ; [] |464| 
    2910                    ;** --------------------------------------------------------------------------*
    2911 000007b4           $C$L21:    
    2912                            .dwpsn  file "C:/Users/Raz Aloni/OneDrive/School/EEL4924/DSP/C_Libs/MicCheckPeripherals/src/LC
    2913                    
    2914 000007b4     ec00             SUB     .L1     A0,1,A0           ; [A_L674] |462| 
    2915 000007b6     27ae  ||         ADD     .S1     1,A7,A7           ; [A_S674] |462| 
TMS320C6x Assembler PC v8.1.3 Thu Apr 20 05:51:10 2017

Tools Copyright (c) 1996-2015 Texas Instruments Incorporated
LCD.asm                                                              PAGE   54

    2916                    
    2917 000007c4 d104a35a     [!A0]   MVK     .L2     1,B2              ; [B_L674] nullify predicate
    2918 000007c0 cffff513  || [ A0]   B       .S2     $C$L19            ; [B_Sb674] |462| 
    2919 000007b8 c1980fd9  || [ A0]   MV      .L1     A6,A3             ; [A_L674] |464| 
    2920                    
    2921                            .dwpsn  file "C:/Users/Raz Aloni/OneDrive/School/EEL4924/DSP/C_Libs/MicCheckPeripherals/src/LC
    2922                    
    2923 000007c8 7ffd2121     [!B2]   BNOP            $C$L21,1          ; [] |464| 
    2924 000007cc 6417e058  || [ B2]   SUB     .L1     A5,1,A8           ; [A_L674] 
    2925                    
    2926 000007d0 64911a40     [ B2]   ADDAH   .D1     A4,A8,A9          ; [A_D64P] 
    2927 000007d4 6400006c!    [ B2]   LDW     .D2T1   *+DP(FrameBufferData),A8 ; [B_D64P] 
    2928 000007d8 60880fda     [ B2]   MV      .L2     B2,B1             ; [B_L674] 
    2929                            .dwpsn  file "C:/Users/Raz Aloni/OneDrive/School/EEL4924/DSP/C_Libs/MicCheckPeripherals/src/LC
    2930                               ; BRANCHCC OCCURS {$C$L19}        ; [] |462| 
    2931                    ;** --------------------------------------------------------------------------*
    2932 000007dc           $C$L22:    
    2933                            .dwpsn  file "C:/Users/Raz Aloni/OneDrive/School/EEL4924/DSP/C_Libs/MicCheckPeripherals/src/LC
    2934                    $C$DW$226       .dwtag  DW_TAG_TI_branch
    2935                            .dwattr $C$DW$226, DW_AT_low_pc(0x00)
    2936                            .dwattr $C$DW$226, DW_AT_TI_return
    2937                    
    2938 000007dc 008ca362             RETNOP          B3,5              ; [] |474| 
    2939                               ; BRANCH OCCURS {B3}              ; [] |474| 
    2940                            .dwattr $C$DW$212, DW_AT_TI_end_file("C:/Users/Raz Aloni/OneDrive/School/EEL4924/DSP/C_Libs/Mi
    2941                            .dwattr $C$DW$212, DW_AT_TI_end_line(0x1da)
    2942                            .dwattr $C$DW$212, DW_AT_TI_end_column(0x01)
    2943                            .dwendentry
    2944                            .dwendtag $C$DW$212
    2945                    
    2946 000007e0                   .sect   ".text"
    2947                            .clink
    2948                            .global LCD_DrawImage
    2949                    
    2950                    $C$DW$227       .dwtag  DW_TAG_subprogram
    2951                            .dwattr $C$DW$227, DW_AT_name("LCD_DrawImage")
    2952                            .dwattr $C$DW$227, DW_AT_low_pc(LCD_DrawImage)
    2953                            .dwattr $C$DW$227, DW_AT_high_pc(0x00)
    2954                            .dwattr $C$DW$227, DW_AT_TI_symbol_name("LCD_DrawImage")
    2955                            .dwattr $C$DW$227, DW_AT_external
    2956                            .dwattr $C$DW$227, DW_AT_TI_begin_file("C:/Users/Raz Aloni/OneDrive/School/EEL4924/DSP/C_Libs/
    2957                            .dwattr $C$DW$227, DW_AT_TI_begin_line(0x19e)
    2958                            .dwattr $C$DW$227, DW_AT_TI_begin_column(0x06)
    2959                            .dwattr $C$DW$227, DW_AT_decl_file("C:/Users/Raz Aloni/OneDrive/School/EEL4924/DSP/C_Libs/MicC
    2960                            .dwattr $C$DW$227, DW_AT_decl_line(0x19e)
    2961                            .dwattr $C$DW$227, DW_AT_decl_column(0x06)
    2962                            .dwattr $C$DW$227, DW_AT_TI_max_frame_size(0x00)
    2963                            .dwpsn  file "C:/Users/Raz Aloni/OneDrive/School/EEL4924/DSP/C_Libs/MicCheckPeripherals/src/LC
    2964                    
    2965                            .dwfde $C$DW$CIE, LCD_DrawImage
    2966                    $C$DW$228       .dwtag  DW_TAG_formal_parameter
    2967                            .dwattr $C$DW$228, DW_AT_name("image")
    2968                            .dwattr $C$DW$228, DW_AT_TI_symbol_name("image")
    2969                            .dwattr $C$DW$228, DW_AT_type(*$C$DW$T$876)
    2970                            .dwattr $C$DW$228, DW_AT_location[DW_OP_reg4]
TMS320C6x Assembler PC v8.1.3 Thu Apr 20 05:51:10 2017

Tools Copyright (c) 1996-2015 Texas Instruments Incorporated
LCD.asm                                                              PAGE   55

    2971                    
    2972                    $C$DW$229       .dwtag  DW_TAG_formal_parameter
    2973                            .dwattr $C$DW$229, DW_AT_name("originX")
    2974                            .dwattr $C$DW$229, DW_AT_TI_symbol_name("originX")
    2975                            .dwattr $C$DW$229, DW_AT_type(*$C$DW$T$188)
    2976                            .dwattr $C$DW$229, DW_AT_location[DW_OP_reg20]
    2977                    
    2978                    $C$DW$230       .dwtag  DW_TAG_formal_parameter
    2979                            .dwattr $C$DW$230, DW_AT_name("originY")
    2980                            .dwattr $C$DW$230, DW_AT_TI_symbol_name("originY")
    2981                            .dwattr $C$DW$230, DW_AT_type(*$C$DW$T$188)
    2982                            .dwattr $C$DW$230, DW_AT_location[DW_OP_reg6]
    2983                    
    2984                    $C$DW$231       .dwtag  DW_TAG_formal_parameter
    2985                            .dwattr $C$DW$231, DW_AT_name("width")
    2986                            .dwattr $C$DW$231, DW_AT_TI_symbol_name("width")
    2987                            .dwattr $C$DW$231, DW_AT_type(*$C$DW$T$188)
    2988                            .dwattr $C$DW$231, DW_AT_location[DW_OP_reg22]
    2989                    
    2990                    $C$DW$232       .dwtag  DW_TAG_formal_parameter
    2991                            .dwattr $C$DW$232, DW_AT_name("height")
    2992                            .dwattr $C$DW$232, DW_AT_TI_symbol_name("height")
    2993                            .dwattr $C$DW$232, DW_AT_type(*$C$DW$T$188)
    2994                            .dwattr $C$DW$232, DW_AT_location[DW_OP_reg8]
    2995                    
    2996                    
    2997                    ;******************************************************************************
    2998                    ;* FUNCTION NAME: LCD_DrawImage                                               *
    2999                    ;*                                                                            *
    3000                    ;*   Regs Modified     : A0,A1,A3,A5,B0,B4,B5,B6,B7,B8,B9,B16,B31             *
    3001                    ;*   Regs Used         : A0,A1,A3,A4,A5,A6,A8,B0,B3,B4,B5,B6,B7,B8,B9,DP,B16, *
    3002                    ;*                           B31                                              *
    3003                    ;*   Local Frame Size  : 0 Args + 0 Auto + 0 Save = 0 byte                    *
    3004                    ;******************************************************************************
    3005                    LCD_DrawImage:
    3006                    ;** --------------------------------------------------------------------------*
    3007                    $C$DW$233       .dwtag  DW_TAG_variable
    3008                            .dwattr $C$DW$233, DW_AT_name("width")
    3009                            .dwattr $C$DW$233, DW_AT_TI_symbol_name("width")
    3010                            .dwattr $C$DW$233, DW_AT_type(*$C$DW$T$1091)
    3011                            .dwattr $C$DW$233, DW_AT_location[DW_OP_reg16]
    3012                    
    3013                    $C$DW$234       .dwtag  DW_TAG_variable
    3014                            .dwattr $C$DW$234, DW_AT_name("originX")
    3015                            .dwattr $C$DW$234, DW_AT_TI_symbol_name("originX")
    3016                            .dwattr $C$DW$234, DW_AT_type(*$C$DW$T$1091)
    3017                            .dwattr $C$DW$234, DW_AT_location[DW_OP_reg23]
    3018                    
    3019                    $C$DW$235       .dwtag  DW_TAG_variable
    3020                            .dwattr $C$DW$235, DW_AT_name("image")
    3021                            .dwattr $C$DW$235, DW_AT_TI_symbol_name("image")
    3022                            .dwattr $C$DW$235, DW_AT_type(*$C$DW$T$1089)
    3023                            .dwattr $C$DW$235, DW_AT_location[DW_OP_reg4]
    3024                    
    3025                    $C$DW$236       .dwtag  DW_TAG_variable
TMS320C6x Assembler PC v8.1.3 Thu Apr 20 05:51:10 2017

Tools Copyright (c) 1996-2015 Texas Instruments Incorporated
LCD.asm                                                              PAGE   56

    3026                            .dwattr $C$DW$236, DW_AT_name("i")
    3027                            .dwattr $C$DW$236, DW_AT_TI_symbol_name("i")
    3028                            .dwattr $C$DW$236, DW_AT_type(*$C$DW$T$154)
    3029                            .dwattr $C$DW$236, DW_AT_location[DW_OP_reg5]
    3030                    
    3031                    $C$DW$237       .dwtag  DW_TAG_variable
    3032                            .dwattr $C$DW$237, DW_AT_name("y")
    3033                            .dwattr $C$DW$237, DW_AT_TI_symbol_name("y")
    3034                            .dwattr $C$DW$237, DW_AT_type(*$C$DW$T$10)
    3035                            .dwattr $C$DW$237, DW_AT_location[DW_OP_reg22]
    3036                    
    3037                            .dwcfi  cfa_offset, 0
    3038                    
    3039 000007e0 00180fdb             MV      .L2     B6,B0             ; [B_L674] |415| 
    3040 000007e4 02988843  ||         ADD     .D2     B6,B4,B5          ; [B_D64P] |417| 
    3041 000007e8 0300f02b  ||         MVK     .S2     480,B6            ; [B_Sb674] |417| 
    3042 000007ec 01990079  ||         ADD     .L1     A8,A6,A3          ; [A_L674] |417| 
    3043 000007f0 02808829  ||         MVK     .S1     272,A5            ; [A_S674] |417| 
    3044 000007f4 00202940  ||         ADD     .D1     1,A8,A0           ; [A_D64P] |429| 
    3045                    
    3046 000007f8     0292             ZERO    .S1     A5                ; [A_S674] |427| 
    3047 000007fa     e24f  ||         MV      .S2     B4,B7             ; [B_Sb674] |415| 
    3048 00000800 0298a9fb  ||         CMPGTU  .L2     B5,B6,B5          ; [B_L674] |417| 
    3049 00000804 019469f8  ||         CMPGTU  .L1     A3,A5,A3          ; [A_L674] |417| 
    3050                    
    3051 00000808     d347             MV      .L2X    A6,B6             ; [B_L674] |415| 
    3052 0000080a     76b8             OR      .L1X    B5,A3,A1          ; [A_L674] 
    3053                            .dwpsn  file "C:/Users/Raz Aloni/OneDrive/School/EEL4924/DSP/C_Libs/MicCheckPeripherals/src/LC
    3054 0000080c 8039a120     [ A1]   BNOP            $C$L28,5          ; [] |417| 
    3055                               ; BRANCHCC OCCURS {$C$L28}        ; [] |417| 
    3056                    ;** --------------------------------------------------------------------------*
    3057                            .dwpsn  file "C:/Users/Raz Aloni/OneDrive/School/EEL4924/DSP/C_Libs/MicCheckPeripherals/src/LC
    3058                    
    3059 00000810 302d8121     [!B0]   BNOP            $C$L27,4          ; [] |431| 
    3060 00000814 0f83e05b  ||         SUB     .L2     B0,1,B31          ; [B_L674] 
    3061 00000818 2281e02b  || [ B0]   MVK     .S2     960,B5            ; [B_Sb674] 
    3062 00000820 2800006e! || [ B0]   LDW     .D2T2   *+DP(FrameBufferData),B16 ; [B_D64P] 
    3063                    
    3064                    ;** --------------------------------------------------------------------------*
    3065                    ;**   BEGIN LOOP $C$L23
    3066                    ;** --------------------------------------------------------------------------*
    3067 00000824           $C$L23:    
    3068 00000824 00000000             NOP             1                 ; [A_L674] 
    3069                               ; BRANCHCC OCCURS {$C$L27}        ; [] |431| 
    3070                    ;** --------------------------------------------------------------------------*
    3071 00000828 26fc03a2     [ B0]   MVC     .S2     B31,ILC           ; [B_Sb674] 
    3072                    ;*----------------------------------------------------------------------------*
    3073                    ;*   SOFTWARE PIPELINE INFORMATION
    3074                    ;*
    3075                    ;*      Loop found in file               : C:/Users/Raz Aloni/OneDrive/School/EEL4924/DSP/C_Libs/MicCh
    3076                    ;*      Loop source line                 : 431
    3077                    ;*      Loop opening brace source line   : 432
    3078                    ;*      Loop closing brace source line   : 434
    3079                    ;*      Known Minimum Trip Count         : 1                    
    3080                    ;*      Known Maximum Trip Count         : 65535                    
TMS320C6x Assembler PC v8.1.3 Thu Apr 20 05:51:10 2017

Tools Copyright (c) 1996-2015 Texas Instruments Incorporated
LCD.asm                                                              PAGE   57

    3081                    ;*      Known Max Trip Count Factor      : 1
    3082                    ;*      Loop Carried Dependency Bound(^) : 6
    3083                    ;*      Unpartitioned Resource Bound     : 1
    3084                    ;*      Partitioned Resource Bound(*)    : 2
    3085                    ;*      Resource Partition:
    3086                    ;*                                A-side   B-side
    3087                    ;*      .L units                     0        0     
    3088                    ;*      .S units                     0        0     
    3089                    ;*      .D units                     1*       1*    
    3090                    ;*      .M units                     0        0     
    3091                    ;*      .X cross paths               0        0     
    3092                    ;*      .T address paths             0        2     
    3093                    ;*      Logical  ops (.LS)           0        0     (.L or .S unit)
    3094                    ;*      Addition ops (.LSD)          0        0     (.L or .S or .D unit)
    3095                    ;*      Bound(.L .S .LS)             0        0     
    3096                    ;*      Bound(.L .S .D .LS .LSD)     1*       1*    
    3097                    ;*
    3098                    ;*      Searching for software pipeline schedule at ...
    3099                    ;*         ii = 6  Schedule found with 2 iterations in parallel
    3100                    ;*      Done
    3101                    ;*
    3102                    ;*      Loop will be splooped
    3103                    ;*      Collapsed epilog stages       : 0
    3104                    ;*      Collapsed prolog stages       : 0
    3105                    ;*      Minimum required memory pad   : 0 bytes
    3106                    ;*
    3107                    ;*      Minimum safe trip count       : 1
    3108                    ;*
    3109                    ;*      (Performance) Consider adding the restrict qualifier to the definition of image if they don't 
    3110                    ;*----------------------------------------------------------------------------*
    3111 0000082c           $C$L24:    ; PIPED LOOP PROLOG
    3112                    
    3113 0000082c 0283a001             SPLOOPD         6                 ;12 ; [A_L674] (P) 
    3114 00000830 0190ba41  ||         ADDAH   .D1     A4,A5,A3          ; [A_D64P] 
    3115 00000834 0418a572  ||         MPYLI   .M2     B5,B6,B9:B8       ; [B_M674] 
    3116                    
    3117                    ;** --------------------------------------------------------------------------*
    3118 00000838           $C$L25:    ; PIPED LOOP KERNEL
    3119                            .dwpsn  file "C:/Users/Raz Aloni/OneDrive/School/EEL4924/DSP/C_Libs/MicCheckPeripherals/src/LC
    3120 00000838 020c3606             LDHU    .D1T2   *A3++(2),B4       ; [A_D64P] |433| (P) <0,0>  ^ 
    3121 0000083c 00002000             NOP             2                 ; [A_L674] 
    3122                    
    3123 00000840 000b0001             SPMASK                            ; [] 
    3124 00000844 02a2007a  ||^        ADD     .L2     B16,B8,B5         ; [B_L674] 
    3125                    
    3126 00000848 00830001             SPMASK                            ; [] 
    3127 0000084c 0294fa42  ||^        ADDAH   .D2     B5,B7,B5          ; [B_D64P] 
    3128                    
    3129 00000850     2c67             SPMASK                            ; [] 
    3130 00000852     b050  ||^        ADD     .L1X    B0,A5,A5          ; [A_L674] |433| 
    3131 00000854     1ec5  ||         STH     .D2T2   B4,*B5++(2)       ; [B_D64P] |433| (P) <0,5>  ^ 
    3132                    
    3133 00000856     1c66             SPKERNEL        0,0               ; [] 
    3134                    ;** --------------------------------------------------------------------------*
    3135 00000858           $C$L26:    ; PIPED LOOP EPILOG
TMS320C6x Assembler PC v8.1.3 Thu Apr 20 05:51:10 2017

Tools Copyright (c) 1996-2015 Texas Instruments Incorporated
LCD.asm                                                              PAGE   58

    3136 00000858     0c6e             NOP             1                 ; [A_L674] 
    3137                    ;** --------------------------------------------------------------------------*
    3138 0000085a           $C$L27:    
    3139                            .dwpsn  file "C:/Users/Raz Aloni/OneDrive/School/EEL4924/DSP/C_Libs/MicCheckPeripherals/src/LC
    3140 0000085a     ec00             SUB     .L1     A0,1,A0           ; [A_L674] |429| 
    3141                    
    3142 00000860     18aa     [ A0]   B       .S1     $C$L23            ; [A_S674] |429| 
    3143 00000862     6867  || [!A0]   MVK     .L2     1,B0              ; [B_L674] nullify predicate
    3144                    
    3145                            .dwpsn  file "C:/Users/Raz Aloni/OneDrive/School/EEL4924/DSP/C_Libs/MicCheckPeripherals/src/LC
    3146 00000864 3ffd6120     [!B0]   BNOP            $C$L27,3          ; [] |431| 
    3147                            .dwpsn  file "C:/Users/Raz Aloni/OneDrive/School/EEL4924/DSP/C_Libs/MicCheckPeripherals/src/LC
    3148                    
    3149 00000868 2281e02b     [ B0]   MVK     .S2     960,B5            ; [B_Sb674] 
    3150 0000086c 2800006f! || [ B0]   LDW     .D2T2   *+DP(FrameBufferData),B16 ; [B_D64P] 
    3151 00000870     2761  ||         ADD     .L2     1,B6,B6           ; [B_L674] |429| 
    3152                    
