TMS320C6x Assembler PC v8.1.3 Fri Apr 14 08:40:30 2017

Tools Copyright (c) 1996-2015 Texas Instruments Incorporated
MicInterface.asm                                                     PAGE    1

       1                    ;******************************************************************************
       2                    ;* G3 TMS320C6x C/C++ Codegen                                       PC v8.1.3 *
       3                    ;* Date/Time created: Fri Apr 14 08:40:29 2017                                *
       4                    ;******************************************************************************
       5                            .compiler_opts --abi=eabi --array_alignment=8 --diag_wrap=off --endian=little --hll_source=on 
       6                    
       7                    ;******************************************************************************
       8                    ;* GLOBAL FILE PARAMETERS                                                     *
       9                    ;*                                                                            *
      10                    ;*   Architecture      : TMS320C674x                                          *
      11                    ;*   Optimization      : Enabled at level 3                                   *
      12                    ;*   Optimizing for    : Speed                                                *
      13                    ;*                       Based on options: -o3, no -ms                        *
      14                    ;*   Endian            : Little                                               *
      15                    ;*   Interrupt Thrshld : Disabled                                             *
      16                    ;*   Data Access Model : Far Aggregate Data                                   *
      17                    ;*   Pipelining        : Enabled                                              *
      18                    ;*   Speculate Loads   : Enabled with threshold = 0                           *
      19                    ;*   Memory Aliases    : Presume are aliases (pessimistic)                    *
      20                    ;*   Debug Info        : DWARF Debug                                          *
      21                    ;*                                                                            *
      22                    ;******************************************************************************
      23                    
      24                            .asg    A15, FP
      25                            .asg    B14, DP
      26                            .asg    B15, SP
      27                            .global $bss
      28                    
      29                    
      30                    $C$DW$CU        .dwtag  DW_TAG_compile_unit
      31                            .dwattr $C$DW$CU, DW_AT_name("C:/Users/Raz Aloni/OneDrive/School/EEL4924/DSP/C_Libs/MicCheckPe
      32                            .dwattr $C$DW$CU, DW_AT_producer("TI G3 TMS320C6x C/C++ Codegen PC v8.1.3 Copyright (c) 1996-2
      33                            .dwattr $C$DW$CU, DW_AT_TI_version(0x01)
      34                            .dwattr $C$DW$CU, DW_AT_comp_dir("C:\Users\Raz Aloni\OneDrive\School\EEL4924\DSP\DSP_Workspace
      35                    
      36                    $C$DW$1 .dwtag  DW_TAG_subprogram
      37                            .dwattr $C$DW$1, DW_AT_name("ti_sysbios_knl_Queue_put__E")
      38                            .dwattr $C$DW$1, DW_AT_TI_symbol_name("ti_sysbios_knl_Queue_put__E")
      39                            .dwattr $C$DW$1, DW_AT_declaration
      40                            .dwattr $C$DW$1, DW_AT_external
      41                            .dwattr $C$DW$1, DW_AT_decl_file("C:/ti/bios_6_50_00_10/packages/ti/sysbios/knl/Queue.h")
      42                            .dwattr $C$DW$1, DW_AT_decl_line(0x179)
      43                            .dwattr $C$DW$1, DW_AT_decl_column(0x13)
      44                    $C$DW$2 .dwtag  DW_TAG_formal_parameter
      45                            .dwattr $C$DW$2, DW_AT_type(*$C$DW$T$444)
      46                    
      47                    $C$DW$3 .dwtag  DW_TAG_formal_parameter
      48                            .dwattr $C$DW$3, DW_AT_type(*$C$DW$T$409)
      49                    
      50                            .dwendtag $C$DW$1
      51                    
      52                    
      53                    $C$DW$4 .dwtag  DW_TAG_subprogram
      54                            .dwattr $C$DW$4, DW_AT_name("ti_sysbios_knl_Semaphore_post__E")
      55                            .dwattr $C$DW$4, DW_AT_TI_symbol_name("ti_sysbios_knl_Semaphore_post__E")
TMS320C6x Assembler PC v8.1.3 Fri Apr 14 08:40:30 2017

Tools Copyright (c) 1996-2015 Texas Instruments Incorporated
MicInterface.asm                                                     PAGE    2

      56                            .dwattr $C$DW$4, DW_AT_declaration
      57                            .dwattr $C$DW$4, DW_AT_external
      58                            .dwattr $C$DW$4, DW_AT_decl_file("C:/ti/bios_6_50_00_10/packages/ti/sysbios/knl/Semaphore.h")
      59                            .dwattr $C$DW$4, DW_AT_decl_line(0x1e1)
      60                            .dwattr $C$DW$4, DW_AT_decl_column(0x13)
      61                    $C$DW$5 .dwtag  DW_TAG_formal_parameter
      62                            .dwattr $C$DW$5, DW_AT_type(*$C$DW$T$840)
      63                    
      64                            .dwendtag $C$DW$4
      65                    
      66                    
      67                    $C$DW$6 .dwtag  DW_TAG_subprogram
      68                            .dwattr $C$DW$6, DW_AT_name("UARTConfigSetExpClk")
      69                            .dwattr $C$DW$6, DW_AT_TI_symbol_name("UARTConfigSetExpClk")
      70                            .dwattr $C$DW$6, DW_AT_declaration
      71                            .dwattr $C$DW$6, DW_AT_external
      72                            .dwattr $C$DW$6, DW_AT_decl_file("C:/ti/OMAPL138_StarterWare_1_10_04_01/include/uart.h")
      73                            .dwattr $C$DW$6, DW_AT_decl_line(0x16f)
      74                            .dwattr $C$DW$6, DW_AT_decl_column(0x06)
      75                    $C$DW$7 .dwtag  DW_TAG_formal_parameter
      76                            .dwattr $C$DW$7, DW_AT_type(*$C$DW$T$11)
      77                    
      78                    $C$DW$8 .dwtag  DW_TAG_formal_parameter
      79                            .dwattr $C$DW$8, DW_AT_type(*$C$DW$T$11)
      80                    
      81                    $C$DW$9 .dwtag  DW_TAG_formal_parameter
      82                            .dwattr $C$DW$9, DW_AT_type(*$C$DW$T$11)
      83                    
      84                    $C$DW$10        .dwtag  DW_TAG_formal_parameter
      85                            .dwattr $C$DW$10, DW_AT_type(*$C$DW$T$11)
      86                    
      87                    $C$DW$11        .dwtag  DW_TAG_formal_parameter
      88                            .dwattr $C$DW$11, DW_AT_type(*$C$DW$T$11)
      89                    
      90                            .dwendtag $C$DW$6
      91                    
      92                    
      93                    $C$DW$12        .dwtag  DW_TAG_subprogram
      94                            .dwattr $C$DW$12, DW_AT_name("UARTFIFOLevelSet")
      95                            .dwattr $C$DW$12, DW_AT_TI_symbol_name("UARTFIFOLevelSet")
      96                            .dwattr $C$DW$12, DW_AT_declaration
      97                            .dwattr $C$DW$12, DW_AT_external
      98                            .dwattr $C$DW$12, DW_AT_decl_file("C:/ti/OMAPL138_StarterWare_1_10_04_01/include/uart.h")
      99                            .dwattr $C$DW$12, DW_AT_decl_line(0x174)
     100                            .dwattr $C$DW$12, DW_AT_decl_column(0x06)
     101                    $C$DW$13        .dwtag  DW_TAG_formal_parameter
     102                            .dwattr $C$DW$13, DW_AT_type(*$C$DW$T$11)
     103                    
     104                    $C$DW$14        .dwtag  DW_TAG_formal_parameter
     105                            .dwattr $C$DW$14, DW_AT_type(*$C$DW$T$11)
     106                    
     107                            .dwendtag $C$DW$12
     108                    
     109                    
     110                    $C$DW$15        .dwtag  DW_TAG_subprogram
TMS320C6x Assembler PC v8.1.3 Fri Apr 14 08:40:30 2017

Tools Copyright (c) 1996-2015 Texas Instruments Incorporated
MicInterface.asm                                                     PAGE    3

     111                            .dwattr $C$DW$15, DW_AT_name("UARTEnable")
     112                            .dwattr $C$DW$15, DW_AT_TI_symbol_name("UARTEnable")
     113                            .dwattr $C$DW$15, DW_AT_declaration
     114                            .dwattr $C$DW$15, DW_AT_external
     115                            .dwattr $C$DW$15, DW_AT_decl_file("C:/ti/OMAPL138_StarterWare_1_10_04_01/include/uart.h")
     116                            .dwattr $C$DW$15, DW_AT_decl_line(0x177)
     117                            .dwattr $C$DW$15, DW_AT_decl_column(0x06)
     118                    $C$DW$16        .dwtag  DW_TAG_formal_parameter
     119                            .dwattr $C$DW$16, DW_AT_type(*$C$DW$T$11)
     120                    
     121                            .dwendtag $C$DW$15
     122                    
     123                    
     124                    $C$DW$17        .dwtag  DW_TAG_subprogram
     125                            .dwattr $C$DW$17, DW_AT_name("UARTFIFOEnable")
     126                            .dwattr $C$DW$17, DW_AT_TI_symbol_name("UARTFIFOEnable")
     127                            .dwattr $C$DW$17, DW_AT_declaration
     128                            .dwattr $C$DW$17, DW_AT_external
     129                            .dwattr $C$DW$17, DW_AT_decl_file("C:/ti/OMAPL138_StarterWare_1_10_04_01/include/uart.h")
     130                            .dwattr $C$DW$17, DW_AT_decl_line(0x179)
     131                            .dwattr $C$DW$17, DW_AT_decl_column(0x06)
     132                    $C$DW$18        .dwtag  DW_TAG_formal_parameter
     133                            .dwattr $C$DW$18, DW_AT_type(*$C$DW$T$11)
     134                    
     135                            .dwendtag $C$DW$17
     136                    
     137                    
     138                    $C$DW$19        .dwtag  DW_TAG_subprogram
     139                            .dwattr $C$DW$19, DW_AT_name("UARTCharsAvail")
     140                            .dwattr $C$DW$19, DW_AT_TI_symbol_name("UARTCharsAvail")
     141                            .dwattr $C$DW$19, DW_AT_type(*$C$DW$T$11)
     142                            .dwattr $C$DW$19, DW_AT_declaration
     143                            .dwattr $C$DW$19, DW_AT_external
     144                            .dwattr $C$DW$19, DW_AT_decl_file("C:/ti/OMAPL138_StarterWare_1_10_04_01/include/uart.h")
     145                            .dwattr $C$DW$19, DW_AT_decl_line(0x17b)
     146                            .dwattr $C$DW$19, DW_AT_decl_column(0x0e)
     147                    $C$DW$20        .dwtag  DW_TAG_formal_parameter
     148                            .dwattr $C$DW$20, DW_AT_type(*$C$DW$T$11)
     149                    
     150                            .dwendtag $C$DW$19
     151                    
     152                    
     153                    $C$DW$21        .dwtag  DW_TAG_subprogram
     154                            .dwattr $C$DW$21, DW_AT_name("UARTCharGetNonBlocking")
     155                            .dwattr $C$DW$21, DW_AT_TI_symbol_name("UARTCharGetNonBlocking")
     156                            .dwattr $C$DW$21, DW_AT_type(*$C$DW$T$10)
     157                            .dwattr $C$DW$21, DW_AT_declaration
     158                            .dwattr $C$DW$21, DW_AT_external
     159                            .dwattr $C$DW$21, DW_AT_decl_file("C:/ti/OMAPL138_StarterWare_1_10_04_01/include/uart.h")
     160                            .dwattr $C$DW$21, DW_AT_decl_line(0x181)
     161                            .dwattr $C$DW$21, DW_AT_decl_column(0x05)
     162                    $C$DW$22        .dwtag  DW_TAG_formal_parameter
     163                            .dwattr $C$DW$22, DW_AT_type(*$C$DW$T$11)
     164                    
     165                            .dwendtag $C$DW$21
TMS320C6x Assembler PC v8.1.3 Fri Apr 14 08:40:30 2017

Tools Copyright (c) 1996-2015 Texas Instruments Incorporated
MicInterface.asm                                                     PAGE    4

     166                    
     167                    
     168                    $C$DW$23        .dwtag  DW_TAG_subprogram
     169                            .dwattr $C$DW$23, DW_AT_name("UARTIntEnable")
     170                            .dwattr $C$DW$23, DW_AT_TI_symbol_name("UARTIntEnable")
     171                            .dwattr $C$DW$23, DW_AT_declaration
     172                            .dwattr $C$DW$23, DW_AT_external
     173                            .dwattr $C$DW$23, DW_AT_decl_file("C:/ti/OMAPL138_StarterWare_1_10_04_01/include/uart.h")
     174                            .dwattr $C$DW$23, DW_AT_decl_line(0x182)
     175                            .dwattr $C$DW$23, DW_AT_decl_column(0x06)
     176                    $C$DW$24        .dwtag  DW_TAG_formal_parameter
     177                            .dwattr $C$DW$24, DW_AT_type(*$C$DW$T$11)
     178                    
     179                    $C$DW$25        .dwtag  DW_TAG_formal_parameter
     180                            .dwattr $C$DW$25, DW_AT_type(*$C$DW$T$11)
     181                    
     182                            .dwendtag $C$DW$23
     183                    
     184                    
     185                    $C$DW$26        .dwtag  DW_TAG_subprogram
     186                            .dwattr $C$DW$26, DW_AT_name("UARTIntStatus")
     187                            .dwattr $C$DW$26, DW_AT_TI_symbol_name("UARTIntStatus")
     188                            .dwattr $C$DW$26, DW_AT_type(*$C$DW$T$11)
     189                            .dwattr $C$DW$26, DW_AT_declaration
     190                            .dwattr $C$DW$26, DW_AT_external
     191                            .dwattr $C$DW$26, DW_AT_decl_file("C:/ti/OMAPL138_StarterWare_1_10_04_01/include/uart.h")
     192                            .dwattr $C$DW$26, DW_AT_decl_line(0x184)
     193                            .dwattr $C$DW$26, DW_AT_decl_column(0x0e)
     194                    $C$DW$27        .dwtag  DW_TAG_formal_parameter
     195                            .dwattr $C$DW$27, DW_AT_type(*$C$DW$T$11)
     196                    
     197                            .dwendtag $C$DW$26
     198                    
     199                    
     200                    $C$DW$28        .dwtag  DW_TAG_subprogram
     201                            .dwattr $C$DW$28, DW_AT_name("UARTCharPut")
     202                            .dwattr $C$DW$28, DW_AT_TI_symbol_name("UARTCharPut")
     203                            .dwattr $C$DW$28, DW_AT_declaration
     204                            .dwattr $C$DW$28, DW_AT_external
     205                            .dwattr $C$DW$28, DW_AT_decl_file("C:/ti/OMAPL138_StarterWare_1_10_04_01/include/uart.h")
     206                            .dwattr $C$DW$28, DW_AT_decl_line(0x186)
     207                            .dwattr $C$DW$28, DW_AT_decl_column(0x06)
     208                    $C$DW$29        .dwtag  DW_TAG_formal_parameter
     209                            .dwattr $C$DW$29, DW_AT_type(*$C$DW$T$11)
     210                    
     211                    $C$DW$30        .dwtag  DW_TAG_formal_parameter
     212                            .dwattr $C$DW$30, DW_AT_type(*$C$DW$T$6)
     213                    
     214                            .dwendtag $C$DW$28
     215                    
     216                    
     217                    $C$DW$31        .dwtag  DW_TAG_subprogram
     218                            .dwattr $C$DW$31, DW_AT_name("PSCModuleControl")
     219                            .dwattr $C$DW$31, DW_AT_TI_symbol_name("PSCModuleControl")
     220                            .dwattr $C$DW$31, DW_AT_type(*$C$DW$T$10)
TMS320C6x Assembler PC v8.1.3 Fri Apr 14 08:40:30 2017

Tools Copyright (c) 1996-2015 Texas Instruments Incorporated
MicInterface.asm                                                     PAGE    5

     221                            .dwattr $C$DW$31, DW_AT_declaration
     222                            .dwattr $C$DW$31, DW_AT_external
     223                            .dwattr $C$DW$31, DW_AT_decl_file("C:/ti/OMAPL138_StarterWare_1_10_04_01/include/psc.h")
     224                            .dwattr $C$DW$31, DW_AT_decl_line(0x3a)
     225                            .dwattr $C$DW$31, DW_AT_decl_column(0x05)
     226                    $C$DW$32        .dwtag  DW_TAG_formal_parameter
     227                            .dwattr $C$DW$32, DW_AT_type(*$C$DW$T$11)
     228                    
     229                    $C$DW$33        .dwtag  DW_TAG_formal_parameter
     230                            .dwattr $C$DW$33, DW_AT_type(*$C$DW$T$11)
     231                    
     232                    $C$DW$34        .dwtag  DW_TAG_formal_parameter
     233                            .dwattr $C$DW$34, DW_AT_type(*$C$DW$T$11)
     234                    
     235                    $C$DW$35        .dwtag  DW_TAG_formal_parameter
     236                            .dwattr $C$DW$35, DW_AT_type(*$C$DW$T$11)
     237                    
     238                            .dwendtag $C$DW$31
     239                    
     240                    $C$DW$36        .dwtag  DW_TAG_variable
     241                            .dwattr $C$DW$36, DW_AT_name("MicButtonQueue")
     242                            .dwattr $C$DW$36, DW_AT_TI_symbol_name("MicButtonQueue")
     243                            .dwattr $C$DW$36, DW_AT_type(*$C$DW$T$1649)
     244                            .dwattr $C$DW$36, DW_AT_declaration
     245                            .dwattr $C$DW$36, DW_AT_external
     246                            .dwattr $C$DW$36, DW_AT_decl_file("C:/Users/Raz Aloni/OneDrive/School/EEL4924/DSP/DSP_Workspac
     247                            .dwattr $C$DW$36, DW_AT_decl_line(0x23)
     248                            .dwattr $C$DW$36, DW_AT_decl_column(0x2a)
     249                    
     250                    $C$DW$37        .dwtag  DW_TAG_variable
     251                            .dwattr $C$DW$37, DW_AT_name("MicButtonQueueSem")
     252                            .dwattr $C$DW$37, DW_AT_TI_symbol_name("MicButtonQueueSem")
     253                            .dwattr $C$DW$37, DW_AT_type(*$C$DW$T$1669)
     254                            .dwattr $C$DW$37, DW_AT_declaration
     255                            .dwattr $C$DW$37, DW_AT_external
     256                            .dwattr $C$DW$37, DW_AT_decl_file("C:/Users/Raz Aloni/OneDrive/School/EEL4924/DSP/DSP_Workspac
     257                            .dwattr $C$DW$37, DW_AT_decl_line(0x26)
     258                            .dwattr $C$DW$37, DW_AT_decl_column(0x2e)
     259                    
     260 00000000                   .sect   ".rodata"
     261                            .align  4
     262                            .elfsym sysConfigRegs,SYM_SIZE(4)
     263 00000000           sysConfigRegs:
     264 00000000 01C14000          .bits   29442048,32                     ; sysConfigRegs @ 0
     265                    
     266                    $C$DW$38        .dwtag  DW_TAG_variable
     267                            .dwattr $C$DW$38, DW_AT_name("sysConfigRegs")
     268                            .dwattr $C$DW$38, DW_AT_TI_symbol_name("sysConfigRegs")
     269                            .dwattr $C$DW$38, DW_AT_type(*$C$DW$T$683)
     270                            .dwattr $C$DW$38, DW_AT_location[DW_OP_addr sysConfigRegs]
     271                            .dwattr $C$DW$38, DW_AT_decl_file("C:/Users/Raz Aloni/OneDrive/School/EEL4924/DSP/C_Libs/MicCh
     272                            .dwattr $C$DW$38, DW_AT_decl_line(0x2c)
     273                            .dwattr $C$DW$38, DW_AT_decl_column(0x1b)
     274                    
     275                            .farcommon      Msg$1,12,4
TMS320C6x Assembler PC v8.1.3 Fri Apr 14 08:40:30 2017

Tools Copyright (c) 1996-2015 Texas Instruments Incorporated
MicInterface.asm                                                     PAGE    6

     276                    ;       C:\ti\ccsv7\tools\compiler\ti-cgt-c6000_8.1.3\bin\opt6x.exe C:\\Users\\RAZALO~1\\AppData\\Loca
     277 00000000                   .sect   ".text"
     278                            .clink
     279                            .global MicInterfaceWriteLed
     280                    
     281                    $C$DW$39        .dwtag  DW_TAG_subprogram
     282                            .dwattr $C$DW$39, DW_AT_name("MicInterfaceWriteLed")
     283                            .dwattr $C$DW$39, DW_AT_low_pc(MicInterfaceWriteLed)
     284                            .dwattr $C$DW$39, DW_AT_high_pc(0x00)
     285                            .dwattr $C$DW$39, DW_AT_TI_symbol_name("MicInterfaceWriteLed")
     286                            .dwattr $C$DW$39, DW_AT_external
     287                            .dwattr $C$DW$39, DW_AT_TI_begin_file("C:/Users/Raz Aloni/OneDrive/School/EEL4924/DSP/C_Libs/M
     288                            .dwattr $C$DW$39, DW_AT_TI_begin_line(0x53)
     289                            .dwattr $C$DW$39, DW_AT_TI_begin_column(0x06)
     290                            .dwattr $C$DW$39, DW_AT_decl_file("C:/Users/Raz Aloni/OneDrive/School/EEL4924/DSP/C_Libs/MicCh
     291                            .dwattr $C$DW$39, DW_AT_decl_line(0x53)
     292                            .dwattr $C$DW$39, DW_AT_decl_column(0x06)
     293                            .dwattr $C$DW$39, DW_AT_TI_max_frame_size(0x08)
     294                            .dwpsn  file "C:/Users/Raz Aloni/OneDrive/School/EEL4924/DSP/C_Libs/MicCheckPeripherals/src/Mi
     295                    
     296                            .dwfde $C$DW$CIE, MicInterfaceWriteLed
     297                    $C$DW$40        .dwtag  DW_TAG_formal_parameter
     298                            .dwattr $C$DW$40, DW_AT_name("ledColor")
     299                            .dwattr $C$DW$40, DW_AT_TI_symbol_name("ledColor")
     300                            .dwattr $C$DW$40, DW_AT_type(*$C$DW$T$659)
     301                            .dwattr $C$DW$40, DW_AT_location[DW_OP_reg4]
     302                    
     303                    
     304                    ;******************************************************************************
     305                    ;* FUNCTION NAME: MicInterfaceWriteLed                                        *
     306                    ;*                                                                            *
     307                    ;*   Regs Modified     : A0,A1,A2,A3,A4,A5,A6,A7,A8,A9,A16,A17,A18,A19,A20,   *
     308                    ;*                           A21,A22,A23,A24,A25,A26,A27,A28,A29,A30,A31,B0,  *
     309                    ;*                           B1,B2,B3,B4,B5,B6,B7,B8,B9,B16,B17,B18,B19,B20,  *
     310                    ;*                           B21,B22,B23,B24,B25,B26,B27,B28,B29,B30,B31      *
     311                    ;*   Regs Used         : A0,A1,A2,A3,A4,A5,A6,A7,A8,A9,A16,A17,A18,A19,A20,   *
     312                    ;*                           A21,A22,A23,A24,A25,A26,A27,A28,A29,A30,A31,B0,  *
     313                    ;*                           B1,B2,B3,B4,B5,B6,B7,B8,B9,DP,SP,B16,B17,B18,B19,*
     314                    ;*                           B20,B21,B22,B23,B24,B25,B26,B27,B28,B29,B30,B31  *
     315                    ;*   Local Frame Size  : 0 Args + 0 Auto + 4 Save = 4 byte                    *
     316                    ;******************************************************************************
     317                    MicInterfaceWriteLed:
     318                    ;** --------------------------------------------------------------------------*
     319                    $C$DW$41        .dwtag  DW_TAG_variable
     320                            .dwattr $C$DW$41, DW_AT_name("ledColor")
     321                            .dwattr $C$DW$41, DW_AT_TI_symbol_name("ledColor")
     322                            .dwattr $C$DW$41, DW_AT_type(*$C$DW$T$660)
     323                            .dwattr $C$DW$41, DW_AT_location[DW_OP_reg4]
     324                    
     325                            .dwcfi  cfa_offset, 0
     326                            .dwpsn  file "C:/Users/Raz Aloni/OneDrive/School/EEL4924/DSP/C_Libs/MicCheckPeripherals/src/Mi
     327                    $C$DW$42        .dwtag  DW_TAG_TI_branch
     328                            .dwattr $C$DW$42, DW_AT_low_pc(0x00)
     329                            .dwattr $C$DW$42, DW_AT_name("UARTCharPut")
     330                            .dwattr $C$DW$42, DW_AT_TI_call
TMS320C6x Assembler PC v8.1.3 Fri Apr 14 08:40:30 2017

Tools Copyright (c) 1996-2015 Texas Instruments Incorporated
MicInterface.asm                                                     PAGE    7

     331                            .dwattr $C$DW$42, DW_AT_TI_return
     332                    
     333 00000000 00000012!            CALLRET .S2     UARTCharPut       ; [B_Sb674] |86| 
     334                    
     335 00000004 02005429             MVK     .S1     168,A4            ; [A_S674] |86| 
     336 00000008 0190ef58  ||         AND     .L1     7,A4,A3           ; [A_L674] |86| 
     337                    
     338 0000000c 018c8ff8             OR      .L1     A4,A3,A3          ; [A_L674] |86| 
     339 00000010 018f1808             EXTU    .S1     A3,24,24,A3       ; [A_S674] |86| 
     340 00000014 02100028             MVKL    .S1     0x1c42000,A4      ; [A_S674] |86| 
     341                    
     342 00000018 020c1fdb             MV      .L2X    A3,B4             ; [B_L674] |86| 
     343 0000001c 0200e268  ||         MVKH    .S1     0x1c42000,A4      ; [A_S674] |86| 
     344                    
     345                    $C$RL0:    ; CALL-RETURN OCCURS {UARTCharPut} 0  ; [] |86| 
     346                            .dwattr $C$DW$39, DW_AT_TI_end_file("C:/Users/Raz Aloni/OneDrive/School/EEL4924/DSP/C_Libs/Mic
     347                            .dwattr $C$DW$39, DW_AT_TI_end_line(0x57)
     348                            .dwattr $C$DW$39, DW_AT_TI_end_column(0x01)
     349                            .dwendentry
     350                            .dwendtag $C$DW$39
     351                    
     352 00000020                   .sect   ".text"
     353                            .clink
     354                            .global MicInterfaceInit
     355                    
     356                    $C$DW$43        .dwtag  DW_TAG_subprogram
     357                            .dwattr $C$DW$43, DW_AT_name("MicInterfaceInit")
     358                            .dwattr $C$DW$43, DW_AT_low_pc(MicInterfaceInit)
     359                            .dwattr $C$DW$43, DW_AT_high_pc(0x00)
     360                            .dwattr $C$DW$43, DW_AT_TI_symbol_name("MicInterfaceInit")
     361                            .dwattr $C$DW$43, DW_AT_external
     362                            .dwattr $C$DW$43, DW_AT_TI_begin_file("C:/Users/Raz Aloni/OneDrive/School/EEL4924/DSP/C_Libs/M
     363                            .dwattr $C$DW$43, DW_AT_TI_begin_line(0x37)
     364                            .dwattr $C$DW$43, DW_AT_TI_begin_column(0x06)
     365                            .dwattr $C$DW$43, DW_AT_decl_file("C:/Users/Raz Aloni/OneDrive/School/EEL4924/DSP/C_Libs/MicCh
     366                            .dwattr $C$DW$43, DW_AT_decl_line(0x37)
     367                            .dwattr $C$DW$43, DW_AT_decl_column(0x06)
     368                            .dwattr $C$DW$43, DW_AT_TI_max_frame_size(0x08)
     369                            .dwpsn  file "C:/Users/Raz Aloni/OneDrive/School/EEL4924/DSP/C_Libs/MicCheckPeripherals/src/Mi
     370                    
     371                            .dwfde $C$DW$CIE, MicInterfaceInit
     372                    $C$DW$44        .dwtag  DW_TAG_formal_parameter
     373                            .dwattr $C$DW$44, DW_AT_name("uartClk")
     374                            .dwattr $C$DW$44, DW_AT_TI_symbol_name("uartClk")
     375                            .dwattr $C$DW$44, DW_AT_type(*$C$DW$T$153)
     376                            .dwattr $C$DW$44, DW_AT_location[DW_OP_reg4]
     377                    
     378                    
     379                    ;******************************************************************************
     380                    ;* FUNCTION NAME: MicInterfaceInit                                            *
     381                    ;*                                                                            *
     382                    ;*   Regs Modified     : A0,A1,A2,A3,A4,A5,A6,A7,A8,A9,A10,A11,A16,A17,A18,   *
     383                    ;*                           A19,A20,A21,A22,A23,A24,A25,A26,A27,A28,A29,A30, *
     384                    ;*                           A31,B0,B1,B2,B3,B4,B5,B6,B7,B8,B9,SP,B16,B17,B18,*
     385                    ;*                           B19,B20,B21,B22,B23,B24,B25,B26,B27,B28,B29,B30, *
TMS320C6x Assembler PC v8.1.3 Fri Apr 14 08:40:30 2017

Tools Copyright (c) 1996-2015 Texas Instruments Incorporated
MicInterface.asm                                                     PAGE    8

     386                    ;*                           B31                                              *
     387                    ;*   Regs Used         : A0,A1,A2,A3,A4,A5,A6,A7,A8,A9,A10,A11,A16,A17,A18,   *
     388                    ;*                           A19,A20,A21,A22,A23,A24,A25,A26,A27,A28,A29,A30, *
     389                    ;*                           A31,B0,B1,B2,B3,B4,B5,B6,B7,B8,B9,DP,SP,B16,B17, *
     390                    ;*                           B18,B19,B20,B21,B22,B23,B24,B25,B26,B27,B28,B29, *
     391                    ;*                           B30,B31                                          *
     392                    ;*   Local Frame Size  : 0 Args + 0 Auto + 8 Save = 8 byte                    *
     393                    ;******************************************************************************
     394                    MicInterfaceInit:
     395                    ;** --------------------------------------------------------------------------*
     396                    $C$DW$45        .dwtag  DW_TAG_variable
     397                            .dwattr $C$DW$45, DW_AT_name("uartClk")
     398                            .dwattr $C$DW$45, DW_AT_TI_symbol_name("uartClk")
     399                            .dwattr $C$DW$45, DW_AT_type(*$C$DW$T$1228)
     400                            .dwattr $C$DW$45, DW_AT_location[DW_OP_reg10]
     401                    
     402                            .dwcfi  cfa_offset, 0
     403 00000020     25f7             STW     .D2T1   A11,*SP++(-8)     ; [B_D64P] |56| 
     404                            .dwcfi  cfa_offset, 8
     405                            .dwcfi  save_reg_to_mem, 11, 0
     406                    
     407 00000024 053c22f5             STW     .D2T1   A10,*SP(4)        ; [B_D64P] |56| 
     408 00000022     4646  ||         MV      .L1     A4,A10            ; [A_L674] |56| 
     409 00000028     0212  ||         ZERO    .S1     A4                ; [A_S674] |58| 
     410                    
     411                            .dwcfi  save_reg_to_mem, 10, -4
     412                    $C$DW$46        .dwtag  DW_TAG_TI_branch
     413                            .dwattr $C$DW$46, DW_AT_low_pc(0x08)
     414                            .dwattr $C$DW$46, DW_AT_name("PSCModuleControl")
     415                            .dwattr $C$DW$46, DW_AT_TI_call
     416                    
     417                    
     418 0000002c 0200e0e9             MVKH    .S1     0x1c10000,A4      ; [A_S674] |58| 
     419 0000002a     75c6  ||         MV      .L1X    B3,A11            ; [A_L674] |56| 
     420 00000030 10000013! ||         CALLP   .S2     PSCModuleControl,B3 ; [B_Sb674] |58| 
     421 00000034     1b76  ||         ZERO    .D1     A6                ; [A_D64P] |58| 
     422 00000036     2e27  ||         MVK     .L2     9,B4              ; [B_L674] |58| 
     423 00000038 03006042  ||         MVK     .D2     3,B6              ; [B_D64P] |58| 
     424                    
     425                            .dwcfi  save_reg_to_reg, 19, 11
     426                            .dwpsn  file "C:/Users/Raz Aloni/OneDrive/School/EEL4924/DSP/C_Libs/MicCheckPeripherals/src/Mi
     427 00000040           $C$RL2:    ; CALLP OCCURS {PSCModuleControl} {0}  ; [] |58| 
     428                            .dwpsn  file "C:/Users/Raz Aloni/OneDrive/School/EEL4924/DSP/C_Libs/MicCheckPeripherals/src/Mi
     429 00000040 02209628             MVKL    .S1     0x1c1412c,A4      ; [A_S674] |61| 
     430 00000044 0200e0e8             MVKH    .S1     0x1c1412c,A4      ; [A_S674] |61| 
     431 00000048     003c             LDW     .D1T1   *A4(0),A3         ; [A_D64P] |61| 
     432 0000004a     0627             ZERO    .L2     B4                ; [B_L674] |61| 
     433 0000004c 0200116a             MVKH    .S2     0x220000,B4       ; [B_Sb674] |61| 
     434                            .dwpsn  file "C:/Users/Raz Aloni/OneDrive/School/EEL4924/DSP/C_Libs/MicCheckPeripherals/src/Mi
     435 00000050 0312c028             MVK     .S1     0x2580,A6         ; [A_S674] |64| 
     436 00000054 030ca35a             MVK     .L2     3,B6              ; [B_L674] |64| 
     437                            .dwpsn  file "C:/Users/Raz Aloni/OneDrive/School/EEL4924/DSP/C_Libs/MicCheckPeripherals/src/Mi
     438 00000058 01907ff8             OR      .L1X    B4,A3,A3          ; [A_L674] |61| 
     439                    
     440 00000064     0034             STW     .D1T1   A3,*A4(0)         ; [A_D64P] |61| 
TMS320C6x Assembler PC v8.1.3 Fri Apr 14 08:40:30 2017

Tools Copyright (c) 1996-2015 Texas Instruments Incorporated
MicInterface.asm                                                     PAGE    9

     441 00000060 02100029  ||         MVKL    .S1     0x1c42000,A4      ; [A_S674] |64| 
     442                    
     443                            .dwpsn  file "C:/Users/Raz Aloni/OneDrive/School/EEL4924/DSP/C_Libs/MicCheckPeripherals/src/Mi
     444                    $C$DW$47        .dwtag  DW_TAG_TI_branch
     445                            .dwattr $C$DW$47, DW_AT_low_pc(0x0c)
     446                            .dwattr $C$DW$47, DW_AT_name("UARTConfigSetExpClk")
     447                            .dwattr $C$DW$47, DW_AT_TI_call
     448                    
     449                    
     450 0000006c 0404a359             MVK     .L1     1,A8              ; [A_L674] |64| 
     451 00000068 0200e269  ||         MVKH    .S1     0x1c42000,A4      ; [A_S674] |64| 
     452 00000066     9507  ||         MV      .L2X    A10,B4            ; [B_L674] |64| 
     453 00000070 10000012! ||         CALLP   .S2     UARTConfigSetExpClk,B3 ; [B_Sb674] |64| 
     454                    
     455 00000074           $C$RL4:    ; CALLP OCCURS {UARTConfigSetExpClk} {0}  ; [] |64| 
     456                            .dwpsn  file "C:/Users/Raz Aloni/OneDrive/School/EEL4924/DSP/C_Libs/MicCheckPeripherals/src/Mi
     457 00000074 02100028             MVKL    .S1     0x1c42000,A4      ; [A_S674] |67| 
     458                    $C$DW$48        .dwtag  DW_TAG_TI_branch
     459                            .dwattr $C$DW$48, DW_AT_low_pc(0x04)
     460                            .dwattr $C$DW$48, DW_AT_name("UARTFIFOEnable")
     461                            .dwattr $C$DW$48, DW_AT_TI_call
     462                    
     463                    
     464 00000078 0200e269             MVKH    .S1     0x1c42000,A4      ; [A_S674] |67| 
     465 00000080 10000012! ||         CALLP   .S2     UARTFIFOEnable,B3 ; [B_Sb674] |67| 
     466                    
     467 00000084           $C$RL6:    ; CALLP OCCURS {UARTFIFOEnable} {0}  ; [] |67| 
     468                            .dwpsn  file "C:/Users/Raz Aloni/OneDrive/School/EEL4924/DSP/C_Libs/MicCheckPeripherals/src/Mi
     469 00000084 02100028             MVKL    .S1     0x1c42000,A4      ; [A_S674] |70| 
     470                    $C$DW$49        .dwtag  DW_TAG_TI_branch
     471                            .dwattr $C$DW$49, DW_AT_low_pc(0x04)
     472                            .dwattr $C$DW$49, DW_AT_name("UARTFIFOLevelSet")
     473                            .dwattr $C$DW$49, DW_AT_TI_call
     474                    
     475                    
     476 00000088 0200e269             MVKH    .S1     0x1c42000,A4      ; [A_S674] |70| 
     477 0000008c 10000013! ||         CALLP   .S2     UARTFIFOLevelSet,B3 ; [B_Sb674] |70| 
     478 00000090 0200a35a  ||         ZERO    .L2     B4                ; [B_L674] |70| 
     479                    
     480 00000094           $C$RL8:    ; CALLP OCCURS {UARTFIFOLevelSet} {0}  ; [] |70| 
     481                            .dwpsn  file "C:/Users/Raz Aloni/OneDrive/School/EEL4924/DSP/C_Libs/MicCheckPeripherals/src/Mi
     482 00000094 02100028             MVKL    .S1     0x1c42000,A4      ; [A_S674] |73| 
     483                    $C$DW$50        .dwtag  DW_TAG_TI_branch
     484                            .dwattr $C$DW$50, DW_AT_low_pc(0x04)
     485                            .dwattr $C$DW$50, DW_AT_name("UARTIntEnable")
     486                            .dwattr $C$DW$50, DW_AT_TI_call
     487                    
     488                    
     489 00000098 0200e269             MVKH    .S1     0x1c42000,A4      ; [A_S674] |73| 
     490 0000009c 10000013! ||         CALLP   .S2     UARTIntEnable,B3  ; [B_Sb674] |73| 
     491 000000a0 0204a35a  ||         MVK     .L2     1,B4              ; [B_L674] |73| 
     492                    
     493 000000a4           $C$RL10:   ; CALLP OCCURS {UARTIntEnable} {0}  ; [] |73| 
     494                            .dwpsn  file "C:/Users/Raz Aloni/OneDrive/School/EEL4924/DSP/C_Libs/MicCheckPeripherals/src/Mi
     495 000000a4 02100028             MVKL    .S1     0x1c42000,A4      ; [A_S674] |76| 
TMS320C6x Assembler PC v8.1.3 Fri Apr 14 08:40:30 2017

Tools Copyright (c) 1996-2015 Texas Instruments Incorporated
MicInterface.asm                                                     PAGE   10

     496                    $C$DW$51        .dwtag  DW_TAG_TI_branch
     497                            .dwattr $C$DW$51, DW_AT_low_pc(0x04)
     498                            .dwattr $C$DW$51, DW_AT_name("UARTEnable")
     499                            .dwattr $C$DW$51, DW_AT_TI_call
     500                    
     501                    
     502 000000a8 0200e269             MVKH    .S1     0x1c42000,A4      ; [A_S674] |76| 
     503 000000ac 10000012! ||         CALLP   .S2     UARTEnable,B3     ; [B_Sb674] |76| 
     504                    
     505 000000b0           $C$RL12:   ; CALLP OCCURS {UARTEnable} {0}   ; [] |76| 
     506                            .dwpsn  file "C:/Users/Raz Aloni/OneDrive/School/EEL4924/DSP/C_Libs/MicCheckPeripherals/src/Mi
     507 000000b0     7587             MV      .L2X    A11,B3            ; [B_L674] |77| 
     508                            .dwcfi  restore_reg, 19
     509                    $C$DW$52        .dwtag  DW_TAG_TI_branch
     510                            .dwattr $C$DW$52, DW_AT_low_pc(0x00)
     511                            .dwattr $C$DW$52, DW_AT_TI_return
     512                    
     513                    
     514 000000b2     01ef             RET     .S2     B3                ; [B_Sb674] |77| 
     515 000000b4 053c22e4  ||         LDW     .D2T1   *SP(4),A10        ; [B_D64P] |77| 
     516                    
     517                            .dwcfi  restore_reg, 10
     518 000000b8     65f7             LDW     .D2T1   *++SP(8),A11      ; [B_D64P] |77| 
     519                            .dwcfi  cfa_offset, 0
     520                            .dwcfi  restore_reg, 11
     521 000000ba     6c6e             NOP             4                 ; [A_L674] 
     522                               ; BRANCH OCCURS {B3}              ; [] |77| 
     523                            .dwattr $C$DW$43, DW_AT_TI_end_file("C:/Users/Raz Aloni/OneDrive/School/EEL4924/DSP/C_Libs/Mic
     524                            .dwattr $C$DW$43, DW_AT_TI_end_line(0x4d)
     525                            .dwattr $C$DW$43, DW_AT_TI_end_column(0x01)
     526                            .dwendentry
     527                            .dwendtag $C$DW$43
     528                    
     529 000000c0                   .sect   ".text"
     530                            .clink
     531                            .global MicInterfaceButtonPressReceived
     532                    
     533                    $C$DW$53        .dwtag  DW_TAG_subprogram
     534                            .dwattr $C$DW$53, DW_AT_name("MicInterfaceButtonPressReceived")
     535                            .dwattr $C$DW$53, DW_AT_low_pc(MicInterfaceButtonPressReceived)
     536                            .dwattr $C$DW$53, DW_AT_high_pc(0x00)
     537                            .dwattr $C$DW$53, DW_AT_TI_symbol_name("MicInterfaceButtonPressReceived")
     538                            .dwattr $C$DW$53, DW_AT_external
     539                            .dwattr $C$DW$53, DW_AT_TI_begin_file("C:/Users/Raz Aloni/OneDrive/School/EEL4924/DSP/C_Libs/M
     540                            .dwattr $C$DW$53, DW_AT_TI_begin_line(0x5e)
     541                            .dwattr $C$DW$53, DW_AT_TI_begin_column(0x06)
     542                            .dwattr $C$DW$53, DW_AT_decl_file("C:/Users/Raz Aloni/OneDrive/School/EEL4924/DSP/C_Libs/MicCh
     543                            .dwattr $C$DW$53, DW_AT_decl_line(0x5e)
     544                            .dwattr $C$DW$53, DW_AT_decl_column(0x06)
     545                            .dwattr $C$DW$53, DW_AT_TI_max_frame_size(0x18)
     546                            .dwpsn  file "C:/Users/Raz Aloni/OneDrive/School/EEL4924/DSP/C_Libs/MicCheckPeripherals/src/Mi
     547                    
     548                            .dwfde $C$DW$CIE, MicInterfaceButtonPressReceived
     549                    $C$DW$54        .dwtag  DW_TAG_variable
     550                            .dwattr $C$DW$54, DW_AT_name("Msg")
TMS320C6x Assembler PC v8.1.3 Fri Apr 14 08:40:30 2017

Tools Copyright (c) 1996-2015 Texas Instruments Incorporated
MicInterface.asm                                                     PAGE   11

     551                            .dwattr $C$DW$54, DW_AT_TI_symbol_name("Msg$1")
     552                            .dwattr $C$DW$54, DW_AT_type(*$C$DW$T$684)
     553                            .dwattr $C$DW$54, DW_AT_location[DW_OP_addr Msg$1]
     554                    
     555                    
     556                    ;******************************************************************************
     557                    ;* FUNCTION NAME: MicInterfaceButtonPressReceived                             *
     558                    ;*                                                                            *
     559                    ;*   Regs Modified     : A0,A1,A2,A3,A4,A5,A6,A7,A8,A9,A10,A11,A16,A17,A18,   *
     560                    ;*                           A19,A20,A21,A22,A23,A24,A25,A26,A27,A28,A29,A30, *
     561                    ;*                           A31,B0,B1,B2,B3,B4,B5,B6,B7,B8,B9,B13,SP,B16,B17,*
     562                    ;*                           B18,B19,B20,B21,B22,B23,B24,B25,B26,B27,B28,B29, *
     563                    ;*                           B30,B31                                          *
     564                    ;*   Regs Used         : A0,A1,A2,A3,A4,A5,A6,A7,A8,A9,A10,A11,A16,A17,A18,   *
     565                    ;*                           A19,A20,A21,A22,A23,A24,A25,A26,A27,A28,A29,A30, *
     566                    ;*                           A31,B0,B1,B2,B3,B4,B5,B6,B7,B8,B9,B13,DP,SP,B16, *
     567                    ;*                           B17,B18,B19,B20,B21,B22,B23,B24,B25,B26,B27,B28, *
     568                    ;*                           B29,B30,B31                                      *
     569                    ;*   Local Frame Size  : 0 Args + 0 Auto + 24 Save = 24 byte                  *
     570                    ;******************************************************************************
     571                    MicInterfaceButtonPressReceived:
     572                    ;** --------------------------------------------------------------------------*
     573                    $C$DW$55        .dwtag  DW_TAG_variable
     574                            .dwattr $C$DW$55, DW_AT_name("receiveData")
     575                            .dwattr $C$DW$55, DW_AT_TI_symbol_name("receiveData")
     576                            .dwattr $C$DW$55, DW_AT_type(*$C$DW$T$1144)
     577                            .dwattr $C$DW$55, DW_AT_location[DW_OP_reg10]
     578                    
     579                            .dwcfi  cfa_offset, 0
     580 000000c0     36f7             STW     .D2T2   B13,*SP++(-8)     ; [B_D64P] |95| 
     581                            .dwcfi  cfa_offset, 8
     582                            .dwcfi  save_reg_to_mem, 29, 0
     583                    
     584 000000c4 05900028             MVKL    .S1     0x1c42000,A11     ; [A_S674] |99| 
     585 000000c2     8577  ||         STDW    .D2T1   A11:A10,*SP++(-8) ; [B_D64P] |95| 
     586                    
     587                            .dwcfi  cfa_offset, 16
     588                            .dwcfi  save_reg_to_mem, 11, -4
     589                            .dwcfi  save_reg_to_mem, 10, -8
     590                            .dwpsn  file "C:/Users/Raz Aloni/OneDrive/School/EEL4924/DSP/C_Libs/MicCheckPeripherals/src/Mi
     591 000000c8 0580e268             MVKH    .S1     0x1c42000,A11     ; [A_S674] |99| 
     592                            .dwpsn  file "C:/Users/Raz Aloni/OneDrive/School/EEL4924/DSP/C_Libs/MicCheckPeripherals/src/Mi
     593                    $C$DW$56        .dwtag  DW_TAG_TI_branch
     594                            .dwattr $C$DW$56, DW_AT_low_pc(0x00)
     595                            .dwattr $C$DW$56, DW_AT_name("UARTIntStatus")
     596                            .dwattr $C$DW$56, DW_AT_TI_call
     597                    
     598                    
     599 000000cc 10000013!            CALLP   .S2     UARTIntStatus,B3  ; [B_Sb674] |99| 
     600 000000d0     8586  ||         MV      .L1     A11,A4            ; [A_L674] |99| 
     601 000000d2     a5c7  ||         MV      .L2     B3,B13            ; [B_L674] |95| 
     602                    
     603                            .dwcfi  save_reg_to_reg, 19, 29
     604                            .dwpsn  file "C:/Users/Raz Aloni/OneDrive/School/EEL4924/DSP/C_Libs/MicCheckPeripherals/src/Mi
     605 000000d4           $C$RL14:   ; CALLP OCCURS {UARTIntStatus} {0}  ; [] |99| 
TMS320C6x Assembler PC v8.1.3 Fri Apr 14 08:40:30 2017

Tools Copyright (c) 1996-2015 Texas Instruments Incorporated
MicInterface.asm                                                     PAGE   12

     606                    ;** --------------------------------------------------------------------------*
     607 000000d4 00104a58             CMPEQ   .L1     A4,2,A0           ; [A_L674] |99| 
     608 000000d8 d0001692     [!A0]   B       .S2     $C$L3             ; [B_Sb674] |99| 
     609                            .dwpsn  file "C:/Users/Raz Aloni/OneDrive/School/EEL4924/DSP/C_Libs/MicCheckPeripherals/src/Mi
     610                    $C$DW$57        .dwtag  DW_TAG_TI_branch
     611                            .dwattr $C$DW$57, DW_AT_low_pc(0x00)
     612                            .dwattr $C$DW$57, DW_AT_name("UARTCharsAvail")
     613                            .dwattr $C$DW$57, DW_AT_TI_call
     614                    
     615 000000e0 c0000010!    [ A0]   CALL    .S1     UARTCharsAvail    ; [A_S674] |106| 
     616                            .dwpsn  file "C:/Users/Raz Aloni/OneDrive/School/EEL4924/DSP/C_Libs/MicCheckPeripherals/src/Mi
     617 000000e4     8586             MV      .L1     A11,A4            ; [A_L674] |99| 
     618 000000e6     4c6e             NOP             3                 ; [A_L674] 
     619                               ; BRANCHCC OCCURS {$C$L3}         ; [] |99| 
     620                    ;** --------------------------------------------------------------------------*
     621                            .dwpsn  file "C:/Users/Raz Aloni/OneDrive/School/EEL4924/DSP/C_Libs/MicCheckPeripherals/src/Mi
     622 000000e8 01830162             ADDKPC  .S2     $C$RL16,B3,0      ; [B_Sb674] |106| 
     623 000000ec           $C$RL16:   ; CALL OCCURS {UARTCharsAvail} {0}  ; [] |106| 
     624                    ;** --------------------------------------------------------------------------*
     625 000000ec     0246             MV      .L1     A4,A0             ; [A_L674] |106| 
     626 000000ee     a83a     [!A0]   BNOP            $C$L2,5           ; [] |106| 
     627                               ; BRANCHCC OCCURS {$C$L2}         ; [] |106| 
     628                    ;** --------------------------------------------------------------------------*
     629                            .dwpsn  file "C:/Users/Raz Aloni/OneDrive/School/EEL4924/DSP/C_Libs/MicCheckPeripherals/src/Mi
     630                    $C$DW$58        .dwtag  DW_TAG_TI_branch
     631                            .dwattr $C$DW$58, DW_AT_low_pc(0x00)
     632                            .dwattr $C$DW$58, DW_AT_name("UARTCharGetNonBlocking")
     633                            .dwattr $C$DW$58, DW_AT_TI_call
     634                    
     635 000000f0 00000010!            CALL    .S1     UARTCharGetNonBlocking ; [A_S674] |108| 
     636 000000f4     8586             MV      .L1     A11,A4            ; [A_L674] |108| 
     637 000000f6     4c6e             NOP             3                 ; [A_L674] 
     638                    ;*----------------------------------------------------------------------------*
     639                    ;*   SOFTWARE PIPELINE INFORMATION
     640                    ;*      Disqualified loop: Loop contains a call
     641                    ;*          (Performance) Loop at line 106 cannot be scheduled efficiently, as it contains a function 
     642                    ;*      Disqualified loop: Loop contains non-pipelinable instructions
     643                    ;*      Disqualified loop: Loop contains a call
     644                    ;*          (Performance) Loop at line 106 cannot be scheduled efficiently, as it contains a function 
     645                    ;*      Disqualified loop: Loop contains non-pipelinable instructions
     646                    ;*----------------------------------------------------------------------------*
     647 000000f8           $C$L1:    
     648 000000f8 01880162             ADDKPC  .S2     $C$RL18,B3,0      ; [B_Sb674] |108| 
     649 00000100           $C$RL18:   ; CALL OCCURS {UARTCharGetNonBlocking} {0}  ; [] |108| 
     650                    ;** --------------------------------------------------------------------------*
     651                            .dwpsn  file "C:/Users/Raz Aloni/OneDrive/School/EEL4924/DSP/C_Libs/MicCheckPeripherals/src/Mi
     652                    $C$DW$59        .dwtag  DW_TAG_TI_branch
     653                            .dwattr $C$DW$59, DW_AT_low_pc(0x00)
     654                            .dwattr $C$DW$59, DW_AT_name("UARTCharsAvail")
     655                            .dwattr $C$DW$59, DW_AT_TI_call
     656                    
     657                    
     658 00000100 10000013!            CALLP   .S2     UARTCharsAvail,B3 ; [B_Sb674] |106| 
     659 00000104     8586  ||         MV      .L1     A11,A4            ; [A_L674] |106| 
     660 00000106     464e  ||         MV      .S1     A4,A10            ; [A_S674] |108| 
TMS320C6x Assembler PC v8.1.3 Fri Apr 14 08:40:30 2017

Tools Copyright (c) 1996-2015 Texas Instruments Incorporated
MicInterface.asm                                                     PAGE   13

     661                    
     662 00000108           $C$RL20:   ; CALLP OCCURS {UARTCharsAvail} {0}  ; [] |106| 
     663                    ;** --------------------------------------------------------------------------*
     664 00000108     0246             MV      .L1     A4,A0             ; [A_L674] |106| 
     665 0000010a     1f2a     [ A0]   B       .S1     $C$L1             ; [A_S674] |106| 
     666                            .dwpsn  file "C:/Users/Raz Aloni/OneDrive/School/EEL4924/DSP/C_Libs/MicCheckPeripherals/src/Mi
     667                    $C$DW$60        .dwtag  DW_TAG_TI_branch
     668                            .dwattr $C$DW$60, DW_AT_low_pc(0x00)
     669                            .dwattr $C$DW$60, DW_AT_name("UARTCharGetNonBlocking")
     670                            .dwattr $C$DW$60, DW_AT_TI_call
     671                    
     672 0000010c c0000010!    [ A0]   CALL    .S1     UARTCharGetNonBlocking ; [A_S674] |108| 
     673 00000110 c22c0fd8     [ A0]   MV      .L1     A11,A4            ; [A_L674] |108| 
     674 00000114     4c6e             NOP             3                 ; [A_L674] 
     675                            .dwpsn  file "C:/Users/Raz Aloni/OneDrive/School/EEL4924/DSP/C_Libs/MicCheckPeripherals/src/Mi
     676                               ; BRANCHCC OCCURS {$C$L1}         ; [] |106| 
     677                    ;** --------------------------------------------------------------------------*
     678 00000120           $C$L2:    
     679                            .dwpsn  file "C:/Users/Raz Aloni/OneDrive/School/EEL4924/DSP/C_Libs/MicCheckPeripherals/src/Mi
     680                    
     681 00000120     16f3             MVK     .S2     240,B5            ; [B_Sb674] |112| 
     682 00000122     12d2  ||         MVK     .S1     80,A5             ; [A_S674] |112| 
     683 00000124 01abea58  ||         CMPEQ   .L1     A10,-1,A3         ; [A_L674] |112| 
     684                    
     685 0000012c 018c2dd8             XOR     .L1     1,A3,A3           ; [A_L674] |112| 
     686 00000128 0200002b! ||         MVKL    .S2     Msg$1,B4          ; [B_Sb674] |118| 
     687                    
     688 00000130 02155f79             AND     .L1X    B5,A10,A4         ; [A_L674] |112| 
     689 00000134 0200006a! ||         MVKH    .S2     Msg$1,B4          ; [B_Sb674] |118| 
     690                    
     691 00000138 02148a78             CMPEQ   .L1     A4,A5,A4          ; [A_L674] |112| 
     692                    
     693 00000148     8588             AND     .L1     A4,A3,A0          ; [A_L674] |112| 
     694 00000144 0200006d! ||         LDW     .D2T1   *+DP(MicButtonQueue),A4 ; [B_D64P] |119| 
     695 00000140 01a9e7a1  ||         AND     .S1     15,A10,A3         ; [A_S674] |118| 
     696                    
     697 0000014a     08ba     [!A0]   B       .S1     $C$L4             ; [A_S674] |112| 
     698 0000014c d1b40fdb  || [!A0]   MV      .L2     B13,B3            ; [B_L674] |126| 
     699 00000150 d53c33e4  || [!A0]   LDDW    .D2T1   *++SP(8),A11:A10  ; [B_D64P] |126| 
     700                    
     701                            .dwpsn  file "C:/Users/Raz Aloni/OneDrive/School/EEL4924/DSP/C_Libs/MicCheckPeripherals/src/Mi
     702                    $C$DW$61        .dwtag  DW_TAG_TI_branch
     703                            .dwattr $C$DW$61, DW_AT_low_pc(0x00)
     704                            .dwattr $C$DW$61, DW_AT_name("ti_sysbios_knl_Queue_put__E")
     705                            .dwattr $C$DW$61, DW_AT_TI_call
     706                    
     707                    
     708 00000154 c0000011!    [ A0]   CALL    .S1     ti_sysbios_knl_Queue_put__E ; [A_S674] |119| 
     709 00000158 d6bc52e6  || [!A0]   LDW     .D2T2   *++SP(8),B13      ; [B_D64P] |126| 
     710                    
     711                            .dwpsn  file "C:/Users/Raz Aloni/OneDrive/School/EEL4924/DSP/C_Libs/MicCheckPeripherals/src/Mi
     712                    $C$DW$62        .dwtag  DW_TAG_TI_branch
     713                            .dwattr $C$DW$62, DW_AT_low_pc(0x00)
     714                            .dwattr $C$DW$62, DW_AT_TI_return
     715                    
TMS320C6x Assembler PC v8.1.3 Fri Apr 14 08:40:30 2017

Tools Copyright (c) 1996-2015 Texas Instruments Incorporated
MicInterface.asm                                                     PAGE   14

     716 00000160 d08c6362     [!A0]   RETNOP          B3,3              ; [] |126| 
     717                            .dwpsn  file "C:/Users/Raz Aloni/OneDrive/School/EEL4924/DSP/C_Libs/MicCheckPeripherals/src/Mi
     718                               ; BRANCHCC OCCURS {$C$L4}         ; [] |112| 
     719                    ;** --------------------------------------------------------------------------*
     720                            .dwpsn  file "C:/Users/Raz Aloni/OneDrive/School/EEL4924/DSP/C_Libs/MicCheckPeripherals/src/Mi
     721                    
     722 00000168 019042f4             STW     .D2T1   A3,*B4(8)         ; [B_D64P] |118| 
     723 00000164 01830163  ||         ADDKPC  .S2     $C$RL22,B3,0      ; [B_Sb674] |119| 
     724                    
     725                            .dwpsn  file "C:/Users/Raz Aloni/OneDrive/School/EEL4924/DSP/C_Libs/MicCheckPeripherals/src/Mi
     726 0000016c           $C$RL22:   ; CALL OCCURS {ti_sysbios_knl_Queue_put__E} {0}  ; [] |119| 
     727                    ;** --------------------------------------------------------------------------*
     728                            .dwpsn  file "C:/Users/Raz Aloni/OneDrive/School/EEL4924/DSP/C_Libs/MicCheckPeripherals/src/Mi
     729                    $C$DW$63        .dwtag  DW_TAG_TI_branch
     730                            .dwattr $C$DW$63, DW_AT_low_pc(0x00)
     731                            .dwattr $C$DW$63, DW_AT_name("ti_sysbios_knl_Semaphore_post__E")
     732                            .dwattr $C$DW$63, DW_AT_TI_call
     733                    
     734                    
     735 0000016c 10000013!            CALLP   .S2     ti_sysbios_knl_Semaphore_post__E,B3 ; [B_Sb674] |122| 
     736 00000170 0200006c! ||         LDW     .D2T1   *+DP(MicButtonQueueSem),A4 ; [B_D64P] |122| 
     737                    
     738 00000174           $C$RL24:   ; CALLP OCCURS {ti_sysbios_knl_Semaphore_post__E} {0}  ; [] |122| 
     739                    ;** --------------------------------------------------------------------------*
     740 00000174           $C$L3:    
     741                            .dwpsn  file "C:/Users/Raz Aloni/OneDrive/School/EEL4924/DSP/C_Libs/MicCheckPeripherals/src/Mi
     742 00000174     6687             MV      .L2     B13,B3            ; [B_L674] |126| 
     743                            .dwcfi  restore_reg, 19
     744                    $C$DW$64        .dwtag  DW_TAG_TI_branch
     745                            .dwattr $C$DW$64, DW_AT_low_pc(0x00)
     746                            .dwattr $C$DW$64, DW_AT_TI_return
     747                    
     748                    
     749 00000176     01ef             RET     .S2     B3                ; [B_Sb674] |126| 
     750 00000178     c577  ||         LDDW    .D2T1   *++SP(8),A11:A10  ; [B_D64P] |126| 
     751                    
     752                            .dwcfi  cfa_offset, 8
     753                            .dwcfi  restore_reg, 11
     754                            .dwcfi  restore_reg, 10
     755 0000017a     76f7             LDW     .D2T2   *++SP(8),B13      ; [B_D64P] |126| 
     756                            .dwcfi  cfa_offset, 0
     757                            .dwcfi  restore_reg, 29
     758 00000180 00002000             NOP             2                 ; [A_L674] 
     759                    ;** --------------------------------------------------------------------------*
     760 00000184           $C$L4:    
     761                            .dwcfi  restore_reg, 19
     762                            .dwcfi  cfa_offset, 8
     763                            .dwcfi  restore_reg, 11
     764                            .dwcfi  restore_reg, 10
     765                            .dwcfi  cfa_offset, 0
     766                            .dwcfi  restore_reg, 29
     767 00000184 00002000             NOP             2                 ; [A_L674] 
     768                               ; BRANCH OCCURS {B3}              ; [] |126| 
     769                            .dwattr $C$DW$53, DW_AT_TI_end_file("C:/Users/Raz Aloni/OneDrive/School/EEL4924/DSP/C_Libs/Mic
     770                            .dwattr $C$DW$53, DW_AT_TI_end_line(0x7e)
TMS320C6x Assembler PC v8.1.3 Fri Apr 14 08:40:30 2017

Tools Copyright (c) 1996-2015 Texas Instruments Incorporated
MicInterface.asm                                                     PAGE   15

     771                            .dwattr $C$DW$53, DW_AT_TI_end_column(0x01)
     772                            .dwendentry
     773                            .dwendtag $C$DW$53
     774                    
     775                    ;*****************************************************************************
     776                    ;* UNDEFINED EXTERNAL REFERENCES                                             *
     777                    ;*****************************************************************************
     778                            .global ti_sysbios_knl_Queue_put__E
     779                            .global ti_sysbios_knl_Semaphore_post__E
     780                            .global UARTConfigSetExpClk
     781                            .global UARTFIFOLevelSet
     782                            .global UARTEnable
     783                            .global UARTFIFOEnable
     784                            .global UARTCharsAvail
     785                            .global UARTCharGetNonBlocking
     786                            .global UARTIntEnable
     787                            .global UARTIntStatus
     788                            .global UARTCharPut
     789                            .global PSCModuleControl
     790                            .global MicButtonQueue
     791                            .global MicButtonQueueSem
     792                    
     793                    ;******************************************************************************
     794                    ;* BUILD ATTRIBUTES                                                           *
     795                    ;******************************************************************************
     796                            .battr "TI", Tag_File, 1, Tag_Long_Precision_Bits(2)
     797                            .battr "TI", Tag_File, 1, Tag_Bitfield_layout(2)
     798                            .battr "TI", Tag_File, 1, Tag_ABI_enum_size(2)
     799                            .battr "c6xabi", Tag_File, 1, Tag_ABI_wchar_t(1)
     800                            .battr "c6xabi", Tag_File, 1, Tag_ABI_array_object_alignment(0)
     801                            .battr "c6xabi", Tag_File, 1, Tag_ABI_array_object_align_expected(0)
     802                            .battr "c6xabi", Tag_File, 1, Tag_ABI_PIC(0)
     803                            .battr "c6xabi", Tag_File, 1, Tag_ABI_PID(0)
     804                            .battr "c6xabi", Tag_File, 1, Tag_ABI_DSBT(0)
     805                            .battr "c6xabi", Tag_File, 1, Tag_ABI_stack_align_needed(0)
     806                            .battr "c6xabi", Tag_File, 1, Tag_ABI_stack_align_preserved(0)
     807                            .battr "TI", Tag_File, 1, Tag_Tramps_Use_SOC(1)
     808                    
     809                    ;******************************************************************************
     810                    ;* TYPE INFORMATION                                                           *
     811                    ;******************************************************************************
     812                    
     813                    $C$DW$T$166     .dwtag  DW_TAG_enumeration_type
     814                            .dwattr $C$DW$T$166, DW_AT_byte_size(0x04)
     815                    $C$DW$65        .dwtag  DW_TAG_enumerator
     816                            .dwattr $C$DW$65, DW_AT_name("ButtonNone")
     817                            .dwattr $C$DW$65, DW_AT_const_value(0x00)
     818                            .dwattr $C$DW$65, DW_AT_decl_file("C:/Users/Raz Aloni/OneDrive/School/EEL4924/DSP/C_Libs/MicCh
     819                            .dwattr $C$DW$65, DW_AT_decl_line(0x2b)
     820                            .dwattr $C$DW$65, DW_AT_decl_column(0x05)
     821                    
     822                    $C$DW$66        .dwtag  DW_TAG_enumerator
     823                            .dwattr $C$DW$66, DW_AT_name("Button0")
     824                            .dwattr $C$DW$66, DW_AT_const_value(0x01)
     825                            .dwattr $C$DW$66, DW_AT_decl_file("C:/Users/Raz Aloni/OneDrive/School/EEL4924/DSP/C_Libs/MicCh
TMS320C6x Assembler PC v8.1.3 Fri Apr 14 08:40:30 2017

Tools Copyright (c) 1996-2015 Texas Instruments Incorporated
MicInterface.asm                                                     PAGE   16

     826                            .dwattr $C$DW$66, DW_AT_decl_line(0x2c)
     827                            .dwattr $C$DW$66, DW_AT_decl_column(0x05)
     828                    
     829                    $C$DW$67        .dwtag  DW_TAG_enumerator
     830                            .dwattr $C$DW$67, DW_AT_name("Button1")
     831                            .dwattr $C$DW$67, DW_AT_const_value(0x02)
     832                            .dwattr $C$DW$67, DW_AT_decl_file("C:/Users/Raz Aloni/OneDrive/School/EEL4924/DSP/C_Libs/MicCh
     833                            .dwattr $C$DW$67, DW_AT_decl_line(0x2d)
     834                            .dwattr $C$DW$67, DW_AT_decl_column(0x05)
     835                    
     836                    $C$DW$68        .dwtag  DW_TAG_enumerator
     837                            .dwattr $C$DW$68, DW_AT_name("Button2")
     838                            .dwattr $C$DW$68, DW_AT_const_value(0x04)
     839                            .dwattr $C$DW$68, DW_AT_decl_file("C:/Users/Raz Aloni/OneDrive/School/EEL4924/DSP/C_Libs/MicCh
     840                            .dwattr $C$DW$68, DW_AT_decl_line(0x2e)
     841                            .dwattr $C$DW$68, DW_AT_decl_column(0x05)
     842                    
     843                    $C$DW$69        .dwtag  DW_TAG_enumerator
     844                            .dwattr $C$DW$69, DW_AT_name("Button3")
     845                            .dwattr $C$DW$69, DW_AT_const_value(0x08)
     846                            .dwattr $C$DW$69, DW_AT_decl_file("C:/Users/Raz Aloni/OneDrive/School/EEL4924/DSP/C_Libs/MicCh
     847                            .dwattr $C$DW$69, DW_AT_decl_line(0x2f)
     848                            .dwattr $C$DW$69, DW_AT_decl_column(0x05)
     849                    
     850                            .dwattr $C$DW$T$166, DW_AT_decl_file("C:/Users/Raz Aloni/OneDrive/School/EEL4924/DSP/C_Libs/Mi
     851                            .dwattr $C$DW$T$166, DW_AT_decl_line(0x2a)
     852                            .dwattr $C$DW$T$166, DW_AT_decl_column(0x01)
     853                            .dwendtag $C$DW$T$166
     854                    
     855                    $C$DW$T$167     .dwtag  DW_TAG_typedef
     856                            .dwattr $C$DW$T$167, DW_AT_name("micButton_t")
     857                            .dwattr $C$DW$T$167, DW_AT_type(*$C$DW$T$166)
     858                            .dwattr $C$DW$T$167, DW_AT_language(DW_LANG_C)
     859                            .dwattr $C$DW$T$167, DW_AT_decl_file("C:/Users/Raz Aloni/OneDrive/School/EEL4924/DSP/C_Libs/Mi
     860                            .dwattr $C$DW$T$167, DW_AT_decl_line(0x30)
     861                            .dwattr $C$DW$T$167, DW_AT_decl_column(0x03)
     862                    
     863                    
     864                    $C$DW$T$658     .dwtag  DW_TAG_enumeration_type
     865                            .dwattr $C$DW$T$658, DW_AT_byte_size(0x04)
     866                    $C$DW$70        .dwtag  DW_TAG_enumerator
     867                            .dwattr $C$DW$70, DW_AT_name("LedOff")
     868                            .dwattr $C$DW$70, DW_AT_const_value(0x00)
     869                            .dwattr $C$DW$70, DW_AT_decl_file("C:/Users/Raz Aloni/OneDrive/School/EEL4924/DSP/C_Libs/MicCh
     870                            .dwattr $C$DW$70, DW_AT_decl_line(0x1f)
     871                            .dwattr $C$DW$70, DW_AT_decl_column(0x05)
     872                    
     873                    $C$DW$71        .dwtag  DW_TAG_enumerator
     874                            .dwattr $C$DW$71, DW_AT_name("LedRed")
     875                            .dwattr $C$DW$71, DW_AT_const_value(0x01)
     876                            .dwattr $C$DW$71, DW_AT_decl_file("C:/Users/Raz Aloni/OneDrive/School/EEL4924/DSP/C_Libs/MicCh
     877                            .dwattr $C$DW$71, DW_AT_decl_line(0x20)
     878                            .dwattr $C$DW$71, DW_AT_decl_column(0x05)
     879                    
     880                    $C$DW$72        .dwtag  DW_TAG_enumerator
TMS320C6x Assembler PC v8.1.3 Fri Apr 14 08:40:30 2017

Tools Copyright (c) 1996-2015 Texas Instruments Incorporated
MicInterface.asm                                                     PAGE   17

     881                            .dwattr $C$DW$72, DW_AT_name("LedGreen")
     882                            .dwattr $C$DW$72, DW_AT_const_value(0x02)
     883                            .dwattr $C$DW$72, DW_AT_decl_file("C:/Users/Raz Aloni/OneDrive/School/EEL4924/DSP/C_Libs/MicCh
     884                            .dwattr $C$DW$72, DW_AT_decl_line(0x21)
     885                            .dwattr $C$DW$72, DW_AT_decl_column(0x05)
     886                    
     887                    $C$DW$73        .dwtag  DW_TAG_enumerator
     888                            .dwattr $C$DW$73, DW_AT_name("LedBlue")
     889                            .dwattr $C$DW$73, DW_AT_const_value(0x04)
     890                            .dwattr $C$DW$73, DW_AT_decl_file("C:/Users/Raz Aloni/OneDrive/School/EEL4924/DSP/C_Libs/MicCh
     891                            .dwattr $C$DW$73, DW_AT_decl_line(0x22)
     892                            .dwattr $C$DW$73, DW_AT_decl_column(0x05)
     893                    
     894                    $C$DW$74        .dwtag  DW_TAG_enumerator
     895                            .dwattr $C$DW$74, DW_AT_name("LedYellow")
     896                            .dwattr $C$DW$74, DW_AT_const_value(0x03)
     897                            .dwattr $C$DW$74, DW_AT_decl_file("C:/Users/Raz Aloni/OneDrive/School/EEL4924/DSP/C_Libs/MicCh
     898                            .dwattr $C$DW$74, DW_AT_decl_line(0x23)
     899                            .dwattr $C$DW$74, DW_AT_decl_column(0x05)
     900                    
     901                    $C$DW$75        .dwtag  DW_TAG_enumerator
     902                            .dwattr $C$DW$75, DW_AT_name("LedCyan")
     903                            .dwattr $C$DW$75, DW_AT_const_value(0x06)
     904                            .dwattr $C$DW$75, DW_AT_decl_file("C:/Users/Raz Aloni/OneDrive/School/EEL4924/DSP/C_Libs/MicCh
     905                            .dwattr $C$DW$75, DW_AT_decl_line(0x24)
     906                            .dwattr $C$DW$75, DW_AT_decl_column(0x05)
     907                    
     908                    $C$DW$76        .dwtag  DW_TAG_enumerator
     909                            .dwattr $C$DW$76, DW_AT_name("LedMagenta")
     910                            .dwattr $C$DW$76, DW_AT_const_value(0x05)
     911                            .dwattr $C$DW$76, DW_AT_decl_file("C:/Users/Raz Aloni/OneDrive/School/EEL4924/DSP/C_Libs/MicCh
     912                            .dwattr $C$DW$76, DW_AT_decl_line(0x25)
     913                            .dwattr $C$DW$76, DW_AT_decl_column(0x05)
     914                    
     915                    $C$DW$77        .dwtag  DW_TAG_enumerator
     916                            .dwattr $C$DW$77, DW_AT_name("LedWhite")
     917                            .dwattr $C$DW$77, DW_AT_const_value(0x07)
     918                            .dwattr $C$DW$77, DW_AT_decl_file("C:/Users/Raz Aloni/OneDrive/School/EEL4924/DSP/C_Libs/MicCh
     919                            .dwattr $C$DW$77, DW_AT_decl_line(0x26)
     920                            .dwattr $C$DW$77, DW_AT_decl_column(0x05)
     921                    
     922                            .dwattr $C$DW$T$658, DW_AT_decl_file("C:/Users/Raz Aloni/OneDrive/School/EEL4924/DSP/C_Libs/Mi
     923                            .dwattr $C$DW$T$658, DW_AT_decl_line(0x1e)
     924                            .dwattr $C$DW$T$658, DW_AT_decl_column(0x01)
     925                            .dwendtag $C$DW$T$658
     926                    
     927                    $C$DW$T$659     .dwtag  DW_TAG_typedef
     928                            .dwattr $C$DW$T$659, DW_AT_name("micLed_t")
     929                            .dwattr $C$DW$T$659, DW_AT_type(*$C$DW$T$658)
     930                            .dwattr $C$DW$T$659, DW_AT_language(DW_LANG_C)
     931                            .dwattr $C$DW$T$659, DW_AT_decl_file("C:/Users/Raz Aloni/OneDrive/School/EEL4924/DSP/C_Libs/Mi
     932                            .dwattr $C$DW$T$659, DW_AT_decl_line(0x27)
     933                            .dwattr $C$DW$T$659, DW_AT_decl_column(0x03)
     934                    
     935                    $C$DW$T$660     .dwtag  DW_TAG_const_type
TMS320C6x Assembler PC v8.1.3 Fri Apr 14 08:40:30 2017

Tools Copyright (c) 1996-2015 Texas Instruments Incorporated
MicInterface.asm                                                     PAGE   18

     936                            .dwattr $C$DW$T$660, DW_AT_type(*$C$DW$T$659)
     937                    
     938                    
     939                    $C$DW$T$661     .dwtag  DW_TAG_enumeration_type
     940                            .dwattr $C$DW$T$661, DW_AT_byte_size(0x04)
     941                    $C$DW$78        .dwtag  DW_TAG_enumerator
     942                            .dwattr $C$DW$78, DW_AT_name("HW_PSC_CC0")
     943                            .dwattr $C$DW$78, DW_AT_const_value(0x00)
     944                            .dwattr $C$DW$78, DW_AT_decl_file("C:/ti/OMAPL138_StarterWare_1_10_04_01/include/hw/hw_psc_C67
     945                            .dwattr $C$DW$78, DW_AT_decl_line(0x3c)
     946                            .dwattr $C$DW$78, DW_AT_decl_column(0x05)
     947                    
     948                    $C$DW$79        .dwtag  DW_TAG_enumerator
     949                            .dwattr $C$DW$79, DW_AT_name("HW_PSC_TC0")
     950                            .dwattr $C$DW$79, DW_AT_const_value(0x01)
     951                            .dwattr $C$DW$79, DW_AT_decl_file("C:/ti/OMAPL138_StarterWare_1_10_04_01/include/hw/hw_psc_C67
     952                            .dwattr $C$DW$79, DW_AT_decl_line(0x3d)
     953                            .dwattr $C$DW$79, DW_AT_decl_column(0x05)
     954                    
     955                    $C$DW$80        .dwtag  DW_TAG_enumerator
     956                            .dwattr $C$DW$80, DW_AT_name("HW_PSC_TC1")
     957                            .dwattr $C$DW$80, DW_AT_const_value(0x02)
     958                            .dwattr $C$DW$80, DW_AT_decl_file("C:/ti/OMAPL138_StarterWare_1_10_04_01/include/hw/hw_psc_C67
     959                            .dwattr $C$DW$80, DW_AT_decl_line(0x3e)
     960                            .dwattr $C$DW$80, DW_AT_decl_column(0x05)
     961                    
     962                    $C$DW$81        .dwtag  DW_TAG_enumerator
     963                            .dwattr $C$DW$81, DW_AT_name("HW_PSC_EMIFA")
     964                            .dwattr $C$DW$81, DW_AT_const_value(0x03)
     965                            .dwattr $C$DW$81, DW_AT_decl_file("C:/ti/OMAPL138_StarterWare_1_10_04_01/include/hw/hw_psc_C67
     966                            .dwattr $C$DW$81, DW_AT_decl_line(0x3f)
     967                            .dwattr $C$DW$81, DW_AT_decl_column(0x05)
     968                    
     969                    $C$DW$82        .dwtag  DW_TAG_enumerator
     970                            .dwattr $C$DW$82, DW_AT_name("HW_PSC_SPI0")
     971                            .dwattr $C$DW$82, DW_AT_const_value(0x04)
     972                            .dwattr $C$DW$82, DW_AT_decl_file("C:/ti/OMAPL138_StarterWare_1_10_04_01/include/hw/hw_psc_C67
     973                            .dwattr $C$DW$82, DW_AT_decl_line(0x40)
     974                            .dwattr $C$DW$82, DW_AT_decl_column(0x05)
     975                    
     976                    $C$DW$83        .dwtag  DW_TAG_enumerator
     977                            .dwattr $C$DW$83, DW_AT_name("HW_PSC_MMCSD0")
     978                            .dwattr $C$DW$83, DW_AT_const_value(0x05)
     979                            .dwattr $C$DW$83, DW_AT_decl_file("C:/ti/OMAPL138_StarterWare_1_10_04_01/include/hw/hw_psc_C67
     980                            .dwattr $C$DW$83, DW_AT_decl_line(0x41)
     981                            .dwattr $C$DW$83, DW_AT_decl_column(0x05)
     982                    
     983                    $C$DW$84        .dwtag  DW_TAG_enumerator
     984                            .dwattr $C$DW$84, DW_AT_name("HW_PSC_AINTC")
     985                            .dwattr $C$DW$84, DW_AT_const_value(0x06)
     986                            .dwattr $C$DW$84, DW_AT_decl_file("C:/ti/OMAPL138_StarterWare_1_10_04_01/include/hw/hw_psc_C67
     987                            .dwattr $C$DW$84, DW_AT_decl_line(0x42)
     988                            .dwattr $C$DW$84, DW_AT_decl_column(0x05)
     989                    
     990                    $C$DW$85        .dwtag  DW_TAG_enumerator
TMS320C6x Assembler PC v8.1.3 Fri Apr 14 08:40:30 2017

Tools Copyright (c) 1996-2015 Texas Instruments Incorporated
MicInterface.asm                                                     PAGE   19

     991                            .dwattr $C$DW$85, DW_AT_name("HW_PSC_ARM_RAMROM")
     992                            .dwattr $C$DW$85, DW_AT_const_value(0x07)
     993                            .dwattr $C$DW$85, DW_AT_decl_file("C:/ti/OMAPL138_StarterWare_1_10_04_01/include/hw/hw_psc_C67
     994                            .dwattr $C$DW$85, DW_AT_decl_line(0x43)
     995                            .dwattr $C$DW$85, DW_AT_decl_column(0x05)
     996                    
     997                    $C$DW$86        .dwtag  DW_TAG_enumerator
     998                            .dwattr $C$DW$86, DW_AT_name("HW_PSC_UART0")
     999                            .dwattr $C$DW$86, DW_AT_const_value(0x09)
    1000                            .dwattr $C$DW$86, DW_AT_decl_file("C:/ti/OMAPL138_StarterWare_1_10_04_01/include/hw/hw_psc_C67
    1001                            .dwattr $C$DW$86, DW_AT_decl_line(0x44)
    1002                            .dwattr $C$DW$86, DW_AT_decl_column(0x05)
    1003                    
    1004                    $C$DW$87        .dwtag  DW_TAG_enumerator
    1005                            .dwattr $C$DW$87, DW_AT_name("HW_PSC_SCR0_SS")
    1006                            .dwattr $C$DW$87, DW_AT_const_value(0x0a)
    1007                            .dwattr $C$DW$87, DW_AT_decl_file("C:/ti/OMAPL138_StarterWare_1_10_04_01/include/hw/hw_psc_C67
    1008                            .dwattr $C$DW$87, DW_AT_decl_line(0x45)
    1009                            .dwattr $C$DW$87, DW_AT_decl_column(0x05)
    1010                    
    1011                    $C$DW$88        .dwtag  DW_TAG_enumerator
    1012                            .dwattr $C$DW$88, DW_AT_name("HW_PSC_SCR1_SS")
    1013                            .dwattr $C$DW$88, DW_AT_const_value(0x0b)
    1014                            .dwattr $C$DW$88, DW_AT_decl_file("C:/ti/OMAPL138_StarterWare_1_10_04_01/include/hw/hw_psc_C67
    1015                            .dwattr $C$DW$88, DW_AT_decl_line(0x46)
    1016                            .dwattr $C$DW$88, DW_AT_decl_column(0x05)
    1017                    
    1018                    $C$DW$89        .dwtag  DW_TAG_enumerator
    1019                            .dwattr $C$DW$89, DW_AT_name("HW_PSC_SCR2_SS")
    1020                            .dwattr $C$DW$89, DW_AT_const_value(0x0c)
    1021                            .dwattr $C$DW$89, DW_AT_decl_file("C:/ti/OMAPL138_StarterWare_1_10_04_01/include/hw/hw_psc_C67
    1022                            .dwattr $C$DW$89, DW_AT_decl_line(0x47)
    1023                            .dwattr $C$DW$89, DW_AT_decl_column(0x05)
    1024                    
    1025                    $C$DW$90        .dwtag  DW_TAG_enumerator
    1026                            .dwattr $C$DW$90, DW_AT_name("HW_PSC_PRU")
    1027                            .dwattr $C$DW$90, DW_AT_const_value(0x0d)
    1028                            .dwattr $C$DW$90, DW_AT_decl_file("C:/ti/OMAPL138_StarterWare_1_10_04_01/include/hw/hw_psc_C67
    1029                            .dwattr $C$DW$90, DW_AT_decl_line(0x48)
    1030                            .dwattr $C$DW$90, DW_AT_decl_column(0x05)
    1031                    
    1032                    $C$DW$91        .dwtag  DW_TAG_enumerator
    1033                            .dwattr $C$DW$91, DW_AT_name("HW_PSC_ARM")
    1034                            .dwattr $C$DW$91, DW_AT_const_value(0x0e)
    1035                            .dwattr $C$DW$91, DW_AT_decl_file("C:/ti/OMAPL138_StarterWare_1_10_04_01/include/hw/hw_psc_C67
    1036                            .dwattr $C$DW$91, DW_AT_decl_line(0x49)
    1037                            .dwattr $C$DW$91, DW_AT_decl_column(0x05)
    1038                    
    1039                    $C$DW$92        .dwtag  DW_TAG_enumerator
    1040                            .dwattr $C$DW$92, DW_AT_name("HW_PSC_DSP")
    1041                            .dwattr $C$DW$92, DW_AT_const_value(0x0f)
    1042                            .dwattr $C$DW$92, DW_AT_decl_file("C:/ti/OMAPL138_StarterWare_1_10_04_01/include/hw/hw_psc_C67
    1043                            .dwattr $C$DW$92, DW_AT_decl_line(0x4a)
    1044                            .dwattr $C$DW$92, DW_AT_decl_column(0x05)
    1045                    
TMS320C6x Assembler PC v8.1.3 Fri Apr 14 08:40:30 2017

Tools Copyright (c) 1996-2015 Texas Instruments Incorporated
MicInterface.asm                                                     PAGE   20

    1046                            .dwattr $C$DW$T$661, DW_AT_decl_file("C:/ti/OMAPL138_StarterWare_1_10_04_01/include/hw/hw_psc_
    1047                            .dwattr $C$DW$T$661, DW_AT_decl_line(0x3b)
    1048                            .dwattr $C$DW$T$661, DW_AT_decl_column(0x0e)
    1049                            .dwendtag $C$DW$T$661
    1050                    
    1051                    $C$DW$T$662     .dwtag  DW_TAG_typedef
    1052                            .dwattr $C$DW$T$662, DW_AT_name("Psc0Peripheral")
    1053                            .dwattr $C$DW$T$662, DW_AT_type(*$C$DW$T$661)
    1054                            .dwattr $C$DW$T$662, DW_AT_language(DW_LANG_C)
    1055                            .dwattr $C$DW$T$662, DW_AT_decl_file("C:/ti/OMAPL138_StarterWare_1_10_04_01/include/hw/hw_psc_
    1056                            .dwattr $C$DW$T$662, DW_AT_decl_line(0x4c)
    1057                            .dwattr $C$DW$T$662, DW_AT_decl_column(0x03)
    1058                    
    1059                    
    1060                    $C$DW$T$663     .dwtag  DW_TAG_enumeration_type
    1061                            .dwattr $C$DW$T$663, DW_AT_byte_size(0x04)
    1062                    $C$DW$93        .dwtag  DW_TAG_enumerator
    1063                            .dwattr $C$DW$93, DW_AT_name("HW_PSC_CC1")
    1064                            .dwattr $C$DW$93, DW_AT_const_value(0x00)
    1065                            .dwattr $C$DW$93, DW_AT_decl_file("C:/ti/OMAPL138_StarterWare_1_10_04_01/include/hw/hw_psc_C67
    1066                            .dwattr $C$DW$93, DW_AT_decl_line(0x4f)
    1067                            .dwattr $C$DW$93, DW_AT_decl_column(0x05)
    1068                    
    1069                    $C$DW$94        .dwtag  DW_TAG_enumerator
    1070                            .dwattr $C$DW$94, DW_AT_name("HW_PSC_USB0")
    1071                            .dwattr $C$DW$94, DW_AT_const_value(0x01)
    1072                            .dwattr $C$DW$94, DW_AT_decl_file("C:/ti/OMAPL138_StarterWare_1_10_04_01/include/hw/hw_psc_C67
    1073                            .dwattr $C$DW$94, DW_AT_decl_line(0x50)
    1074                            .dwattr $C$DW$94, DW_AT_decl_column(0x05)
    1075                    
    1076                    $C$DW$95        .dwtag  DW_TAG_enumerator
    1077                            .dwattr $C$DW$95, DW_AT_name("HW_PSC_USB1")
    1078                            .dwattr $C$DW$95, DW_AT_const_value(0x02)
    1079                            .dwattr $C$DW$95, DW_AT_decl_file("C:/ti/OMAPL138_StarterWare_1_10_04_01/include/hw/hw_psc_C67
    1080                            .dwattr $C$DW$95, DW_AT_decl_line(0x51)
    1081                            .dwattr $C$DW$95, DW_AT_decl_column(0x05)
    1082                    
    1083                    $C$DW$96        .dwtag  DW_TAG_enumerator
    1084                            .dwattr $C$DW$96, DW_AT_name("HW_PSC_GPIO")
    1085                            .dwattr $C$DW$96, DW_AT_const_value(0x03)
    1086                            .dwattr $C$DW$96, DW_AT_decl_file("C:/ti/OMAPL138_StarterWare_1_10_04_01/include/hw/hw_psc_C67
    1087                            .dwattr $C$DW$96, DW_AT_decl_line(0x52)
    1088                            .dwattr $C$DW$96, DW_AT_decl_column(0x05)
    1089                    
    1090                    $C$DW$97        .dwtag  DW_TAG_enumerator
    1091                            .dwattr $C$DW$97, DW_AT_name("HW_PSC_UHPI")
    1092                            .dwattr $C$DW$97, DW_AT_const_value(0x04)
    1093                            .dwattr $C$DW$97, DW_AT_decl_file("C:/ti/OMAPL138_StarterWare_1_10_04_01/include/hw/hw_psc_C67
    1094                            .dwattr $C$DW$97, DW_AT_decl_line(0x53)
    1095                            .dwattr $C$DW$97, DW_AT_decl_column(0x05)
    1096                    
    1097                    $C$DW$98        .dwtag  DW_TAG_enumerator
    1098                            .dwattr $C$DW$98, DW_AT_name("HW_PSC_EMAC")
    1099                            .dwattr $C$DW$98, DW_AT_const_value(0x05)
    1100                            .dwattr $C$DW$98, DW_AT_decl_file("C:/ti/OMAPL138_StarterWare_1_10_04_01/include/hw/hw_psc_C67
TMS320C6x Assembler PC v8.1.3 Fri Apr 14 08:40:30 2017

Tools Copyright (c) 1996-2015 Texas Instruments Incorporated
MicInterface.asm                                                     PAGE   21

    1101                            .dwattr $C$DW$98, DW_AT_decl_line(0x54)
    1102                            .dwattr $C$DW$98, DW_AT_decl_column(0x05)
    1103                    
    1104                    $C$DW$99        .dwtag  DW_TAG_enumerator
    1105                            .dwattr $C$DW$99, DW_AT_name("HW_PSC_DDR2_MDDR")
    1106                            .dwattr $C$DW$99, DW_AT_const_value(0x06)
    1107                            .dwattr $C$DW$99, DW_AT_decl_file("C:/ti/OMAPL138_StarterWare_1_10_04_01/include/hw/hw_psc_C67
    1108                            .dwattr $C$DW$99, DW_AT_decl_line(0x55)
    1109                            .dwattr $C$DW$99, DW_AT_decl_column(0x05)
    1110                    
    1111                    $C$DW$100       .dwtag  DW_TAG_enumerator
    1112                            .dwattr $C$DW$100, DW_AT_name("HW_PSC_MCASP0")
    1113                            .dwattr $C$DW$100, DW_AT_const_value(0x07)
    1114                            .dwattr $C$DW$100, DW_AT_decl_file("C:/ti/OMAPL138_StarterWare_1_10_04_01/include/hw/hw_psc_C6
    1115                            .dwattr $C$DW$100, DW_AT_decl_line(0x56)
    1116                            .dwattr $C$DW$100, DW_AT_decl_column(0x05)
    1117                    
    1118                    $C$DW$101       .dwtag  DW_TAG_enumerator
    1119                            .dwattr $C$DW$101, DW_AT_name("HW_PSC_SATA")
    1120                            .dwattr $C$DW$101, DW_AT_const_value(0x08)
    1121                            .dwattr $C$DW$101, DW_AT_decl_file("C:/ti/OMAPL138_StarterWare_1_10_04_01/include/hw/hw_psc_C6
    1122                            .dwattr $C$DW$101, DW_AT_decl_line(0x57)
    1123                            .dwattr $C$DW$101, DW_AT_decl_column(0x05)
    1124                    
    1125                    $C$DW$102       .dwtag  DW_TAG_enumerator
    1126                            .dwattr $C$DW$102, DW_AT_name("HW_PSC_VPIF")
    1127                            .dwattr $C$DW$102, DW_AT_const_value(0x09)
    1128                            .dwattr $C$DW$102, DW_AT_decl_file("C:/ti/OMAPL138_StarterWare_1_10_04_01/include/hw/hw_psc_C6
    1129                            .dwattr $C$DW$102, DW_AT_decl_line(0x58)
    1130                            .dwattr $C$DW$102, DW_AT_decl_column(0x05)
    1131                    
    1132                    $C$DW$103       .dwtag  DW_TAG_enumerator
    1133                            .dwattr $C$DW$103, DW_AT_name("HW_PSC_SPI1")
    1134                            .dwattr $C$DW$103, DW_AT_const_value(0x0a)
    1135                            .dwattr $C$DW$103, DW_AT_decl_file("C:/ti/OMAPL138_StarterWare_1_10_04_01/include/hw/hw_psc_C6
    1136                            .dwattr $C$DW$103, DW_AT_decl_line(0x59)
    1137                            .dwattr $C$DW$103, DW_AT_decl_column(0x05)
    1138                    
    1139                    $C$DW$104       .dwtag  DW_TAG_enumerator
    1140                            .dwattr $C$DW$104, DW_AT_name("HW_PSC_I2C1")
    1141                            .dwattr $C$DW$104, DW_AT_const_value(0x0b)
    1142                            .dwattr $C$DW$104, DW_AT_decl_file("C:/ti/OMAPL138_StarterWare_1_10_04_01/include/hw/hw_psc_C6
    1143                            .dwattr $C$DW$104, DW_AT_decl_line(0x5a)
    1144                            .dwattr $C$DW$104, DW_AT_decl_column(0x05)
    1145                    
    1146                    $C$DW$105       .dwtag  DW_TAG_enumerator
    1147                            .dwattr $C$DW$105, DW_AT_name("HW_PSC_UART1")
    1148                            .dwattr $C$DW$105, DW_AT_const_value(0x0c)
    1149                            .dwattr $C$DW$105, DW_AT_decl_file("C:/ti/OMAPL138_StarterWare_1_10_04_01/include/hw/hw_psc_C6
    1150                            .dwattr $C$DW$105, DW_AT_decl_line(0x5b)
    1151                            .dwattr $C$DW$105, DW_AT_decl_column(0x05)
    1152                    
    1153                    $C$DW$106       .dwtag  DW_TAG_enumerator
    1154                            .dwattr $C$DW$106, DW_AT_name("HW_PSC_UART2")
    1155                            .dwattr $C$DW$106, DW_AT_const_value(0x0d)
TMS320C6x Assembler PC v8.1.3 Fri Apr 14 08:40:30 2017

Tools Copyright (c) 1996-2015 Texas Instruments Incorporated
MicInterface.asm                                                     PAGE   22

    1156                            .dwattr $C$DW$106, DW_AT_decl_file("C:/ti/OMAPL138_StarterWare_1_10_04_01/include/hw/hw_psc_C6
    1157                            .dwattr $C$DW$106, DW_AT_decl_line(0x5c)
    1158                            .dwattr $C$DW$106, DW_AT_decl_column(0x05)
    1159                    
    1160                    $C$DW$107       .dwtag  DW_TAG_enumerator
    1161                            .dwattr $C$DW$107, DW_AT_name("HW_PSC_MCBSP0")
    1162                            .dwattr $C$DW$107, DW_AT_const_value(0x0e)
    1163                            .dwattr $C$DW$107, DW_AT_decl_file("C:/ti/OMAPL138_StarterWare_1_10_04_01/include/hw/hw_psc_C6
    1164                            .dwattr $C$DW$107, DW_AT_decl_line(0x5d)
    1165                            .dwattr $C$DW$107, DW_AT_decl_column(0x05)
    1166                    
    1167                    $C$DW$108       .dwtag  DW_TAG_enumerator
    1168                            .dwattr $C$DW$108, DW_AT_name("HW_PSC_MCBSP1")
    1169                            .dwattr $C$DW$108, DW_AT_const_value(0x0f)
    1170                            .dwattr $C$DW$108, DW_AT_decl_file("C:/ti/OMAPL138_StarterWare_1_10_04_01/include/hw/hw_psc_C6
    1171                            .dwattr $C$DW$108, DW_AT_decl_line(0x5e)
    1172                            .dwattr $C$DW$108, DW_AT_decl_column(0x05)
    1173                    
    1174                    $C$DW$109       .dwtag  DW_TAG_enumerator
    1175                            .dwattr $C$DW$109, DW_AT_name("HW_PSC_LCDC")
    1176                            .dwattr $C$DW$109, DW_AT_const_value(0x10)
    1177                            .dwattr $C$DW$109, DW_AT_decl_file("C:/ti/OMAPL138_StarterWare_1_10_04_01/include/hw/hw_psc_C6
    1178                            .dwattr $C$DW$109, DW_AT_decl_line(0x5f)
    1179                            .dwattr $C$DW$109, DW_AT_decl_column(0x05)
    1180                    
    1181                    $C$DW$110       .dwtag  DW_TAG_enumerator
    1182                            .dwattr $C$DW$110, DW_AT_name("HW_PSC_EHRPWM")
    1183                            .dwattr $C$DW$110, DW_AT_const_value(0x11)
    1184                            .dwattr $C$DW$110, DW_AT_decl_file("C:/ti/OMAPL138_StarterWare_1_10_04_01/include/hw/hw_psc_C6
    1185                            .dwattr $C$DW$110, DW_AT_decl_line(0x60)
    1186                            .dwattr $C$DW$110, DW_AT_decl_column(0x05)
    1187                    
    1188                    $C$DW$111       .dwtag  DW_TAG_enumerator
    1189                            .dwattr $C$DW$111, DW_AT_name("HW_PSC_MMCSD1")
    1190                            .dwattr $C$DW$111, DW_AT_const_value(0x12)
    1191                            .dwattr $C$DW$111, DW_AT_decl_file("C:/ti/OMAPL138_StarterWare_1_10_04_01/include/hw/hw_psc_C6
    1192                            .dwattr $C$DW$111, DW_AT_decl_line(0x61)
    1193                            .dwattr $C$DW$111, DW_AT_decl_column(0x05)
    1194                    
    1195                    $C$DW$112       .dwtag  DW_TAG_enumerator
    1196                            .dwattr $C$DW$112, DW_AT_name("HW_PSC_UPP")
    1197                            .dwattr $C$DW$112, DW_AT_const_value(0x13)
    1198                            .dwattr $C$DW$112, DW_AT_decl_file("C:/ti/OMAPL138_StarterWare_1_10_04_01/include/hw/hw_psc_C6
    1199                            .dwattr $C$DW$112, DW_AT_decl_line(0x62)
    1200                            .dwattr $C$DW$112, DW_AT_decl_column(0x05)
    1201                    
    1202                    $C$DW$113       .dwtag  DW_TAG_enumerator
    1203                            .dwattr $C$DW$113, DW_AT_name("HW_PSC_ECAP0_1_2")
    1204                            .dwattr $C$DW$113, DW_AT_const_value(0x14)
    1205                            .dwattr $C$DW$113, DW_AT_decl_file("C:/ti/OMAPL138_StarterWare_1_10_04_01/include/hw/hw_psc_C6
    1206                            .dwattr $C$DW$113, DW_AT_decl_line(0x63)
    1207                            .dwattr $C$DW$113, DW_AT_decl_column(0x05)
    1208                    
    1209                    $C$DW$114       .dwtag  DW_TAG_enumerator
    1210                            .dwattr $C$DW$114, DW_AT_name("HW_PSC_TC2")
TMS320C6x Assembler PC v8.1.3 Fri Apr 14 08:40:30 2017

Tools Copyright (c) 1996-2015 Texas Instruments Incorporated
MicInterface.asm                                                     PAGE   23

    1211                            .dwattr $C$DW$114, DW_AT_const_value(0x15)
    1212                            .dwattr $C$DW$114, DW_AT_decl_file("C:/ti/OMAPL138_StarterWare_1_10_04_01/include/hw/hw_psc_C6
    1213                            .dwattr $C$DW$114, DW_AT_decl_line(0x64)
    1214                            .dwattr $C$DW$114, DW_AT_decl_column(0x05)
    1215                    
    1216                    $C$DW$115       .dwtag  DW_TAG_enumerator
    1217                            .dwattr $C$DW$115, DW_AT_name("HW_PSC_SCRF0_SS")
    1218                            .dwattr $C$DW$115, DW_AT_const_value(0x18)
    1219                            .dwattr $C$DW$115, DW_AT_decl_file("C:/ti/OMAPL138_StarterWare_1_10_04_01/include/hw/hw_psc_C6
    1220                            .dwattr $C$DW$115, DW_AT_decl_line(0x65)
    1221                            .dwattr $C$DW$115, DW_AT_decl_column(0x05)
    1222                    
    1223                    $C$DW$116       .dwtag  DW_TAG_enumerator
    1224                            .dwattr $C$DW$116, DW_AT_name("HW_PSC_SCRF1_SS")
    1225                            .dwattr $C$DW$116, DW_AT_const_value(0x19)
    1226                            .dwattr $C$DW$116, DW_AT_decl_file("C:/ti/OMAPL138_StarterWare_1_10_04_01/include/hw/hw_psc_C6
    1227                            .dwattr $C$DW$116, DW_AT_decl_line(0x66)
    1228                            .dwattr $C$DW$116, DW_AT_decl_column(0x05)
    1229                    
    1230                    $C$DW$117       .dwtag  DW_TAG_enumerator
    1231                            .dwattr $C$DW$117, DW_AT_name("HW_PSC_SCRF2_SS")
    1232                            .dwattr $C$DW$117, DW_AT_const_value(0x1a)
    1233                            .dwattr $C$DW$117, DW_AT_decl_file("C:/ti/OMAPL138_StarterWare_1_10_04_01/include/hw/hw_psc_C6
    1234                            .dwattr $C$DW$117, DW_AT_decl_line(0x67)
    1235                            .dwattr $C$DW$117, DW_AT_decl_column(0x05)
    1236                    
    1237                    $C$DW$118       .dwtag  DW_TAG_enumerator
    1238                            .dwattr $C$DW$118, DW_AT_name("HW_PSC_SCRF6_SS")
    1239                            .dwattr $C$DW$118, DW_AT_const_value(0x1b)
    1240                            .dwattr $C$DW$118, DW_AT_decl_file("C:/ti/OMAPL138_StarterWare_1_10_04_01/include/hw/hw_psc_C6
    1241                            .dwattr $C$DW$118, DW_AT_decl_line(0x68)
    1242                            .dwattr $C$DW$118, DW_AT_decl_column(0x05)
    1243                    
    1244                    $C$DW$119       .dwtag  DW_TAG_enumerator
    1245                            .dwattr $C$DW$119, DW_AT_name("HW_PSC_SCRF7_SS")
    1246                            .dwattr $C$DW$119, DW_AT_const_value(0x1c)
    1247                            .dwattr $C$DW$119, DW_AT_decl_file("C:/ti/OMAPL138_StarterWare_1_10_04_01/include/hw/hw_psc_C6
    1248                            .dwattr $C$DW$119, DW_AT_decl_line(0x69)
    1249                            .dwattr $C$DW$119, DW_AT_decl_column(0x05)
    1250                    
    1251                    $C$DW$120       .dwtag  DW_TAG_enumerator
    1252                            .dwattr $C$DW$120, DW_AT_name("HW_PSC_SCRF8_SS")
    1253                            .dwattr $C$DW$120, DW_AT_const_value(0x1d)
    1254                            .dwattr $C$DW$120, DW_AT_decl_file("C:/ti/OMAPL138_StarterWare_1_10_04_01/include/hw/hw_psc_C6
    1255                            .dwattr $C$DW$120, DW_AT_decl_line(0x6a)
    1256                            .dwattr $C$DW$120, DW_AT_decl_column(0x05)
    1257                    
    1258                    $C$DW$121       .dwtag  DW_TAG_enumerator
    1259                            .dwattr $C$DW$121, DW_AT_name("HW_PSC_BR_F7")
    1260                            .dwattr $C$DW$121, DW_AT_const_value(0x1e)
    1261                            .dwattr $C$DW$121, DW_AT_decl_file("C:/ti/OMAPL138_StarterWare_1_10_04_01/include/hw/hw_psc_C6
    1262                            .dwattr $C$DW$121, DW_AT_decl_line(0x6b)
    1263                            .dwattr $C$DW$121, DW_AT_decl_column(0x05)
    1264                    
    1265                    $C$DW$122       .dwtag  DW_TAG_enumerator
TMS320C6x Assembler PC v8.1.3 Fri Apr 14 08:40:30 2017

Tools Copyright (c) 1996-2015 Texas Instruments Incorporated
MicInterface.asm                                                     PAGE   24

    1266                            .dwattr $C$DW$122, DW_AT_name("HW_PSC_SHRAM")
    1267                            .dwattr $C$DW$122, DW_AT_const_value(0x1f)
    1268                            .dwattr $C$DW$122, DW_AT_decl_file("C:/ti/OMAPL138_StarterWare_1_10_04_01/include/hw/hw_psc_C6
    1269                            .dwattr $C$DW$122, DW_AT_decl_line(0x6c)
    1270                            .dwattr $C$DW$122, DW_AT_decl_column(0x05)
    1271                    
    1272                            .dwattr $C$DW$T$663, DW_AT_decl_file("C:/ti/OMAPL138_StarterWare_1_10_04_01/include/hw/hw_psc_
    1273                            .dwattr $C$DW$T$663, DW_AT_decl_line(0x4e)
    1274                            .dwattr $C$DW$T$663, DW_AT_decl_column(0x0e)
    1275                            .dwendtag $C$DW$T$663
    1276                    
    1277                    $C$DW$T$664     .dwtag  DW_TAG_typedef
    1278                            .dwattr $C$DW$T$664, DW_AT_name("Psc1Peripheral")
    1279                            .dwattr $C$DW$T$664, DW_AT_type(*$C$DW$T$663)
    1280                            .dwattr $C$DW$T$664, DW_AT_language(DW_LANG_C)
    1281                            .dwattr $C$DW$T$664, DW_AT_decl_file("C:/ti/OMAPL138_StarterWare_1_10_04_01/include/hw/hw_psc_
    1282                            .dwattr $C$DW$T$664, DW_AT_decl_line(0x6d)
    1283                            .dwattr $C$DW$T$664, DW_AT_decl_column(0x03)
    1284                    
    1285                    
    1286                    $C$DW$T$665     .dwtag  DW_TAG_enumeration_type
    1287                            .dwattr $C$DW$T$665, DW_AT_byte_size(0x04)
    1288                    $C$DW$123       .dwtag  DW_TAG_enumerator
    1289                            .dwattr $C$DW$123, DW_AT_name("CSL_PSC_CC0")
    1290                            .dwattr $C$DW$123, DW_AT_const_value(0x00)
    1291                            .dwattr $C$DW$123, DW_AT_decl_file("C:/ti/pdk_OMAPL138_1_01_00_02/packages/ti/csl/cslr_psc_OMA
    1292                            .dwattr $C$DW$123, DW_AT_decl_line(0x42)
    1293                            .dwattr $C$DW$123, DW_AT_decl_column(0x05)
    1294                    
    1295                    $C$DW$124       .dwtag  DW_TAG_enumerator
    1296                            .dwattr $C$DW$124, DW_AT_name("CSL_PSC_TC0")
    1297                            .dwattr $C$DW$124, DW_AT_const_value(0x01)
    1298                            .dwattr $C$DW$124, DW_AT_decl_file("C:/ti/pdk_OMAPL138_1_01_00_02/packages/ti/csl/cslr_psc_OMA
    1299                            .dwattr $C$DW$124, DW_AT_decl_line(0x43)
    1300                            .dwattr $C$DW$124, DW_AT_decl_column(0x05)
    1301                    
    1302                    $C$DW$125       .dwtag  DW_TAG_enumerator
    1303                            .dwattr $C$DW$125, DW_AT_name("CSL_PSC_TC1")
    1304                            .dwattr $C$DW$125, DW_AT_const_value(0x02)
    1305                            .dwattr $C$DW$125, DW_AT_decl_file("C:/ti/pdk_OMAPL138_1_01_00_02/packages/ti/csl/cslr_psc_OMA
    1306                            .dwattr $C$DW$125, DW_AT_decl_line(0x44)
    1307                            .dwattr $C$DW$125, DW_AT_decl_column(0x05)
    1308                    
    1309                    $C$DW$126       .dwtag  DW_TAG_enumerator
    1310                            .dwattr $C$DW$126, DW_AT_name("CSL_PSC_EMIFA")
    1311                            .dwattr $C$DW$126, DW_AT_const_value(0x03)
    1312                            .dwattr $C$DW$126, DW_AT_decl_file("C:/ti/pdk_OMAPL138_1_01_00_02/packages/ti/csl/cslr_psc_OMA
    1313                            .dwattr $C$DW$126, DW_AT_decl_line(0x45)
    1314                            .dwattr $C$DW$126, DW_AT_decl_column(0x05)
    1315                    
    1316                    $C$DW$127       .dwtag  DW_TAG_enumerator
    1317                            .dwattr $C$DW$127, DW_AT_name("CSL_PSC_SPI0")
    1318                            .dwattr $C$DW$127, DW_AT_const_value(0x04)
    1319                            .dwattr $C$DW$127, DW_AT_decl_file("C:/ti/pdk_OMAPL138_1_01_00_02/packages/ti/csl/cslr_psc_OMA
    1320                            .dwattr $C$DW$127, DW_AT_decl_line(0x46)
TMS320C6x Assembler PC v8.1.3 Fri Apr 14 08:40:30 2017

Tools Copyright (c) 1996-2015 Texas Instruments Incorporated
MicInterface.asm                                                     PAGE   25

    1321                            .dwattr $C$DW$127, DW_AT_decl_column(0x05)
    1322                    
    1323                    $C$DW$128       .dwtag  DW_TAG_enumerator
    1324                            .dwattr $C$DW$128, DW_AT_name("CSL_PSC_MMCSD0")
    1325                            .dwattr $C$DW$128, DW_AT_const_value(0x05)
    1326                            .dwattr $C$DW$128, DW_AT_decl_file("C:/ti/pdk_OMAPL138_1_01_00_02/packages/ti/csl/cslr_psc_OMA
    1327                            .dwattr $C$DW$128, DW_AT_decl_line(0x47)
    1328                            .dwattr $C$DW$128, DW_AT_decl_column(0x05)
    1329                    
    1330                    $C$DW$129       .dwtag  DW_TAG_enumerator
    1331                            .dwattr $C$DW$129, DW_AT_name("CSL_PSC_AINTC")
    1332                            .dwattr $C$DW$129, DW_AT_const_value(0x06)
    1333                            .dwattr $C$DW$129, DW_AT_decl_file("C:/ti/pdk_OMAPL138_1_01_00_02/packages/ti/csl/cslr_psc_OMA
    1334                            .dwattr $C$DW$129, DW_AT_decl_line(0x48)
    1335                            .dwattr $C$DW$129, DW_AT_decl_column(0x05)
    1336                    
    1337                    $C$DW$130       .dwtag  DW_TAG_enumerator
    1338                            .dwattr $C$DW$130, DW_AT_name("CSL_PSC_ARM_RAMROM")
    1339                            .dwattr $C$DW$130, DW_AT_const_value(0x07)
    1340                            .dwattr $C$DW$130, DW_AT_decl_file("C:/ti/pdk_OMAPL138_1_01_00_02/packages/ti/csl/cslr_psc_OMA
    1341                            .dwattr $C$DW$130, DW_AT_decl_line(0x49)
    1342                            .dwattr $C$DW$130, DW_AT_decl_column(0x05)
    1343                    
    1344                    $C$DW$131       .dwtag  DW_TAG_enumerator
    1345                            .dwattr $C$DW$131, DW_AT_name("CSL_PSC_UART0")
    1346                            .dwattr $C$DW$131, DW_AT_const_value(0x09)
    1347                            .dwattr $C$DW$131, DW_AT_decl_file("C:/ti/pdk_OMAPL138_1_01_00_02/packages/ti/csl/cslr_psc_OMA
    1348                            .dwattr $C$DW$131, DW_AT_decl_line(0x4a)
    1349                            .dwattr $C$DW$131, DW_AT_decl_column(0x05)
    1350                    
    1351                    $C$DW$132       .dwtag  DW_TAG_enumerator
    1352                            .dwattr $C$DW$132, DW_AT_name("CSL_PSC_SCR0_SS")
    1353                            .dwattr $C$DW$132, DW_AT_const_value(0x0a)
    1354                            .dwattr $C$DW$132, DW_AT_decl_file("C:/ti/pdk_OMAPL138_1_01_00_02/packages/ti/csl/cslr_psc_OMA
    1355                            .dwattr $C$DW$132, DW_AT_decl_line(0x4b)
    1356                            .dwattr $C$DW$132, DW_AT_decl_column(0x05)
    1357                    
    1358                    $C$DW$133       .dwtag  DW_TAG_enumerator
    1359                            .dwattr $C$DW$133, DW_AT_name("CSL_PSC_SCR1_SS")
    1360                            .dwattr $C$DW$133, DW_AT_const_value(0x0b)
    1361                            .dwattr $C$DW$133, DW_AT_decl_file("C:/ti/pdk_OMAPL138_1_01_00_02/packages/ti/csl/cslr_psc_OMA
    1362                            .dwattr $C$DW$133, DW_AT_decl_line(0x4c)
    1363                            .dwattr $C$DW$133, DW_AT_decl_column(0x05)
    1364                    
    1365                    $C$DW$134       .dwtag  DW_TAG_enumerator
    1366                            .dwattr $C$DW$134, DW_AT_name("CSL_PSC_SCR2_SS")
    1367                            .dwattr $C$DW$134, DW_AT_const_value(0x0c)
    1368                            .dwattr $C$DW$134, DW_AT_decl_file("C:/ti/pdk_OMAPL138_1_01_00_02/packages/ti/csl/cslr_psc_OMA
    1369                            .dwattr $C$DW$134, DW_AT_decl_line(0x4d)
    1370                            .dwattr $C$DW$134, DW_AT_decl_column(0x05)
    1371                    
    1372                    $C$DW$135       .dwtag  DW_TAG_enumerator
    1373                            .dwattr $C$DW$135, DW_AT_name("CSL_PSC_PRU")
    1374                            .dwattr $C$DW$135, DW_AT_const_value(0x0d)
    1375                            .dwattr $C$DW$135, DW_AT_decl_file("C:/ti/pdk_OMAPL138_1_01_00_02/packages/ti/csl/cslr_psc_OMA
TMS320C6x Assembler PC v8.1.3 Fri Apr 14 08:40:30 2017

Tools Copyright (c) 1996-2015 Texas Instruments Incorporated
MicInterface.asm                                                     PAGE   26

    1376                            .dwattr $C$DW$135, DW_AT_decl_line(0x4e)
    1377                            .dwattr $C$DW$135, DW_AT_decl_column(0x05)
    1378                    
    1379                    $C$DW$136       .dwtag  DW_TAG_enumerator
    1380                            .dwattr $C$DW$136, DW_AT_name("CSL_PSC_ARM")
    1381                            .dwattr $C$DW$136, DW_AT_const_value(0x0e)
    1382                            .dwattr $C$DW$136, DW_AT_decl_file("C:/ti/pdk_OMAPL138_1_01_00_02/packages/ti/csl/cslr_psc_OMA
    1383                            .dwattr $C$DW$136, DW_AT_decl_line(0x4f)
    1384                            .dwattr $C$DW$136, DW_AT_decl_column(0x05)
    1385                    
    1386                    $C$DW$137       .dwtag  DW_TAG_enumerator
    1387                            .dwattr $C$DW$137, DW_AT_name("CSL_PSC_DSP")
    1388                            .dwattr $C$DW$137, DW_AT_const_value(0x0f)
    1389                            .dwattr $C$DW$137, DW_AT_decl_file("C:/ti/pdk_OMAPL138_1_01_00_02/packages/ti/csl/cslr_psc_OMA
    1390                            .dwattr $C$DW$137, DW_AT_decl_line(0x50)
    1391                            .dwattr $C$DW$137, DW_AT_decl_column(0x05)
    1392                    
    1393                            .dwattr $C$DW$T$665, DW_AT_decl_file("C:/ti/pdk_OMAPL138_1_01_00_02/packages/ti/csl/cslr_psc_O
    1394                            .dwattr $C$DW$T$665, DW_AT_decl_line(0x41)
    1395                            .dwattr $C$DW$T$665, DW_AT_decl_column(0x0e)
    1396                            .dwendtag $C$DW$T$665
    1397                    
    1398                    $C$DW$T$666     .dwtag  DW_TAG_typedef
    1399                            .dwattr $C$DW$T$666, DW_AT_name("CSL_Psc0Peripheral")
    1400                            .dwattr $C$DW$T$666, DW_AT_type(*$C$DW$T$665)
    1401                            .dwattr $C$DW$T$666, DW_AT_language(DW_LANG_C)
    1402                            .dwattr $C$DW$T$666, DW_AT_decl_file("C:/ti/pdk_OMAPL138_1_01_00_02/packages/ti/csl/cslr_psc_O
    1403                            .dwattr $C$DW$T$666, DW_AT_decl_line(0x52)
    1404                            .dwattr $C$DW$T$666, DW_AT_decl_column(0x03)
    1405                    
    1406                    
    1407                    $C$DW$T$667     .dwtag  DW_TAG_enumeration_type
    1408                            .dwattr $C$DW$T$667, DW_AT_byte_size(0x04)
    1409                    $C$DW$138       .dwtag  DW_TAG_enumerator
    1410                            .dwattr $C$DW$138, DW_AT_name("CSL_PSC_CC1")
    1411                            .dwattr $C$DW$138, DW_AT_const_value(0x00)
    1412                            .dwattr $C$DW$138, DW_AT_decl_file("C:/ti/pdk_OMAPL138_1_01_00_02/packages/ti/csl/cslr_psc_OMA
    1413                            .dwattr $C$DW$138, DW_AT_decl_line(0x55)
    1414                            .dwattr $C$DW$138, DW_AT_decl_column(0x05)
    1415                    
    1416                    $C$DW$139       .dwtag  DW_TAG_enumerator
    1417                            .dwattr $C$DW$139, DW_AT_name("CSL_PSC_USB0")
    1418                            .dwattr $C$DW$139, DW_AT_const_value(0x01)
    1419                            .dwattr $C$DW$139, DW_AT_decl_file("C:/ti/pdk_OMAPL138_1_01_00_02/packages/ti/csl/cslr_psc_OMA
    1420                            .dwattr $C$DW$139, DW_AT_decl_line(0x56)
    1421                            .dwattr $C$DW$139, DW_AT_decl_column(0x05)
    1422                    
    1423                    $C$DW$140       .dwtag  DW_TAG_enumerator
    1424                            .dwattr $C$DW$140, DW_AT_name("CSL_PSC_USB1")
    1425                            .dwattr $C$DW$140, DW_AT_const_value(0x02)
    1426                            .dwattr $C$DW$140, DW_AT_decl_file("C:/ti/pdk_OMAPL138_1_01_00_02/packages/ti/csl/cslr_psc_OMA
    1427                            .dwattr $C$DW$140, DW_AT_decl_line(0x57)
    1428                            .dwattr $C$DW$140, DW_AT_decl_column(0x05)
    1429                    
    1430                    $C$DW$141       .dwtag  DW_TAG_enumerator
TMS320C6x Assembler PC v8.1.3 Fri Apr 14 08:40:30 2017

Tools Copyright (c) 1996-2015 Texas Instruments Incorporated
MicInterface.asm                                                     PAGE   27

    1431                            .dwattr $C$DW$141, DW_AT_name("CSL_PSC_GPIO")
    1432                            .dwattr $C$DW$141, DW_AT_const_value(0x03)
    1433                            .dwattr $C$DW$141, DW_AT_decl_file("C:/ti/pdk_OMAPL138_1_01_00_02/packages/ti/csl/cslr_psc_OMA
    1434                            .dwattr $C$DW$141, DW_AT_decl_line(0x58)
    1435                            .dwattr $C$DW$141, DW_AT_decl_column(0x05)
    1436                    
    1437                    $C$DW$142       .dwtag  DW_TAG_enumerator
    1438                            .dwattr $C$DW$142, DW_AT_name("CSL_PSC_UHPI")
    1439                            .dwattr $C$DW$142, DW_AT_const_value(0x04)
    1440                            .dwattr $C$DW$142, DW_AT_decl_file("C:/ti/pdk_OMAPL138_1_01_00_02/packages/ti/csl/cslr_psc_OMA
    1441                            .dwattr $C$DW$142, DW_AT_decl_line(0x59)
    1442                            .dwattr $C$DW$142, DW_AT_decl_column(0x05)
    1443                    
    1444                    $C$DW$143       .dwtag  DW_TAG_enumerator
    1445                            .dwattr $C$DW$143, DW_AT_name("CSL_PSC_EMAC")
    1446                            .dwattr $C$DW$143, DW_AT_const_value(0x05)
    1447                            .dwattr $C$DW$143, DW_AT_decl_file("C:/ti/pdk_OMAPL138_1_01_00_02/packages/ti/csl/cslr_psc_OMA
    1448                            .dwattr $C$DW$143, DW_AT_decl_line(0x5a)
    1449                            .dwattr $C$DW$143, DW_AT_decl_column(0x05)
    1450                    
    1451                    $C$DW$144       .dwtag  DW_TAG_enumerator
    1452                            .dwattr $C$DW$144, DW_AT_name("CSL_PSC_DDR2_MDDR")
    1453                            .dwattr $C$DW$144, DW_AT_const_value(0x06)
    1454                            .dwattr $C$DW$144, DW_AT_decl_file("C:/ti/pdk_OMAPL138_1_01_00_02/packages/ti/csl/cslr_psc_OMA
    1455                            .dwattr $C$DW$144, DW_AT_decl_line(0x5b)
    1456                            .dwattr $C$DW$144, DW_AT_decl_column(0x05)
    1457                    
    1458                    $C$DW$145       .dwtag  DW_TAG_enumerator
    1459                            .dwattr $C$DW$145, DW_AT_name("CSL_PSC_MCASP0")
    1460                            .dwattr $C$DW$145, DW_AT_const_value(0x07)
    1461                            .dwattr $C$DW$145, DW_AT_decl_file("C:/ti/pdk_OMAPL138_1_01_00_02/packages/ti/csl/cslr_psc_OMA
    1462                            .dwattr $C$DW$145, DW_AT_decl_line(0x5c)
    1463                            .dwattr $C$DW$145, DW_AT_decl_column(0x05)
    1464                    
    1465                    $C$DW$146       .dwtag  DW_TAG_enumerator
    1466                            .dwattr $C$DW$146, DW_AT_name("CSL_PSC_SATA")
    1467                            .dwattr $C$DW$146, DW_AT_const_value(0x08)
    1468                            .dwattr $C$DW$146, DW_AT_decl_file("C:/ti/pdk_OMAPL138_1_01_00_02/packages/ti/csl/cslr_psc_OMA
    1469                            .dwattr $C$DW$146, DW_AT_decl_line(0x5d)
    1470                            .dwattr $C$DW$146, DW_AT_decl_column(0x05)
    1471                    
    1472                    $C$DW$147       .dwtag  DW_TAG_enumerator
    1473                            .dwattr $C$DW$147, DW_AT_name("CSL_PSC_VPIF")
    1474                            .dwattr $C$DW$147, DW_AT_const_value(0x09)
    1475                            .dwattr $C$DW$147, DW_AT_decl_file("C:/ti/pdk_OMAPL138_1_01_00_02/packages/ti/csl/cslr_psc_OMA
    1476                            .dwattr $C$DW$147, DW_AT_decl_line(0x5e)
    1477                            .dwattr $C$DW$147, DW_AT_decl_column(0x05)
    1478                    
    1479                    $C$DW$148       .dwtag  DW_TAG_enumerator
    1480                            .dwattr $C$DW$148, DW_AT_name("CSL_PSC_SPI1")
    1481                            .dwattr $C$DW$148, DW_AT_const_value(0x0a)
    1482                            .dwattr $C$DW$148, DW_AT_decl_file("C:/ti/pdk_OMAPL138_1_01_00_02/packages/ti/csl/cslr_psc_OMA
    1483                            .dwattr $C$DW$148, DW_AT_decl_line(0x5f)
    1484                            .dwattr $C$DW$148, DW_AT_decl_column(0x05)
    1485                    
TMS320C6x Assembler PC v8.1.3 Fri Apr 14 08:40:30 2017

Tools Copyright (c) 1996-2015 Texas Instruments Incorporated
MicInterface.asm                                                     PAGE   28

    1486                    $C$DW$149       .dwtag  DW_TAG_enumerator
    1487                            .dwattr $C$DW$149, DW_AT_name("CSL_PSC_I2C1")
    1488                            .dwattr $C$DW$149, DW_AT_const_value(0x0b)
    1489                            .dwattr $C$DW$149, DW_AT_decl_file("C:/ti/pdk_OMAPL138_1_01_00_02/packages/ti/csl/cslr_psc_OMA
    1490                            .dwattr $C$DW$149, DW_AT_decl_line(0x60)
    1491                            .dwattr $C$DW$149, DW_AT_decl_column(0x05)
    1492                    
    1493                    $C$DW$150       .dwtag  DW_TAG_enumerator
    1494                            .dwattr $C$DW$150, DW_AT_name("CSL_PSC_UART1")
    1495                            .dwattr $C$DW$150, DW_AT_const_value(0x0c)
    1496                            .dwattr $C$DW$150, DW_AT_decl_file("C:/ti/pdk_OMAPL138_1_01_00_02/packages/ti/csl/cslr_psc_OMA
    1497                            .dwattr $C$DW$150, DW_AT_decl_line(0x61)
    1498                            .dwattr $C$DW$150, DW_AT_decl_column(0x05)
    1499                    
    1500                    $C$DW$151       .dwtag  DW_TAG_enumerator
    1501                            .dwattr $C$DW$151, DW_AT_name("CSL_PSC_UART2")
    1502                            .dwattr $C$DW$151, DW_AT_const_value(0x0d)
    1503                            .dwattr $C$DW$151, DW_AT_decl_file("C:/ti/pdk_OMAPL138_1_01_00_02/packages/ti/csl/cslr_psc_OMA
    1504                            .dwattr $C$DW$151, DW_AT_decl_line(0x62)
    1505                            .dwattr $C$DW$151, DW_AT_decl_column(0x05)
    1506                    
    1507                    $C$DW$152       .dwtag  DW_TAG_enumerator
    1508                            .dwattr $C$DW$152, DW_AT_name("CSL_PSC_MCBSP0")
    1509                            .dwattr $C$DW$152, DW_AT_const_value(0x0e)
    1510                            .dwattr $C$DW$152, DW_AT_decl_file("C:/ti/pdk_OMAPL138_1_01_00_02/packages/ti/csl/cslr_psc_OMA
    1511                            .dwattr $C$DW$152, DW_AT_decl_line(0x63)
    1512                            .dwattr $C$DW$152, DW_AT_decl_column(0x05)
    1513                    
    1514                    $C$DW$153       .dwtag  DW_TAG_enumerator
    1515                            .dwattr $C$DW$153, DW_AT_name("CSL_PSC_MCBSP1")
    1516                            .dwattr $C$DW$153, DW_AT_const_value(0x0f)
    1517                            .dwattr $C$DW$153, DW_AT_decl_file("C:/ti/pdk_OMAPL138_1_01_00_02/packages/ti/csl/cslr_psc_OMA
    1518                            .dwattr $C$DW$153, DW_AT_decl_line(0x64)
    1519                            .dwattr $C$DW$153, DW_AT_decl_column(0x05)
    1520                    
    1521                    $C$DW$154       .dwtag  DW_TAG_enumerator
    1522                            .dwattr $C$DW$154, DW_AT_name("CSL_PSC_LCDC")
    1523                            .dwattr $C$DW$154, DW_AT_const_value(0x10)
    1524                            .dwattr $C$DW$154, DW_AT_decl_file("C:/ti/pdk_OMAPL138_1_01_00_02/packages/ti/csl/cslr_psc_OMA
    1525                            .dwattr $C$DW$154, DW_AT_decl_line(0x65)
    1526                            .dwattr $C$DW$154, DW_AT_decl_column(0x05)
    1527                    
    1528                    $C$DW$155       .dwtag  DW_TAG_enumerator
    1529                            .dwattr $C$DW$155, DW_AT_name("CSL_PSC_EHRPWM")
    1530                            .dwattr $C$DW$155, DW_AT_const_value(0x11)
    1531                            .dwattr $C$DW$155, DW_AT_decl_file("C:/ti/pdk_OMAPL138_1_01_00_02/packages/ti/csl/cslr_psc_OMA
    1532                            .dwattr $C$DW$155, DW_AT_decl_line(0x66)
    1533                            .dwattr $C$DW$155, DW_AT_decl_column(0x05)
    1534                    
    1535                    $C$DW$156       .dwtag  DW_TAG_enumerator
    1536                            .dwattr $C$DW$156, DW_AT_name("CSL_PSC_MMCSD1")
    1537                            .dwattr $C$DW$156, DW_AT_const_value(0x12)
    1538                            .dwattr $C$DW$156, DW_AT_decl_file("C:/ti/pdk_OMAPL138_1_01_00_02/packages/ti/csl/cslr_psc_OMA
    1539                            .dwattr $C$DW$156, DW_AT_decl_line(0x67)
    1540                            .dwattr $C$DW$156, DW_AT_decl_column(0x05)
TMS320C6x Assembler PC v8.1.3 Fri Apr 14 08:40:30 2017

Tools Copyright (c) 1996-2015 Texas Instruments Incorporated
MicInterface.asm                                                     PAGE   29

    1541                    
    1542                    $C$DW$157       .dwtag  DW_TAG_enumerator
    1543                            .dwattr $C$DW$157, DW_AT_name("CSL_PSC_UPP")
    1544                            .dwattr $C$DW$157, DW_AT_const_value(0x13)
    1545                            .dwattr $C$DW$157, DW_AT_decl_file("C:/ti/pdk_OMAPL138_1_01_00_02/packages/ti/csl/cslr_psc_OMA
    1546                            .dwattr $C$DW$157, DW_AT_decl_line(0x68)
    1547                            .dwattr $C$DW$157, DW_AT_decl_column(0x05)
    1548                    
    1549                    $C$DW$158       .dwtag  DW_TAG_enumerator
    1550                            .dwattr $C$DW$158, DW_AT_name("CSL_PSC_ECAP0_1_2")
    1551                            .dwattr $C$DW$158, DW_AT_const_value(0x14)
    1552                            .dwattr $C$DW$158, DW_AT_decl_file("C:/ti/pdk_OMAPL138_1_01_00_02/packages/ti/csl/cslr_psc_OMA
    1553                            .dwattr $C$DW$158, DW_AT_decl_line(0x69)
    1554                            .dwattr $C$DW$158, DW_AT_decl_column(0x05)
    1555                    
    1556                    $C$DW$159       .dwtag  DW_TAG_enumerator
    1557                            .dwattr $C$DW$159, DW_AT_name("CSL_PSC_TC2")
    1558                            .dwattr $C$DW$159, DW_AT_const_value(0x15)
    1559                            .dwattr $C$DW$159, DW_AT_decl_file("C:/ti/pdk_OMAPL138_1_01_00_02/packages/ti/csl/cslr_psc_OMA
    1560                            .dwattr $C$DW$159, DW_AT_decl_line(0x6a)
    1561                            .dwattr $C$DW$159, DW_AT_decl_column(0x05)
    1562                    
    1563                    $C$DW$160       .dwtag  DW_TAG_enumerator
    1564                            .dwattr $C$DW$160, DW_AT_name("CSL_PSC_SCRF0_SS")
    1565                            .dwattr $C$DW$160, DW_AT_const_value(0x18)
    1566                            .dwattr $C$DW$160, DW_AT_decl_file("C:/ti/pdk_OMAPL138_1_01_00_02/packages/ti/csl/cslr_psc_OMA
    1567                            .dwattr $C$DW$160, DW_AT_decl_line(0x6b)
    1568                            .dwattr $C$DW$160, DW_AT_decl_column(0x05)
    1569                    
    1570                    $C$DW$161       .dwtag  DW_TAG_enumerator
    1571                            .dwattr $C$DW$161, DW_AT_name("CSL_PSC_SCRF1_SS")
    1572                            .dwattr $C$DW$161, DW_AT_const_value(0x19)
    1573                            .dwattr $C$DW$161, DW_AT_decl_file("C:/ti/pdk_OMAPL138_1_01_00_02/packages/ti/csl/cslr_psc_OMA
    1574                            .dwattr $C$DW$161, DW_AT_decl_line(0x6c)
    1575                            .dwattr $C$DW$161, DW_AT_decl_column(0x05)
    1576                    
    1577                    $C$DW$162       .dwtag  DW_TAG_enumerator
    1578                            .dwattr $C$DW$162, DW_AT_name("CSL_PSC_SCRF2_SS")
    1579                            .dwattr $C$DW$162, DW_AT_const_value(0x1a)
    1580                            .dwattr $C$DW$162, DW_AT_decl_file("C:/ti/pdk_OMAPL138_1_01_00_02/packages/ti/csl/cslr_psc_OMA
    1581                            .dwattr $C$DW$162, DW_AT_decl_line(0x6d)
    1582                            .dwattr $C$DW$162, DW_AT_decl_column(0x05)
    1583                    
    1584                    $C$DW$163       .dwtag  DW_TAG_enumerator
    1585                            .dwattr $C$DW$163, DW_AT_name("CSL_PSC_SCRF6_SS")
    1586                            .dwattr $C$DW$163, DW_AT_const_value(0x1b)
    1587                            .dwattr $C$DW$163, DW_AT_decl_file("C:/ti/pdk_OMAPL138_1_01_00_02/packages/ti/csl/cslr_psc_OMA
    1588                            .dwattr $C$DW$163, DW_AT_decl_line(0x6e)
    1589                            .dwattr $C$DW$163, DW_AT_decl_column(0x05)
    1590                    
    1591                    $C$DW$164       .dwtag  DW_TAG_enumerator
    1592                            .dwattr $C$DW$164, DW_AT_name("CSL_PSC_SCRF7_SS")
    1593                            .dwattr $C$DW$164, DW_AT_const_value(0x1c)
    1594                            .dwattr $C$DW$164, DW_AT_decl_file("C:/ti/pdk_OMAPL138_1_01_00_02/packages/ti/csl/cslr_psc_OMA
    1595                            .dwattr $C$DW$164, DW_AT_decl_line(0x6f)
TMS320C6x Assembler PC v8.1.3 Fri Apr 14 08:40:30 2017

Tools Copyright (c) 1996-2015 Texas Instruments Incorporated
MicInterface.asm                                                     PAGE   30

    1596                            .dwattr $C$DW$164, DW_AT_decl_column(0x05)
    1597                    
    1598                    $C$DW$165       .dwtag  DW_TAG_enumerator
    1599                            .dwattr $C$DW$165, DW_AT_name("CSL_PSC_SCRF8_SS")
    1600                            .dwattr $C$DW$165, DW_AT_const_value(0x1d)
    1601                            .dwattr $C$DW$165, DW_AT_decl_file("C:/ti/pdk_OMAPL138_1_01_00_02/packages/ti/csl/cslr_psc_OMA
    1602                            .dwattr $C$DW$165, DW_AT_decl_line(0x70)
    1603                            .dwattr $C$DW$165, DW_AT_decl_column(0x05)
    1604                    
    1605                    $C$DW$166       .dwtag  DW_TAG_enumerator
    1606                            .dwattr $C$DW$166, DW_AT_name("CSL_PSC_BR_F7")
    1607                            .dwattr $C$DW$166, DW_AT_const_value(0x1e)
    1608                            .dwattr $C$DW$166, DW_AT_decl_file("C:/ti/pdk_OMAPL138_1_01_00_02/packages/ti/csl/cslr_psc_OMA
    1609                            .dwattr $C$DW$166, DW_AT_decl_line(0x71)
    1610                            .dwattr $C$DW$166, DW_AT_decl_column(0x05)
    1611                    
    1612                    $C$DW$167       .dwtag  DW_TAG_enumerator
    1613                            .dwattr $C$DW$167, DW_AT_name("CSL_PSC_SHRAM")
    1614                            .dwattr $C$DW$167, DW_AT_const_value(0x1f)
    1615                            .dwattr $C$DW$167, DW_AT_decl_file("C:/ti/pdk_OMAPL138_1_01_00_02/packages/ti/csl/cslr_psc_OMA
    1616                            .dwattr $C$DW$167, DW_AT_decl_line(0x72)
    1617                            .dwattr $C$DW$167, DW_AT_decl_column(0x05)
    1618                    
    1619                            .dwattr $C$DW$T$667, DW_AT_decl_file("C:/ti/pdk_OMAPL138_1_01_00_02/packages/ti/csl/cslr_psc_O
    1620                            .dwattr $C$DW$T$667, DW_AT_decl_line(0x54)
    1621                            .dwattr $C$DW$T$667, DW_AT_decl_column(0x0e)
    1622                            .dwendtag $C$DW$T$667
    1623                    
    1624                    $C$DW$T$668     .dwtag  DW_TAG_typedef
    1625                            .dwattr $C$DW$T$668, DW_AT_name("CSL_Psc1Peripheral")
    1626                            .dwattr $C$DW$T$668, DW_AT_type(*$C$DW$T$667)
    1627                            .dwattr $C$DW$T$668, DW_AT_language(DW_LANG_C)
    1628                            .dwattr $C$DW$T$668, DW_AT_decl_file("C:/ti/pdk_OMAPL138_1_01_00_02/packages/ti/csl/cslr_psc_O
    1629                            .dwattr $C$DW$T$668, DW_AT_decl_line(0x73)
    1630                            .dwattr $C$DW$T$668, DW_AT_decl_column(0x03)
    1631                    
    1632                    
    1633                    $C$DW$T$669     .dwtag  DW_TAG_enumeration_type
    1634                            .dwattr $C$DW$T$669, DW_AT_byte_size(0x04)
    1635                    $C$DW$168       .dwtag  DW_TAG_enumerator
    1636                            .dwattr $C$DW$168, DW_AT_name("CSL_EDMACC_ANY")
    1637                            .dwattr $C$DW$168, DW_AT_const_value(-1)
    1638                            .dwattr $C$DW$168, DW_AT_decl_file("C:/ti/pdk_OMAPL138_1_01_00_02/packages/ti/csl/soc_OMAPL138
    1639                            .dwattr $C$DW$168, DW_AT_decl_line(0x407)
    1640                            .dwattr $C$DW$168, DW_AT_decl_column(0x03)
    1641                    
    1642                    $C$DW$169       .dwtag  DW_TAG_enumerator
    1643                            .dwattr $C$DW$169, DW_AT_name("CSL_EDMACC_0")
    1644                            .dwattr $C$DW$169, DW_AT_const_value(0x00)
    1645                            .dwattr $C$DW$169, DW_AT_decl_file("C:/ti/pdk_OMAPL138_1_01_00_02/packages/ti/csl/soc_OMAPL138
    1646                            .dwattr $C$DW$169, DW_AT_decl_line(0x408)
    1647                            .dwattr $C$DW$169, DW_AT_decl_column(0x03)
    1648                    
    1649                            .dwattr $C$DW$T$669, DW_AT_decl_file("C:/ti/pdk_OMAPL138_1_01_00_02/packages/ti/csl/soc_OMAPL1
    1650                            .dwattr $C$DW$T$669, DW_AT_decl_line(0x406)
TMS320C6x Assembler PC v8.1.3 Fri Apr 14 08:40:30 2017

Tools Copyright (c) 1996-2015 Texas Instruments Incorporated
MicInterface.asm                                                     PAGE   31

    1651                            .dwattr $C$DW$T$669, DW_AT_decl_column(0x0e)
    1652                            .dwendtag $C$DW$T$669
    1653                    
    1654                    $C$DW$T$670     .dwtag  DW_TAG_typedef
    1655                            .dwattr $C$DW$T$670, DW_AT_name("CSL_EdmaccNum")
    1656                            .dwattr $C$DW$T$670, DW_AT_type(*$C$DW$T$669)
    1657                            .dwattr $C$DW$T$670, DW_AT_language(DW_LANG_C)
    1658                            .dwattr $C$DW$T$670, DW_AT_decl_file("C:/ti/pdk_OMAPL138_1_01_00_02/packages/ti/csl/soc_OMAPL1
    1659                            .dwattr $C$DW$T$670, DW_AT_decl_line(0x409)
    1660                            .dwattr $C$DW$T$670, DW_AT_decl_column(0x03)
    1661                    
    1662                    
    1663                    $C$DW$T$671     .dwtag  DW_TAG_enumeration_type
    1664                            .dwattr $C$DW$T$671, DW_AT_byte_size(0x04)
    1665                    $C$DW$170       .dwtag  DW_TAG_enumerator
    1666                            .dwattr $C$DW$170, DW_AT_name("CSL_EDMA3_QUE_0")
    1667                            .dwattr $C$DW$170, DW_AT_const_value(0x00)
    1668                            .dwattr $C$DW$170, DW_AT_decl_file("C:/ti/pdk_OMAPL138_1_01_00_02/packages/ti/csl/soc_OMAPL138
    1669                            .dwattr $C$DW$170, DW_AT_decl_line(0x40e)
    1670                            .dwattr $C$DW$170, DW_AT_decl_column(0x05)
    1671                    
    1672                    $C$DW$171       .dwtag  DW_TAG_enumerator
    1673                            .dwattr $C$DW$171, DW_AT_name("CSL_EDMA3_QUE_1")
    1674                            .dwattr $C$DW$171, DW_AT_const_value(0x01)
    1675                            .dwattr $C$DW$171, DW_AT_decl_file("C:/ti/pdk_OMAPL138_1_01_00_02/packages/ti/csl/soc_OMAPL138
    1676                            .dwattr $C$DW$171, DW_AT_decl_line(0x40f)
    1677                            .dwattr $C$DW$171, DW_AT_decl_column(0x05)
    1678                    
    1679                            .dwattr $C$DW$T$671, DW_AT_decl_file("C:/ti/pdk_OMAPL138_1_01_00_02/packages/ti/csl/soc_OMAPL1
    1680                            .dwattr $C$DW$T$671, DW_AT_decl_line(0x40d)
    1681                            .dwattr $C$DW$T$671, DW_AT_decl_column(0x0e)
    1682                            .dwendtag $C$DW$T$671
    1683                    
    1684                    $C$DW$T$672     .dwtag  DW_TAG_typedef
    1685                            .dwattr $C$DW$T$672, DW_AT_name("CSL_Edma3Que")
    1686                            .dwattr $C$DW$T$672, DW_AT_type(*$C$DW$T$671)
    1687                            .dwattr $C$DW$T$672, DW_AT_language(DW_LANG_C)
    1688                            .dwattr $C$DW$T$672, DW_AT_decl_file("C:/ti/pdk_OMAPL138_1_01_00_02/packages/ti/csl/soc_OMAPL1
    1689                            .dwattr $C$DW$T$672, DW_AT_decl_line(0x410)
    1690                            .dwattr $C$DW$T$672, DW_AT_decl_column(0x03)
    1691                    
    1692                    
    1693                    $C$DW$T$673     .dwtag  DW_TAG_enumeration_type
    1694                            .dwattr $C$DW$T$673, DW_AT_byte_size(0x04)
    1695                    $C$DW$172       .dwtag  DW_TAG_enumerator
    1696                            .dwattr $C$DW$172, DW_AT_name("CSL_EDMATC_ANY")
    1697                            .dwattr $C$DW$172, DW_AT_const_value(-1)
    1698                            .dwattr $C$DW$172, DW_AT_decl_file("C:/ti/pdk_OMAPL138_1_01_00_02/packages/ti/csl/soc_OMAPL138
    1699                            .dwattr $C$DW$172, DW_AT_decl_line(0x419)
    1700                            .dwattr $C$DW$172, DW_AT_decl_column(0x03)
    1701                    
    1702                    $C$DW$173       .dwtag  DW_TAG_enumerator
    1703                            .dwattr $C$DW$173, DW_AT_name("CSL_EDMATC_0")
    1704                            .dwattr $C$DW$173, DW_AT_const_value(0x00)
    1705                            .dwattr $C$DW$173, DW_AT_decl_file("C:/ti/pdk_OMAPL138_1_01_00_02/packages/ti/csl/soc_OMAPL138
TMS320C6x Assembler PC v8.1.3 Fri Apr 14 08:40:30 2017

Tools Copyright (c) 1996-2015 Texas Instruments Incorporated
MicInterface.asm                                                     PAGE   32

    1706                            .dwattr $C$DW$173, DW_AT_decl_line(0x41a)
    1707                            .dwattr $C$DW$173, DW_AT_decl_column(0x03)
    1708                    
    1709                    $C$DW$174       .dwtag  DW_TAG_enumerator
    1710                            .dwattr $C$DW$174, DW_AT_name("CSL_EDMATC_1")
    1711                            .dwattr $C$DW$174, DW_AT_const_value(0x01)
    1712                            .dwattr $C$DW$174, DW_AT_decl_file("C:/ti/pdk_OMAPL138_1_01_00_02/packages/ti/csl/soc_OMAPL138
    1713                            .dwattr $C$DW$174, DW_AT_decl_line(0x41b)
    1714                            .dwattr $C$DW$174, DW_AT_decl_column(0x03)
    1715                    
    1716                            .dwattr $C$DW$T$673, DW_AT_decl_file("C:/ti/pdk_OMAPL138_1_01_00_02/packages/ti/csl/soc_OMAPL1
    1717                            .dwattr $C$DW$T$673, DW_AT_decl_line(0x418)
    1718                            .dwattr $C$DW$T$673, DW_AT_decl_column(0x0e)
    1719                            .dwendtag $C$DW$T$673
    1720                    
    1721                    $C$DW$T$674     .dwtag  DW_TAG_typedef
    1722                            .dwattr $C$DW$T$674, DW_AT_name("CSL_EdmatcNum")
    1723                            .dwattr $C$DW$T$674, DW_AT_type(*$C$DW$T$673)
    1724                            .dwattr $C$DW$T$674, DW_AT_language(DW_LANG_C)
    1725                            .dwattr $C$DW$T$674, DW_AT_decl_file("C:/ti/pdk_OMAPL138_1_01_00_02/packages/ti/csl/soc_OMAPL1
    1726                            .dwattr $C$DW$T$674, DW_AT_decl_line(0x41c)
    1727                            .dwattr $C$DW$T$674, DW_AT_decl_column(0x03)
    1728                    
    1729                    
    1730                    $C$DW$T$675     .dwtag  DW_TAG_enumeration_type
    1731                            .dwattr $C$DW$T$675, DW_AT_byte_size(0x04)
    1732                    $C$DW$175       .dwtag  DW_TAG_enumerator
    1733                            .dwattr $C$DW$175, DW_AT_name("CSL_DAT_PRI_DEFAULT")
    1734                            .dwattr $C$DW$175, DW_AT_const_value(0x00)
    1735                            .dwattr $C$DW$175, DW_AT_decl_file("C:/ti/pdk_OMAPL138_1_01_00_02/packages/ti/csl/soc_OMAPL138
    1736                            .dwattr $C$DW$175, DW_AT_decl_line(0x449)
    1737                            .dwattr $C$DW$175, DW_AT_decl_column(0x05)
    1738                    
    1739                    $C$DW$176       .dwtag  DW_TAG_enumerator
    1740                            .dwattr $C$DW$176, DW_AT_name("CSL_DAT_PRI_0")
    1741                            .dwattr $C$DW$176, DW_AT_const_value(0x00)
    1742                            .dwattr $C$DW$176, DW_AT_decl_file("C:/ti/pdk_OMAPL138_1_01_00_02/packages/ti/csl/soc_OMAPL138
    1743                            .dwattr $C$DW$176, DW_AT_decl_line(0x44a)
    1744                            .dwattr $C$DW$176, DW_AT_decl_column(0x05)
    1745                    
    1746                    $C$DW$177       .dwtag  DW_TAG_enumerator
    1747                            .dwattr $C$DW$177, DW_AT_name("CSL_DAT_PRI_1")
    1748                            .dwattr $C$DW$177, DW_AT_const_value(0x01)
    1749                            .dwattr $C$DW$177, DW_AT_decl_file("C:/ti/pdk_OMAPL138_1_01_00_02/packages/ti/csl/soc_OMAPL138
    1750                            .dwattr $C$DW$177, DW_AT_decl_line(0x44b)
    1751                            .dwattr $C$DW$177, DW_AT_decl_column(0x05)
    1752                    
    1753                            .dwattr $C$DW$T$675, DW_AT_decl_file("C:/ti/pdk_OMAPL138_1_01_00_02/packages/ti/csl/soc_OMAPL1
    1754                            .dwattr $C$DW$T$675, DW_AT_decl_line(0x448)
    1755                            .dwattr $C$DW$T$675, DW_AT_decl_column(0x0e)
    1756                            .dwendtag $C$DW$T$675
    1757                    
    1758                    $C$DW$T$676     .dwtag  DW_TAG_typedef
    1759                            .dwattr $C$DW$T$676, DW_AT_name("CSL_DatPriority")
    1760                            .dwattr $C$DW$T$676, DW_AT_type(*$C$DW$T$675)
TMS320C6x Assembler PC v8.1.3 Fri Apr 14 08:40:30 2017

Tools Copyright (c) 1996-2015 Texas Instruments Incorporated
MicInterface.asm                                                     PAGE   33

    1761                            .dwattr $C$DW$T$676, DW_AT_language(DW_LANG_C)
    1762                            .dwattr $C$DW$T$676, DW_AT_decl_file("C:/ti/pdk_OMAPL138_1_01_00_02/packages/ti/csl/soc_OMAPL1
    1763                            .dwattr $C$DW$T$676, DW_AT_decl_line(0x44c)
    1764                            .dwattr $C$DW$T$676, DW_AT_decl_column(0x03)
    1765                    
    1766                    
    1767                    $C$DW$T$164     .dwtag  DW_TAG_structure_type
    1768                            .dwattr $C$DW$T$164, DW_AT_byte_size(0x190)
    1769                    $C$DW$178       .dwtag  DW_TAG_member
    1770                            .dwattr $C$DW$178, DW_AT_type(*$C$DW$T$154)
    1771                            .dwattr $C$DW$178, DW_AT_name("REVID")
    1772                            .dwattr $C$DW$178, DW_AT_TI_symbol_name("REVID")
    1773                            .dwattr $C$DW$178, DW_AT_data_member_location[DW_OP_plus_uconst 0x0]
    1774                            .dwattr $C$DW$178, DW_AT_accessibility(DW_ACCESS_public)
    1775                            .dwattr $C$DW$178, DW_AT_decl_file("C:/ti/pdk_OMAPL138_1_01_00_02/packages/ti/csl/cslr_syscfg0
    1776                            .dwattr $C$DW$178, DW_AT_decl_line(0x43)
    1777                            .dwattr $C$DW$178, DW_AT_decl_column(0x15)
    1778                    
    1779                    $C$DW$179       .dwtag  DW_TAG_member
    1780                            .dwattr $C$DW$179, DW_AT_type(*$C$DW$T$160)
    1781                            .dwattr $C$DW$179, DW_AT_name("RSVD0")
    1782                            .dwattr $C$DW$179, DW_AT_TI_symbol_name("RSVD0")
    1783                            .dwattr $C$DW$179, DW_AT_data_member_location[DW_OP_plus_uconst 0x4]
    1784                            .dwattr $C$DW$179, DW_AT_accessibility(DW_ACCESS_public)
    1785                            .dwattr $C$DW$179, DW_AT_decl_file("C:/ti/pdk_OMAPL138_1_01_00_02/packages/ti/csl/cslr_syscfg0
    1786                            .dwattr $C$DW$179, DW_AT_decl_line(0x44)
    1787                            .dwattr $C$DW$179, DW_AT_decl_column(0x14)
    1788                    
    1789                    $C$DW$180       .dwtag  DW_TAG_member
    1790                            .dwattr $C$DW$180, DW_AT_type(*$C$DW$T$154)
    1791                            .dwattr $C$DW$180, DW_AT_name("DIEIDR0")
    1792                            .dwattr $C$DW$180, DW_AT_TI_symbol_name("DIEIDR0")
    1793                            .dwattr $C$DW$180, DW_AT_data_member_location[DW_OP_plus_uconst 0x8]
    1794                            .dwattr $C$DW$180, DW_AT_accessibility(DW_ACCESS_public)
    1795                            .dwattr $C$DW$180, DW_AT_decl_file("C:/ti/pdk_OMAPL138_1_01_00_02/packages/ti/csl/cslr_syscfg0
    1796                            .dwattr $C$DW$180, DW_AT_decl_line(0x45)
    1797                            .dwattr $C$DW$180, DW_AT_decl_column(0x15)
    1798                    
    1799                    $C$DW$181       .dwtag  DW_TAG_member
    1800                            .dwattr $C$DW$181, DW_AT_type(*$C$DW$T$154)
    1801                            .dwattr $C$DW$181, DW_AT_name("DIEIDR1")
    1802                            .dwattr $C$DW$181, DW_AT_TI_symbol_name("DIEIDR1")
    1803                            .dwattr $C$DW$181, DW_AT_data_member_location[DW_OP_plus_uconst 0xc]
    1804                            .dwattr $C$DW$181, DW_AT_accessibility(DW_ACCESS_public)
    1805                            .dwattr $C$DW$181, DW_AT_decl_file("C:/ti/pdk_OMAPL138_1_01_00_02/packages/ti/csl/cslr_syscfg0
    1806                            .dwattr $C$DW$181, DW_AT_decl_line(0x46)
    1807                            .dwattr $C$DW$181, DW_AT_decl_column(0x15)
    1808                    
    1809                    $C$DW$182       .dwtag  DW_TAG_member
    1810                            .dwattr $C$DW$182, DW_AT_type(*$C$DW$T$154)
    1811                            .dwattr $C$DW$182, DW_AT_name("DIEIDR2")
    1812                            .dwattr $C$DW$182, DW_AT_TI_symbol_name("DIEIDR2")
    1813                            .dwattr $C$DW$182, DW_AT_data_member_location[DW_OP_plus_uconst 0x10]
    1814                            .dwattr $C$DW$182, DW_AT_accessibility(DW_ACCESS_public)
    1815                            .dwattr $C$DW$182, DW_AT_decl_file("C:/ti/pdk_OMAPL138_1_01_00_02/packages/ti/csl/cslr_syscfg0
TMS320C6x Assembler PC v8.1.3 Fri Apr 14 08:40:30 2017

Tools Copyright (c) 1996-2015 Texas Instruments Incorporated
MicInterface.asm                                                     PAGE   34

    1816                            .dwattr $C$DW$182, DW_AT_decl_line(0x47)
    1817                            .dwattr $C$DW$182, DW_AT_decl_column(0x15)
    1818                    
    1819                    $C$DW$183       .dwtag  DW_TAG_member
    1820                            .dwattr $C$DW$183, DW_AT_type(*$C$DW$T$154)
    1821                            .dwattr $C$DW$183, DW_AT_name("DIEIDR3")
    1822                            .dwattr $C$DW$183, DW_AT_TI_symbol_name("DIEIDR3")
    1823                            .dwattr $C$DW$183, DW_AT_data_member_location[DW_OP_plus_uconst 0x14]
    1824                            .dwattr $C$DW$183, DW_AT_accessibility(DW_ACCESS_public)
    1825                            .dwattr $C$DW$183, DW_AT_decl_file("C:/ti/pdk_OMAPL138_1_01_00_02/packages/ti/csl/cslr_syscfg0
    1826                            .dwattr $C$DW$183, DW_AT_decl_line(0x48)
    1827                            .dwattr $C$DW$183, DW_AT_decl_column(0x15)
    1828                    
    1829                    $C$DW$184       .dwtag  DW_TAG_member
    1830                            .dwattr $C$DW$184, DW_AT_type(*$C$DW$T$154)
    1831                            .dwattr $C$DW$184, DW_AT_name("DEVIDR0")
    1832                            .dwattr $C$DW$184, DW_AT_TI_symbol_name("DEVIDR0")
    1833                            .dwattr $C$DW$184, DW_AT_data_member_location[DW_OP_plus_uconst 0x18]
    1834                            .dwattr $C$DW$184, DW_AT_accessibility(DW_ACCESS_public)
    1835                            .dwattr $C$DW$184, DW_AT_decl_file("C:/ti/pdk_OMAPL138_1_01_00_02/packages/ti/csl/cslr_syscfg0
    1836                            .dwattr $C$DW$184, DW_AT_decl_line(0x49)
    1837                            .dwattr $C$DW$184, DW_AT_decl_column(0x15)
    1838                    
    1839                    $C$DW$185       .dwtag  DW_TAG_member
    1840                            .dwattr $C$DW$185, DW_AT_type(*$C$DW$T$160)
    1841                            .dwattr $C$DW$185, DW_AT_name("RSVD1")
    1842                            .dwattr $C$DW$185, DW_AT_TI_symbol_name("RSVD1")
    1843                            .dwattr $C$DW$185, DW_AT_data_member_location[DW_OP_plus_uconst 0x1c]
    1844                            .dwattr $C$DW$185, DW_AT_accessibility(DW_ACCESS_public)
    1845                            .dwattr $C$DW$185, DW_AT_decl_file("C:/ti/pdk_OMAPL138_1_01_00_02/packages/ti/csl/cslr_syscfg0
    1846                            .dwattr $C$DW$185, DW_AT_decl_line(0x4a)
    1847                            .dwattr $C$DW$185, DW_AT_decl_column(0x14)
    1848                    
    1849                    $C$DW$186       .dwtag  DW_TAG_member
    1850                            .dwattr $C$DW$186, DW_AT_type(*$C$DW$T$154)
    1851                            .dwattr $C$DW$186, DW_AT_name("BOOTCFG")
    1852                            .dwattr $C$DW$186, DW_AT_TI_symbol_name("BOOTCFG")
    1853                            .dwattr $C$DW$186, DW_AT_data_member_location[DW_OP_plus_uconst 0x20]
    1854                            .dwattr $C$DW$186, DW_AT_accessibility(DW_ACCESS_public)
    1855                            .dwattr $C$DW$186, DW_AT_decl_file("C:/ti/pdk_OMAPL138_1_01_00_02/packages/ti/csl/cslr_syscfg0
    1856                            .dwattr $C$DW$186, DW_AT_decl_line(0x4b)
    1857                            .dwattr $C$DW$186, DW_AT_decl_column(0x15)
    1858                    
    1859                    $C$DW$187       .dwtag  DW_TAG_member
    1860                            .dwattr $C$DW$187, DW_AT_type(*$C$DW$T$154)
    1861                            .dwattr $C$DW$187, DW_AT_name("CHIPREVIDR")
    1862                            .dwattr $C$DW$187, DW_AT_TI_symbol_name("CHIPREVIDR")
    1863                            .dwattr $C$DW$187, DW_AT_data_member_location[DW_OP_plus_uconst 0x24]
    1864                            .dwattr $C$DW$187, DW_AT_accessibility(DW_ACCESS_public)
    1865                            .dwattr $C$DW$187, DW_AT_decl_file("C:/ti/pdk_OMAPL138_1_01_00_02/packages/ti/csl/cslr_syscfg0
    1866                            .dwattr $C$DW$187, DW_AT_decl_line(0x4c)
    1867                            .dwattr $C$DW$187, DW_AT_decl_column(0x15)
    1868                    
    1869                    $C$DW$188       .dwtag  DW_TAG_member
    1870                            .dwattr $C$DW$188, DW_AT_type(*$C$DW$T$161)
TMS320C6x Assembler PC v8.1.3 Fri Apr 14 08:40:30 2017

Tools Copyright (c) 1996-2015 Texas Instruments Incorporated
MicInterface.asm                                                     PAGE   35

    1871                            .dwattr $C$DW$188, DW_AT_name("RSVD2")
    1872                            .dwattr $C$DW$188, DW_AT_TI_symbol_name("RSVD2")
    1873                            .dwattr $C$DW$188, DW_AT_data_member_location[DW_OP_plus_uconst 0x28]
    1874                            .dwattr $C$DW$188, DW_AT_accessibility(DW_ACCESS_public)
    1875                            .dwattr $C$DW$188, DW_AT_decl_file("C:/ti/pdk_OMAPL138_1_01_00_02/packages/ti/csl/cslr_syscfg0
    1876                            .dwattr $C$DW$188, DW_AT_decl_line(0x4d)
    1877                            .dwattr $C$DW$188, DW_AT_decl_column(0x14)
    1878                    
    1879                    $C$DW$189       .dwtag  DW_TAG_member
    1880                            .dwattr $C$DW$189, DW_AT_type(*$C$DW$T$154)
    1881                            .dwattr $C$DW$189, DW_AT_name("KICK0R")
    1882                            .dwattr $C$DW$189, DW_AT_TI_symbol_name("KICK0R")
    1883                            .dwattr $C$DW$189, DW_AT_data_member_location[DW_OP_plus_uconst 0x38]
    1884                            .dwattr $C$DW$189, DW_AT_accessibility(DW_ACCESS_public)
    1885                            .dwattr $C$DW$189, DW_AT_decl_file("C:/ti/pdk_OMAPL138_1_01_00_02/packages/ti/csl/cslr_syscfg0
    1886                            .dwattr $C$DW$189, DW_AT_decl_line(0x4e)
    1887                            .dwattr $C$DW$189, DW_AT_decl_column(0x15)
    1888                    
    1889                    $C$DW$190       .dwtag  DW_TAG_member
    1890                            .dwattr $C$DW$190, DW_AT_type(*$C$DW$T$154)
    1891                            .dwattr $C$DW$190, DW_AT_name("KICK1R")
    1892                            .dwattr $C$DW$190, DW_AT_TI_symbol_name("KICK1R")
    1893                            .dwattr $C$DW$190, DW_AT_data_member_location[DW_OP_plus_uconst 0x3c]
    1894                            .dwattr $C$DW$190, DW_AT_accessibility(DW_ACCESS_public)
    1895                            .dwattr $C$DW$190, DW_AT_decl_file("C:/ti/pdk_OMAPL138_1_01_00_02/packages/ti/csl/cslr_syscfg0
    1896                            .dwattr $C$DW$190, DW_AT_decl_line(0x4f)
    1897                            .dwattr $C$DW$190, DW_AT_decl_column(0x15)
    1898                    
    1899                    $C$DW$191       .dwtag  DW_TAG_member
    1900                            .dwattr $C$DW$191, DW_AT_type(*$C$DW$T$154)
    1901                            .dwattr $C$DW$191, DW_AT_name("HOST0CFG")
    1902                            .dwattr $C$DW$191, DW_AT_TI_symbol_name("HOST0CFG")
    1903                            .dwattr $C$DW$191, DW_AT_data_member_location[DW_OP_plus_uconst 0x40]
    1904                            .dwattr $C$DW$191, DW_AT_accessibility(DW_ACCESS_public)
    1905                            .dwattr $C$DW$191, DW_AT_decl_file("C:/ti/pdk_OMAPL138_1_01_00_02/packages/ti/csl/cslr_syscfg0
    1906                            .dwattr $C$DW$191, DW_AT_decl_line(0x50)
    1907                            .dwattr $C$DW$191, DW_AT_decl_column(0x15)
    1908                    
    1909                    $C$DW$192       .dwtag  DW_TAG_member
    1910                            .dwattr $C$DW$192, DW_AT_type(*$C$DW$T$154)
    1911                            .dwattr $C$DW$192, DW_AT_name("HOST1CFG")
    1912                            .dwattr $C$DW$192, DW_AT_TI_symbol_name("HOST1CFG")
    1913                            .dwattr $C$DW$192, DW_AT_data_member_location[DW_OP_plus_uconst 0x44]
    1914                            .dwattr $C$DW$192, DW_AT_accessibility(DW_ACCESS_public)
    1915                            .dwattr $C$DW$192, DW_AT_decl_file("C:/ti/pdk_OMAPL138_1_01_00_02/packages/ti/csl/cslr_syscfg0
    1916                            .dwattr $C$DW$192, DW_AT_decl_line(0x51)
    1917                            .dwattr $C$DW$192, DW_AT_decl_column(0x15)
    1918                    
    1919                    $C$DW$193       .dwtag  DW_TAG_member
    1920                            .dwattr $C$DW$193, DW_AT_type(*$C$DW$T$162)
    1921                            .dwattr $C$DW$193, DW_AT_name("RSVD3")
    1922                            .dwattr $C$DW$193, DW_AT_TI_symbol_name("RSVD3")
    1923                            .dwattr $C$DW$193, DW_AT_data_member_location[DW_OP_plus_uconst 0x48]
    1924                            .dwattr $C$DW$193, DW_AT_accessibility(DW_ACCESS_public)
    1925                            .dwattr $C$DW$193, DW_AT_decl_file("C:/ti/pdk_OMAPL138_1_01_00_02/packages/ti/csl/cslr_syscfg0
TMS320C6x Assembler PC v8.1.3 Fri Apr 14 08:40:30 2017

Tools Copyright (c) 1996-2015 Texas Instruments Incorporated
MicInterface.asm                                                     PAGE   36

    1926                            .dwattr $C$DW$193, DW_AT_decl_line(0x52)
    1927                            .dwattr $C$DW$193, DW_AT_decl_column(0x14)
    1928                    
    1929                    $C$DW$194       .dwtag  DW_TAG_member
    1930                            .dwattr $C$DW$194, DW_AT_type(*$C$DW$T$154)
    1931                            .dwattr $C$DW$194, DW_AT_name("IRAWSTAT")
    1932                            .dwattr $C$DW$194, DW_AT_TI_symbol_name("IRAWSTAT")
    1933                            .dwattr $C$DW$194, DW_AT_data_member_location[DW_OP_plus_uconst 0xe0]
    1934                            .dwattr $C$DW$194, DW_AT_accessibility(DW_ACCESS_public)
    1935                            .dwattr $C$DW$194, DW_AT_decl_file("C:/ti/pdk_OMAPL138_1_01_00_02/packages/ti/csl/cslr_syscfg0
    1936                            .dwattr $C$DW$194, DW_AT_decl_line(0x53)
    1937                            .dwattr $C$DW$194, DW_AT_decl_column(0x15)
    1938                    
    1939                    $C$DW$195       .dwtag  DW_TAG_member
    1940                            .dwattr $C$DW$195, DW_AT_type(*$C$DW$T$154)
    1941                            .dwattr $C$DW$195, DW_AT_name("IENSTAT")
    1942                            .dwattr $C$DW$195, DW_AT_TI_symbol_name("IENSTAT")
    1943                            .dwattr $C$DW$195, DW_AT_data_member_location[DW_OP_plus_uconst 0xe4]
    1944                            .dwattr $C$DW$195, DW_AT_accessibility(DW_ACCESS_public)
    1945                            .dwattr $C$DW$195, DW_AT_decl_file("C:/ti/pdk_OMAPL138_1_01_00_02/packages/ti/csl/cslr_syscfg0
    1946                            .dwattr $C$DW$195, DW_AT_decl_line(0x54)
    1947                            .dwattr $C$DW$195, DW_AT_decl_column(0x15)
    1948                    
    1949                    $C$DW$196       .dwtag  DW_TAG_member
    1950                            .dwattr $C$DW$196, DW_AT_type(*$C$DW$T$154)
    1951                            .dwattr $C$DW$196, DW_AT_name("IENSET")
    1952                            .dwattr $C$DW$196, DW_AT_TI_symbol_name("IENSET")
    1953                            .dwattr $C$DW$196, DW_AT_data_member_location[DW_OP_plus_uconst 0xe8]
    1954                            .dwattr $C$DW$196, DW_AT_accessibility(DW_ACCESS_public)
    1955                            .dwattr $C$DW$196, DW_AT_decl_file("C:/ti/pdk_OMAPL138_1_01_00_02/packages/ti/csl/cslr_syscfg0
    1956                            .dwattr $C$DW$196, DW_AT_decl_line(0x55)
    1957                            .dwattr $C$DW$196, DW_AT_decl_column(0x15)
    1958                    
    1959                    $C$DW$197       .dwtag  DW_TAG_member
    1960                            .dwattr $C$DW$197, DW_AT_type(*$C$DW$T$154)
    1961                            .dwattr $C$DW$197, DW_AT_name("IENCLR")
    1962                            .dwattr $C$DW$197, DW_AT_TI_symbol_name("IENCLR")
    1963                            .dwattr $C$DW$197, DW_AT_data_member_location[DW_OP_plus_uconst 0xec]
    1964                            .dwattr $C$DW$197, DW_AT_accessibility(DW_ACCESS_public)
    1965                            .dwattr $C$DW$197, DW_AT_decl_file("C:/ti/pdk_OMAPL138_1_01_00_02/packages/ti/csl/cslr_syscfg0
    1966                            .dwattr $C$DW$197, DW_AT_decl_line(0x56)
    1967                            .dwattr $C$DW$197, DW_AT_decl_column(0x15)
    1968                    
    1969                    $C$DW$198       .dwtag  DW_TAG_member
    1970                            .dwattr $C$DW$198, DW_AT_type(*$C$DW$T$154)
    1971                            .dwattr $C$DW$198, DW_AT_name("EOI")
    1972                            .dwattr $C$DW$198, DW_AT_TI_symbol_name("EOI")
    1973                            .dwattr $C$DW$198, DW_AT_data_member_location[DW_OP_plus_uconst 0xf0]
    1974                            .dwattr $C$DW$198, DW_AT_accessibility(DW_ACCESS_public)
    1975                            .dwattr $C$DW$198, DW_AT_decl_file("C:/ti/pdk_OMAPL138_1_01_00_02/packages/ti/csl/cslr_syscfg0
    1976                            .dwattr $C$DW$198, DW_AT_decl_line(0x57)
    1977                            .dwattr $C$DW$198, DW_AT_decl_column(0x15)
    1978                    
    1979                    $C$DW$199       .dwtag  DW_TAG_member
    1980                            .dwattr $C$DW$199, DW_AT_type(*$C$DW$T$154)
TMS320C6x Assembler PC v8.1.3 Fri Apr 14 08:40:30 2017

Tools Copyright (c) 1996-2015 Texas Instruments Incorporated
MicInterface.asm                                                     PAGE   37

    1981                            .dwattr $C$DW$199, DW_AT_name("FLTADDRR")
    1982                            .dwattr $C$DW$199, DW_AT_TI_symbol_name("FLTADDRR")
    1983                            .dwattr $C$DW$199, DW_AT_data_member_location[DW_OP_plus_uconst 0xf4]
    1984                            .dwattr $C$DW$199, DW_AT_accessibility(DW_ACCESS_public)
    1985                            .dwattr $C$DW$199, DW_AT_decl_file("C:/ti/pdk_OMAPL138_1_01_00_02/packages/ti/csl/cslr_syscfg0
    1986                            .dwattr $C$DW$199, DW_AT_decl_line(0x58)
    1987                            .dwattr $C$DW$199, DW_AT_decl_column(0x15)
    1988                    
    1989                    $C$DW$200       .dwtag  DW_TAG_member
    1990                            .dwattr $C$DW$200, DW_AT_type(*$C$DW$T$154)
    1991                            .dwattr $C$DW$200, DW_AT_name("FLTSTAT")
    1992                            .dwattr $C$DW$200, DW_AT_TI_symbol_name("FLTSTAT")
    1993                            .dwattr $C$DW$200, DW_AT_data_member_location[DW_OP_plus_uconst 0xf8]
    1994                            .dwattr $C$DW$200, DW_AT_accessibility(DW_ACCESS_public)
    1995                            .dwattr $C$DW$200, DW_AT_decl_file("C:/ti/pdk_OMAPL138_1_01_00_02/packages/ti/csl/cslr_syscfg0
    1996                            .dwattr $C$DW$200, DW_AT_decl_line(0x59)
    1997                            .dwattr $C$DW$200, DW_AT_decl_column(0x15)
    1998                    
    1999                    $C$DW$201       .dwtag  DW_TAG_member
    2000                            .dwattr $C$DW$201, DW_AT_type(*$C$DW$T$163)
    2001                            .dwattr $C$DW$201, DW_AT_name("RSVD4")
    2002                            .dwattr $C$DW$201, DW_AT_TI_symbol_name("RSVD4")
    2003                            .dwattr $C$DW$201, DW_AT_data_member_location[DW_OP_plus_uconst 0xfc]
    2004                            .dwattr $C$DW$201, DW_AT_accessibility(DW_ACCESS_public)
    2005                            .dwattr $C$DW$201, DW_AT_decl_file("C:/ti/pdk_OMAPL138_1_01_00_02/packages/ti/csl/cslr_syscfg0
    2006                            .dwattr $C$DW$201, DW_AT_decl_line(0x5a)
    2007                            .dwattr $C$DW$201, DW_AT_decl_column(0x14)
    2008                    
    2009                    $C$DW$202       .dwtag  DW_TAG_member
    2010                            .dwattr $C$DW$202, DW_AT_type(*$C$DW$T$154)
    2011                            .dwattr $C$DW$202, DW_AT_name("MSTPRI0")
    2012                            .dwattr $C$DW$202, DW_AT_TI_symbol_name("MSTPRI0")
    2013                            .dwattr $C$DW$202, DW_AT_data_member_location[DW_OP_plus_uconst 0x110]
    2014                            .dwattr $C$DW$202, DW_AT_accessibility(DW_ACCESS_public)
    2015                            .dwattr $C$DW$202, DW_AT_decl_file("C:/ti/pdk_OMAPL138_1_01_00_02/packages/ti/csl/cslr_syscfg0
    2016                            .dwattr $C$DW$202, DW_AT_decl_line(0x5b)
    2017                            .dwattr $C$DW$202, DW_AT_decl_column(0x15)
    2018                    
    2019                    $C$DW$203       .dwtag  DW_TAG_member
    2020                            .dwattr $C$DW$203, DW_AT_type(*$C$DW$T$154)
    2021                            .dwattr $C$DW$203, DW_AT_name("MSTPRI1")
    2022                            .dwattr $C$DW$203, DW_AT_TI_symbol_name("MSTPRI1")
    2023                            .dwattr $C$DW$203, DW_AT_data_member_location[DW_OP_plus_uconst 0x114]
    2024                            .dwattr $C$DW$203, DW_AT_accessibility(DW_ACCESS_public)
    2025                            .dwattr $C$DW$203, DW_AT_decl_file("C:/ti/pdk_OMAPL138_1_01_00_02/packages/ti/csl/cslr_syscfg0
    2026                            .dwattr $C$DW$203, DW_AT_decl_line(0x5c)
    2027                            .dwattr $C$DW$203, DW_AT_decl_column(0x15)
    2028                    
    2029                    $C$DW$204       .dwtag  DW_TAG_member
    2030                            .dwattr $C$DW$204, DW_AT_type(*$C$DW$T$154)
    2031                            .dwattr $C$DW$204, DW_AT_name("MSTPRI2")
    2032                            .dwattr $C$DW$204, DW_AT_TI_symbol_name("MSTPRI2")
    2033                            .dwattr $C$DW$204, DW_AT_data_member_location[DW_OP_plus_uconst 0x118]
    2034                            .dwattr $C$DW$204, DW_AT_accessibility(DW_ACCESS_public)
    2035                            .dwattr $C$DW$204, DW_AT_decl_file("C:/ti/pdk_OMAPL138_1_01_00_02/packages/ti/csl/cslr_syscfg0
TMS320C6x Assembler PC v8.1.3 Fri Apr 14 08:40:30 2017

Tools Copyright (c) 1996-2015 Texas Instruments Incorporated
MicInterface.asm                                                     PAGE   38

    2036                            .dwattr $C$DW$204, DW_AT_decl_line(0x5d)
    2037                            .dwattr $C$DW$204, DW_AT_decl_column(0x15)
    2038                    
    2039                    $C$DW$205       .dwtag  DW_TAG_member
    2040                            .dwattr $C$DW$205, DW_AT_type(*$C$DW$T$160)
    2041                            .dwattr $C$DW$205, DW_AT_name("RSVD5")
    2042                            .dwattr $C$DW$205, DW_AT_TI_symbol_name("RSVD5")
    2043                            .dwattr $C$DW$205, DW_AT_data_member_location[DW_OP_plus_uconst 0x11c]
    2044                            .dwattr $C$DW$205, DW_AT_accessibility(DW_ACCESS_public)
    2045                            .dwattr $C$DW$205, DW_AT_decl_file("C:/ti/pdk_OMAPL138_1_01_00_02/packages/ti/csl/cslr_syscfg0
    2046                            .dwattr $C$DW$205, DW_AT_decl_line(0x5e)
    2047                            .dwattr $C$DW$205, DW_AT_decl_column(0x14)
    2048                    
    2049                    $C$DW$206       .dwtag  DW_TAG_member
    2050                            .dwattr $C$DW$206, DW_AT_type(*$C$DW$T$154)
    2051                            .dwattr $C$DW$206, DW_AT_name("PINMUX0")
    2052                            .dwattr $C$DW$206, DW_AT_TI_symbol_name("PINMUX0")
    2053                            .dwattr $C$DW$206, DW_AT_data_member_location[DW_OP_plus_uconst 0x120]
    2054                            .dwattr $C$DW$206, DW_AT_accessibility(DW_ACCESS_public)
    2055                            .dwattr $C$DW$206, DW_AT_decl_file("C:/ti/pdk_OMAPL138_1_01_00_02/packages/ti/csl/cslr_syscfg0
    2056                            .dwattr $C$DW$206, DW_AT_decl_line(0x5f)
    2057                            .dwattr $C$DW$206, DW_AT_decl_column(0x15)
    2058                    
    2059                    $C$DW$207       .dwtag  DW_TAG_member
    2060                            .dwattr $C$DW$207, DW_AT_type(*$C$DW$T$154)
    2061                            .dwattr $C$DW$207, DW_AT_name("PINMUX1")
    2062                            .dwattr $C$DW$207, DW_AT_TI_symbol_name("PINMUX1")
    2063                            .dwattr $C$DW$207, DW_AT_data_member_location[DW_OP_plus_uconst 0x124]
    2064                            .dwattr $C$DW$207, DW_AT_accessibility(DW_ACCESS_public)
    2065                            .dwattr $C$DW$207, DW_AT_decl_file("C:/ti/pdk_OMAPL138_1_01_00_02/packages/ti/csl/cslr_syscfg0
    2066                            .dwattr $C$DW$207, DW_AT_decl_line(0x60)
    2067                            .dwattr $C$DW$207, DW_AT_decl_column(0x15)
    2068                    
    2069                    $C$DW$208       .dwtag  DW_TAG_member
    2070                            .dwattr $C$DW$208, DW_AT_type(*$C$DW$T$154)
    2071                            .dwattr $C$DW$208, DW_AT_name("PINMUX2")
    2072                            .dwattr $C$DW$208, DW_AT_TI_symbol_name("PINMUX2")
    2073                            .dwattr $C$DW$208, DW_AT_data_member_location[DW_OP_plus_uconst 0x128]
    2074                            .dwattr $C$DW$208, DW_AT_accessibility(DW_ACCESS_public)
    2075                            .dwattr $C$DW$208, DW_AT_decl_file("C:/ti/pdk_OMAPL138_1_01_00_02/packages/ti/csl/cslr_syscfg0
    2076                            .dwattr $C$DW$208, DW_AT_decl_line(0x61)
    2077                            .dwattr $C$DW$208, DW_AT_decl_column(0x15)
    2078                    
    2079                    $C$DW$209       .dwtag  DW_TAG_member
    2080                            .dwattr $C$DW$209, DW_AT_type(*$C$DW$T$154)
    2081                            .dwattr $C$DW$209, DW_AT_name("PINMUX3")
    2082                            .dwattr $C$DW$209, DW_AT_TI_symbol_name("PINMUX3")
    2083                            .dwattr $C$DW$209, DW_AT_data_member_location[DW_OP_plus_uconst 0x12c]
    2084                            .dwattr $C$DW$209, DW_AT_accessibility(DW_ACCESS_public)
    2085                            .dwattr $C$DW$209, DW_AT_decl_file("C:/ti/pdk_OMAPL138_1_01_00_02/packages/ti/csl/cslr_syscfg0
    2086                            .dwattr $C$DW$209, DW_AT_decl_line(0x62)
    2087                            .dwattr $C$DW$209, DW_AT_decl_column(0x15)
    2088                    
    2089                    $C$DW$210       .dwtag  DW_TAG_member
    2090                            .dwattr $C$DW$210, DW_AT_type(*$C$DW$T$154)
TMS320C6x Assembler PC v8.1.3 Fri Apr 14 08:40:30 2017

Tools Copyright (c) 1996-2015 Texas Instruments Incorporated
MicInterface.asm                                                     PAGE   39

    2091                            .dwattr $C$DW$210, DW_AT_name("PINMUX4")
    2092                            .dwattr $C$DW$210, DW_AT_TI_symbol_name("PINMUX4")
    2093                            .dwattr $C$DW$210, DW_AT_data_member_location[DW_OP_plus_uconst 0x130]
    2094                            .dwattr $C$DW$210, DW_AT_accessibility(DW_ACCESS_public)
    2095                            .dwattr $C$DW$210, DW_AT_decl_file("C:/ti/pdk_OMAPL138_1_01_00_02/packages/ti/csl/cslr_syscfg0
    2096                            .dwattr $C$DW$210, DW_AT_decl_line(0x63)
    2097                            .dwattr $C$DW$210, DW_AT_decl_column(0x15)
    2098                    
    2099                    $C$DW$211       .dwtag  DW_TAG_member
    2100                            .dwattr $C$DW$211, DW_AT_type(*$C$DW$T$154)
    2101                            .dwattr $C$DW$211, DW_AT_name("PINMUX5")
    2102                            .dwattr $C$DW$211, DW_AT_TI_symbol_name("PINMUX5")
    2103                            .dwattr $C$DW$211, DW_AT_data_member_location[DW_OP_plus_uconst 0x134]
    2104                            .dwattr $C$DW$211, DW_AT_accessibility(DW_ACCESS_public)
    2105                            .dwattr $C$DW$211, DW_AT_decl_file("C:/ti/pdk_OMAPL138_1_01_00_02/packages/ti/csl/cslr_syscfg0
    2106                            .dwattr $C$DW$211, DW_AT_decl_line(0x64)
    2107                            .dwattr $C$DW$211, DW_AT_decl_column(0x15)
    2108                    
    2109                    $C$DW$212       .dwtag  DW_TAG_member
    2110                            .dwattr $C$DW$212, DW_AT_type(*$C$DW$T$154)
    2111                            .dwattr $C$DW$212, DW_AT_name("PINMUX6")
    2112                            .dwattr $C$DW$212, DW_AT_TI_symbol_name("PINMUX6")
    2113                            .dwattr $C$DW$212, DW_AT_data_member_location[DW_OP_plus_uconst 0x138]
    2114                            .dwattr $C$DW$212, DW_AT_accessibility(DW_ACCESS_public)
    2115                            .dwattr $C$DW$212, DW_AT_decl_file("C:/ti/pdk_OMAPL138_1_01_00_02/packages/ti/csl/cslr_syscfg0
    2116                            .dwattr $C$DW$212, DW_AT_decl_line(0x65)
    2117                            .dwattr $C$DW$212, DW_AT_decl_column(0x15)
    2118                    
    2119                    $C$DW$213       .dwtag  DW_TAG_member
    2120                            .dwattr $C$DW$213, DW_AT_type(*$C$DW$T$154)
    2121                            .dwattr $C$DW$213, DW_AT_name("PINMUX7")
    2122                            .dwattr $C$DW$213, DW_AT_TI_symbol_name("PINMUX7")
    2123                            .dwattr $C$DW$213, DW_AT_data_member_location[DW_OP_plus_uconst 0x13c]
    2124                            .dwattr $C$DW$213, DW_AT_accessibility(DW_ACCESS_public)
    2125                            .dwattr $C$DW$213, DW_AT_decl_file("C:/ti/pdk_OMAPL138_1_01_00_02/packages/ti/csl/cslr_syscfg0
    2126                            .dwattr $C$DW$213, DW_AT_decl_line(0x66)
    2127                            .dwattr $C$DW$213, DW_AT_decl_column(0x15)
    2128                    
    2129                    $C$DW$214       .dwtag  DW_TAG_member
    2130                            .dwattr $C$DW$214, DW_AT_type(*$C$DW$T$154)
    2131                            .dwattr $C$DW$214, DW_AT_name("PINMUX8")
    2132                            .dwattr $C$DW$214, DW_AT_TI_symbol_name("PINMUX8")
    2133                            .dwattr $C$DW$214, DW_AT_data_member_location[DW_OP_plus_uconst 0x140]
    2134                            .dwattr $C$DW$214, DW_AT_accessibility(DW_ACCESS_public)
    2135                            .dwattr $C$DW$214, DW_AT_decl_file("C:/ti/pdk_OMAPL138_1_01_00_02/packages/ti/csl/cslr_syscfg0
    2136                            .dwattr $C$DW$214, DW_AT_decl_line(0x67)
    2137                            .dwattr $C$DW$214, DW_AT_decl_column(0x15)
    2138                    
    2139                    $C$DW$215       .dwtag  DW_TAG_member
    2140                            .dwattr $C$DW$215, DW_AT_type(*$C$DW$T$154)
    2141                            .dwattr $C$DW$215, DW_AT_name("PINMUX9")
    2142                            .dwattr $C$DW$215, DW_AT_TI_symbol_name("PINMUX9")
    2143                            .dwattr $C$DW$215, DW_AT_data_member_location[DW_OP_plus_uconst 0x144]
    2144                            .dwattr $C$DW$215, DW_AT_accessibility(DW_ACCESS_public)
    2145                            .dwattr $C$DW$215, DW_AT_decl_file("C:/ti/pdk_OMAPL138_1_01_00_02/packages/ti/csl/cslr_syscfg0
TMS320C6x Assembler PC v8.1.3 Fri Apr 14 08:40:30 2017

Tools Copyright (c) 1996-2015 Texas Instruments Incorporated
MicInterface.asm                                                     PAGE   40

    2146                            .dwattr $C$DW$215, DW_AT_decl_line(0x68)
    2147                            .dwattr $C$DW$215, DW_AT_decl_column(0x15)
    2148                    
    2149                    $C$DW$216       .dwtag  DW_TAG_member
    2150                            .dwattr $C$DW$216, DW_AT_type(*$C$DW$T$154)
    2151                            .dwattr $C$DW$216, DW_AT_name("PINMUX10")
    2152                            .dwattr $C$DW$216, DW_AT_TI_symbol_name("PINMUX10")
    2153                            .dwattr $C$DW$216, DW_AT_data_member_location[DW_OP_plus_uconst 0x148]
    2154                            .dwattr $C$DW$216, DW_AT_accessibility(DW_ACCESS_public)
    2155                            .dwattr $C$DW$216, DW_AT_decl_file("C:/ti/pdk_OMAPL138_1_01_00_02/packages/ti/csl/cslr_syscfg0
    2156                            .dwattr $C$DW$216, DW_AT_decl_line(0x69)
    2157                            .dwattr $C$DW$216, DW_AT_decl_column(0x15)
    2158                    
    2159                    $C$DW$217       .dwtag  DW_TAG_member
    2160                            .dwattr $C$DW$217, DW_AT_type(*$C$DW$T$154)
    2161                            .dwattr $C$DW$217, DW_AT_name("PINMUX11")
    2162                            .dwattr $C$DW$217, DW_AT_TI_symbol_name("PINMUX11")
    2163                            .dwattr $C$DW$217, DW_AT_data_member_location[DW_OP_plus_uconst 0x14c]
    2164                            .dwattr $C$DW$217, DW_AT_accessibility(DW_ACCESS_public)
    2165                            .dwattr $C$DW$217, DW_AT_decl_file("C:/ti/pdk_OMAPL138_1_01_00_02/packages/ti/csl/cslr_syscfg0
    2166                            .dwattr $C$DW$217, DW_AT_decl_line(0x6a)
    2167                            .dwattr $C$DW$217, DW_AT_decl_column(0x15)
    2168                    
    2169                    $C$DW$218       .dwtag  DW_TAG_member
    2170                            .dwattr $C$DW$218, DW_AT_type(*$C$DW$T$154)
    2171                            .dwattr $C$DW$218, DW_AT_name("PINMUX12")
    2172                            .dwattr $C$DW$218, DW_AT_TI_symbol_name("PINMUX12")
    2173                            .dwattr $C$DW$218, DW_AT_data_member_location[DW_OP_plus_uconst 0x150]
    2174                            .dwattr $C$DW$218, DW_AT_accessibility(DW_ACCESS_public)
    2175                            .dwattr $C$DW$218, DW_AT_decl_file("C:/ti/pdk_OMAPL138_1_01_00_02/packages/ti/csl/cslr_syscfg0
    2176                            .dwattr $C$DW$218, DW_AT_decl_line(0x6b)
    2177                            .dwattr $C$DW$218, DW_AT_decl_column(0x15)
    2178                    
    2179                    $C$DW$219       .dwtag  DW_TAG_member
    2180                            .dwattr $C$DW$219, DW_AT_type(*$C$DW$T$154)
    2181                            .dwattr $C$DW$219, DW_AT_name("PINMUX13")
    2182                            .dwattr $C$DW$219, DW_AT_TI_symbol_name("PINMUX13")
    2183                            .dwattr $C$DW$219, DW_AT_data_member_location[DW_OP_plus_uconst 0x154]
    2184                            .dwattr $C$DW$219, DW_AT_accessibility(DW_ACCESS_public)
    2185                            .dwattr $C$DW$219, DW_AT_decl_file("C:/ti/pdk_OMAPL138_1_01_00_02/packages/ti/csl/cslr_syscfg0
    2186                            .dwattr $C$DW$219, DW_AT_decl_line(0x6c)
    2187                            .dwattr $C$DW$219, DW_AT_decl_column(0x15)
    2188                    
    2189                    $C$DW$220       .dwtag  DW_TAG_member
    2190                            .dwattr $C$DW$220, DW_AT_type(*$C$DW$T$154)
    2191                            .dwattr $C$DW$220, DW_AT_name("PINMUX14")
    2192                            .dwattr $C$DW$220, DW_AT_TI_symbol_name("PINMUX14")
    2193                            .dwattr $C$DW$220, DW_AT_data_member_location[DW_OP_plus_uconst 0x158]
    2194                            .dwattr $C$DW$220, DW_AT_accessibility(DW_ACCESS_public)
    2195                            .dwattr $C$DW$220, DW_AT_decl_file("C:/ti/pdk_OMAPL138_1_01_00_02/packages/ti/csl/cslr_syscfg0
    2196                            .dwattr $C$DW$220, DW_AT_decl_line(0x6d)
    2197                            .dwattr $C$DW$220, DW_AT_decl_column(0x15)
    2198                    
    2199                    $C$DW$221       .dwtag  DW_TAG_member
    2200                            .dwattr $C$DW$221, DW_AT_type(*$C$DW$T$154)
TMS320C6x Assembler PC v8.1.3 Fri Apr 14 08:40:30 2017

Tools Copyright (c) 1996-2015 Texas Instruments Incorporated
MicInterface.asm                                                     PAGE   41

    2201                            .dwattr $C$DW$221, DW_AT_name("PINMUX15")
    2202                            .dwattr $C$DW$221, DW_AT_TI_symbol_name("PINMUX15")
    2203                            .dwattr $C$DW$221, DW_AT_data_member_location[DW_OP_plus_uconst 0x15c]
    2204                            .dwattr $C$DW$221, DW_AT_accessibility(DW_ACCESS_public)
    2205                            .dwattr $C$DW$221, DW_AT_decl_file("C:/ti/pdk_OMAPL138_1_01_00_02/packages/ti/csl/cslr_syscfg0
    2206                            .dwattr $C$DW$221, DW_AT_decl_line(0x6e)
    2207                            .dwattr $C$DW$221, DW_AT_decl_column(0x15)
    2208                    
    2209                    $C$DW$222       .dwtag  DW_TAG_member
    2210                            .dwattr $C$DW$222, DW_AT_type(*$C$DW$T$154)
    2211                            .dwattr $C$DW$222, DW_AT_name("PINMUX16")
    2212                            .dwattr $C$DW$222, DW_AT_TI_symbol_name("PINMUX16")
    2213                            .dwattr $C$DW$222, DW_AT_data_member_location[DW_OP_plus_uconst 0x160]
    2214                            .dwattr $C$DW$222, DW_AT_accessibility(DW_ACCESS_public)
    2215                            .dwattr $C$DW$222, DW_AT_decl_file("C:/ti/pdk_OMAPL138_1_01_00_02/packages/ti/csl/cslr_syscfg0
    2216                            .dwattr $C$DW$222, DW_AT_decl_line(0x6f)
    2217                            .dwattr $C$DW$222, DW_AT_decl_column(0x15)
    2218                    
    2219                    $C$DW$223       .dwtag  DW_TAG_member
    2220                            .dwattr $C$DW$223, DW_AT_type(*$C$DW$T$154)
    2221                            .dwattr $C$DW$223, DW_AT_name("PINMUX17")
    2222                            .dwattr $C$DW$223, DW_AT_TI_symbol_name("PINMUX17")
    2223                            .dwattr $C$DW$223, DW_AT_data_member_location[DW_OP_plus_uconst 0x164]
    2224                            .dwattr $C$DW$223, DW_AT_accessibility(DW_ACCESS_public)
    2225                            .dwattr $C$DW$223, DW_AT_decl_file("C:/ti/pdk_OMAPL138_1_01_00_02/packages/ti/csl/cslr_syscfg0
    2226                            .dwattr $C$DW$223, DW_AT_decl_line(0x70)
    2227                            .dwattr $C$DW$223, DW_AT_decl_column(0x15)
    2228                    
    2229                    $C$DW$224       .dwtag  DW_TAG_member
    2230                            .dwattr $C$DW$224, DW_AT_type(*$C$DW$T$154)
    2231                            .dwattr $C$DW$224, DW_AT_name("PINMUX18")
    2232                            .dwattr $C$DW$224, DW_AT_TI_symbol_name("PINMUX18")
    2233                            .dwattr $C$DW$224, DW_AT_data_member_location[DW_OP_plus_uconst 0x168]
    2234                            .dwattr $C$DW$224, DW_AT_accessibility(DW_ACCESS_public)
    2235                            .dwattr $C$DW$224, DW_AT_decl_file("C:/ti/pdk_OMAPL138_1_01_00_02/packages/ti/csl/cslr_syscfg0
    2236                            .dwattr $C$DW$224, DW_AT_decl_line(0x71)
    2237                            .dwattr $C$DW$224, DW_AT_decl_column(0x15)
    2238                    
    2239                    $C$DW$225       .dwtag  DW_TAG_member
    2240                            .dwattr $C$DW$225, DW_AT_type(*$C$DW$T$154)
    2241                            .dwattr $C$DW$225, DW_AT_name("PINMUX19")
    2242                            .dwattr $C$DW$225, DW_AT_TI_symbol_name("PINMUX19")
    2243                            .dwattr $C$DW$225, DW_AT_data_member_location[DW_OP_plus_uconst 0x16c]
    2244                            .dwattr $C$DW$225, DW_AT_accessibility(DW_ACCESS_public)
    2245                            .dwattr $C$DW$225, DW_AT_decl_file("C:/ti/pdk_OMAPL138_1_01_00_02/packages/ti/csl/cslr_syscfg0
    2246                            .dwattr $C$DW$225, DW_AT_decl_line(0x72)
    2247                            .dwattr $C$DW$225, DW_AT_decl_column(0x15)
    2248                    
    2249                    $C$DW$226       .dwtag  DW_TAG_member
    2250                            .dwattr $C$DW$226, DW_AT_type(*$C$DW$T$154)
    2251                            .dwattr $C$DW$226, DW_AT_name("SUSPSRC")
    2252                            .dwattr $C$DW$226, DW_AT_TI_symbol_name("SUSPSRC")
    2253                            .dwattr $C$DW$226, DW_AT_data_member_location[DW_OP_plus_uconst 0x170]
    2254                            .dwattr $C$DW$226, DW_AT_accessibility(DW_ACCESS_public)
    2255                            .dwattr $C$DW$226, DW_AT_decl_file("C:/ti/pdk_OMAPL138_1_01_00_02/packages/ti/csl/cslr_syscfg0
TMS320C6x Assembler PC v8.1.3 Fri Apr 14 08:40:30 2017

Tools Copyright (c) 1996-2015 Texas Instruments Incorporated
MicInterface.asm                                                     PAGE   42

    2256                            .dwattr $C$DW$226, DW_AT_decl_line(0x73)
    2257                            .dwattr $C$DW$226, DW_AT_decl_column(0x15)
    2258                    
    2259                    $C$DW$227       .dwtag  DW_TAG_member
    2260                            .dwattr $C$DW$227, DW_AT_type(*$C$DW$T$154)
    2261                            .dwattr $C$DW$227, DW_AT_name("CHIPSIG")
    2262                            .dwattr $C$DW$227, DW_AT_TI_symbol_name("CHIPSIG")
    2263                            .dwattr $C$DW$227, DW_AT_data_member_location[DW_OP_plus_uconst 0x174]
    2264                            .dwattr $C$DW$227, DW_AT_accessibility(DW_ACCESS_public)
    2265                            .dwattr $C$DW$227, DW_AT_decl_file("C:/ti/pdk_OMAPL138_1_01_00_02/packages/ti/csl/cslr_syscfg0
    2266                            .dwattr $C$DW$227, DW_AT_decl_line(0x74)
    2267                            .dwattr $C$DW$227, DW_AT_decl_column(0x15)
    2268                    
    2269                    $C$DW$228       .dwtag  DW_TAG_member
    2270                            .dwattr $C$DW$228, DW_AT_type(*$C$DW$T$154)
    2271                            .dwattr $C$DW$228, DW_AT_name("CHIPSIG_CLR")
    2272                            .dwattr $C$DW$228, DW_AT_TI_symbol_name("CHIPSIG_CLR")
    2273                            .dwattr $C$DW$228, DW_AT_data_member_location[DW_OP_plus_uconst 0x178]
    2274                            .dwattr $C$DW$228, DW_AT_accessibility(DW_ACCESS_public)
    2275                            .dwattr $C$DW$228, DW_AT_decl_file("C:/ti/pdk_OMAPL138_1_01_00_02/packages/ti/csl/cslr_syscfg0
    2276                            .dwattr $C$DW$228, DW_AT_decl_line(0x75)
    2277                            .dwattr $C$DW$228, DW_AT_decl_column(0x15)
    2278                    
    2279                    $C$DW$229       .dwtag  DW_TAG_member
    2280                            .dwattr $C$DW$229, DW_AT_type(*$C$DW$T$154)
    2281                            .dwattr $C$DW$229, DW_AT_name("CFGCHIP0")
    2282                            .dwattr $C$DW$229, DW_AT_TI_symbol_name("CFGCHIP0")
    2283                            .dwattr $C$DW$229, DW_AT_data_member_location[DW_OP_plus_uconst 0x17c]
    2284                            .dwattr $C$DW$229, DW_AT_accessibility(DW_ACCESS_public)
    2285                            .dwattr $C$DW$229, DW_AT_decl_file("C:/ti/pdk_OMAPL138_1_01_00_02/packages/ti/csl/cslr_syscfg0
    2286                            .dwattr $C$DW$229, DW_AT_decl_line(0x76)
    2287                            .dwattr $C$DW$229, DW_AT_decl_column(0x15)
    2288                    
    2289                    $C$DW$230       .dwtag  DW_TAG_member
    2290                            .dwattr $C$DW$230, DW_AT_type(*$C$DW$T$154)
    2291                            .dwattr $C$DW$230, DW_AT_name("CFGCHIP1")
    2292                            .dwattr $C$DW$230, DW_AT_TI_symbol_name("CFGCHIP1")
    2293                            .dwattr $C$DW$230, DW_AT_data_member_location[DW_OP_plus_uconst 0x180]
    2294                            .dwattr $C$DW$230, DW_AT_accessibility(DW_ACCESS_public)
    2295                            .dwattr $C$DW$230, DW_AT_decl_file("C:/ti/pdk_OMAPL138_1_01_00_02/packages/ti/csl/cslr_syscfg0
    2296                            .dwattr $C$DW$230, DW_AT_decl_line(0x77)
    2297                            .dwattr $C$DW$230, DW_AT_decl_column(0x15)
    2298                    
    2299                    $C$DW$231       .dwtag  DW_TAG_member
    2300                            .dwattr $C$DW$231, DW_AT_type(*$C$DW$T$154)
    2301                            .dwattr $C$DW$231, DW_AT_name("CFGCHIP2")
    2302                            .dwattr $C$DW$231, DW_AT_TI_symbol_name("CFGCHIP2")
    2303                            .dwattr $C$DW$231, DW_AT_data_member_location[DW_OP_plus_uconst 0x184]
    2304                            .dwattr $C$DW$231, DW_AT_accessibility(DW_ACCESS_public)
    2305                            .dwattr $C$DW$231, DW_AT_decl_file("C:/ti/pdk_OMAPL138_1_01_00_02/packages/ti/csl/cslr_syscfg0
    2306                            .dwattr $C$DW$231, DW_AT_decl_line(0x78)
    2307                            .dwattr $C$DW$231, DW_AT_decl_column(0x15)
    2308                    
    2309                    $C$DW$232       .dwtag  DW_TAG_member
    2310                            .dwattr $C$DW$232, DW_AT_type(*$C$DW$T$154)
TMS320C6x Assembler PC v8.1.3 Fri Apr 14 08:40:30 2017

Tools Copyright (c) 1996-2015 Texas Instruments Incorporated
MicInterface.asm                                                     PAGE   43

    2311                            .dwattr $C$DW$232, DW_AT_name("CFGCHIP3")
    2312                            .dwattr $C$DW$232, DW_AT_TI_symbol_name("CFGCHIP3")
    2313                            .dwattr $C$DW$232, DW_AT_data_member_location[DW_OP_plus_uconst 0x188]
    2314                            .dwattr $C$DW$232, DW_AT_accessibility(DW_ACCESS_public)
    2315                            .dwattr $C$DW$232, DW_AT_decl_file("C:/ti/pdk_OMAPL138_1_01_00_02/packages/ti/csl/cslr_syscfg0
    2316                            .dwattr $C$DW$232, DW_AT_decl_line(0x79)
    2317                            .dwattr $C$DW$232, DW_AT_decl_column(0x15)
    2318                    
    2319                    $C$DW$233       .dwtag  DW_TAG_member
    2320                            .dwattr $C$DW$233, DW_AT_type(*$C$DW$T$154)
    2321                            .dwattr $C$DW$233, DW_AT_name("CFGCHIP4")
    2322                            .dwattr $C$DW$233, DW_AT_TI_symbol_name("CFGCHIP4")
    2323                            .dwattr $C$DW$233, DW_AT_data_member_location[DW_OP_plus_uconst 0x18c]
    2324                            .dwattr $C$DW$233, DW_AT_accessibility(DW_ACCESS_public)
    2325                            .dwattr $C$DW$233, DW_AT_decl_file("C:/ti/pdk_OMAPL138_1_01_00_02/packages/ti/csl/cslr_syscfg0
    2326                            .dwattr $C$DW$233, DW_AT_decl_line(0x7a)
    2327                            .dwattr $C$DW$233, DW_AT_decl_column(0x15)
    2328                    
    2329                            .dwattr $C$DW$T$164, DW_AT_decl_file("C:/ti/pdk_OMAPL138_1_01_00_02/packages/ti/csl/cslr_syscf
    2330                            .dwattr $C$DW$T$164, DW_AT_decl_line(0x42)
    2331                            .dwattr $C$DW$T$164, DW_AT_decl_column(0x11)
    2332                            .dwendtag $C$DW$T$164
    2333                    
    2334                    $C$DW$T$679     .dwtag  DW_TAG_typedef
    2335                            .dwattr $C$DW$T$679, DW_AT_name("CSL_SyscfgRegs")
    2336                            .dwattr $C$DW$T$679, DW_AT_type(*$C$DW$T$164)
    2337                            .dwattr $C$DW$T$679, DW_AT_language(DW_LANG_C)
    2338                            .dwattr $C$DW$T$679, DW_AT_decl_file("C:/ti/pdk_OMAPL138_1_01_00_02/packages/ti/csl/cslr_syscf
    2339                            .dwattr $C$DW$T$679, DW_AT_decl_line(0x7b)
    2340                            .dwattr $C$DW$T$679, DW_AT_decl_column(0x03)
    2341                    
    2342                    $C$DW$T$680     .dwtag  DW_TAG_volatile_type
    2343                            .dwattr $C$DW$T$680, DW_AT_type(*$C$DW$T$679)
    2344                    
    2345                    $C$DW$T$681     .dwtag  DW_TAG_pointer_type
    2346                            .dwattr $C$DW$T$681, DW_AT_type(*$C$DW$T$680)
    2347                            .dwattr $C$DW$T$681, DW_AT_address_class(0x20)
    2348                    
    2349                    $C$DW$T$682     .dwtag  DW_TAG_typedef
    2350                            .dwattr $C$DW$T$682, DW_AT_name("CSL_SyscfgRegsOvly")
    2351                            .dwattr $C$DW$T$682, DW_AT_type(*$C$DW$T$681)
    2352                            .dwattr $C$DW$T$682, DW_AT_language(DW_LANG_C)
    2353                            .dwattr $C$DW$T$682, DW_AT_decl_file("C:/ti/pdk_OMAPL138_1_01_00_02/packages/ti/csl/cslr_syscf
    2354                            .dwattr $C$DW$T$682, DW_AT_decl_line(0x80)
    2355                            .dwattr $C$DW$T$682, DW_AT_decl_column(0x2e)
    2356                    
    2357                    $C$DW$T$683     .dwtag  DW_TAG_const_type
    2358                            .dwattr $C$DW$T$683, DW_AT_type(*$C$DW$T$682)
    2359                    
    2360                    
    2361                    $C$DW$T$168     .dwtag  DW_TAG_structure_type
    2362                            .dwattr $C$DW$T$168, DW_AT_byte_size(0x0c)
    2363                    $C$DW$234       .dwtag  DW_TAG_member
    2364                            .dwattr $C$DW$234, DW_AT_type(*$C$DW$T$165)
    2365                            .dwattr $C$DW$234, DW_AT_name("elem")
TMS320C6x Assembler PC v8.1.3 Fri Apr 14 08:40:30 2017

Tools Copyright (c) 1996-2015 Texas Instruments Incorporated
MicInterface.asm                                                     PAGE   44

    2366                            .dwattr $C$DW$234, DW_AT_TI_symbol_name("elem")
    2367                            .dwattr $C$DW$234, DW_AT_data_member_location[DW_OP_plus_uconst 0x0]
    2368                            .dwattr $C$DW$234, DW_AT_accessibility(DW_ACCESS_public)
    2369                            .dwattr $C$DW$234, DW_AT_decl_file("C:/Users/Raz Aloni/OneDrive/School/EEL4924/DSP/C_Libs/MicC
    2370                            .dwattr $C$DW$234, DW_AT_decl_line(0x34)
    2371                            .dwattr $C$DW$234, DW_AT_decl_column(0x10)
    2372                    
    2373                    $C$DW$235       .dwtag  DW_TAG_member
    2374                            .dwattr $C$DW$235, DW_AT_type(*$C$DW$T$167)
    2375                            .dwattr $C$DW$235, DW_AT_name("buttonValue")
    2376                            .dwattr $C$DW$235, DW_AT_TI_symbol_name("buttonValue")
    2377                            .dwattr $C$DW$235, DW_AT_data_member_location[DW_OP_plus_uconst 0x8]
    2378                            .dwattr $C$DW$235, DW_AT_accessibility(DW_ACCESS_public)
    2379                            .dwattr $C$DW$235, DW_AT_decl_file("C:/Users/Raz Aloni/OneDrive/School/EEL4924/DSP/C_Libs/MicC
    2380                            .dwattr $C$DW$235, DW_AT_decl_line(0x35)
    2381                            .dwattr $C$DW$235, DW_AT_decl_column(0x11)
    2382                    
    2383                            .dwattr $C$DW$T$168, DW_AT_decl_file("C:/Users/Raz Aloni/OneDrive/School/EEL4924/DSP/C_Libs/Mi
    2384                            .dwattr $C$DW$T$168, DW_AT_decl_line(0x33)
    2385                            .dwattr $C$DW$T$168, DW_AT_decl_column(0x01)
    2386                            .dwendtag $C$DW$T$168
    2387                    
    2388                    $C$DW$T$684     .dwtag  DW_TAG_typedef
    2389                            .dwattr $C$DW$T$684, DW_AT_name("MicBtnMsg_t")
    2390                            .dwattr $C$DW$T$684, DW_AT_type(*$C$DW$T$168)
    2391                            .dwattr $C$DW$T$684, DW_AT_language(DW_LANG_C)
    2392                            .dwattr $C$DW$T$684, DW_AT_decl_file("C:/Users/Raz Aloni/OneDrive/School/EEL4924/DSP/C_Libs/Mi
    2393                            .dwattr $C$DW$T$684, DW_AT_decl_line(0x36)
    2394                            .dwattr $C$DW$T$684, DW_AT_decl_column(0x03)
    2395                    
    2396                    
    2397                    $C$DW$T$172     .dwtag  DW_TAG_structure_type
    2398                            .dwattr $C$DW$T$172, DW_AT_byte_size(0x08)
    2399                    $C$DW$236       .dwtag  DW_TAG_member
    2400                            .dwattr $C$DW$236, DW_AT_type(*$C$DW$T$10)
    2401                            .dwattr $C$DW$236, DW_AT_name("length")
    2402                            .dwattr $C$DW$236, DW_AT_TI_symbol_name("length")
    2403                            .dwattr $C$DW$236, DW_AT_data_member_location[DW_OP_plus_uconst 0x0]
    2404                            .dwattr $C$DW$236, DW_AT_accessibility(DW_ACCESS_public)
    2405                            .dwattr $C$DW$236, DW_AT_decl_file("C:/ti/bios_6_50_00_10/packages/ti/sysbios/knl/Swi.h")
    2406                            .dwattr $C$DW$236, DW_AT_decl_line(0x14d)
    2407                            .dwattr $C$DW$236, DW_AT_decl_column(0x16)
    2408                    
    2409                    $C$DW$237       .dwtag  DW_TAG_member
    2410                            .dwattr $C$DW$237, DW_AT_type(*$C$DW$T$171)
    2411                            .dwattr $C$DW$237, DW_AT_name("elem")
    2412                            .dwattr $C$DW$237, DW_AT_TI_symbol_name("elem")
    2413                            .dwattr $C$DW$237, DW_AT_data_member_location[DW_OP_plus_uconst 0x4]
    2414                            .dwattr $C$DW$237, DW_AT_accessibility(DW_ACCESS_public)
    2415                            .dwattr $C$DW$237, DW_AT_decl_file("C:/ti/bios_6_50_00_10/packages/ti/sysbios/knl/Swi.h")
    2416                            .dwattr $C$DW$237, DW_AT_decl_line(0x14d)
    2417                            .dwattr $C$DW$237, DW_AT_decl_column(0x40)
    2418                    
    2419                            .dwattr $C$DW$T$172, DW_AT_decl_file("C:/ti/bios_6_50_00_10/packages/ti/sysbios/knl/Swi.h")
    2420                            .dwattr $C$DW$T$172, DW_AT_decl_line(0x14d)
TMS320C6x Assembler PC v8.1.3 Fri Apr 14 08:40:30 2017

Tools Copyright (c) 1996-2015 Texas Instruments Incorporated
MicInterface.asm                                                     PAGE   45

    2421                            .dwattr $C$DW$T$172, DW_AT_decl_column(0x10)
    2422                            .dwendtag $C$DW$T$172
    2423                    
    2424                    $C$DW$T$686     .dwtag  DW_TAG_typedef
    2425                            .dwattr $C$DW$T$686, DW_AT_name("__ARRAY1_ti_sysbios_knl_Swi_hooks")
    2426                            .dwattr $C$DW$T$686, DW_AT_type(*$C$DW$T$172)
    2427                            .dwattr $C$DW$T$686, DW_AT_language(DW_LANG_C)
    2428                            .dwattr $C$DW$T$686, DW_AT_decl_file("C:/ti/bios_6_50_00_10/packages/ti/sysbios/knl/Swi.h")
    2429                            .dwattr $C$DW$T$686, DW_AT_decl_line(0x14d)
    2430                            .dwattr $C$DW$T$686, DW_AT_decl_column(0x48)
    2431                    
    2432                    $C$DW$T$687     .dwtag  DW_TAG_typedef
    2433                            .dwattr $C$DW$T$687, DW_AT_name("__TA_ti_sysbios_knl_Swi_hooks")
    2434                            .dwattr $C$DW$T$687, DW_AT_type(*$C$DW$T$686)
    2435                            .dwattr $C$DW$T$687, DW_AT_language(DW_LANG_C)
    2436                            .dwattr $C$DW$T$687, DW_AT_decl_file("C:/ti/bios_6_50_00_10/packages/ti/sysbios/knl/Swi.h")
    2437                            .dwattr $C$DW$T$687, DW_AT_decl_line(0x14f)
    2438                            .dwattr $C$DW$T$687, DW_AT_decl_column(0x2b)
    2439                    
    2440                    
    2441                    $C$DW$T$173     .dwtag  DW_TAG_structure_type
    2442                            .dwattr $C$DW$T$173, DW_AT_byte_size(0x08)
    2443                    $C$DW$238       .dwtag  DW_TAG_member
    2444                            .dwattr $C$DW$238, DW_AT_type(*$C$DW$T$10)
    2445                            .dwattr $C$DW$238, DW_AT_name("length")
    2446                            .dwattr $C$DW$238, DW_AT_TI_symbol_name("length")
    2447                            .dwattr $C$DW$238, DW_AT_data_member_location[DW_OP_plus_uconst 0x0]
    2448                            .dwattr $C$DW$238, DW_AT_accessibility(DW_ACCESS_public)
    2449                            .dwattr $C$DW$238, DW_AT_decl_file("C:/ti/bios_6_50_00_10/packages/ti/sysbios/knl/Swi.h")
    2450                            .dwattr $C$DW$238, DW_AT_decl_line(0x14e)
    2451                            .dwattr $C$DW$238, DW_AT_decl_column(0x16)
    2452                    
    2453                    $C$DW$239       .dwtag  DW_TAG_member
    2454                            .dwattr $C$DW$239, DW_AT_type(*$C$DW$T$171)
    2455                            .dwattr $C$DW$239, DW_AT_name("elem")
    2456                            .dwattr $C$DW$239, DW_AT_TI_symbol_name("elem")
    2457                            .dwattr $C$DW$239, DW_AT_data_member_location[DW_OP_plus_uconst 0x4]
    2458                            .dwattr $C$DW$239, DW_AT_accessibility(DW_ACCESS_public)
    2459                            .dwattr $C$DW$239, DW_AT_decl_file("C:/ti/bios_6_50_00_10/packages/ti/sysbios/knl/Swi.h")
    2460                            .dwattr $C$DW$239, DW_AT_decl_line(0x14e)
    2461                            .dwattr $C$DW$239, DW_AT_decl_column(0x40)
    2462                    
    2463                            .dwattr $C$DW$T$173, DW_AT_decl_file("C:/ti/bios_6_50_00_10/packages/ti/sysbios/knl/Swi.h")
    2464                            .dwattr $C$DW$T$173, DW_AT_decl_line(0x14e)
    2465                            .dwattr $C$DW$T$173, DW_AT_decl_column(0x10)
    2466                            .dwendtag $C$DW$T$173
    2467                    
    2468                    $C$DW$T$688     .dwtag  DW_TAG_typedef
    2469                            .dwattr $C$DW$T$688, DW_AT_name("__CARRAY1_ti_sysbios_knl_Swi_hooks")
    2470                            .dwattr $C$DW$T$688, DW_AT_type(*$C$DW$T$173)
    2471                            .dwattr $C$DW$T$688, DW_AT_language(DW_LANG_C)
    2472                            .dwattr $C$DW$T$688, DW_AT_decl_file("C:/ti/bios_6_50_00_10/packages/ti/sysbios/knl/Swi.h")
    2473                            .dwattr $C$DW$T$688, DW_AT_decl_line(0x14e)
    2474                            .dwattr $C$DW$T$688, DW_AT_decl_column(0x48)
    2475                    
TMS320C6x Assembler PC v8.1.3 Fri Apr 14 08:40:30 2017

Tools Copyright (c) 1996-2015 Texas Instruments Incorporated
MicInterface.asm                                                     PAGE   46

    2476                    $C$DW$T$689     .dwtag  DW_TAG_typedef
    2477                            .dwattr $C$DW$T$689, DW_AT_name("CT__ti_sysbios_knl_Swi_hooks")
    2478                            .dwattr $C$DW$T$689, DW_AT_type(*$C$DW$T$688)
    2479                            .dwattr $C$DW$T$689, DW_AT_language(DW_LANG_C)
    2480                            .dwattr $C$DW$T$689, DW_AT_decl_file("C:/ti/bios_6_50_00_10/packages/ti/sysbios/knl/Swi.h")
    2481                            .dwattr $C$DW$T$689, DW_AT_decl_line(0x150)
    2482                            .dwattr $C$DW$T$689, DW_AT_decl_column(0x2c)
    2483                    
    2484                    
    2485                    $C$DW$T$177     .dwtag  DW_TAG_structure_type
    2486                            .dwattr $C$DW$T$177, DW_AT_byte_size(0x08)
    2487                    $C$DW$240       .dwtag  DW_TAG_member
    2488                            .dwattr $C$DW$240, DW_AT_type(*$C$DW$T$10)
    2489                            .dwattr $C$DW$240, DW_AT_name("length")
    2490                            .dwattr $C$DW$240, DW_AT_TI_symbol_name("length")
    2491                            .dwattr $C$DW$240, DW_AT_data_member_location[DW_OP_plus_uconst 0x0]
    2492                            .dwattr $C$DW$240, DW_AT_accessibility(DW_ACCESS_public)
    2493                            .dwattr $C$DW$240, DW_AT_decl_file("C:/ti/bios_6_50_00_10/packages/ti/sysbios/knl/Task.h")
    2494                            .dwattr $C$DW$240, DW_AT_decl_line(0x29b)
    2495                            .dwattr $C$DW$240, DW_AT_decl_column(0x16)
    2496                    
    2497                    $C$DW$241       .dwtag  DW_TAG_member
    2498                            .dwattr $C$DW$241, DW_AT_type(*$C$DW$T$176)
    2499                            .dwattr $C$DW$241, DW_AT_name("elem")
    2500                            .dwattr $C$DW$241, DW_AT_TI_symbol_name("elem")
    2501                            .dwattr $C$DW$241, DW_AT_data_member_location[DW_OP_plus_uconst 0x4]
    2502                            .dwattr $C$DW$241, DW_AT_accessibility(DW_ACCESS_public)
    2503                            .dwattr $C$DW$241, DW_AT_decl_file("C:/ti/bios_6_50_00_10/packages/ti/sysbios/knl/Task.h")
    2504                            .dwattr $C$DW$241, DW_AT_decl_line(0x29b)
    2505                            .dwattr $C$DW$241, DW_AT_decl_column(0x41)
    2506                    
    2507                            .dwattr $C$DW$T$177, DW_AT_decl_file("C:/ti/bios_6_50_00_10/packages/ti/sysbios/knl/Task.h")
    2508                            .dwattr $C$DW$T$177, DW_AT_decl_line(0x29b)
    2509                            .dwattr $C$DW$T$177, DW_AT_decl_column(0x10)
    2510                            .dwendtag $C$DW$T$177
    2511                    
    2512                    $C$DW$T$690     .dwtag  DW_TAG_typedef
    2513                            .dwattr $C$DW$T$690, DW_AT_name("__ARRAY1_ti_sysbios_knl_Task_hooks")
    2514                            .dwattr $C$DW$T$690, DW_AT_type(*$C$DW$T$177)
    2515                            .dwattr $C$DW$T$690, DW_AT_language(DW_LANG_C)
    2516                            .dwattr $C$DW$T$690, DW_AT_decl_file("C:/ti/bios_6_50_00_10/packages/ti/sysbios/knl/Task.h")
    2517                            .dwattr $C$DW$T$690, DW_AT_decl_line(0x29b)
    2518                            .dwattr $C$DW$T$690, DW_AT_decl_column(0x49)
    2519                    
    2520                    $C$DW$T$691     .dwtag  DW_TAG_typedef
    2521                            .dwattr $C$DW$T$691, DW_AT_name("__TA_ti_sysbios_knl_Task_hooks")
    2522                            .dwattr $C$DW$T$691, DW_AT_type(*$C$DW$T$690)
    2523                            .dwattr $C$DW$T$691, DW_AT_language(DW_LANG_C)
    2524                            .dwattr $C$DW$T$691, DW_AT_decl_file("C:/ti/bios_6_50_00_10/packages/ti/sysbios/knl/Task.h")
    2525                            .dwattr $C$DW$T$691, DW_AT_decl_line(0x29d)
    2526                            .dwattr $C$DW$T$691, DW_AT_decl_column(0x2c)
    2527                    
    2528                    
    2529                    $C$DW$T$178     .dwtag  DW_TAG_structure_type
    2530                            .dwattr $C$DW$T$178, DW_AT_byte_size(0x08)
TMS320C6x Assembler PC v8.1.3 Fri Apr 14 08:40:30 2017

Tools Copyright (c) 1996-2015 Texas Instruments Incorporated
MicInterface.asm                                                     PAGE   47

    2531                    $C$DW$242       .dwtag  DW_TAG_member
    2532                            .dwattr $C$DW$242, DW_AT_type(*$C$DW$T$10)
    2533                            .dwattr $C$DW$242, DW_AT_name("length")
    2534                            .dwattr $C$DW$242, DW_AT_TI_symbol_name("length")
    2535                            .dwattr $C$DW$242, DW_AT_data_member_location[DW_OP_plus_uconst 0x0]
    2536                            .dwattr $C$DW$242, DW_AT_accessibility(DW_ACCESS_public)
    2537                            .dwattr $C$DW$242, DW_AT_decl_file("C:/ti/bios_6_50_00_10/packages/ti/sysbios/knl/Task.h")
    2538                            .dwattr $C$DW$242, DW_AT_decl_line(0x29c)
    2539                            .dwattr $C$DW$242, DW_AT_decl_column(0x16)
    2540                    
    2541                    $C$DW$243       .dwtag  DW_TAG_member
    2542                            .dwattr $C$DW$243, DW_AT_type(*$C$DW$T$176)
    2543                            .dwattr $C$DW$243, DW_AT_name("elem")
    2544                            .dwattr $C$DW$243, DW_AT_TI_symbol_name("elem")
    2545                            .dwattr $C$DW$243, DW_AT_data_member_location[DW_OP_plus_uconst 0x4]
    2546                            .dwattr $C$DW$243, DW_AT_accessibility(DW_ACCESS_public)
    2547                            .dwattr $C$DW$243, DW_AT_decl_file("C:/ti/bios_6_50_00_10/packages/ti/sysbios/knl/Task.h")
    2548                            .dwattr $C$DW$243, DW_AT_decl_line(0x29c)
    2549                            .dwattr $C$DW$243, DW_AT_decl_column(0x41)
    2550                    
    2551                            .dwattr $C$DW$T$178, DW_AT_decl_file("C:/ti/bios_6_50_00_10/packages/ti/sysbios/knl/Task.h")
    2552                            .dwattr $C$DW$T$178, DW_AT_decl_line(0x29c)
    2553                            .dwattr $C$DW$T$178, DW_AT_decl_column(0x10)
    2554                            .dwendtag $C$DW$T$178
    2555                    
    2556                    $C$DW$T$692     .dwtag  DW_TAG_typedef
    2557                            .dwattr $C$DW$T$692, DW_AT_name("__CARRAY1_ti_sysbios_knl_Task_hooks")
    2558                            .dwattr $C$DW$T$692, DW_AT_type(*$C$DW$T$178)
    2559                            .dwattr $C$DW$T$692, DW_AT_language(DW_LANG_C)
    2560                            .dwattr $C$DW$T$692, DW_AT_decl_file("C:/ti/bios_6_50_00_10/packages/ti/sysbios/knl/Task.h")
    2561                            .dwattr $C$DW$T$692, DW_AT_decl_line(0x29c)
    2562                            .dwattr $C$DW$T$692, DW_AT_decl_column(0x49)
    2563                    
    2564                    $C$DW$T$693     .dwtag  DW_TAG_typedef
    2565                            .dwattr $C$DW$T$693, DW_AT_name("CT__ti_sysbios_knl_Task_hooks")
    2566                            .dwattr $C$DW$T$693, DW_AT_type(*$C$DW$T$692)
    2567                            .dwattr $C$DW$T$693, DW_AT_language(DW_LANG_C)
    2568                            .dwattr $C$DW$T$693, DW_AT_decl_file("C:/ti/bios_6_50_00_10/packages/ti/sysbios/knl/Task.h")
    2569                            .dwattr $C$DW$T$693, DW_AT_decl_line(0x29e)
    2570                            .dwattr $C$DW$T$693, DW_AT_decl_column(0x2d)
    2571                    
    2572                    
    2573                    $C$DW$T$180     .dwtag  DW_TAG_structure_type
    2574                            .dwattr $C$DW$T$180, DW_AT_byte_size(0x18)
    2575                    $C$DW$244       .dwtag  DW_TAG_member
    2576                            .dwattr $C$DW$244, DW_AT_type(*$C$DW$T$10)
    2577                            .dwattr $C$DW$244, DW_AT_name("fd")
    2578                            .dwattr $C$DW$244, DW_AT_TI_symbol_name("fd")
    2579                            .dwattr $C$DW$244, DW_AT_data_member_location[DW_OP_plus_uconst 0x0]
    2580                            .dwattr $C$DW$244, DW_AT_accessibility(DW_ACCESS_public)
    2581                            .dwattr $C$DW$244, DW_AT_decl_file("C:/ti/ccsv7/tools/compiler/ti-cgt-c6000_8.1.3/include/stdi
    2582                            .dwattr $C$DW$244, DW_AT_decl_line(0x49)
    2583                            .dwattr $C$DW$244, DW_AT_decl_column(0x0b)
    2584                    
    2585                    $C$DW$245       .dwtag  DW_TAG_member
TMS320C6x Assembler PC v8.1.3 Fri Apr 14 08:40:30 2017

Tools Copyright (c) 1996-2015 Texas Instruments Incorporated
MicInterface.asm                                                     PAGE   48

    2586                            .dwattr $C$DW$245, DW_AT_type(*$C$DW$T$179)
    2587                            .dwattr $C$DW$245, DW_AT_name("buf")
    2588                            .dwattr $C$DW$245, DW_AT_TI_symbol_name("buf")
    2589                            .dwattr $C$DW$245, DW_AT_data_member_location[DW_OP_plus_uconst 0x4]
    2590                            .dwattr $C$DW$245, DW_AT_accessibility(DW_ACCESS_public)
    2591                            .dwattr $C$DW$245, DW_AT_decl_file("C:/ti/ccsv7/tools/compiler/ti-cgt-c6000_8.1.3/include/stdi
    2592                            .dwattr $C$DW$245, DW_AT_decl_line(0x4a)
    2593                            .dwattr $C$DW$245, DW_AT_decl_column(0x16)
    2594                    
    2595                    $C$DW$246       .dwtag  DW_TAG_member
    2596                            .dwattr $C$DW$246, DW_AT_type(*$C$DW$T$179)
    2597                            .dwattr $C$DW$246, DW_AT_name("pos")
    2598                            .dwattr $C$DW$246, DW_AT_TI_symbol_name("pos")
    2599                            .dwattr $C$DW$246, DW_AT_data_member_location[DW_OP_plus_uconst 0x8]
    2600                            .dwattr $C$DW$246, DW_AT_accessibility(DW_ACCESS_public)
    2601                            .dwattr $C$DW$246, DW_AT_decl_file("C:/ti/ccsv7/tools/compiler/ti-cgt-c6000_8.1.3/include/stdi
    2602                            .dwattr $C$DW$246, DW_AT_decl_line(0x4b)
    2603                            .dwattr $C$DW$246, DW_AT_decl_column(0x16)
    2604                    
    2605                    $C$DW$247       .dwtag  DW_TAG_member
    2606                            .dwattr $C$DW$247, DW_AT_type(*$C$DW$T$179)
    2607                            .dwattr $C$DW$247, DW_AT_name("bufend")
    2608                            .dwattr $C$DW$247, DW_AT_TI_symbol_name("bufend")
    2609                            .dwattr $C$DW$247, DW_AT_data_member_location[DW_OP_plus_uconst 0xc]
    2610                            .dwattr $C$DW$247, DW_AT_accessibility(DW_ACCESS_public)
    2611                            .dwattr $C$DW$247, DW_AT_decl_file("C:/ti/ccsv7/tools/compiler/ti-cgt-c6000_8.1.3/include/stdi
    2612                            .dwattr $C$DW$247, DW_AT_decl_line(0x4c)
    2613                            .dwattr $C$DW$247, DW_AT_decl_column(0x16)
    2614                    
    2615                    $C$DW$248       .dwtag  DW_TAG_member
    2616                            .dwattr $C$DW$248, DW_AT_type(*$C$DW$T$179)
    2617                            .dwattr $C$DW$248, DW_AT_name("buff_stop")
    2618                            .dwattr $C$DW$248, DW_AT_TI_symbol_name("buff_stop")
    2619                            .dwattr $C$DW$248, DW_AT_data_member_location[DW_OP_plus_uconst 0x10]
    2620                            .dwattr $C$DW$248, DW_AT_accessibility(DW_ACCESS_public)
    2621                            .dwattr $C$DW$248, DW_AT_decl_file("C:/ti/ccsv7/tools/compiler/ti-cgt-c6000_8.1.3/include/stdi
    2622                            .dwattr $C$DW$248, DW_AT_decl_line(0x4d)
    2623                            .dwattr $C$DW$248, DW_AT_decl_column(0x16)
    2624                    
    2625                    $C$DW$249       .dwtag  DW_TAG_member
    2626                            .dwattr $C$DW$249, DW_AT_type(*$C$DW$T$11)
    2627                            .dwattr $C$DW$249, DW_AT_name("flags")
    2628                            .dwattr $C$DW$249, DW_AT_TI_symbol_name("flags")
    2629                            .dwattr $C$DW$249, DW_AT_data_member_location[DW_OP_plus_uconst 0x14]
    2630                            .dwattr $C$DW$249, DW_AT_accessibility(DW_ACCESS_public)
    2631                            .dwattr $C$DW$249, DW_AT_decl_file("C:/ti/ccsv7/tools/compiler/ti-cgt-c6000_8.1.3/include/stdi
    2632                            .dwattr $C$DW$249, DW_AT_decl_line(0x4e)
    2633                            .dwattr $C$DW$249, DW_AT_decl_column(0x16)
    2634                    
    2635                            .dwattr $C$DW$T$180, DW_AT_decl_file("C:/ti/ccsv7/tools/compiler/ti-cgt-c6000_8.1.3/include/st
    2636                            .dwattr $C$DW$T$180, DW_AT_decl_line(0x48)
    2637                            .dwattr $C$DW$T$180, DW_AT_decl_column(0x10)
    2638                            .dwendtag $C$DW$T$180
    2639                    
    2640                    $C$DW$T$694     .dwtag  DW_TAG_typedef
TMS320C6x Assembler PC v8.1.3 Fri Apr 14 08:40:30 2017

Tools Copyright (c) 1996-2015 Texas Instruments Incorporated
MicInterface.asm                                                     PAGE   49

    2641                            .dwattr $C$DW$T$694, DW_AT_name("FILE")
    2642                            .dwattr $C$DW$T$694, DW_AT_type(*$C$DW$T$180)
    2643                            .dwattr $C$DW$T$694, DW_AT_language(DW_LANG_C)
    2644                            .dwattr $C$DW$T$694, DW_AT_decl_file("C:/ti/ccsv7/tools/compiler/ti-cgt-c6000_8.1.3/include/st
    2645                            .dwattr $C$DW$T$694, DW_AT_decl_line(0x4f)
    2646                            .dwattr $C$DW$T$694, DW_AT_decl_column(0x03)
    2647                    
    2648                    
    2649                    $C$DW$T$181     .dwtag  DW_TAG_structure_type
    2650                            .dwattr $C$DW$T$181, DW_AT_byte_size(0x08)
    2651                    $C$DW$250       .dwtag  DW_TAG_member
    2652                            .dwattr $C$DW$250, DW_AT_type(*$C$DW$T$10)
    2653                            .dwattr $C$DW$250, DW_AT_name("quot")
    2654                            .dwattr $C$DW$250, DW_AT_TI_symbol_name("quot")
    2655                            .dwattr $C$DW$250, DW_AT_data_member_location[DW_OP_plus_uconst 0x0]
    2656                            .dwattr $C$DW$250, DW_AT_accessibility(DW_ACCESS_public)
    2657                            .dwattr $C$DW$250, DW_AT_decl_file("C:/ti/ccsv7/tools/compiler/ti-cgt-c6000_8.1.3/include/stdl
    2658                            .dwattr $C$DW$250, DW_AT_decl_line(0x49)
    2659                            .dwattr $C$DW$250, DW_AT_decl_column(0x16)
    2660                    
    2661                    $C$DW$251       .dwtag  DW_TAG_member
    2662                            .dwattr $C$DW$251, DW_AT_type(*$C$DW$T$10)
    2663                            .dwattr $C$DW$251, DW_AT_name("rem")
    2664                            .dwattr $C$DW$251, DW_AT_TI_symbol_name("rem")
    2665                            .dwattr $C$DW$251, DW_AT_data_member_location[DW_OP_plus_uconst 0x4]
    2666                            .dwattr $C$DW$251, DW_AT_accessibility(DW_ACCESS_public)
    2667                            .dwattr $C$DW$251, DW_AT_decl_file("C:/ti/ccsv7/tools/compiler/ti-cgt-c6000_8.1.3/include/stdl
    2668                            .dwattr $C$DW$251, DW_AT_decl_line(0x49)
    2669                            .dwattr $C$DW$251, DW_AT_decl_column(0x1c)
    2670                    
    2671                            .dwattr $C$DW$T$181, DW_AT_decl_file("C:/ti/ccsv7/tools/compiler/ti-cgt-c6000_8.1.3/include/st
    2672                            .dwattr $C$DW$T$181, DW_AT_decl_line(0x49)
    2673                            .dwattr $C$DW$T$181, DW_AT_decl_column(0x10)
    2674                            .dwendtag $C$DW$T$181
    2675                    
    2676                    $C$DW$T$695     .dwtag  DW_TAG_typedef
    2677                            .dwattr $C$DW$T$695, DW_AT_name("div_t")
    2678                            .dwattr $C$DW$T$695, DW_AT_type(*$C$DW$T$181)
    2679                            .dwattr $C$DW$T$695, DW_AT_language(DW_LANG_C)
    2680                            .dwattr $C$DW$T$695, DW_AT_decl_file("C:/ti/ccsv7/tools/compiler/ti-cgt-c6000_8.1.3/include/st
    2681                            .dwattr $C$DW$T$695, DW_AT_decl_line(0x49)
    2682                            .dwattr $C$DW$T$695, DW_AT_decl_column(0x23)
    2683                    
    2684                    
    2685                    $C$DW$T$182     .dwtag  DW_TAG_structure_type
    2686                            .dwattr $C$DW$T$182, DW_AT_byte_size(0x08)
    2687                    $C$DW$252       .dwtag  DW_TAG_member
    2688                            .dwattr $C$DW$252, DW_AT_type(*$C$DW$T$10)
    2689                            .dwattr $C$DW$252, DW_AT_name("quot")
    2690                            .dwattr $C$DW$252, DW_AT_TI_symbol_name("quot")
    2691                            .dwattr $C$DW$252, DW_AT_data_member_location[DW_OP_plus_uconst 0x0]
    2692                            .dwattr $C$DW$252, DW_AT_accessibility(DW_ACCESS_public)
    2693                            .dwattr $C$DW$252, DW_AT_decl_file("C:/ti/ccsv7/tools/compiler/ti-cgt-c6000_8.1.3/include/stdl
    2694                            .dwattr $C$DW$252, DW_AT_decl_line(0x4b)
    2695                            .dwattr $C$DW$252, DW_AT_decl_column(0x17)
TMS320C6x Assembler PC v8.1.3 Fri Apr 14 08:40:30 2017

Tools Copyright (c) 1996-2015 Texas Instruments Incorporated
MicInterface.asm                                                     PAGE   50

    2696                    
    2697                    $C$DW$253       .dwtag  DW_TAG_member
    2698                            .dwattr $C$DW$253, DW_AT_type(*$C$DW$T$10)
    2699                            .dwattr $C$DW$253, DW_AT_name("rem")
    2700                            .dwattr $C$DW$253, DW_AT_TI_symbol_name("rem")
    2701                            .dwattr $C$DW$253, DW_AT_data_member_location[DW_OP_plus_uconst 0x4]
    2702                            .dwattr $C$DW$253, DW_AT_accessibility(DW_ACCESS_public)
    2703                            .dwattr $C$DW$253, DW_AT_decl_file("C:/ti/ccsv7/tools/compiler/ti-cgt-c6000_8.1.3/include/stdl
    2704                            .dwattr $C$DW$253, DW_AT_decl_line(0x4b)
    2705                            .dwattr $C$DW$253, DW_AT_decl_column(0x1d)
    2706                    
    2707                            .dwattr $C$DW$T$182, DW_AT_decl_file("C:/ti/ccsv7/tools/compiler/ti-cgt-c6000_8.1.3/include/st
    2708                            .dwattr $C$DW$T$182, DW_AT_decl_line(0x4b)
    2709                            .dwattr $C$DW$T$182, DW_AT_decl_column(0x10)
    2710                            .dwendtag $C$DW$T$182
    2711                    
    2712                    $C$DW$T$696     .dwtag  DW_TAG_typedef
    2713                            .dwattr $C$DW$T$696, DW_AT_name("ldiv_t")
    2714                            .dwattr $C$DW$T$696, DW_AT_type(*$C$DW$T$182)
    2715                            .dwattr $C$DW$T$696, DW_AT_language(DW_LANG_C)
    2716                            .dwattr $C$DW$T$696, DW_AT_decl_file("C:/ti/ccsv7/tools/compiler/ti-cgt-c6000_8.1.3/include/st
    2717                            .dwattr $C$DW$T$696, DW_AT_decl_line(0x4b)
    2718                            .dwattr $C$DW$T$696, DW_AT_decl_column(0x24)
    2719                    
    2720                    
    2721                    $C$DW$T$183     .dwtag  DW_TAG_structure_type
    2722                            .dwattr $C$DW$T$183, DW_AT_byte_size(0x10)
    2723                    $C$DW$254       .dwtag  DW_TAG_member
    2724                            .dwattr $C$DW$254, DW_AT_type(*$C$DW$T$14)
    2725                            .dwattr $C$DW$254, DW_AT_name("quot")
    2726                            .dwattr $C$DW$254, DW_AT_TI_symbol_name("quot")
    2727                            .dwattr $C$DW$254, DW_AT_data_member_location[DW_OP_plus_uconst 0x0]
    2728                            .dwattr $C$DW$254, DW_AT_accessibility(DW_ACCESS_public)
    2729                            .dwattr $C$DW$254, DW_AT_decl_file("C:/ti/ccsv7/tools/compiler/ti-cgt-c6000_8.1.3/include/stdl
    2730                            .dwattr $C$DW$254, DW_AT_decl_line(0x4e)
    2731                            .dwattr $C$DW$254, DW_AT_decl_column(0x1c)
    2732                    
    2733                    $C$DW$255       .dwtag  DW_TAG_member
    2734                            .dwattr $C$DW$255, DW_AT_type(*$C$DW$T$14)
    2735                            .dwattr $C$DW$255, DW_AT_name("rem")
    2736                            .dwattr $C$DW$255, DW_AT_TI_symbol_name("rem")
    2737                            .dwattr $C$DW$255, DW_AT_data_member_location[DW_OP_plus_uconst 0x8]
    2738                            .dwattr $C$DW$255, DW_AT_accessibility(DW_ACCESS_public)
    2739                            .dwattr $C$DW$255, DW_AT_decl_file("C:/ti/ccsv7/tools/compiler/ti-cgt-c6000_8.1.3/include/stdl
    2740                            .dwattr $C$DW$255, DW_AT_decl_line(0x4e)
    2741                            .dwattr $C$DW$255, DW_AT_decl_column(0x22)
    2742                    
    2743                            .dwattr $C$DW$T$183, DW_AT_decl_file("C:/ti/ccsv7/tools/compiler/ti-cgt-c6000_8.1.3/include/st
    2744                            .dwattr $C$DW$T$183, DW_AT_decl_line(0x4e)
    2745                            .dwattr $C$DW$T$183, DW_AT_decl_column(0x10)
    2746                            .dwendtag $C$DW$T$183
    2747                    
    2748                    $C$DW$T$697     .dwtag  DW_TAG_typedef
    2749                            .dwattr $C$DW$T$697, DW_AT_name("lldiv_t")
    2750                            .dwattr $C$DW$T$697, DW_AT_type(*$C$DW$T$183)
TMS320C6x Assembler PC v8.1.3 Fri Apr 14 08:40:30 2017

Tools Copyright (c) 1996-2015 Texas Instruments Incorporated
MicInterface.asm                                                     PAGE   51

    2751                            .dwattr $C$DW$T$697, DW_AT_language(DW_LANG_C)
    2752                            .dwattr $C$DW$T$697, DW_AT_decl_file("C:/ti/ccsv7/tools/compiler/ti-cgt-c6000_8.1.3/include/st
    2753                            .dwattr $C$DW$T$697, DW_AT_decl_line(0x4e)
    2754                            .dwattr $C$DW$T$697, DW_AT_decl_column(0x29)
    2755                    
    2756                    
    2757                    $C$DW$T$192     .dwtag  DW_TAG_structure_type
    2758                            .dwattr $C$DW$T$192, DW_AT_byte_size(0xa80)
    2759                    $C$DW$256       .dwtag  DW_TAG_member
    2760                            .dwattr $C$DW$256, DW_AT_type(*$C$DW$T$154)
    2761                            .dwattr $C$DW$256, DW_AT_name("REVID")
    2762                            .dwattr $C$DW$256, DW_AT_TI_symbol_name("REVID")
    2763                            .dwattr $C$DW$256, DW_AT_data_member_location[DW_OP_plus_uconst 0x0]
    2764                            .dwattr $C$DW$256, DW_AT_accessibility(DW_ACCESS_public)
    2765                            .dwattr $C$DW$256, DW_AT_decl_file("C:/ti/pdk_OMAPL138_1_01_00_02/packages/ti/csl/cslr_psc_OMA
    2766                            .dwattr $C$DW$256, DW_AT_decl_line(0x7b)
    2767                            .dwattr $C$DW$256, DW_AT_decl_column(0x15)
    2768                    
    2769                    $C$DW$257       .dwtag  DW_TAG_member
    2770                            .dwattr $C$DW$257, DW_AT_type(*$C$DW$T$163)
    2771                            .dwattr $C$DW$257, DW_AT_name("RSVD0")
    2772                            .dwattr $C$DW$257, DW_AT_TI_symbol_name("RSVD0")
    2773                            .dwattr $C$DW$257, DW_AT_data_member_location[DW_OP_plus_uconst 0x4]
    2774                            .dwattr $C$DW$257, DW_AT_accessibility(DW_ACCESS_public)
    2775                            .dwattr $C$DW$257, DW_AT_decl_file("C:/ti/pdk_OMAPL138_1_01_00_02/packages/ti/csl/cslr_psc_OMA
    2776                            .dwattr $C$DW$257, DW_AT_decl_line(0x7c)
    2777                            .dwattr $C$DW$257, DW_AT_decl_column(0x14)
    2778                    
    2779                    $C$DW$258       .dwtag  DW_TAG_member
    2780                            .dwattr $C$DW$258, DW_AT_type(*$C$DW$T$154)
    2781                            .dwattr $C$DW$258, DW_AT_name("INTEVAL")
    2782                            .dwattr $C$DW$258, DW_AT_TI_symbol_name("INTEVAL")
    2783                            .dwattr $C$DW$258, DW_AT_data_member_location[DW_OP_plus_uconst 0x18]
    2784                            .dwattr $C$DW$258, DW_AT_accessibility(DW_ACCESS_public)
    2785                            .dwattr $C$DW$258, DW_AT_decl_file("C:/ti/pdk_OMAPL138_1_01_00_02/packages/ti/csl/cslr_psc_OMA
    2786                            .dwattr $C$DW$258, DW_AT_decl_line(0x7d)
    2787                            .dwattr $C$DW$258, DW_AT_decl_column(0x15)
    2788                    
    2789                    $C$DW$259       .dwtag  DW_TAG_member
    2790                            .dwattr $C$DW$259, DW_AT_type(*$C$DW$T$184)
    2791                            .dwattr $C$DW$259, DW_AT_name("RSVD1")
    2792                            .dwattr $C$DW$259, DW_AT_TI_symbol_name("RSVD1")
    2793                            .dwattr $C$DW$259, DW_AT_data_member_location[DW_OP_plus_uconst 0x1c]
    2794                            .dwattr $C$DW$259, DW_AT_accessibility(DW_ACCESS_public)
    2795                            .dwattr $C$DW$259, DW_AT_decl_file("C:/ti/pdk_OMAPL138_1_01_00_02/packages/ti/csl/cslr_psc_OMA
    2796                            .dwattr $C$DW$259, DW_AT_decl_line(0x7e)
    2797                            .dwattr $C$DW$259, DW_AT_decl_column(0x14)
    2798                    
    2799                    $C$DW$260       .dwtag  DW_TAG_member
    2800                            .dwattr $C$DW$260, DW_AT_type(*$C$DW$T$154)
    2801                            .dwattr $C$DW$260, DW_AT_name("MERRPR0")
    2802                            .dwattr $C$DW$260, DW_AT_TI_symbol_name("MERRPR0")
    2803                            .dwattr $C$DW$260, DW_AT_data_member_location[DW_OP_plus_uconst 0x40]
    2804                            .dwattr $C$DW$260, DW_AT_accessibility(DW_ACCESS_public)
    2805                            .dwattr $C$DW$260, DW_AT_decl_file("C:/ti/pdk_OMAPL138_1_01_00_02/packages/ti/csl/cslr_psc_OMA
TMS320C6x Assembler PC v8.1.3 Fri Apr 14 08:40:30 2017

Tools Copyright (c) 1996-2015 Texas Instruments Incorporated
MicInterface.asm                                                     PAGE   52

    2806                            .dwattr $C$DW$260, DW_AT_decl_line(0x7f)
    2807                            .dwattr $C$DW$260, DW_AT_decl_column(0x15)
    2808                    
    2809                    $C$DW$261       .dwtag  DW_TAG_member
    2810                            .dwattr $C$DW$261, DW_AT_type(*$C$DW$T$185)
    2811                            .dwattr $C$DW$261, DW_AT_name("RSVD2")
    2812                            .dwattr $C$DW$261, DW_AT_TI_symbol_name("RSVD2")
    2813                            .dwattr $C$DW$261, DW_AT_data_member_location[DW_OP_plus_uconst 0x44]
    2814                            .dwattr $C$DW$261, DW_AT_accessibility(DW_ACCESS_public)
    2815                            .dwattr $C$DW$261, DW_AT_decl_file("C:/ti/pdk_OMAPL138_1_01_00_02/packages/ti/csl/cslr_psc_OMA
    2816                            .dwattr $C$DW$261, DW_AT_decl_line(0x80)
    2817                            .dwattr $C$DW$261, DW_AT_decl_column(0x14)
    2818                    
    2819                    $C$DW$262       .dwtag  DW_TAG_member
    2820                            .dwattr $C$DW$262, DW_AT_type(*$C$DW$T$154)
    2821                            .dwattr $C$DW$262, DW_AT_name("MERRCR0")
    2822                            .dwattr $C$DW$262, DW_AT_TI_symbol_name("MERRCR0")
    2823                            .dwattr $C$DW$262, DW_AT_data_member_location[DW_OP_plus_uconst 0x50]
    2824                            .dwattr $C$DW$262, DW_AT_accessibility(DW_ACCESS_public)
    2825                            .dwattr $C$DW$262, DW_AT_decl_file("C:/ti/pdk_OMAPL138_1_01_00_02/packages/ti/csl/cslr_psc_OMA
    2826                            .dwattr $C$DW$262, DW_AT_decl_line(0x81)
    2827                            .dwattr $C$DW$262, DW_AT_decl_column(0x15)
    2828                    
    2829                    $C$DW$263       .dwtag  DW_TAG_member
    2830                            .dwattr $C$DW$263, DW_AT_type(*$C$DW$T$185)
    2831                            .dwattr $C$DW$263, DW_AT_name("RSVD3")
    2832                            .dwattr $C$DW$263, DW_AT_TI_symbol_name("RSVD3")
    2833                            .dwattr $C$DW$263, DW_AT_data_member_location[DW_OP_plus_uconst 0x54]
    2834                            .dwattr $C$DW$263, DW_AT_accessibility(DW_ACCESS_public)
    2835                            .dwattr $C$DW$263, DW_AT_decl_file("C:/ti/pdk_OMAPL138_1_01_00_02/packages/ti/csl/cslr_psc_OMA
    2836                            .dwattr $C$DW$263, DW_AT_decl_line(0x82)
    2837                            .dwattr $C$DW$263, DW_AT_decl_column(0x14)
    2838                    
    2839                    $C$DW$264       .dwtag  DW_TAG_member
    2840                            .dwattr $C$DW$264, DW_AT_type(*$C$DW$T$154)
    2841                            .dwattr $C$DW$264, DW_AT_name("PERRPR")
    2842                            .dwattr $C$DW$264, DW_AT_TI_symbol_name("PERRPR")
    2843                            .dwattr $C$DW$264, DW_AT_data_member_location[DW_OP_plus_uconst 0x60]
    2844                            .dwattr $C$DW$264, DW_AT_accessibility(DW_ACCESS_public)
    2845                            .dwattr $C$DW$264, DW_AT_decl_file("C:/ti/pdk_OMAPL138_1_01_00_02/packages/ti/csl/cslr_psc_OMA
    2846                            .dwattr $C$DW$264, DW_AT_decl_line(0x83)
    2847                            .dwattr $C$DW$264, DW_AT_decl_column(0x15)
    2848                    
    2849                    $C$DW$265       .dwtag  DW_TAG_member
    2850                            .dwattr $C$DW$265, DW_AT_type(*$C$DW$T$160)
    2851                            .dwattr $C$DW$265, DW_AT_name("RSVD4")
    2852                            .dwattr $C$DW$265, DW_AT_TI_symbol_name("RSVD4")
    2853                            .dwattr $C$DW$265, DW_AT_data_member_location[DW_OP_plus_uconst 0x64]
    2854                            .dwattr $C$DW$265, DW_AT_accessibility(DW_ACCESS_public)
    2855                            .dwattr $C$DW$265, DW_AT_decl_file("C:/ti/pdk_OMAPL138_1_01_00_02/packages/ti/csl/cslr_psc_OMA
    2856                            .dwattr $C$DW$265, DW_AT_decl_line(0x84)
    2857                            .dwattr $C$DW$265, DW_AT_decl_column(0x14)
    2858                    
    2859                    $C$DW$266       .dwtag  DW_TAG_member
    2860                            .dwattr $C$DW$266, DW_AT_type(*$C$DW$T$154)
TMS320C6x Assembler PC v8.1.3 Fri Apr 14 08:40:30 2017

Tools Copyright (c) 1996-2015 Texas Instruments Incorporated
MicInterface.asm                                                     PAGE   53

    2861                            .dwattr $C$DW$266, DW_AT_name("PERRCR")
    2862                            .dwattr $C$DW$266, DW_AT_TI_symbol_name("PERRCR")
    2863                            .dwattr $C$DW$266, DW_AT_data_member_location[DW_OP_plus_uconst 0x68]
    2864                            .dwattr $C$DW$266, DW_AT_accessibility(DW_ACCESS_public)
    2865                            .dwattr $C$DW$266, DW_AT_decl_file("C:/ti/pdk_OMAPL138_1_01_00_02/packages/ti/csl/cslr_psc_OMA
    2866                            .dwattr $C$DW$266, DW_AT_decl_line(0x85)
    2867                            .dwattr $C$DW$266, DW_AT_decl_column(0x15)
    2868                    
    2869                    $C$DW$267       .dwtag  DW_TAG_member
    2870                            .dwattr $C$DW$267, DW_AT_type(*$C$DW$T$186)
    2871                            .dwattr $C$DW$267, DW_AT_name("RSVD5")
    2872                            .dwattr $C$DW$267, DW_AT_TI_symbol_name("RSVD5")
    2873                            .dwattr $C$DW$267, DW_AT_data_member_location[DW_OP_plus_uconst 0x6c]
    2874                            .dwattr $C$DW$267, DW_AT_accessibility(DW_ACCESS_public)
    2875                            .dwattr $C$DW$267, DW_AT_decl_file("C:/ti/pdk_OMAPL138_1_01_00_02/packages/ti/csl/cslr_psc_OMA
    2876                            .dwattr $C$DW$267, DW_AT_decl_line(0x86)
    2877                            .dwattr $C$DW$267, DW_AT_decl_column(0x14)
    2878                    
    2879                    $C$DW$268       .dwtag  DW_TAG_member
    2880                            .dwattr $C$DW$268, DW_AT_type(*$C$DW$T$154)
    2881                            .dwattr $C$DW$268, DW_AT_name("PTCMD")
    2882                            .dwattr $C$DW$268, DW_AT_TI_symbol_name("PTCMD")
    2883                            .dwattr $C$DW$268, DW_AT_data_member_location[DW_OP_plus_uconst 0x120]
    2884                            .dwattr $C$DW$268, DW_AT_accessibility(DW_ACCESS_public)
    2885                            .dwattr $C$DW$268, DW_AT_decl_file("C:/ti/pdk_OMAPL138_1_01_00_02/packages/ti/csl/cslr_psc_OMA
    2886                            .dwattr $C$DW$268, DW_AT_decl_line(0x87)
    2887                            .dwattr $C$DW$268, DW_AT_decl_column(0x15)
    2888                    
    2889                    $C$DW$269       .dwtag  DW_TAG_member
    2890                            .dwattr $C$DW$269, DW_AT_type(*$C$DW$T$160)
    2891                            .dwattr $C$DW$269, DW_AT_name("RSVD6")
    2892                            .dwattr $C$DW$269, DW_AT_TI_symbol_name("RSVD6")
    2893                            .dwattr $C$DW$269, DW_AT_data_member_location[DW_OP_plus_uconst 0x124]
    2894                            .dwattr $C$DW$269, DW_AT_accessibility(DW_ACCESS_public)
    2895                            .dwattr $C$DW$269, DW_AT_decl_file("C:/ti/pdk_OMAPL138_1_01_00_02/packages/ti/csl/cslr_psc_OMA
    2896                            .dwattr $C$DW$269, DW_AT_decl_line(0x88)
    2897                            .dwattr $C$DW$269, DW_AT_decl_column(0x14)
    2898                    
    2899                    $C$DW$270       .dwtag  DW_TAG_member
    2900                            .dwattr $C$DW$270, DW_AT_type(*$C$DW$T$154)
    2901                            .dwattr $C$DW$270, DW_AT_name("PTSTAT")
    2902                            .dwattr $C$DW$270, DW_AT_TI_symbol_name("PTSTAT")
    2903                            .dwattr $C$DW$270, DW_AT_data_member_location[DW_OP_plus_uconst 0x128]
    2904                            .dwattr $C$DW$270, DW_AT_accessibility(DW_ACCESS_public)
    2905                            .dwattr $C$DW$270, DW_AT_decl_file("C:/ti/pdk_OMAPL138_1_01_00_02/packages/ti/csl/cslr_psc_OMA
    2906                            .dwattr $C$DW$270, DW_AT_decl_line(0x89)
    2907                            .dwattr $C$DW$270, DW_AT_decl_column(0x15)
    2908                    
    2909                    $C$DW$271       .dwtag  DW_TAG_member
    2910                            .dwattr $C$DW$271, DW_AT_type(*$C$DW$T$187)
    2911                            .dwattr $C$DW$271, DW_AT_name("RSVD7")
    2912                            .dwattr $C$DW$271, DW_AT_TI_symbol_name("RSVD7")
    2913                            .dwattr $C$DW$271, DW_AT_data_member_location[DW_OP_plus_uconst 0x12c]
    2914                            .dwattr $C$DW$271, DW_AT_accessibility(DW_ACCESS_public)
    2915                            .dwattr $C$DW$271, DW_AT_decl_file("C:/ti/pdk_OMAPL138_1_01_00_02/packages/ti/csl/cslr_psc_OMA
TMS320C6x Assembler PC v8.1.3 Fri Apr 14 08:40:30 2017

Tools Copyright (c) 1996-2015 Texas Instruments Incorporated
MicInterface.asm                                                     PAGE   54

    2916                            .dwattr $C$DW$271, DW_AT_decl_line(0x8a)
    2917                            .dwattr $C$DW$271, DW_AT_decl_column(0x14)
    2918                    
    2919                    $C$DW$272       .dwtag  DW_TAG_member
    2920                            .dwattr $C$DW$272, DW_AT_type(*$C$DW$T$154)
    2921                            .dwattr $C$DW$272, DW_AT_name("PDSTAT0")
    2922                            .dwattr $C$DW$272, DW_AT_TI_symbol_name("PDSTAT0")
    2923                            .dwattr $C$DW$272, DW_AT_data_member_location[DW_OP_plus_uconst 0x200]
    2924                            .dwattr $C$DW$272, DW_AT_accessibility(DW_ACCESS_public)
    2925                            .dwattr $C$DW$272, DW_AT_decl_file("C:/ti/pdk_OMAPL138_1_01_00_02/packages/ti/csl/cslr_psc_OMA
    2926                            .dwattr $C$DW$272, DW_AT_decl_line(0x8b)
    2927                            .dwattr $C$DW$272, DW_AT_decl_column(0x15)
    2928                    
    2929                    $C$DW$273       .dwtag  DW_TAG_member
    2930                            .dwattr $C$DW$273, DW_AT_type(*$C$DW$T$154)
    2931                            .dwattr $C$DW$273, DW_AT_name("PDSTAT1")
    2932                            .dwattr $C$DW$273, DW_AT_TI_symbol_name("PDSTAT1")
    2933                            .dwattr $C$DW$273, DW_AT_data_member_location[DW_OP_plus_uconst 0x204]
    2934                            .dwattr $C$DW$273, DW_AT_accessibility(DW_ACCESS_public)
    2935                            .dwattr $C$DW$273, DW_AT_decl_file("C:/ti/pdk_OMAPL138_1_01_00_02/packages/ti/csl/cslr_psc_OMA
    2936                            .dwattr $C$DW$273, DW_AT_decl_line(0x8c)
    2937                            .dwattr $C$DW$273, DW_AT_decl_column(0x15)
    2938                    
    2939                    $C$DW$274       .dwtag  DW_TAG_member
    2940                            .dwattr $C$DW$274, DW_AT_type(*$C$DW$T$188)
    2941                            .dwattr $C$DW$274, DW_AT_name("RSVD8")
    2942                            .dwattr $C$DW$274, DW_AT_TI_symbol_name("RSVD8")
    2943                            .dwattr $C$DW$274, DW_AT_data_member_location[DW_OP_plus_uconst 0x208]
    2944                            .dwattr $C$DW$274, DW_AT_accessibility(DW_ACCESS_public)
    2945                            .dwattr $C$DW$274, DW_AT_decl_file("C:/ti/pdk_OMAPL138_1_01_00_02/packages/ti/csl/cslr_psc_OMA
    2946                            .dwattr $C$DW$274, DW_AT_decl_line(0x8d)
    2947                            .dwattr $C$DW$274, DW_AT_decl_column(0x14)
    2948                    
    2949                    $C$DW$275       .dwtag  DW_TAG_member
    2950                            .dwattr $C$DW$275, DW_AT_type(*$C$DW$T$154)
    2951                            .dwattr $C$DW$275, DW_AT_name("PDCTL0")
    2952                            .dwattr $C$DW$275, DW_AT_TI_symbol_name("PDCTL0")
    2953                            .dwattr $C$DW$275, DW_AT_data_member_location[DW_OP_plus_uconst 0x300]
    2954                            .dwattr $C$DW$275, DW_AT_accessibility(DW_ACCESS_public)
    2955                            .dwattr $C$DW$275, DW_AT_decl_file("C:/ti/pdk_OMAPL138_1_01_00_02/packages/ti/csl/cslr_psc_OMA
    2956                            .dwattr $C$DW$275, DW_AT_decl_line(0x8e)
    2957                            .dwattr $C$DW$275, DW_AT_decl_column(0x15)
    2958                    
    2959                    $C$DW$276       .dwtag  DW_TAG_member
    2960                            .dwattr $C$DW$276, DW_AT_type(*$C$DW$T$154)
    2961                            .dwattr $C$DW$276, DW_AT_name("PDCTL1")
    2962                            .dwattr $C$DW$276, DW_AT_TI_symbol_name("PDCTL1")
    2963                            .dwattr $C$DW$276, DW_AT_data_member_location[DW_OP_plus_uconst 0x304]
    2964                            .dwattr $C$DW$276, DW_AT_accessibility(DW_ACCESS_public)
    2965                            .dwattr $C$DW$276, DW_AT_decl_file("C:/ti/pdk_OMAPL138_1_01_00_02/packages/ti/csl/cslr_psc_OMA
    2966                            .dwattr $C$DW$276, DW_AT_decl_line(0x8f)
    2967                            .dwattr $C$DW$276, DW_AT_decl_column(0x15)
    2968                    
    2969                    $C$DW$277       .dwtag  DW_TAG_member
    2970                            .dwattr $C$DW$277, DW_AT_type(*$C$DW$T$188)
TMS320C6x Assembler PC v8.1.3 Fri Apr 14 08:40:30 2017

Tools Copyright (c) 1996-2015 Texas Instruments Incorporated
MicInterface.asm                                                     PAGE   55

    2971                            .dwattr $C$DW$277, DW_AT_name("RSVD9")
    2972                            .dwattr $C$DW$277, DW_AT_TI_symbol_name("RSVD9")
    2973                            .dwattr $C$DW$277, DW_AT_data_member_location[DW_OP_plus_uconst 0x308]
    2974                            .dwattr $C$DW$277, DW_AT_accessibility(DW_ACCESS_public)
    2975                            .dwattr $C$DW$277, DW_AT_decl_file("C:/ti/pdk_OMAPL138_1_01_00_02/packages/ti/csl/cslr_psc_OMA
    2976                            .dwattr $C$DW$277, DW_AT_decl_line(0x90)
    2977                            .dwattr $C$DW$277, DW_AT_decl_column(0x14)
    2978                    
    2979                    $C$DW$278       .dwtag  DW_TAG_member
    2980                            .dwattr $C$DW$278, DW_AT_type(*$C$DW$T$154)
    2981                            .dwattr $C$DW$278, DW_AT_name("PDCFG0")
    2982                            .dwattr $C$DW$278, DW_AT_TI_symbol_name("PDCFG0")
    2983                            .dwattr $C$DW$278, DW_AT_data_member_location[DW_OP_plus_uconst 0x400]
    2984                            .dwattr $C$DW$278, DW_AT_accessibility(DW_ACCESS_public)
    2985                            .dwattr $C$DW$278, DW_AT_decl_file("C:/ti/pdk_OMAPL138_1_01_00_02/packages/ti/csl/cslr_psc_OMA
    2986                            .dwattr $C$DW$278, DW_AT_decl_line(0x91)
    2987                            .dwattr $C$DW$278, DW_AT_decl_column(0x15)
    2988                    
    2989                    $C$DW$279       .dwtag  DW_TAG_member
    2990                            .dwattr $C$DW$279, DW_AT_type(*$C$DW$T$154)
    2991                            .dwattr $C$DW$279, DW_AT_name("PDCFG1")
    2992                            .dwattr $C$DW$279, DW_AT_TI_symbol_name("PDCFG1")
    2993                            .dwattr $C$DW$279, DW_AT_data_member_location[DW_OP_plus_uconst 0x404]
    2994                            .dwattr $C$DW$279, DW_AT_accessibility(DW_ACCESS_public)
    2995                            .dwattr $C$DW$279, DW_AT_decl_file("C:/ti/pdk_OMAPL138_1_01_00_02/packages/ti/csl/cslr_psc_OMA
    2996                            .dwattr $C$DW$279, DW_AT_decl_line(0x92)
    2997                            .dwattr $C$DW$279, DW_AT_decl_column(0x15)
    2998                    
    2999                    $C$DW$280       .dwtag  DW_TAG_member
    3000                            .dwattr $C$DW$280, DW_AT_type(*$C$DW$T$189)
    3001                            .dwattr $C$DW$280, DW_AT_name("RSVD10")
    3002                            .dwattr $C$DW$280, DW_AT_TI_symbol_name("RSVD10")
    3003                            .dwattr $C$DW$280, DW_AT_data_member_location[DW_OP_plus_uconst 0x408]
    3004                            .dwattr $C$DW$280, DW_AT_accessibility(DW_ACCESS_public)
    3005                            .dwattr $C$DW$280, DW_AT_decl_file("C:/ti/pdk_OMAPL138_1_01_00_02/packages/ti/csl/cslr_psc_OMA
    3006                            .dwattr $C$DW$280, DW_AT_decl_line(0x93)
    3007                            .dwattr $C$DW$280, DW_AT_decl_column(0x14)
    3008                    
    3009                    $C$DW$281       .dwtag  DW_TAG_member
    3010                            .dwattr $C$DW$281, DW_AT_type(*$C$DW$T$190)
    3011                            .dwattr $C$DW$281, DW_AT_name("MDSTAT")
    3012                            .dwattr $C$DW$281, DW_AT_TI_symbol_name("MDSTAT")
    3013                            .dwattr $C$DW$281, DW_AT_data_member_location[DW_OP_plus_uconst 0x800]
    3014                            .dwattr $C$DW$281, DW_AT_accessibility(DW_ACCESS_public)
    3015                            .dwattr $C$DW$281, DW_AT_decl_file("C:/ti/pdk_OMAPL138_1_01_00_02/packages/ti/csl/cslr_psc_OMA
    3016                            .dwattr $C$DW$281, DW_AT_decl_line(0x94)
    3017                            .dwattr $C$DW$281, DW_AT_decl_column(0x15)
    3018                    
    3019                    $C$DW$282       .dwtag  DW_TAG_member
    3020                            .dwattr $C$DW$282, DW_AT_type(*$C$DW$T$191)
    3021                            .dwattr $C$DW$282, DW_AT_name("RSVD11")
    3022                            .dwattr $C$DW$282, DW_AT_TI_symbol_name("RSVD11")
    3023                            .dwattr $C$DW$282, DW_AT_data_member_location[DW_OP_plus_uconst 0x880]
    3024                            .dwattr $C$DW$282, DW_AT_accessibility(DW_ACCESS_public)
    3025                            .dwattr $C$DW$282, DW_AT_decl_file("C:/ti/pdk_OMAPL138_1_01_00_02/packages/ti/csl/cslr_psc_OMA
TMS320C6x Assembler PC v8.1.3 Fri Apr 14 08:40:30 2017

Tools Copyright (c) 1996-2015 Texas Instruments Incorporated
MicInterface.asm                                                     PAGE   56

    3026                            .dwattr $C$DW$282, DW_AT_decl_line(0x95)
    3027                            .dwattr $C$DW$282, DW_AT_decl_column(0x14)
    3028                    
    3029                    $C$DW$283       .dwtag  DW_TAG_member
    3030                            .dwattr $C$DW$283, DW_AT_type(*$C$DW$T$190)
    3031                            .dwattr $C$DW$283, DW_AT_name("MDCTL")
