TMS320C6x Assembler PC v8.1.3 Wed Apr 19 22:40:38 2017

Tools Copyright (c) 1996-2015 Texas Instruments Incorporated
AudioTasks.asm                                                       PAGE    1

       1                    ;******************************************************************************
       2                    ;* G3 TMS320C6x C/C++ Codegen                                       PC v8.1.3 *
       3                    ;* Date/Time created: Wed Apr 19 22:40:36 2017                                *
       4                    ;******************************************************************************
       5                            .compiler_opts --abi=eabi --array_alignment=8 --diag_wrap=off --endian=little --hll_source=on 
       6                    
       7                    ;******************************************************************************
       8                    ;* GLOBAL FILE PARAMETERS                                                     *
       9                    ;*                                                                            *
      10                    ;*   Architecture      : TMS320C674x                                          *
      11                    ;*   Optimization      : Enabled at level 3                                   *
      12                    ;*   Optimizing for    : Speed                                                *
      13                    ;*                       Based on options: -o3, no -ms                        *
      14                    ;*   Endian            : Little                                               *
      15                    ;*   Interrupt Thrshld : Disabled                                             *
      16                    ;*   Data Access Model : Far Aggregate Data                                   *
      17                    ;*   Pipelining        : Enabled                                              *
      18                    ;*   Speculate Loads   : Enabled with threshold = 0                           *
      19                    ;*   Memory Aliases    : Presume are aliases (pessimistic)                    *
      20                    ;*   Debug Info        : DWARF Debug                                          *
      21                    ;*                                                                            *
      22                    ;******************************************************************************
      23                    
      24                            .asg    A15, FP
      25                            .asg    B14, DP
      26                            .asg    B15, SP
      27                            .global $bss
      28                    
      29                    
      30                    $C$DW$CU        .dwtag  DW_TAG_compile_unit
      31                            .dwattr $C$DW$CU, DW_AT_name("../AudioTasks.c")
      32                            .dwattr $C$DW$CU, DW_AT_producer("TI G3 TMS320C6x C/C++ Codegen PC v8.1.3 Copyright (c) 1996-2
      33                            .dwattr $C$DW$CU, DW_AT_TI_version(0x01)
      34                            .dwattr $C$DW$CU, DW_AT_comp_dir("C:\Users\Raz Aloni\OneDrive\School\EEL4924\DSP\DSP_Workspace
      35                    
      36                    $C$DW$1 .dwtag  DW_TAG_subprogram
      37                            .dwattr $C$DW$1, DW_AT_name("_nassert")
      38                            .dwattr $C$DW$1, DW_AT_TI_symbol_name("_nassert")
      39                            .dwattr $C$DW$1, DW_AT_declaration
      40                            .dwattr $C$DW$1, DW_AT_external
      41                    $C$DW$2 .dwtag  DW_TAG_formal_parameter
      42                            .dwattr $C$DW$2, DW_AT_type(*$C$DW$T$10)
      43                    
      44                            .dwendtag $C$DW$1
      45                    
      46                    
      47                    $C$DW$3 .dwtag  DW_TAG_subprogram
      48                            .dwattr $C$DW$3, DW_AT_name("ti_sysbios_knl_Queue_get__E")
      49                            .dwattr $C$DW$3, DW_AT_TI_symbol_name("ti_sysbios_knl_Queue_get__E")
      50                            .dwattr $C$DW$3, DW_AT_type(*$C$DW$T$260)
      51                            .dwattr $C$DW$3, DW_AT_declaration
      52                            .dwattr $C$DW$3, DW_AT_external
      53                            .dwattr $C$DW$3, DW_AT_decl_file("C:/ti/bios_6_50_00_10/packages/ti/sysbios/knl/Queue.h")
      54                            .dwattr $C$DW$3, DW_AT_decl_line(0x16a)
      55                            .dwattr $C$DW$3, DW_AT_decl_column(0x12)
TMS320C6x Assembler PC v8.1.3 Wed Apr 19 22:40:38 2017

Tools Copyright (c) 1996-2015 Texas Instruments Incorporated
AudioTasks.asm                                                       PAGE    2

      56                    $C$DW$4 .dwtag  DW_TAG_formal_parameter
      57                            .dwattr $C$DW$4, DW_AT_type(*$C$DW$T$454)
      58                    
      59                            .dwendtag $C$DW$3
      60                    
      61                    
      62                    $C$DW$5 .dwtag  DW_TAG_subprogram
      63                            .dwattr $C$DW$5, DW_AT_name("ti_sysbios_knl_Semaphore_pend__E")
      64                            .dwattr $C$DW$5, DW_AT_TI_symbol_name("ti_sysbios_knl_Semaphore_pend__E")
      65                            .dwattr $C$DW$5, DW_AT_type(*$C$DW$T$151)
      66                            .dwattr $C$DW$5, DW_AT_declaration
      67                            .dwattr $C$DW$5, DW_AT_external
      68                            .dwattr $C$DW$5, DW_AT_decl_file("C:/ti/bios_6_50_00_10/packages/ti/sysbios/knl/Semaphore.h")
      69                            .dwattr $C$DW$5, DW_AT_decl_line(0x1dc)
      70                            .dwattr $C$DW$5, DW_AT_decl_column(0x13)
      71                    $C$DW$6 .dwtag  DW_TAG_formal_parameter
      72                            .dwattr $C$DW$6, DW_AT_type(*$C$DW$T$1054)
      73                    
      74                    $C$DW$7 .dwtag  DW_TAG_formal_parameter
      75                            .dwattr $C$DW$7, DW_AT_type(*$C$DW$T$171)
      76                    
      77                            .dwendtag $C$DW$5
      78                    
      79                    
      80                    $C$DW$8 .dwtag  DW_TAG_subprogram
      81                            .dwattr $C$DW$8, DW_AT_name("DSPF_sp_vecmul")
      82                            .dwattr $C$DW$8, DW_AT_TI_symbol_name("DSPF_sp_vecmul")
      83                            .dwattr $C$DW$8, DW_AT_declaration
      84                            .dwattr $C$DW$8, DW_AT_external
      85                            .dwattr $C$DW$8, DW_AT_decl_file("C:/ti/dsplib_c674x_3_4_0_0/packages/ti/dsplib/src/DSPF_sp_ve
      86                            .dwattr $C$DW$8, DW_AT_decl_line(0x50)
      87                            .dwattr $C$DW$8, DW_AT_decl_column(0x06)
      88                    $C$DW$9 .dwtag  DW_TAG_formal_parameter
      89                            .dwattr $C$DW$9, DW_AT_type(*$C$DW$T$840)
      90                    
      91                    $C$DW$10        .dwtag  DW_TAG_formal_parameter
      92                            .dwattr $C$DW$10, DW_AT_type(*$C$DW$T$840)
      93                    
      94                    $C$DW$11        .dwtag  DW_TAG_formal_parameter
      95                            .dwattr $C$DW$11, DW_AT_type(*$C$DW$T$842)
      96                    
      97                    $C$DW$12        .dwtag  DW_TAG_formal_parameter
      98                            .dwattr $C$DW$12, DW_AT_type(*$C$DW$T$843)
      99                    
     100                            .dwendtag $C$DW$8
     101                    
     102                    
     103                    $C$DW$13        .dwtag  DW_TAG_subprogram
     104                            .dwattr $C$DW$13, DW_AT_name("AudioTxActivate")
     105                            .dwattr $C$DW$13, DW_AT_TI_symbol_name("AudioTxActivate")
     106                            .dwattr $C$DW$13, DW_AT_declaration
     107                            .dwattr $C$DW$13, DW_AT_external
     108                            .dwattr $C$DW$13, DW_AT_decl_file("C:/Users/Raz Aloni/OneDrive/School/EEL4924/DSP/C_Libs/Audio
     109                            .dwattr $C$DW$13, DW_AT_decl_line(0x5b)
     110                            .dwattr $C$DW$13, DW_AT_decl_column(0x06)
TMS320C6x Assembler PC v8.1.3 Wed Apr 19 22:40:38 2017

Tools Copyright (c) 1996-2015 Texas Instruments Incorporated
AudioTasks.asm                                                       PAGE    3

     111                    $C$DW$14        .dwtag  DW_TAG_formal_parameter
     112                            .dwattr $C$DW$14, DW_AT_type(*$C$DW$T$172)
     113                    
     114                            .dwendtag $C$DW$13
     115                    
     116                    
     117                    $C$DW$15        .dwtag  DW_TAG_subprogram
     118                            .dwattr $C$DW$15, DW_AT_name("MicInterfaceWriteLed")
     119                            .dwattr $C$DW$15, DW_AT_TI_symbol_name("MicInterfaceWriteLed")
     120                            .dwattr $C$DW$15, DW_AT_declaration
     121                            .dwattr $C$DW$15, DW_AT_external
     122                            .dwattr $C$DW$15, DW_AT_decl_file("C:/Users/Raz Aloni/OneDrive/School/EEL4924/DSP/C_Libs/MicCh
     123                            .dwattr $C$DW$15, DW_AT_decl_line(0x46)
     124                            .dwattr $C$DW$15, DW_AT_decl_column(0x0d)
     125                    $C$DW$16        .dwtag  DW_TAG_formal_parameter
     126                            .dwattr $C$DW$16, DW_AT_type(*$C$DW$T$672)
     127                    
     128                            .dwendtag $C$DW$15
     129                    
     130                    
     131                    $C$DW$17        .dwtag  DW_TAG_subprogram
     132                            .dwattr $C$DW$17, DW_AT_name("RazFFTInit")
     133                            .dwattr $C$DW$17, DW_AT_TI_symbol_name("RazFFTInit")
     134                            .dwattr $C$DW$17, DW_AT_type(*$C$DW$T$152)
     135                            .dwattr $C$DW$17, DW_AT_declaration
     136                            .dwattr $C$DW$17, DW_AT_external
     137                            .dwattr $C$DW$17, DW_AT_decl_file("C:/Users/Raz Aloni/OneDrive/School/EEL4924/DSP/C_Libs/Vocal
     138                            .dwattr $C$DW$17, DW_AT_decl_line(0x1a)
     139                            .dwattr $C$DW$17, DW_AT_decl_column(0x0d)
     140                    $C$DW$18        .dwtag  DW_TAG_formal_parameter
     141                            .dwattr $C$DW$18, DW_AT_type(*$C$DW$T$1045)
     142                    
     143                            .dwendtag $C$DW$17
     144                    
     145                    
     146                    $C$DW$19        .dwtag  DW_TAG_subprogram
     147                            .dwattr $C$DW$19, DW_AT_name("RazFFT")
     148                            .dwattr $C$DW$19, DW_AT_TI_symbol_name("RazFFT")
     149                            .dwattr $C$DW$19, DW_AT_declaration
     150                            .dwattr $C$DW$19, DW_AT_external
     151                            .dwattr $C$DW$19, DW_AT_decl_file("C:/Users/Raz Aloni/OneDrive/School/EEL4924/DSP/C_Libs/Vocal
     152                            .dwattr $C$DW$19, DW_AT_decl_line(0x21)
     153                            .dwattr $C$DW$19, DW_AT_decl_column(0x0d)
     154                    $C$DW$20        .dwtag  DW_TAG_formal_parameter
     155                            .dwattr $C$DW$20, DW_AT_type(*$C$DW$T$850)
     156                    
     157                    $C$DW$21        .dwtag  DW_TAG_formal_parameter
     158                            .dwattr $C$DW$21, DW_AT_type(*$C$DW$T$850)
     159                    
     160                            .dwendtag $C$DW$19
     161                    
     162                    
     163                    $C$DW$22        .dwtag  DW_TAG_subprogram
     164                            .dwattr $C$DW$22, DW_AT_name("RazIFFT")
     165                            .dwattr $C$DW$22, DW_AT_TI_symbol_name("RazIFFT")
TMS320C6x Assembler PC v8.1.3 Wed Apr 19 22:40:38 2017

Tools Copyright (c) 1996-2015 Texas Instruments Incorporated
AudioTasks.asm                                                       PAGE    4

     166                            .dwattr $C$DW$22, DW_AT_declaration
     167                            .dwattr $C$DW$22, DW_AT_external
     168                            .dwattr $C$DW$22, DW_AT_decl_file("C:/Users/Raz Aloni/OneDrive/School/EEL4924/DSP/C_Libs/Vocal
     169                            .dwattr $C$DW$22, DW_AT_decl_line(0x28)
     170                            .dwattr $C$DW$22, DW_AT_decl_column(0x0d)
     171                    $C$DW$23        .dwtag  DW_TAG_formal_parameter
     172                            .dwattr $C$DW$23, DW_AT_type(*$C$DW$T$850)
     173                    
     174                    $C$DW$24        .dwtag  DW_TAG_formal_parameter
     175                            .dwattr $C$DW$24, DW_AT_type(*$C$DW$T$850)
     176                    
     177                            .dwendtag $C$DW$22
     178                    
     179                    
     180                    $C$DW$25        .dwtag  DW_TAG_subprogram
     181                            .dwattr $C$DW$25, DW_AT_name("RazFFTMagsAndPhases")
     182                            .dwattr $C$DW$25, DW_AT_TI_symbol_name("RazFFTMagsAndPhases")
     183                            .dwattr $C$DW$25, DW_AT_declaration
     184                            .dwattr $C$DW$25, DW_AT_external
     185                            .dwattr $C$DW$25, DW_AT_decl_file("C:/Users/Raz Aloni/OneDrive/School/EEL4924/DSP/C_Libs/Vocal
     186                            .dwattr $C$DW$25, DW_AT_decl_line(0x30)
     187                            .dwattr $C$DW$25, DW_AT_decl_column(0x0d)
     188                    $C$DW$26        .dwtag  DW_TAG_formal_parameter
     189                            .dwattr $C$DW$26, DW_AT_type(*$C$DW$T$850)
     190                    
     191                    $C$DW$27        .dwtag  DW_TAG_formal_parameter
     192                            .dwattr $C$DW$27, DW_AT_type(*$C$DW$T$850)
     193                    
     194                    $C$DW$28        .dwtag  DW_TAG_formal_parameter
     195                            .dwattr $C$DW$28, DW_AT_type(*$C$DW$T$850)
     196                    
     197                            .dwendtag $C$DW$25
     198                    
     199                    
     200                    $C$DW$29        .dwtag  DW_TAG_subprogram
     201                            .dwattr $C$DW$29, DW_AT_name("RazIFFTMagsAndPhases")
     202                            .dwattr $C$DW$29, DW_AT_TI_symbol_name("RazIFFTMagsAndPhases")
     203                            .dwattr $C$DW$29, DW_AT_declaration
     204                            .dwattr $C$DW$29, DW_AT_external
     205                            .dwattr $C$DW$29, DW_AT_decl_file("C:/Users/Raz Aloni/OneDrive/School/EEL4924/DSP/C_Libs/Vocal
     206                            .dwattr $C$DW$29, DW_AT_decl_line(0x38)
     207                            .dwattr $C$DW$29, DW_AT_decl_column(0x0d)
     208                    $C$DW$30        .dwtag  DW_TAG_formal_parameter
     209                            .dwattr $C$DW$30, DW_AT_type(*$C$DW$T$850)
     210                    
     211                    $C$DW$31        .dwtag  DW_TAG_formal_parameter
     212                            .dwattr $C$DW$31, DW_AT_type(*$C$DW$T$850)
     213                    
     214                    $C$DW$32        .dwtag  DW_TAG_formal_parameter
     215                            .dwattr $C$DW$32, DW_AT_type(*$C$DW$T$850)
     216                    
     217                            .dwendtag $C$DW$29
     218                    
     219                    
     220                    $C$DW$33        .dwtag  DW_TAG_subprogram
TMS320C6x Assembler PC v8.1.3 Wed Apr 19 22:40:38 2017

Tools Copyright (c) 1996-2015 Texas Instruments Incorporated
AudioTasks.asm                                                       PAGE    5

     221                            .dwattr $C$DW$33, DW_AT_name("SexyPitchShiftInit")
     222                            .dwattr $C$DW$33, DW_AT_TI_symbol_name("SexyPitchShiftInit")
     223                            .dwattr $C$DW$33, DW_AT_type(*$C$DW$T$152)
     224                            .dwattr $C$DW$33, DW_AT_declaration
     225                            .dwattr $C$DW$33, DW_AT_external
     226                            .dwattr $C$DW$33, DW_AT_decl_file("C:/Users/Raz Aloni/OneDrive/School/EEL4924/DSP/C_Libs/Vocal
     227                            .dwattr $C$DW$33, DW_AT_decl_line(0x1f)
     228                            .dwattr $C$DW$33, DW_AT_decl_column(0x0d)
     229                    $C$DW$34        .dwtag  DW_TAG_formal_parameter
     230                            .dwattr $C$DW$34, DW_AT_type(*$C$DW$T$172)
     231                    
     232                    $C$DW$35        .dwtag  DW_TAG_formal_parameter
     233                            .dwattr $C$DW$35, DW_AT_type(*$C$DW$T$172)
     234                    
     235                            .dwendtag $C$DW$33
     236                    
     237                    
     238                    $C$DW$36        .dwtag  DW_TAG_subprogram
     239                            .dwattr $C$DW$36, DW_AT_name("SexyPitchShifter")
     240                            .dwattr $C$DW$36, DW_AT_TI_symbol_name("SexyPitchShifter")
     241                            .dwattr $C$DW$36, DW_AT_type(*$C$DW$T$152)
     242                            .dwattr $C$DW$36, DW_AT_declaration
     243                            .dwattr $C$DW$36, DW_AT_external
     244                            .dwattr $C$DW$36, DW_AT_decl_file("C:/Users/Raz Aloni/OneDrive/School/EEL4924/DSP/C_Libs/Vocal
     245                            .dwattr $C$DW$36, DW_AT_decl_line(0x29)
     246                            .dwattr $C$DW$36, DW_AT_decl_column(0x0d)
     247                    $C$DW$37        .dwtag  DW_TAG_formal_parameter
     248                            .dwattr $C$DW$37, DW_AT_type(*$C$DW$T$850)
     249                    
     250                    $C$DW$38        .dwtag  DW_TAG_formal_parameter
     251                            .dwattr $C$DW$38, DW_AT_type(*$C$DW$T$850)
     252                    
     253                    $C$DW$39        .dwtag  DW_TAG_formal_parameter
     254                            .dwattr $C$DW$39, DW_AT_type(*$C$DW$T$159)
     255                    
     256                    $C$DW$40        .dwtag  DW_TAG_formal_parameter
     257                            .dwattr $C$DW$40, DW_AT_type(*$C$DW$T$850)
     258                    
     259                            .dwendtag $C$DW$36
     260                    
     261                    
     262                    $C$DW$41        .dwtag  DW_TAG_subprogram
     263                            .dwattr $C$DW$41, DW_AT_name("dywapitch_inittracking")
     264                            .dwattr $C$DW$41, DW_AT_TI_symbol_name("dywapitch_inittracking")
     265                            .dwattr $C$DW$41, DW_AT_declaration
     266                            .dwattr $C$DW$41, DW_AT_external
     267                            .dwattr $C$DW$41, DW_AT_decl_file("C:/Users/Raz Aloni/OneDrive/School/EEL4924/DSP/C_Libs/Vocal
     268                            .dwattr $C$DW$41, DW_AT_decl_line(0x60)
     269                            .dwattr $C$DW$41, DW_AT_decl_column(0x06)
     270                    $C$DW$42        .dwtag  DW_TAG_formal_parameter
     271                            .dwattr $C$DW$42, DW_AT_type(*$C$DW$T$856)
     272                    
     273                            .dwendtag $C$DW$41
     274                    
     275                    
TMS320C6x Assembler PC v8.1.3 Wed Apr 19 22:40:38 2017

Tools Copyright (c) 1996-2015 Texas Instruments Incorporated
AudioTasks.asm                                                       PAGE    6

     276                    $C$DW$43        .dwtag  DW_TAG_subprogram
     277                            .dwattr $C$DW$43, DW_AT_name("dywapitch_computepitch")
     278                            .dwattr $C$DW$43, DW_AT_TI_symbol_name("dywapitch_computepitch")
     279                            .dwattr $C$DW$43, DW_AT_type(*$C$DW$T$16)
     280                            .dwattr $C$DW$43, DW_AT_declaration
     281                            .dwattr $C$DW$43, DW_AT_external
     282                            .dwattr $C$DW$43, DW_AT_decl_file("C:/Users/Raz Aloni/OneDrive/School/EEL4924/DSP/C_Libs/Vocal
     283                            .dwattr $C$DW$43, DW_AT_decl_line(0x67)
     284                            .dwattr $C$DW$43, DW_AT_decl_column(0x07)
     285                    $C$DW$44        .dwtag  DW_TAG_formal_parameter
     286                            .dwattr $C$DW$44, DW_AT_type(*$C$DW$T$856)
     287                    
     288                    $C$DW$45        .dwtag  DW_TAG_formal_parameter
     289                            .dwattr $C$DW$45, DW_AT_type(*$C$DW$T$842)
     290                    
     291                    $C$DW$46        .dwtag  DW_TAG_formal_parameter
     292                            .dwattr $C$DW$46, DW_AT_type(*$C$DW$T$10)
     293                    
     294                    $C$DW$47        .dwtag  DW_TAG_formal_parameter
     295                            .dwattr $C$DW$47, DW_AT_type(*$C$DW$T$10)
     296                    
     297                            .dwendtag $C$DW$43
     298                    
     299                    
     300                    $C$DW$48        .dwtag  DW_TAG_subprogram
     301                            .dwattr $C$DW$48, DW_AT_name("GetNote")
     302                            .dwattr $C$DW$48, DW_AT_TI_symbol_name("GetNote")
     303                            .dwattr $C$DW$48, DW_AT_type(*$C$DW$T$152)
     304                            .dwattr $C$DW$48, DW_AT_declaration
     305                            .dwattr $C$DW$48, DW_AT_external
     306                            .dwattr $C$DW$48, DW_AT_decl_file("C:/Users/Raz Aloni/OneDrive/School/EEL4924/DSP/C_Libs/Vocal
     307                            .dwattr $C$DW$48, DW_AT_decl_line(0x2f)
     308                            .dwattr $C$DW$48, DW_AT_decl_column(0x0d)
     309                    $C$DW$49        .dwtag  DW_TAG_formal_parameter
     310                            .dwattr $C$DW$49, DW_AT_type(*$C$DW$T$159)
     311                    
     312                    $C$DW$50        .dwtag  DW_TAG_formal_parameter
     313                            .dwattr $C$DW$50, DW_AT_type(*$C$DW$T$669)
     314                    
     315                    $C$DW$51        .dwtag  DW_TAG_formal_parameter
     316                            .dwattr $C$DW$51, DW_AT_type(*$C$DW$T$1063)
     317                    
     318                    $C$DW$52        .dwtag  DW_TAG_formal_parameter
     319                            .dwattr $C$DW$52, DW_AT_type(*$C$DW$T$1064)
     320                    
     321                            .dwendtag $C$DW$48
     322                    
     323                    
     324                    $C$DW$53        .dwtag  DW_TAG_subprogram
     325                            .dwattr $C$DW$53, DW_AT_name("CalculateScaleShift")
     326                            .dwattr $C$DW$53, DW_AT_TI_symbol_name("CalculateScaleShift")
     327                            .dwattr $C$DW$53, DW_AT_type(*$C$DW$T$159)
     328                            .dwattr $C$DW$53, DW_AT_declaration
     329                            .dwattr $C$DW$53, DW_AT_external
     330                            .dwattr $C$DW$53, DW_AT_decl_file("C:/Users/Raz Aloni/OneDrive/School/EEL4924/DSP/C_Libs/Vocal
TMS320C6x Assembler PC v8.1.3 Wed Apr 19 22:40:38 2017

Tools Copyright (c) 1996-2015 Texas Instruments Incorporated
AudioTasks.asm                                                       PAGE    7

     331                            .dwattr $C$DW$53, DW_AT_decl_line(0x3b)
     332                            .dwattr $C$DW$53, DW_AT_decl_column(0x0e)
     333                    $C$DW$54        .dwtag  DW_TAG_formal_parameter
     334                            .dwattr $C$DW$54, DW_AT_type(*$C$DW$T$16)
     335                    
     336                    $C$DW$55        .dwtag  DW_TAG_formal_parameter
     337                            .dwattr $C$DW$55, DW_AT_type(*$C$DW$T$162)
     338                    
     339                    $C$DW$56        .dwtag  DW_TAG_formal_parameter
     340                            .dwattr $C$DW$56, DW_AT_type(*$C$DW$T$172)
     341                    
     342                    $C$DW$57        .dwtag  DW_TAG_formal_parameter
     343                            .dwattr $C$DW$57, DW_AT_type(*$C$DW$T$1064)
     344                    
     345                    $C$DW$58        .dwtag  DW_TAG_formal_parameter
     346                            .dwattr $C$DW$58, DW_AT_type(*$C$DW$T$155)
     347                    
     348                    $C$DW$59        .dwtag  DW_TAG_formal_parameter
     349                            .dwattr $C$DW$59, DW_AT_type(*$C$DW$T$162)
     350                    
     351                            .dwendtag $C$DW$53
     352                    
     353                    
     354                    $C$DW$60        .dwtag  DW_TAG_subprogram
     355                            .dwattr $C$DW$60, DW_AT_name("CalculateChordShift")
     356                            .dwattr $C$DW$60, DW_AT_TI_symbol_name("CalculateChordShift")
     357                            .dwattr $C$DW$60, DW_AT_type(*$C$DW$T$159)
     358                            .dwattr $C$DW$60, DW_AT_declaration
     359                            .dwattr $C$DW$60, DW_AT_external
     360                            .dwattr $C$DW$60, DW_AT_decl_file("C:/Users/Raz Aloni/OneDrive/School/EEL4924/DSP/C_Libs/Vocal
     361                            .dwattr $C$DW$60, DW_AT_decl_line(0x47)
     362                            .dwattr $C$DW$60, DW_AT_decl_column(0x0e)
     363                    $C$DW$61        .dwtag  DW_TAG_formal_parameter
     364                            .dwattr $C$DW$61, DW_AT_type(*$C$DW$T$16)
     365                    
     366                    $C$DW$62        .dwtag  DW_TAG_formal_parameter
     367                            .dwattr $C$DW$62, DW_AT_type(*$C$DW$T$162)
     368                    
     369                    $C$DW$63        .dwtag  DW_TAG_formal_parameter
     370                            .dwattr $C$DW$63, DW_AT_type(*$C$DW$T$172)
     371                    
     372                    $C$DW$64        .dwtag  DW_TAG_formal_parameter
     373                            .dwattr $C$DW$64, DW_AT_type(*$C$DW$T$1064)
     374                    
     375                    $C$DW$65        .dwtag  DW_TAG_formal_parameter
     376                            .dwattr $C$DW$65, DW_AT_type(*$C$DW$T$155)
     377                    
     378                    $C$DW$66        .dwtag  DW_TAG_formal_parameter
     379                            .dwattr $C$DW$66, DW_AT_type(*$C$DW$T$162)
     380                    
     381                            .dwendtag $C$DW$60
     382                    
     383                    $C$DW$67        .dwtag  DW_TAG_variable
     384                            .dwattr $C$DW$67, DW_AT_name("AudioRxBufferQueue")
     385                            .dwattr $C$DW$67, DW_AT_TI_symbol_name("AudioRxBufferQueue")
TMS320C6x Assembler PC v8.1.3 Wed Apr 19 22:40:38 2017

Tools Copyright (c) 1996-2015 Texas Instruments Incorporated
AudioTasks.asm                                                       PAGE    8

     386                            .dwattr $C$DW$67, DW_AT_type(*$C$DW$T$1748)
     387                            .dwattr $C$DW$67, DW_AT_declaration
     388                            .dwattr $C$DW$67, DW_AT_external
     389                            .dwattr $C$DW$67, DW_AT_decl_file("C:/Users/Raz Aloni/OneDrive/School/EEL4924/DSP/DSP_Workspac
     390                            .dwattr $C$DW$67, DW_AT_decl_line(0x11)
     391                            .dwattr $C$DW$67, DW_AT_decl_column(0x2a)
     392                    
     393                    $C$DW$68        .dwtag  DW_TAG_variable
     394                            .dwattr $C$DW$68, DW_AT_name("AudioRxQueueSem")
     395                            .dwattr $C$DW$68, DW_AT_TI_symbol_name("AudioRxQueueSem")
     396                            .dwattr $C$DW$68, DW_AT_type(*$C$DW$T$1768)
     397                            .dwattr $C$DW$68, DW_AT_declaration
     398                            .dwattr $C$DW$68, DW_AT_external
     399                            .dwattr $C$DW$68, DW_AT_decl_file("C:/Users/Raz Aloni/OneDrive/School/EEL4924/DSP/DSP_Workspac
     400                            .dwattr $C$DW$68, DW_AT_decl_line(0x14)
     401                            .dwattr $C$DW$68, DW_AT_decl_column(0x2e)
     402                    
     403                    $C$DW$69        .dwtag  DW_TAG_variable
     404                            .dwattr $C$DW$69, DW_AT_name("RXPingPong")
     405                            .dwattr $C$DW$69, DW_AT_TI_symbol_name("RXPingPong")
     406                            .dwattr $C$DW$69, DW_AT_type(*$C$DW$T$1047)
     407                            .dwattr $C$DW$69, DW_AT_declaration
     408                            .dwattr $C$DW$69, DW_AT_external
     409                            .dwattr $C$DW$69, DW_AT_decl_file("C:/Users/Raz Aloni/OneDrive/School/EEL4924/DSP/C_Libs/Audio
     410                            .dwattr $C$DW$69, DW_AT_decl_line(0x48)
     411                            .dwattr $C$DW$69, DW_AT_decl_column(0x0e)
     412                    
     413                    $C$DW$70        .dwtag  DW_TAG_variable
     414                            .dwattr $C$DW$70, DW_AT_name("TXPingPong")
     415                            .dwattr $C$DW$70, DW_AT_TI_symbol_name("TXPingPong")
     416                            .dwattr $C$DW$70, DW_AT_type(*$C$DW$T$1048)
     417                            .dwattr $C$DW$70, DW_AT_declaration
     418                            .dwattr $C$DW$70, DW_AT_external
     419                            .dwattr $C$DW$70, DW_AT_decl_file("C:/Users/Raz Aloni/OneDrive/School/EEL4924/DSP/C_Libs/Audio
     420                            .dwattr $C$DW$70, DW_AT_decl_line(0x49)
     421                            .dwattr $C$DW$70, DW_AT_decl_column(0x0e)
     422                    
     423                    $C$DW$71        .dwtag  DW_TAG_variable
     424                            .dwattr $C$DW$71, DW_AT_name("HammingWindow")
     425                            .dwattr $C$DW$71, DW_AT_TI_symbol_name("HammingWindow")
     426                            .dwattr $C$DW$71, DW_AT_type(*$C$DW$T$1495)
     427                            .dwattr $C$DW$71, DW_AT_declaration
     428                            .dwattr $C$DW$71, DW_AT_external
     429                            .dwattr $C$DW$71, DW_AT_decl_file("C:/Users/Raz Aloni/OneDrive/School/EEL4924/DSP/C_Libs/Vocal
     430                            .dwattr $C$DW$71, DW_AT_decl_line(0x07)
     431                            .dwattr $C$DW$71, DW_AT_decl_column(0x14)
     432                    
     433                    $C$DW$72        .dwtag  DW_TAG_variable
     434                            .dwattr $C$DW$72, DW_AT_name("NoteFreqs")
     435                            .dwattr $C$DW$72, DW_AT_TI_symbol_name("NoteFreqs")
     436                            .dwattr $C$DW$72, DW_AT_type(*$C$DW$T$1497)
     437                            .dwattr $C$DW$72, DW_AT_declaration
     438                            .dwattr $C$DW$72, DW_AT_external
     439                            .dwattr $C$DW$72, DW_AT_decl_file("C:/Users/Raz Aloni/OneDrive/School/EEL4924/DSP/C_Libs/Vocal
     440                            .dwattr $C$DW$72, DW_AT_decl_line(0x4b)
TMS320C6x Assembler PC v8.1.3 Wed Apr 19 22:40:38 2017

Tools Copyright (c) 1996-2015 Texas Instruments Incorporated
AudioTasks.asm                                                       PAGE    9

     441                            .dwattr $C$DW$72, DW_AT_decl_column(0x0e)
     442                    
     443                    $C$DW$73        .dwtag  DW_TAG_variable
     444                            .dwattr $C$DW$73, DW_AT_name("Presets")
     445                            .dwattr $C$DW$73, DW_AT_TI_symbol_name("Presets")
     446                            .dwattr $C$DW$73, DW_AT_type(*$C$DW$T$674)
     447                            .dwattr $C$DW$73, DW_AT_declaration
     448                            .dwattr $C$DW$73, DW_AT_external
     449                            .dwattr $C$DW$73, DW_AT_decl_file("C:/Users/Raz Aloni/OneDrive/School/EEL4924/DSP/C_Libs/Vocal
     450                            .dwattr $C$DW$73, DW_AT_decl_line(0x43)
     451                            .dwattr $C$DW$73, DW_AT_decl_column(0x17)
     452                    
     453                    $C$DW$74        .dwtag  DW_TAG_variable
     454                            .dwattr $C$DW$74, DW_AT_name("CurrentPreset")
     455                            .dwattr $C$DW$74, DW_AT_TI_symbol_name("CurrentPreset")
     456                            .dwattr $C$DW$74, DW_AT_type(*$C$DW$T$172)
     457                            .dwattr $C$DW$74, DW_AT_declaration
     458                            .dwattr $C$DW$74, DW_AT_external
     459                            .dwattr $C$DW$74, DW_AT_decl_file("C:/Users/Raz Aloni/OneDrive/School/EEL4924/DSP/C_Libs/Vocal
     460                            .dwattr $C$DW$74, DW_AT_decl_line(0x46)
     461                            .dwattr $C$DW$74, DW_AT_decl_column(0x0f)
     462                    
     463                    $C$DW$75        .dwtag  DW_TAG_variable
     464                            .dwattr $C$DW$75, DW_AT_name("MasterVolume")
     465                            .dwattr $C$DW$75, DW_AT_TI_symbol_name("MasterVolume")
     466                            .dwattr $C$DW$75, DW_AT_type(*$C$DW$T$159)
     467                            .dwattr $C$DW$75, DW_AT_declaration
     468                            .dwattr $C$DW$75, DW_AT_external
     469                            .dwattr $C$DW$75, DW_AT_decl_file("C:/Users/Raz Aloni/OneDrive/School/EEL4924/DSP/C_Libs/Vocal
     470                            .dwattr $C$DW$75, DW_AT_decl_line(0x49)
     471                            .dwattr $C$DW$75, DW_AT_decl_column(0x0e)
     472                    
     473                            .global OutputBuffer
     474                            .farcommon      OutputBuffer,16384,8
     475                    $C$DW$76        .dwtag  DW_TAG_variable
     476                            .dwattr $C$DW$76, DW_AT_name("OutputBuffer")
     477                            .dwattr $C$DW$76, DW_AT_TI_symbol_name("OutputBuffer")
     478                            .dwattr $C$DW$76, DW_AT_location[DW_OP_addr OutputBuffer]
     479                            .dwattr $C$DW$76, DW_AT_type(*$C$DW$T$1498)
     480                            .dwattr $C$DW$76, DW_AT_external
     481                            .dwattr $C$DW$76, DW_AT_decl_file("../AudioTasks.c")
     482                            .dwattr $C$DW$76, DW_AT_decl_line(0x36)
     483                            .dwattr $C$DW$76, DW_AT_decl_column(0x07)
     484                    
     485                            .global ProcessBuffer
     486                            .farcommon      ProcessBuffer,4096,8
     487                    $C$DW$77        .dwtag  DW_TAG_variable
     488                            .dwattr $C$DW$77, DW_AT_name("ProcessBuffer")
     489                            .dwattr $C$DW$77, DW_AT_TI_symbol_name("ProcessBuffer")
     490                            .dwattr $C$DW$77, DW_AT_location[DW_OP_addr ProcessBuffer]
     491                            .dwattr $C$DW$77, DW_AT_type(*$C$DW$T$1499)
     492                            .dwattr $C$DW$77, DW_AT_external
     493                            .dwattr $C$DW$77, DW_AT_decl_file("../AudioTasks.c")
     494                            .dwattr $C$DW$77, DW_AT_decl_line(0x3a)
     495                            .dwattr $C$DW$77, DW_AT_decl_column(0x07)
TMS320C6x Assembler PC v8.1.3 Wed Apr 19 22:40:38 2017

Tools Copyright (c) 1996-2015 Texas Instruments Incorporated
AudioTasks.asm                                                       PAGE   10

     496                    
     497                            .global PitchDetectBuffer
     498                            .farcommon      PitchDetectBuffer,4096,8
     499                    $C$DW$78        .dwtag  DW_TAG_variable
     500                            .dwattr $C$DW$78, DW_AT_name("PitchDetectBuffer")
     501                            .dwattr $C$DW$78, DW_AT_TI_symbol_name("PitchDetectBuffer")
     502                            .dwattr $C$DW$78, DW_AT_location[DW_OP_addr PitchDetectBuffer]
     503                            .dwattr $C$DW$78, DW_AT_type(*$C$DW$T$1499)
     504                            .dwattr $C$DW$78, DW_AT_external
     505                            .dwattr $C$DW$78, DW_AT_decl_file("../AudioTasks.c")
     506                            .dwattr $C$DW$78, DW_AT_decl_line(0x3e)
     507                            .dwattr $C$DW$78, DW_AT_decl_column(0x07)
     508                    
     509                            .global ResultBuffer
     510                            .farcommon      ResultBuffer,4096,8
     511                    $C$DW$79        .dwtag  DW_TAG_variable
     512                            .dwattr $C$DW$79, DW_AT_name("ResultBuffer")
     513                            .dwattr $C$DW$79, DW_AT_TI_symbol_name("ResultBuffer")
     514                            .dwattr $C$DW$79, DW_AT_location[DW_OP_addr ResultBuffer]
     515                            .dwattr $C$DW$79, DW_AT_type(*$C$DW$T$1499)
     516                            .dwattr $C$DW$79, DW_AT_external
     517                            .dwattr $C$DW$79, DW_AT_decl_file("../AudioTasks.c")
     518                            .dwattr $C$DW$79, DW_AT_decl_line(0x42)
     519                            .dwattr $C$DW$79, DW_AT_decl_column(0x07)
     520                    
     521                            .global MagsPhases
     522                            .farcommon      MagsPhases,4096,8
     523                    $C$DW$80        .dwtag  DW_TAG_variable
     524                            .dwattr $C$DW$80, DW_AT_name("MagsPhases")
     525                            .dwattr $C$DW$80, DW_AT_TI_symbol_name("MagsPhases")
     526                            .dwattr $C$DW$80, DW_AT_location[DW_OP_addr MagsPhases]
     527                            .dwattr $C$DW$80, DW_AT_type(*$C$DW$T$1499)
     528                            .dwattr $C$DW$80, DW_AT_external
     529                            .dwattr $C$DW$80, DW_AT_decl_file("../AudioTasks.c")
     530                            .dwattr $C$DW$80, DW_AT_decl_line(0x46)
     531                            .dwattr $C$DW$80, DW_AT_decl_column(0x07)
     532                    
     533                            .global ShiftedFreqsBuffer
     534                            .farcommon      ShiftedFreqsBuffer,4096,8
     535                    $C$DW$81        .dwtag  DW_TAG_variable
     536                            .dwattr $C$DW$81, DW_AT_name("ShiftedFreqsBuffer")
     537                            .dwattr $C$DW$81, DW_AT_TI_symbol_name("ShiftedFreqsBuffer")
     538                            .dwattr $C$DW$81, DW_AT_location[DW_OP_addr ShiftedFreqsBuffer]
     539                            .dwattr $C$DW$81, DW_AT_type(*$C$DW$T$1499)
     540                            .dwattr $C$DW$81, DW_AT_external
     541                            .dwattr $C$DW$81, DW_AT_decl_file("../AudioTasks.c")
     542                            .dwattr $C$DW$81, DW_AT_decl_line(0x4a)
     543                            .dwattr $C$DW$81, DW_AT_decl_column(0x07)
     544                    
     545                            .global PhaseBuffer
     546                            .farcommon      PhaseBuffer,16384,8
     547                    $C$DW$82        .dwtag  DW_TAG_variable
     548                            .dwattr $C$DW$82, DW_AT_name("PhaseBuffer")
     549                            .dwattr $C$DW$82, DW_AT_TI_symbol_name("PhaseBuffer")
     550                            .dwattr $C$DW$82, DW_AT_location[DW_OP_addr PhaseBuffer]
TMS320C6x Assembler PC v8.1.3 Wed Apr 19 22:40:38 2017

Tools Copyright (c) 1996-2015 Texas Instruments Incorporated
AudioTasks.asm                                                       PAGE   11

     551                            .dwattr $C$DW$82, DW_AT_type(*$C$DW$T$1500)
     552                            .dwattr $C$DW$82, DW_AT_external
     553                            .dwattr $C$DW$82, DW_AT_decl_file("../AudioTasks.c")
     554                            .dwattr $C$DW$82, DW_AT_decl_line(0x50)
     555                            .dwattr $C$DW$82, DW_AT_decl_column(0x07)
     556                    
     557                            .nearcommon     FreqDeviation,4,4
     558                    $C$DW$83        .dwtag  DW_TAG_variable
     559                            .dwattr $C$DW$83, DW_AT_name("FreqDeviation")
     560                            .dwattr $C$DW$83, DW_AT_TI_symbol_name("FreqDeviation")
     561                            .dwattr $C$DW$83, DW_AT_type(*$C$DW$T$159)
     562                            .dwattr $C$DW$83, DW_AT_location[DW_OP_addr FreqDeviation]
     563                            .dwattr $C$DW$83, DW_AT_decl_file("../AudioTasks.c")
     564                            .dwattr $C$DW$83, DW_AT_decl_line(0x56)
     565                            .dwattr $C$DW$83, DW_AT_decl_column(0x0e)
     566                    
     567 00000000                   .sect   ".neardata", RW
     568                            .align  1
     569                            .elfsym voiceNum$1,SYM_SIZE(1)
     570 00000000           voiceNum$1:
     571 00000000 00000000          .bits   0,8                     ; voiceNum$1 @ 0
     572                    
     573                    ;       C:\ti\ccsv7\tools\compiler\ti-cgt-c6000_8.1.3\bin\opt6x.exe C:\\Users\\RAZALO~1\\AppData\\Loca
     574 00000000                   .sect   ".text"
     575                            .clink
     576                            .global PhaseReset
     577                    
     578                    $C$DW$84        .dwtag  DW_TAG_subprogram
     579                            .dwattr $C$DW$84, DW_AT_name("PhaseReset")
     580                            .dwattr $C$DW$84, DW_AT_low_pc(PhaseReset)
     581                            .dwattr $C$DW$84, DW_AT_high_pc(0x00)
     582                            .dwattr $C$DW$84, DW_AT_TI_symbol_name("PhaseReset")
     583                            .dwattr $C$DW$84, DW_AT_external
     584                            .dwattr $C$DW$84, DW_AT_TI_begin_file("../AudioTasks.c")
     585                            .dwattr $C$DW$84, DW_AT_TI_begin_line(0xf6)
     586                            .dwattr $C$DW$84, DW_AT_TI_begin_column(0x06)
     587                            .dwattr $C$DW$84, DW_AT_decl_file("../AudioTasks.c")
     588                            .dwattr $C$DW$84, DW_AT_decl_line(0xf6)
     589                            .dwattr $C$DW$84, DW_AT_decl_column(0x06)
     590                            .dwattr $C$DW$84, DW_AT_TI_max_frame_size(0x00)
     591                            .dwpsn  file "../AudioTasks.c",line 247,column 1,is_stmt,address PhaseReset,isa 0
     592                    
     593                            .dwfde $C$DW$CIE, PhaseReset
     594                    $C$DW$85        .dwtag  DW_TAG_variable
     595                            .dwattr $C$DW$85, DW_AT_name("voiceNum")
     596                            .dwattr $C$DW$85, DW_AT_TI_symbol_name("voiceNum$1")
     597                            .dwattr $C$DW$85, DW_AT_type(*$C$DW$T$1030)
     598                            .dwattr $C$DW$85, DW_AT_location[DW_OP_addr voiceNum$1]
     599                    
     600                    
     601                    ;******************************************************************************
     602                    ;* FUNCTION NAME: PhaseReset                                                  *
     603                    ;*                                                                            *
     604                    ;*   Regs Modified     : A3,A4,A5,A6,A7,B4,B5,B6,B7,B8                        *
     605                    ;*   Regs Used         : A3,A4,A5,A6,A7,B3,B4,B5,B6,B7,B8,DP                  *
TMS320C6x Assembler PC v8.1.3 Wed Apr 19 22:40:38 2017

Tools Copyright (c) 1996-2015 Texas Instruments Incorporated
AudioTasks.asm                                                       PAGE   12

     606                    ;*   Local Frame Size  : 0 Args + 0 Auto + 0 Save = 0 byte                    *
     607                    ;******************************************************************************
     608 00000000           PhaseReset:
     609                    ;** --------------------------------------------------------------------------*
     610                            .dwcfi  cfa_offset, 0
     611                            .dwpsn  file "../AudioTasks.c",line 252,column 21,is_stmt,isa 0
     612 00000000 0380001c!            LDBU    .D2T1   *+DP(voiceNum$1),A7 ; [B_D64P] |252| 
     613 00000004 0200002a!            MVKL    .S2     PhaseBuffer,B4    ; [B_Sb674] 
     614 00000008 0280402a             MVK     .S2     0x80,B5           ; [B_Sb674] |252| 
     615 0000000c 0200006a!            MVKH    .S2     PhaseBuffer,B4    ; [B_Sb674] 
     616 00000010 0297c05a             SUB     .L2     B5,2,B5           ; [B_L674] 
     617 00000014 019d8ca0             SHL     .S1     A7,12,A3          ; [A_S674] 
     618 00000018 0200a358             ZERO    .L1     A4                ; [A_L674] 
     619 0000001c 040c907a             ADD     .L2X    B4,A3,B8          ; [B_L674] 
     620                    
     621 00000020 038c907b             ADD     .L2X    B4,A3,B7          ; [B_L674] 
     622 00000024 069403a3  ||         MVC     .S2     B5,ILC            ; [B_Sb674] 
     623 00000028 02800043  ||         ZERO    .D2     B5                ; [B_D64P] 
     624                    
     625                    ;*----------------------------------------------------------------------------*
     626                    ;*   SOFTWARE PIPELINE INFORMATION
     627                    ;*
     628                    ;*      Loop found in file               : ../AudioTasks.c
     629                    ;*      Loop source line                 : 252
     630                    ;*      Loop opening brace source line   : 253
     631                    ;*      Loop closing brace source line   : 255
     632                    ;*      Loop Unroll Multiple             : 8x
     633                    ;*      Known Minimum Trip Count         : 128                    
     634                    ;*      Known Maximum Trip Count         : 128                    
     635                    ;*      Known Max Trip Count Factor      : 128
     636                    ;*      Loop Carried Dependency Bound(^) : 0
     637                    ;*      Unpartitioned Resource Bound     : 2
     638                    ;*      Partitioned Resource Bound(*)    : 2
     639                    ;*      Resource Partition:
     640                    ;*                                A-side   B-side
     641                    ;*      .L units                     0        0     
     642                    ;*      .S units                     0        0     
     643                    ;*      .D units                     2*       2*    
     644                    ;*      .M units                     0        0     
     645                    ;*      .X cross paths               0        0     
     646                    ;*      .T address paths             2        2     
     647                    ;*      Logical  ops (.LS)           0        0     (.L or .S unit)
     648                    ;*      Addition ops (.LSD)          0        0     (.L or .S or .D unit)
     649                    ;*      Bound(.L .S .LS)             0        0     
     650                    ;*      Bound(.L .S .D .LS .LSD)     1        1     
     651                    ;*
     652                    ;*      Searching for software pipeline schedule at ...
     653                    ;*         ii = 2  Schedule found with 2 iterations in parallel
     654                    ;*      Done
     655                    ;*
     656                    ;*      Loop will be splooped
     657                    ;*      Collapsed epilog stages       : 0
     658                    ;*      Collapsed prolog stages       : 0
     659                    ;*      Minimum required memory pad   : 0 bytes
     660                    ;*
TMS320C6x Assembler PC v8.1.3 Wed Apr 19 22:40:38 2017

Tools Copyright (c) 1996-2015 Texas Instruments Incorporated
AudioTasks.asm                                                       PAGE   13

     661                    ;*      Minimum safe trip count       : 1 (after unrolling)
     662                    ;*----------------------------------------------------------------------------*
     663 00000040           $C$L1:    ; PIPED LOOP PROLOG
     664                    
     665 00000040     0ce7             SPLOOPD         2                 ;4 ; [A_L674] (P) 
     666 00000042     1af6  ||         ZERO    .D1     A5                ; [A_D64P] 
     667 00000044     91e1  ||         ADD     .L2X    B4,A3,B6          ; [B_L674] 
     668 00000046     1a77  ||         ZERO    .D2     B4                ; [B_D64P] 
     669 00000048     17af  ||         ADDK    .S2     16,B7             ; [B_Sb674] 
     670 0000004a     740e  ||         MV      .S1X    B8,A3             ; [A_S674] Define a LI twin register
     671                    
     672                    ;** --------------------------------------------------------------------------*
     673 0000004c           $C$L2:    ; PIPED LOOP KERNEL
     674                            .dwpsn  file "../AudioTasks.c",line 254,column 9,is_stmt,isa 0
     675                    
     676 0000004c     2e67             SPMASK                            ; [] 
     677 0000004e     1f2f  ||^        ADDK    .S2     24,B6             ; [B_Sb674] 
     678 00000050 03211059  ||^        ADD     .L1X    8,B8,A6           ; [A_L674] 
     679 00000054 020c9745  ||         STDW    .D1T1   A5:A4,*A3++(32)   ; [A_D64P] |254| (P) <0,0> 
     680 00000058 021c97c6  ||         STDW    .D2T2   B5:B4,*B7++(32)   ; [B_D64P] |254| (P) <0,0> 
     681                    
     682 00000060 02189745             STDW    .D1T1   A5:A4,*A6++(32)   ; [A_D64P] |254| (P) <0,1> 
     683 00000064 021897c6  ||         STDW    .D2T2   B5:B4,*B6++(32)   ; [B_D64P] |254| (P) <0,1> 
     684                    
     685 00000068     1c66             SPKERNEL        0,0               ; [] 
     686                    ;** --------------------------------------------------------------------------*
     687 0000006a           $C$L3:    ; PIPED LOOP EPILOG
     688                            .dwpsn  file "../AudioTasks.c",line 258,column 5,is_stmt,isa 0
     689                    $C$DW$86        .dwtag  DW_TAG_TI_branch
     690                            .dwattr $C$DW$86, DW_AT_low_pc(0x04)
     691                            .dwattr $C$DW$86, DW_AT_TI_return
     692                    
     693                    
     694 0000006a     27b0             ADD     .L1     1,A7,A3           ; [A_L674] |258| 
     695 0000006c 000c0362  ||         RET     .S2     B3                ; [B_Sb674] |259| 
     696                    
     697 00000070 018c6f58             AND     .L1     3,A3,A3           ; [A_L674] |258| 
     698 00000074 0180003c!            STB     .D2T1   A3,*+DP(voiceNum$1) ; [B_D64P] |258| 
     699 00000078 00004000             NOP             3                 ; [A_L674] 
     700                            .dwpsn  file "../AudioTasks.c",line 259,column 1,is_stmt,isa 0
     701                               ; BRANCH OCCURS {B3}              ; [] |259| 
     702                            .dwattr $C$DW$84, DW_AT_TI_end_file("../AudioTasks.c")
     703                            .dwattr $C$DW$84, DW_AT_TI_end_line(0x103)
     704                            .dwattr $C$DW$84, DW_AT_TI_end_column(0x01)
     705                            .dwendentry
     706                            .dwendtag $C$DW$84
     707                    
     708 00000080                   .sect   ".text"
     709                            .clink
     710                            .global MainAudioProcessingTask
     711                    
     712                    $C$DW$87        .dwtag  DW_TAG_subprogram
     713                            .dwattr $C$DW$87, DW_AT_name("MainAudioProcessingTask")
     714                            .dwattr $C$DW$87, DW_AT_low_pc(MainAudioProcessingTask)
     715                            .dwattr $C$DW$87, DW_AT_high_pc(0x00)
TMS320C6x Assembler PC v8.1.3 Wed Apr 19 22:40:38 2017

Tools Copyright (c) 1996-2015 Texas Instruments Incorporated
AudioTasks.asm                                                       PAGE   14

     716                            .dwattr $C$DW$87, DW_AT_TI_symbol_name("MainAudioProcessingTask")
     717                            .dwattr $C$DW$87, DW_AT_external
     718                            .dwattr $C$DW$87, DW_AT_TI_begin_file("../AudioTasks.c")
     719                            .dwattr $C$DW$87, DW_AT_TI_begin_line(0x5f)
     720                            .dwattr $C$DW$87, DW_AT_TI_begin_column(0x06)
     721                            .dwattr $C$DW$87, DW_AT_decl_file("../AudioTasks.c")
     722                            .dwattr $C$DW$87, DW_AT_decl_line(0x5f)
     723                            .dwattr $C$DW$87, DW_AT_decl_column(0x06)
     724                            .dwattr $C$DW$87, DW_AT_TI_max_frame_size(0x70)
     725                            .dwpsn  file "../AudioTasks.c",line 96,column 1,is_stmt,address MainAudioProcessingTask,isa 0
     726                    
     727                            .dwfde $C$DW$CIE, MainAudioProcessingTask
     728                    
     729                    ;******************************************************************************
     730                    ;* FUNCTION NAME: MainAudioProcessingTask                                     *
     731                    ;*                                                                            *
     732                    ;*   Regs Modified     : A0,A1,A2,A3,A4,A5,A6,A7,A8,A9,A10,A11,A12,A13,A14,   *
     733                    ;*                           A15,A16,A17,A18,A19,A20,A21,A22,A23,A24,A25,A26, *
     734                    ;*                           A27,A28,A29,A30,A31,B0,B1,B2,B3,B4,B5,B6,B7,B8,  *
     735                    ;*                           B9,B10,B11,B12,B13,SP,B16,B17,B18,B19,B20,B21,   *
     736                    ;*                           B22,B23,B24,B25,B26,B27,B28,B29,B30,B31          *
     737                    ;*   Regs Used         : A0,A1,A2,A3,A4,A5,A6,A7,A8,A9,A10,A11,A12,A13,A14,   *
     738                    ;*                           A15,A16,A17,A18,A19,A20,A21,A22,A23,A24,A25,A26, *
     739                    ;*                           A27,A28,A29,A30,A31,B0,B1,B2,B3,B4,B5,B6,B7,B8,  *
     740                    ;*                           B9,B10,B11,B12,B13,DP,SP,B16,B17,B18,B19,B20,B21,*
     741                    ;*                           B22,B23,B24,B25,B26,B27,B28,B29,B30,B31          *
     742                    ;*   Local Frame Size  : 0 Args + 52 Auto + 56 Save = 108 byte                *
     743                    ;******************************************************************************
     744                    MainAudioProcessingTask:
     745                    ;** --------------------------------------------------------------------------*
     746                    $C$DW$88        .dwtag  DW_TAG_variable
     747                            .dwattr $C$DW$88, DW_AT_name("OutputWriteIndex")
     748                            .dwattr $C$DW$88, DW_AT_TI_symbol_name("OutputWriteIndex")
     749                            .dwattr $C$DW$88, DW_AT_type(*$C$DW$T$172)
     750                            .dwattr $C$DW$88, DW_AT_location[DW_OP_reg11]
     751                    
     752                    $C$DW$89        .dwtag  DW_TAG_variable
     753                            .dwattr $C$DW$89, DW_AT_name("AudioBuff")
     754                            .dwattr $C$DW$89, DW_AT_TI_symbol_name("AudioBuff")
     755                            .dwattr $C$DW$89, DW_AT_type(*$C$DW$T$679)
     756                            .dwattr $C$DW$89, DW_AT_location[DW_OP_reg4]
     757                    
     758                    $C$DW$90        .dwtag  DW_TAG_variable
     759                            .dwattr $C$DW$90, DW_AT_name("TxBuffPtr")
     760                            .dwattr $C$DW$90, DW_AT_TI_symbol_name("TxBuffPtr")
     761                            .dwattr $C$DW$90, DW_AT_type(*$C$DW$T$172)
     762                            .dwattr $C$DW$90, DW_AT_location[DW_OP_breg31 24]
     763                    
     764                    $C$DW$91        .dwtag  DW_TAG_variable
     765                            .dwattr $C$DW$91, DW_AT_name("detectedPitch")
     766                            .dwattr $C$DW$91, DW_AT_TI_symbol_name("detectedPitch")
     767                            .dwattr $C$DW$91, DW_AT_type(*$C$DW$T$159)
     768                            .dwattr $C$DW$91, DW_AT_location[DW_OP_reg10]
     769                    
     770                    $C$DW$92        .dwtag  DW_TAG_variable
TMS320C6x Assembler PC v8.1.3 Wed Apr 19 22:40:38 2017

Tools Copyright (c) 1996-2015 Texas Instruments Incorporated
AudioTasks.asm                                                       PAGE   15

     771                            .dwattr $C$DW$92, DW_AT_name("preset")
     772                            .dwattr $C$DW$92, DW_AT_TI_symbol_name("preset")
     773                            .dwattr $C$DW$92, DW_AT_type(*$C$DW$T$675)
     774                            .dwattr $C$DW$92, DW_AT_location[DW_OP_reg26]
     775                    
     776                    $C$DW$93        .dwtag  DW_TAG_variable
     777                            .dwattr $C$DW$93, DW_AT_name("closestOctave")
     778                            .dwattr $C$DW$93, DW_AT_TI_symbol_name("closestOctave")
     779                            .dwattr $C$DW$93, DW_AT_type(*$C$DW$T$172)
     780                            .dwattr $C$DW$93, DW_AT_location[DW_OP_breg31 4]
     781                    
     782                    $C$DW$94        .dwtag  DW_TAG_variable
     783                            .dwattr $C$DW$94, DW_AT_name("closestNote")
     784                            .dwattr $C$DW$94, DW_AT_TI_symbol_name("closestNote")
     785                            .dwattr $C$DW$94, DW_AT_type(*$C$DW$T$162)
     786                            .dwattr $C$DW$94, DW_AT_location[DW_OP_breg31 8]
     787                    
     788                    $C$DW$95        .dwtag  DW_TAG_variable
     789                            .dwattr $C$DW$95, DW_AT_name("v")
     790                            .dwattr $C$DW$95, DW_AT_TI_symbol_name("v")
     791                            .dwattr $C$DW$95, DW_AT_type(*$C$DW$T$10)
     792                            .dwattr $C$DW$95, DW_AT_location[DW_OP_reg28]
     793                    
     794                    $C$DW$96        .dwtag  DW_TAG_variable
     795                            .dwattr $C$DW$96, DW_AT_name("pitchShift")
     796                            .dwattr $C$DW$96, DW_AT_TI_symbol_name("pitchShift")
     797                            .dwattr $C$DW$96, DW_AT_type(*$C$DW$T$159)
     798                            .dwattr $C$DW$96, DW_AT_location[DW_OP_reg6]
     799                    
     800                    $C$DW$97        .dwtag  DW_TAG_variable
     801                            .dwattr $C$DW$97, DW_AT_name("i")
     802                            .dwattr $C$DW$97, DW_AT_TI_symbol_name("i")
     803                            .dwattr $C$DW$97, DW_AT_type(*$C$DW$T$10)
     804                            .dwattr $C$DW$97, DW_AT_location[DW_OP_reg5]
     805                    
     806                    $C$DW$98        .dwtag  DW_TAG_variable
     807                            .dwattr $C$DW$98, DW_AT_name("pitchTracker")
     808                            .dwattr $C$DW$98, DW_AT_TI_symbol_name("pitchTracker")
     809                            .dwattr $C$DW$98, DW_AT_type(*$C$DW$T$855)
     810                            .dwattr $C$DW$98, DW_AT_location[DW_OP_breg31 16]
     811                    
     812                            .dwcfi  cfa_offset, 0
     813 00000080     25f7             STW     .D2T1   A11,*SP++(-8)     ; [B_D64P] |96| 
     814                            .dwcfi  cfa_offset, 8
     815                            .dwcfi  save_reg_to_mem, 11, 0
     816 00000082     2577             STW     .D2T1   A10,*SP++(-8)     ; [B_D64P] |96| 
     817                            .dwcfi  cfa_offset, 16
     818                            .dwcfi  save_reg_to_mem, 10, -8
     819 00000084     9677             STDW    .D2T2   B13:B12,*SP++(-8) ; [B_D64P] |96| 
     820                            .dwcfi  cfa_offset, 24
     821                            .dwcfi  save_reg_to_mem, 29, -12
     822                            .dwcfi  save_reg_to_mem, 28, -16
     823 00000086     9577             STDW    .D2T2   B11:B10,*SP++(-8) ; [B_D64P] |96| 
     824                            .dwcfi  cfa_offset, 32
     825                            .dwcfi  save_reg_to_mem, 27, -20
TMS320C6x Assembler PC v8.1.3 Wed Apr 19 22:40:38 2017

Tools Copyright (c) 1996-2015 Texas Instruments Incorporated
AudioTasks.asm                                                       PAGE   16

     826                            .dwcfi  save_reg_to_mem, 26, -24
     827 00000088     8777             STDW    .D2T1   A15:A14,*SP++(-8) ; [B_D64P] |96| 
     828                            .dwcfi  cfa_offset, 40
     829                            .dwcfi  save_reg_to_mem, 15, -28
     830                            .dwcfi  save_reg_to_mem, 14, -32
     831 0000008a     8677             STDW    .D2T1   A13:A12,*SP++(-8) ; [B_D64P] |96| 
     832                            .dwcfi  cfa_offset, 48
     833                            .dwcfi  save_reg_to_mem, 13, -36
     834                            .dwcfi  save_reg_to_mem, 12, -40
     835                    $C$DW$99        .dwtag  DW_TAG_TI_branch
     836                            .dwattr $C$DW$99, DW_AT_low_pc(0x04)
     837                            .dwattr $C$DW$99, DW_AT_name("RazFFTInit")
     838                            .dwattr $C$DW$99, DW_AT_TI_call
     839                    
     840                    
     841 0000008c 01be14f7             STW     .D2T2   B3,*SP++(-64)     ; [B_D64P] |96| 
     842 00000090 10000013! ||         CALLP   .S2     RazFFTInit,B3     ; [B_Sb674] |104| 
     843 00000094 02020029  ||         MVK     .S1     0x400,A4          ; [A_S674] |104| 
     844                    
     845                            .dwcfi  cfa_offset, 112
     846                            .dwcfi  save_reg_to_mem, 19, -48
     847                            .dwpsn  file "../AudioTasks.c",line 104,column 5,is_stmt,isa 0
     848 000000a0           $C$RL0:    ; CALLP OCCURS {RazFFTInit} {0}   ; [] |104| 
     849                            .dwpsn  file "../AudioTasks.c",line 107,column 5,is_stmt,isa 0
     850                    $C$DW$100       .dwtag  DW_TAG_TI_branch
     851                            .dwattr $C$DW$100, DW_AT_low_pc(0x00)
     852                            .dwattr $C$DW$100, DW_AT_name("SexyPitchShiftInit")
     853                            .dwattr $C$DW$100, DW_AT_TI_call
     854                    
     855                    
     856 000000a0 10000013!            CALLP   .S2     SexyPitchShiftInit,B3 ; [B_Sb674] |107| 
     857 000000a8     8627  ||         MVK     .L2     4,B4              ; [B_L674] |107| 
     858 000000a4 02020029  ||         MVK     .S1     0x400,A4          ; [A_S674] |107| 
     859                    
     860 000000aa           $C$RL2:    ; CALLP OCCURS {SexyPitchShiftInit} {0}  ; [] |107| 
     861                            .dwpsn  file "../AudioTasks.c",line 111,column 5,is_stmt,isa 0
     862 000000aa     8637             ADDAW   .D2     SP,4,B4           ; [B_D64P] |111| 
     863 000000ac     0c6e             NOP             1                 ; [A_L674] 
     864                    $C$DW$101       .dwtag  DW_TAG_TI_branch
     865                            .dwattr $C$DW$101, DW_AT_low_pc(0x04)
     866                            .dwattr $C$DW$101, DW_AT_name("dywapitch_inittracking")
     867                            .dwattr $C$DW$101, DW_AT_TI_call
     868                    
     869                    
     870 000000ae     9246             MV      .L1X    B4,A4             ; [A_L674] |111| 
     871 000000b0 10000012! ||         CALLP   .S2     dywapitch_inittracking,B3 ; [B_Sb674] |111| 
     872                    
     873 000000b4           $C$RL4:    ; CALLP OCCURS {dywapitch_inittracking} {0}  ; [] |111| 
     874                            .dwpsn  file "../AudioTasks.c",line 123,column 22,is_stmt,isa 0
     875                    
     876 000000b4 02800029!            MVKL    .S1     OutputBuffer,A5   ; [A_S674] 
     877 000000b8     0627  ||         ZERO    .L2     B4                ; [B_L674] |123| 
     878                    
     879 000000c4 02800069!            MVKH    .S1     OutputBuffer,A5   ; [A_S674] 
     880 000000c0 0300002b! ||         MVKL    .S2     MagsPhases,B6     ; [B_Sb674] 
TMS320C6x Assembler PC v8.1.3 Wed Apr 19 22:40:38 2017

Tools Copyright (c) 1996-2015 Texas Instruments Incorporated
AudioTasks.asm                                                       PAGE   17

     881 000000ba     9dc5  ||         STW     .D2T2   B4,*SP(48)        ; [B_D64P] 
     882 000000c8     06a7  ||         ZERO    .L2     B5                ; [B_L674] |123| 
     883                    
     884 000000d0 0384002a             MVK     .S2     2048,B7           ; [B_Sb674] 
     885 000000cc 01800029! ||         MVKL    .S1     ProcessBuffer,A3  ; [A_S674] 
     886 000000ca     dcd5  ||         STW     .D2T2   B5,*SP(24)        ; [B_D64P] |123| 
     887                    
     888 000000e4     76c7             MV      .L2X    A5,B11            ; [B_L674] 
     889 000000d8 0280006d! ||         LDW     .D2T1   *+DP(AudioRxBufferQueue),A5 ; [B_D64P] 
     890 000000e0 0300006b! ||         MVKH    .S2     MagsPhases,B6     ; [B_Sb674] 
     891 000000d4 01800069! ||         MVKH    .S1     ProcessBuffer,A3  ; [A_S674] 
     892                    
     893                            .dwpsn  file "../AudioTasks.c",line 128,column 9,is_stmt,isa 0
     894                    $C$DW$102       .dwtag  DW_TAG_TI_branch
     895                            .dwattr $C$DW$102, DW_AT_low_pc(0x04)
     896                            .dwattr $C$DW$102, DW_AT_name("ti_sysbios_knl_Semaphore_pend__E")
     897                            .dwattr $C$DW$102, DW_AT_TI_call
     898                    
     899                    
     900 000000ec 0700006c!            LDW     .D2T1   *+DP(AudioRxQueueSem),A14 ; [B_D64P] 
     901 000000e8 00000011! ||         CALL    .S1     ti_sysbios_knl_Semaphore_pend__E ; [A_S674] |128| 
     902 000000e6     93c6  ||         MV      .L1X    B7,A4             ; [A_L674] 
     903                    
     904 000000f0     9340             ADD     .L1X    A4,B6,A4          ; [A_L674] 
     905 000000f2     bdd5  ||         STW     .D2T2   B5,*SP(52)        ; [B_D64P] 
     906                    
     907 000000f4     f1c1             ADD     .L2X    B7,A3,B4          ; [B_L674] 
     908 000000f6     cd45  ||         STW     .D2T1   A4,*SP(40)        ; [B_D64P] 
     909                    
     910 000000f8 06000029!            MVKL    .S1     RXPingPong,A12    ; [A_S674] 
     911 00000100     9d45  ||         STW     .D2T2   B4,*SP(32)        ; [B_D64P] 
     912                    
     913                            .dwpsn  file "../AudioTasks.c",line 123,column 22,is_stmt,isa 0
     914                    
     915 00000102     ed55             STW     .D2T1   A5,*SP(44)        ; [B_D64P] 
     916 00000110 027ca35a  ||         MVK     .L2     -1,B4             ; [B_L674] 
     917 00000108 06000069! ||         MVKH    .S1     RXPingPong,A12    ; [A_S674] 
     918 0000010c 0580a359  ||         ZERO    .L1     A11               ; [A_L674] |123| 
     919 00000104 06800041  ||         ZERO    .D1     A13               ; [A_D64P] |123| 
     920                    
     921                    ;** --------------------------------------------------------------------------*
     922                    ;**   BEGIN LOOP $C$L4
     923                    ;** --------------------------------------------------------------------------*
     924 00000114           $C$L4:    
     925                            .dwpsn  file "../AudioTasks.c",line 128,column 9,is_stmt,isa 0
     926                    
     927 00000114 02380fd9             MV      .L1     A14,A4            ; [A_L674] |128| 
     928 00000118 01880162  ||         ADDKPC  .S2     $C$RL6,B3,0       ; [B_Sb674] |128| 
     929                    
     930 00000120           $C$RL6:    ; CALL OCCURS {ti_sysbios_knl_Semaphore_pend__E} {0}  ; [] |128| 
     931                    ;** --------------------------------------------------------------------------*
     932 00000120     ed4d             LDW     .D2T1   *SP(44),A4        ; [B_D64P] |128| 
     933 00000122     2c6e             NOP             2                 ; [A_L674] 
     934                            .dwpsn  file "../AudioTasks.c",line 129,column 9,is_stmt,isa 0
     935                    $C$DW$103       .dwtag  DW_TAG_TI_branch
TMS320C6x Assembler PC v8.1.3 Wed Apr 19 22:40:38 2017

Tools Copyright (c) 1996-2015 Texas Instruments Incorporated
AudioTasks.asm                                                       PAGE   18

     936                            .dwattr $C$DW$103, DW_AT_low_pc(0x00)
     937                            .dwattr $C$DW$103, DW_AT_name("ti_sysbios_knl_Queue_get__E")
     938                            .dwattr $C$DW$103, DW_AT_TI_call
     939                    
     940 00000124 10000012!            CALLP   .S2     ti_sysbios_knl_Queue_get__E,B3 ; [B_Sb674] |129| 
     941 00000128           $C$RL8:    ; CALLP OCCURS {ti_sysbios_knl_Queue_get__E} {0}  ; [] |129| 
     942 00000128 01904264             LDW     .D1T1   *A4(8),A3         ; [A_D64P] 
     943 0000012c 0200002a!            MVKL    .S2     PitchDetectBuffer,B4 ; [B_Sb674] 
     944 00000130 0200006a!            MVKH    .S2     PitchDetectBuffer,B4 ; [B_Sb674] 
     945                            .dwpsn  file "../AudioTasks.c",line 135,column 24,is_stmt,isa 0
     946 00000134 0f81002a             MVK     .S2     0x200,B31         ; [B_Sb674] |135| 
     947                    
     948 00000138     9670             ADD     .L1X    4,B4,A7           ; [A_L674] 
     949 0000013a     a247  ||         MV      .L2     B4,B5             ; [B_L674] 
     950 00000140 027fe1a3  ||         SUB     .S2     B31,1,B4          ; [B_Sb674] 
     951 00000144 027ffea8  ||         MVK     .S1     -3,A4             ; [A_S674] 
     952                    
     953 00000148     81b0             ADD     .L1     A4,A3,A3          ; [A_L674] 
     954 0000014a     da6f  ||         MVC     .S2     B4,ILC            ; [B_Sb674] 
     955                    
     956                    ;*----------------------------------------------------------------------------*
     957                    ;*   SOFTWARE PIPELINE INFORMATION
     958                    ;*
     959                    ;*      Loop found in file               : ../AudioTasks.c
     960                    ;*      Loop source line                 : 135
     961                    ;*      Loop opening brace source line   : 136
     962                    ;*      Loop closing brace source line   : 141
     963                    ;*      Loop Unroll Multiple             : 2x
     964                    ;*      Known Minimum Trip Count         : 512                    
     965                    ;*      Known Maximum Trip Count         : 512                    
     966                    ;*      Known Max Trip Count Factor      : 512
     967                    ;*      Loop Carried Dependency Bound(^) : 1
     968                    ;*      Unpartitioned Resource Bound     : 4
     969                    ;*      Partitioned Resource Bound(*)    : 4
     970                    ;*      Resource Partition:
     971                    ;*                                A-side   B-side
     972                    ;*      .L units                     1        1     
     973                    ;*      .S units                     2        0     
     974                    ;*      .D units                     4*       3     
     975                    ;*      .M units                     0        0     
     976                    ;*      .X cross paths               0        1     
     977                    ;*      .T address paths             4        3     
     978                    ;*      Logical  ops (.LS)           0        0     (.L or .S unit)
     979                    ;*      Addition ops (.LSD)          2        0     (.L or .S or .D unit)
     980                    ;*      Bound(.L .S .LS)             2        1     
     981                    ;*      Bound(.L .S .D .LS .LSD)     3        2     
     982                    ;*
     983                    ;*      Searching for software pipeline schedule at ...
     984                    ;*         ii = 4  Schedule found with 4 iterations in parallel
     985                    ;*      Done
     986                    ;*
     987                    ;*      Loop will be splooped
     988                    ;*      Collapsed epilog stages       : 0
     989                    ;*      Collapsed prolog stages       : 0
     990                    ;*      Minimum required memory pad   : 0 bytes
TMS320C6x Assembler PC v8.1.3 Wed Apr 19 22:40:38 2017

Tools Copyright (c) 1996-2015 Texas Instruments Incorporated
AudioTasks.asm                                                       PAGE   19

     991                    ;*
     992                    ;*      Minimum safe trip count       : 1 (after unrolling)
     993                    ;*----------------------------------------------------------------------------*
     994 0000014c           $C$L5:    ; PIPED LOOP PROLOG
     995                    
     996 0000014c 0183a001             SPLOOPD         4                 ;16 ; [A_L674] (P) 
     997 00000150 048fb308  ||         EXTU    .S1     A3,29,19,A9       ; [A_S674] 
     998                    
     999                    ;** --------------------------------------------------------------------------*
    1000 00000154           $C$L6:    ; PIPED LOOP KERNEL
    1001                            .dwpsn  file "../AudioTasks.c",line 138,column 13,is_stmt,isa 0
    1002 00000154 01a48058             ADD     .L1     4,A9,A3           ; [A_L674] |138| (P) <0,0>  ^ 
    1003                    
    1004 00000158 00070001             SPMASK                            ; [] 
    1005 00000160 04300fd9  ||^        MV      .L1     A12,A8            ; [A_L674] 
    1006 00000164 018e7408  ||         EXTU    .S1     A3,19,20,A3       ; [A_S674] |138| (P) <0,1> 
    1007                    
    1008 00000168 02267409             EXTU    .S1     A9,19,20,A4       ; [A_S674] |138| (P) <0,2>  ^ 
    1009 0000016c 01a06a44  ||         LDH     .D1T1   *+A8[A3],A3       ; [A_D64P] |138| (P) <0,2> 
    1010                    
    1011                            .dwpsn  file "../AudioTasks.c",line 135,column 24,is_stmt,isa 0
    1012                    
    1013 00000170 04a501a1             ADD     .S1     8,A9,A9           ; [A_S674] |135| (P) <0,3>  ^ 
    1014 00000174 01a08a44  ||         LDH     .D1T1   *+A8[A4],A3       ; [A_D64P] |138| (P) <0,3> 
    1015                    
    1016 00000178 00130001             SPMASK                            ; [] 
    1017 0000017c 0f800028! ||^        MVKL    .S1     ProcessBuffer,A31 ; [A_S674] 
    1018                    
    1019 00000180     ac66             SPMASK                            ; [] 
    1020 00000182     bdfd  ||^        LDW     .D2T2   *SP(52),B7        ; [B_D64P] 
    1021                    
    1022 00000184     ac66             SPMASK                            ; [] 
    1023 00000186     9ded  ||^        LDW     .D2T2   *SP(48),B6        ; [B_D64P] 
    1024                    
    1025                            .dwpsn  file "../AudioTasks.c",line 138,column 13,is_stmt,isa 0
    1026 00000188 028c0958             INTSP   .L1     A3,A5             ; [A_L674] |138| (P) <0,7> 
    1027                    
    1028 0000018c 00130001             SPMASK                            ; [] 
    1029 00000190 0f800069! ||^        MVKH    .S1     ProcessBuffer,A31 ; [A_S674] 
    1030 00000194 040c195a  ||         INTSP   .L2X    A3,B8             ; [B_L674] |138| (P) <0,8> 
    1031                    
    1032 00000198 00270001             SPMASK                            ; [] 
    1033 000001a0 0480002b! ||^        MVKL    .S2     ShiftedFreqsBuffer,B9 ; [B_Sb674] 
    1034 000001a4 037c8058  ||^        ADD     .L1     4,A31,A6          ; [A_L674] 
    1035                    
    1036 000001a8 00230001             SPMASK                            ; [] 
    1037 000001ac 0480006a! ||^        MVKH    .S2     ShiftedFreqsBuffer,B9 ; [B_Sb674] 
    1038                    
    1039                            .dwpsn  file "../AudioTasks.c",line 140,column 13,is_stmt,isa 0
    1040                    
    1041 000001b0     2e66             SPMASK                            ; [] 
    1042 000001b2     9f8f  ||^        MV      .S2X    A31,B4            ; [B_Sb674] 
    1043 000001b4 032437c6  ||         STDW    .D2T2   B7:B6,*B9++(8)    ; [B_D64P] |140| (P) <0,11> 
    1044                    
    1045                            .dwpsn  file "../AudioTasks.c",line 138,column 13,is_stmt,isa 0
TMS320C6x Assembler PC v8.1.3 Wed Apr 19 22:40:38 2017

Tools Copyright (c) 1996-2015 Texas Instruments Incorporated
AudioTasks.asm                                                       PAGE   20

    1046                    
    1047 000001b8 041056f7             STW     .D2T2   B8,*B4++(8)       ; [B_D64P] |138| <0,12> 
    1048 000001c0     2dd4  ||         STW     .D1T1   A5,*A7++(8)       ; [A_D64P] |139| <0,12> 
    1049                    
    1050 000001c2     1c66             SPKERNEL        0,0               ; [] 
    1051 000001c8 02985674  ||         STW     .D1T1   A5,*A6++(8)       ; [A_D64P] |138| <0,13> 
    1052 000001c4 041456f7  ||         STW     .D2T2   B8,*B5++(8)       ; [B_D64P] |139| <0,13> 
    1053                    
    1054                    ;** --------------------------------------------------------------------------*
    1055 000001cc           $C$L7:    ; PIPED LOOP EPILOG
    1056 000001cc 06200fd8             MV      .L1     A8,A12            ; [A_L674] 
    1057 000001d0     0c6e             NOP             1                 ; [A_L674] 
    1058 000001d2     9de5             STW     .D2T2   B6,*SP(48)        ; [B_D64P] 
    1059 000001d4     4c6e             NOP             3                 ; [A_L674] 
    1060 000001d6     bdf5             STW     .D2T2   B7,*SP(52)        ; [B_D64P] 
    1061                            .dwpsn  file "../AudioTasks.c",line 144,column 29,is_stmt,isa 0
    1062                    $C$DW$104       .dwtag  DW_TAG_TI_branch
    1063                            .dwattr $C$DW$104, DW_AT_low_pc(0x04)
    1064                            .dwattr $C$DW$104, DW_AT_name("dywapitch_computepitch")
    1065                            .dwattr $C$DW$104, DW_AT_TI_call
    1066                    
    1067                    
    1068 000001d8 0302002b             MVK     .S2     0x400,B6          ; [B_Sb674] |144| 
    1069 000001e0 00000010! ||         CALL    .S1     dywapitch_computepitch ; [A_S674] |144| 
    1070                    
    1071 000001e4 01880162             ADDKPC  .S2     $C$RL10,B3,0      ; [B_Sb674] |144| 
    1072 000001e8 0200002a!            MVKL    .S2     PitchDetectBuffer,B4 ; [B_Sb674] 
    1073                    
    1074 000001ec     0726             ZERO    .L1     A6                ; [A_L674] |144| 
    1075 000001f0 0200006a! ||         MVKH    .S2     PitchDetectBuffer,B4 ; [B_Sb674] 
    1076 000001ee     86b7  ||         ADDAW   .D2     SP,4,B5           ; [B_D64P] |144| 
    1077                    
    1078 000001f4     0c6e             NOP             1                 ; [A_L674] 
    1079 000001f6     92c6             MV      .L1X    B5,A4             ; [A_L674] |144| 
    1080 00000200           $C$RL10:   ; CALL OCCURS {dywapitch_computepitch} {0}  ; [] |144| 
    1081                    ;** --------------------------------------------------------------------------*
    1082                    
    1083 00000200 0200002b!            MVKL    .S2     HammingWindow,B4  ; [B_Sb674] 
    1084 00000204 03000028! ||         MVKL    .S1     ResultBuffer,A6   ; [A_S674] 
    1085                    
    1086 00000208 05100fd9             MV      .L1     A4,A10            ; [A_L674] |144| 
    1087 0000020c 02000029! ||         MVKL    .S1     ProcessBuffer,A4  ; [A_S674] 
    1088 00000210 0302002a  ||         MVK     .S2     0x400,B6          ; [B_Sb674] |147| 
    1089                    
    1090 00000214 0200006b!            MVKH    .S2     HammingWindow,B4  ; [B_Sb674] 
    1091 00000218 03000068! ||         MVKH    .S1     ResultBuffer,A6   ; [A_S674] 
    1092                    
    1093                            .dwpsn  file "../AudioTasks.c",line 147,column 9,is_stmt,isa 0
    1094                    $C$DW$105       .dwtag  DW_TAG_TI_branch
    1095                            .dwattr $C$DW$105, DW_AT_low_pc(0x04)
    1096                            .dwattr $C$DW$105, DW_AT_name("DSPF_sp_vecmul")
    1097                            .dwattr $C$DW$105, DW_AT_TI_call
    1098                    
    1099                    
    1100 0000021c 02000069!            MVKH    .S1     ProcessBuffer,A4  ; [A_S674] 
TMS320C6x Assembler PC v8.1.3 Wed Apr 19 22:40:38 2017

Tools Copyright (c) 1996-2015 Texas Instruments Incorporated
AudioTasks.asm                                                       PAGE   21

    1101 00000220 10000012! ||         CALLP   .S2     DSPF_sp_vecmul,B3 ; [B_Sb674] |147| 
    1102                    
    1103 00000224           $C$RL12:   ; CALLP OCCURS {DSPF_sp_vecmul} {0}  ; [] |147| 
    1104 00000224 01800028!            MVKL    .S1     ProcessBuffer,A3  ; [A_S674] 
    1105 00000228 01800068!            MVKH    .S1     ProcessBuffer,A3  ; [A_S674] 
    1106 0000022c 02000028!            MVKL    .S1     ResultBuffer,A4   ; [A_S674] 
    1107                            .dwpsn  file "../AudioTasks.c",line 150,column 9,is_stmt,isa 0
    1108                    $C$DW$106       .dwtag  DW_TAG_TI_branch
    1109                            .dwattr $C$DW$106, DW_AT_low_pc(0x08)
    1110                            .dwattr $C$DW$106, DW_AT_name("RazFFT")
    1111                            .dwattr $C$DW$106, DW_AT_TI_call
    1112                    
    1113                    
    1114 00000230 020c1fdb             MV      .L2X    A3,B4             ; [B_L674] |150| 
    1115 00000234 02000069! ||         MVKH    .S1     ResultBuffer,A4   ; [A_S674] 
    1116 00000238 10000012! ||         CALLP   .S2     RazFFT,B3         ; [B_Sb674] |150| 
    1117                    
    1118 0000023c           $C$RL14:   ; CALLP OCCURS {RazFFT} {0}       ; [] |150| 
    1119 0000023c 01800028!            MVKL    .S1     MagsPhases,A3     ; [A_S674] 
    1120 00000240 01800068!            MVKH    .S1     MagsPhases,A3     ; [A_S674] 
    1121 00000244 02000028!            MVKL    .S1     ProcessBuffer,A4  ; [A_S674] 
    1122                            .dwpsn  file "../AudioTasks.c",line 155,column 9,is_stmt,isa 0
    1123                    $C$DW$107       .dwtag  DW_TAG_TI_branch
    1124                            .dwattr $C$DW$107, DW_AT_low_pc(0x08)
    1125                            .dwattr $C$DW$107, DW_AT_name("RazFFTMagsAndPhases")
    1126                            .dwattr $C$DW$107, DW_AT_TI_call
    1127                    
    1128                    
    1129 00000248     91c7             MV      .L2X    A3,B4             ; [B_L674] |155| 
    1130 00000250 02000068! ||         MVKH    .S1     ProcessBuffer,A4  ; [A_S674] 
    1131 0000024c 10000013! ||         CALLP   .S2     RazFFTMagsAndPhases,B3 ; [B_Sb674] |155| 
    1132 0000024a     cd6d  ||         LDW     .D2T1   *SP(40),A6        ; [B_D64P] |155| 
    1133                    
    1134 00000254           $C$RL16:   ; CALLP OCCURS {RazFFTMagsAndPhases} {0}  ; [] |155| 
    1135                            .dwpsn  file "../AudioTasks.c",line 157,column 33,is_stmt,isa 0
    1136 00000254 0200006e!            LDW     .D2T2   *+DP(CurrentPreset),B4 ; [B_D64P] |157| 
    1137 00000258 01803628             MVK     .S1     108,A3            ; [A_S674] |157| 
    1138 00000260 0f800028!            MVKL    .S1     Presets,A31       ; [A_S674] 
    1139 00000264 0f800068!            MVKH    .S1     Presets,A31       ; [A_S674] 
    1140                            .dwpsn  file "../AudioTasks.c",line 163,column 9,is_stmt,isa 0
    1141 00000268 033c9058             ADD     .L1X    4,SP,A6           ; [A_L674] |163| 
    1142                            .dwpsn  file "../AudioTasks.c",line 157,column 33,is_stmt,isa 0
    1143 0000026c 02107570             MPYLI   .M1X    A3,B4,A5:A4       ; [A_M674] |157| 
    1144                            .dwpsn  file "../AudioTasks.c",line 163,column 9,is_stmt,isa 0
    1145 00000270 023d005a             ADD     .L2     8,SP,B4           ; [B_L674] |163| 
    1146 00000274 00002000             NOP             2                 ; [A_L674] 
    1147                            .dwpsn  file "../AudioTasks.c",line 157,column 33,is_stmt,isa 0
    1148 00000278 0793e078             ADD     .L1     A31,A4,A15        ; [A_L674] |157| 
    1149                            .dwpsn  file "../AudioTasks.c",line 163,column 9,is_stmt,isa 0
    1150 0000027c 01bf0940             ADD     .D1     A15,24,A3         ; [A_D64P] |163| 
    1151 00000280     8506             MV      .L1     A10,A4            ; [A_L674] |163| 
    1152                    $C$DW$108       .dwtag  DW_TAG_TI_branch
    1153                            .dwattr $C$DW$108, DW_AT_low_pc(0x00)
    1154                            .dwattr $C$DW$108, DW_AT_name("GetNote")
    1155                            .dwattr $C$DW$108, DW_AT_TI_call
TMS320C6x Assembler PC v8.1.3 Wed Apr 19 22:40:38 2017

Tools Copyright (c) 1996-2015 Texas Instruments Incorporated
AudioTasks.asm                                                       PAGE   22

    1156                    
    1157                    
    1158 00000284 10000012!            CALLP   .S2     GetNote,B3        ; [B_Sb674] |163| 
    1159 00000282     d1c7  ||         MV      .L2X    A3,B6             ; [B_L674] |163| 
    1160                    
    1161 00000288           $C$RL18:   ; CALLP OCCURS {GetNote} {0}      ; [] |163| 
    1162                            .dwpsn  file "../AudioTasks.c",line 166,column 9,is_stmt,isa 0
    1163 00000288     dc5d             LDW     .D2T2   *SP(8),B5         ; [B_D64P] |166| 
    1164 0000028a     bc6d             LDW     .D2T2   *SP(4),B6         ; [B_D64P] |166| 
    1165 0000028c 0200002a!            MVKL    .S2     NoteFreqs,B4      ; [B_Sb674] 
    1166 00000290 0200006a!            MVKH    .S2     NoteFreqs,B4      ; [B_Sb674] 
    1167 00000294     8506             MV      .L1     A10,A4            ; [A_L674] |166| 
    1168 00000296     b44d             LDW     .D2T2   *+B4[B5],B4       ; [B_D64P] |166| 
    1169 00000298 0298093a             INTSPU  .L2     B6,B5             ; [B_L674] |166| 
    1170 000002a0 00004000             NOP             3                 ; [A_L674] 
    1171                    $C$DW$109       .dwtag  DW_TAG_TI_branch
    1172                            .dwattr $C$DW$109, DW_AT_low_pc(0x04)
    1173                            .dwattr $C$DW$109, DW_AT_name("__c6xabi_divf")
    1174                            .dwattr $C$DW$109, DW_AT_TI_call
    1175                    
    1176                    
    1177 000002a4 0210ae03             MPYSP   .M2     B5,B4,B4          ; [B_M674] |166| 
    1178 000002a8 10000012! ||         CALLP   .S2     __c6xabi_divf,B3  ; [B_Sb674] |166| 
    1179                    
    1180 000002ac           $C$RL20:   ; CALLP OCCURS {__c6xabi_divf} {0}  ; [] |166| 
    1181 000002ac 06bfd05a             SUB     .L2X    A15,2,B13         ; [B_L674] 
    1182                            .dwpsn  file "../AudioTasks.c",line 135,column 24,is_stmt,isa 0
    1183                    
    1184 000002b0 0600a35b             ZERO    .L2     B12               ; [B_L674] |169| 
    1185 000002b4 053c16a3  ||         MV      .S2X    A15,B10           ; [B_Sb674] |157| 
    1186 000002b8 07820029  ||         MVK     .S1     0x400,A15         ; [A_S674] |135| 
    1187 000002bc 0200007c! ||         STW     .D2T1   A4,*+DP(FreqDeviation) ; [B_D64P] |166| 
    1188                    
    1189                    ;** --------------------------------------------------------------------------*
    1190                    ;**   BEGIN LOOP $C$L8
    1191                    ;** --------------------------------------------------------------------------*
    1192 000002c0           $C$L8:    
    1193                            .dwpsn  file "../AudioTasks.c",line 171,column 13,is_stmt,isa 0
    1194 000002c0 00343286             LDHU    .D2T2   *++B13(2),B0      ; [B_D64P] |171| 
    1195                            .dwpsn  file "../AudioTasks.c",line 175,column 17,is_stmt,isa 0
    1196 000002c4     8a33             MVK     .S2     44,B4             ; [B_Sb674] |175| 
    1197 000002c6     4c6e             NOP             3                 ; [A_L674] 
    1198                            .dwpsn  file "../AudioTasks.c",line 171,column 13,is_stmt,isa 0
    1199                    
    1200 000002c8     4047             MV      .L2     B0,B2             ; [B_L674] branch predicate copy
    1201 000002cc 30002a91  || [!B0]   B       .S1     $C$L14            ; [A_S674] |171| 
    1202 000002ca     204f  ||         MV      .S2     B0,B1             ; [B_Sb674] guard predicate rewrite
    1203 000002d0 20288a86  || [ B0]   LDHU    .D2T2   *+B10[B4],B0      ; [B_D64P] |175| 
    1204                    
    1205 000002d4 4480002b!    [ B1]   MVKL    .S2     PhaseBuffer,B9    ; [B_Sb674] 
    1206 000002d8 42a99c43  || [ B1]   ADDAW   .D2     B10,B12,B5        ; [B_D64P] 
    1207 000002e0 5000a35a  || [!B1]   ZERO    .L2     B0                ; [B_L674] nullify predicate
    1208                    
    1209                            .dwpsn  file "../AudioTasks.c",line 169,column 24,is_stmt,isa 0
    1210                    
TMS320C6x Assembler PC v8.1.3 Wed Apr 19 22:40:38 2017

Tools Copyright (c) 1996-2015 Texas Instruments Incorporated
AudioTasks.asm                                                       PAGE   23

    1211 000002e4 4480006b!    [ B1]   MVKH    .S2     PhaseBuffer,B9    ; [B_Sb674] 
    1212 000002e8 4f953ec3  || [ B1]   ADDAD   .D2     B5,9,B31          ; [B_D64P] 
    1213 000002ec 7630205a  || [!B2]   ADD     .L2     1,B12,B12         ; [B_L674] |169| 
    1214                    
    1215 000002f0 43318ca3     [ B1]   SHL     .S2     B12,12,B6         ; [B_Sb674] 
    1216 000002f4 4fbce2f6  || [ B1]   STW     .D2T2   B31,*SP(28)       ; [B_D64P] 
    1217                    
    1218                            .dwpsn  file "../AudioTasks.c",line 175,column 17,is_stmt,isa 0
    1219                    
    1220 000002f8 4319207b     [ B1]   ADD     .L2     B9,B6,B6          ; [B_L674] 
    1221 000002fc 423c42e6  || [ B1]   LDW     .D2T2   *SP(8),B4         ; [B_D64P] |175| 
    1222                    
    1223                            .dwpsn  file "../AudioTasks.c",line 169,column 24,is_stmt,isa 0
    1224                    
    1225 00000300 20000a11     [ B0]   B       .S1     $C$L9             ; [A_S674] |175| 
    1226 00000304 703088db  || [!B2]   CMPLT   .L2     B12,4,B0          ; [B_L674] |169| 
    1227 00000308 433d22f6  || [ B1]   STW     .D2T2   B6,*SP(36)        ; [B_D64P] 
    1228                    
    1229                            .dwpsn  file "../AudioTasks.c",line 171,column 13,is_stmt,isa 0
    1230                               ; BRANCHCC OCCURS {$C$L14}        ; [] |171| 
    1231                    ;** --------------------------------------------------------------------------*
    1232 0000030c 04299c42             ADDAW   .D2     B10,B12,B8        ; [B_D64P] 
    1233                            .dwpsn  file "../AudioTasks.c",line 175,column 17,is_stmt,isa 0
    1234 00000310     bc7d             LDW     .D2T2   *SP(4),B7         ; [B_D64P] |175| 
    1235 00000312     4c6e             NOP             3                 ; [A_L674] 
    1236                               ; BRANCHCC OCCURS {$C$L9}         ; [] |175| 
    1237                    ;** --------------------------------------------------------------------------*
    1238                            .dwpsn  file "../AudioTasks.c",line 181,column 21,is_stmt,isa 0
    1239                    $C$DW$110       .dwtag  DW_TAG_TI_branch
    1240                            .dwattr $C$DW$110, DW_AT_low_pc(0x00)
    1241                            .dwattr $C$DW$110, DW_AT_name("CalculateScaleShift")
    1242                            .dwattr $C$DW$110, DW_AT_TI_call
    1243                    
    1244                    
    1245 00000314 00000011!            CALL    .S1     CalculateScaleShift ; [A_S674] |181| 
    1246 00000318 042b02e6  ||         LDW     .D2T2   *B10(96),B8       ; [B_D64P] |181| 
    1247                    
    1248 00000320 041442e4             LDW     .D2T1   *B5(8),A8         ; [B_D64P] |181| 
    1249 00000324 01844162             ADDKPC  .S2     $C$RL22,B3,2      ; [B_Sb674] |181| 
    1250                    
    1251 00000328     d3c6             MV      .L1X    B7,A6             ; [A_L674] |181| 
    1252 0000032c 032b0942  ||         ADD     .D2     B10,24,B6         ; [B_D64P] |181| 
    1253 0000032a     850e  ||         MV      .S1     A10,A4            ; [A_S674] |181| 
    1254                    
    1255 00000330           $C$RL22:   ; CALL OCCURS {CalculateScaleShift} {0}  ; [] |181| 
    1256                    ;** --------------------------------------------------------------------------*
    1257 00000330 00000d10             B       .S1     $C$L10            ; [A_S674] |181| 
    1258                            .dwpsn  file "../AudioTasks.c",line 186,column 17,is_stmt,isa 0
    1259                    $C$DW$111       .dwtag  DW_TAG_TI_branch
    1260                            .dwattr $C$DW$111, DW_AT_low_pc(0x00)
    1261                            .dwattr $C$DW$111, DW_AT_name("SexyPitchShifter")
    1262                            .dwattr $C$DW$111, DW_AT_TI_call
    1263                    
    1264 00000334 00000010!            CALL    .S1     SexyPitchShifter  ; [A_S674] |186| 
    1265                    
TMS320C6x Assembler PC v8.1.3 Wed Apr 19 22:40:38 2017

Tools Copyright (c) 1996-2015 Texas Instruments Incorporated
AudioTasks.asm                                                       PAGE   24

    1266 00000338 01800029!            MVKL    .S1     ProcessBuffer,A3  ; [A_S674] 
    1267 00000340 033d22e6  ||         LDW     .D2T2   *SP(36),B6        ; [B_D64P] |186| 
    1268                    
    1269 00000344 01800068!            MVKH    .S1     ProcessBuffer,A3  ; [A_S674] 
    1270                            .dwpsn  file "../AudioTasks.c",line 181,column 21,is_stmt,isa 0
    1271 00000348     c246             MV      .L1     A4,A6             ; [A_L674] |181| 
    1272                            .dwpsn  file "../AudioTasks.c",line 186,column 17,is_stmt,isa 0
    1273                    
    1274 0000034c 02000028!            MVKL    .S1     MagsPhases,A4     ; [A_S674] 
    1275 0000034a     91c7  ||         MV      .L2X    A3,B4             ; [B_L674] |186| 
    1276                    
    1277                            .dwpsn  file "../AudioTasks.c",line 181,column 21,is_stmt,isa 0
    1278                               ; BRANCH OCCURS {$C$L10}          ; [] |181| 
    1279                    ;** --------------------------------------------------------------------------*
    1280 00000350           $C$L9:    
    1281                            .dwpsn  file "../AudioTasks.c",line 177,column 21,is_stmt,isa 0
    1282                    $C$DW$112       .dwtag  DW_TAG_TI_branch
    1283                            .dwattr $C$DW$112, DW_AT_low_pc(0x00)
    1284                            .dwattr $C$DW$112, DW_AT_name("CalculateChordShift")
    1285                            .dwattr $C$DW$112, DW_AT_TI_call
    1286                    
    1287                    
    1288 00000350 00000011!            CALL    .S1     CalculateChordShift ; [A_S674] |177| 
    1289 00000354 042042e4  ||         LDW     .D2T1   *B8(8),A8         ; [B_D64P] |177| 
    1290                    
    1291 00000358 042b02e6             LDW     .D2T2   *B10(96),B8       ; [B_D64P] |177| 
    1292 00000360 01834162             ADDKPC  .S2     $C$RL24,B3,2      ; [B_Sb674] |177| 
    1293                    
    1294 00000364     d3c6             MV      .L1X    B7,A6             ; [A_L674] |177| 
    1295 00000368 0328dec2  ||         ADDAD   .D2     B10,6,B6          ; [B_D64P] |177| 
    1296 00000366     850e  ||         MV      .S1     A10,A4            ; [A_S674] |177| 
    1297                    
    1298 0000036c           $C$RL24:   ; CALL OCCURS {CalculateChordShift} {0}  ; [] |177| 
    1299                    ;** --------------------------------------------------------------------------*
    1300                            .dwpsn  file "../AudioTasks.c",line 186,column 17,is_stmt,isa 0
    1301                    $C$DW$113       .dwtag  DW_TAG_TI_branch
    1302                            .dwattr $C$DW$113, DW_AT_low_pc(0x00)
    1303                            .dwattr $C$DW$113, DW_AT_name("SexyPitchShifter")
    1304                            .dwattr $C$DW$113, DW_AT_TI_call
    1305                    
    1306 0000036c 00000010!            CALL    .S1     SexyPitchShifter  ; [A_S674] |186| 
    1307                    
    1308 00000370 01800029!            MVKL    .S1     ProcessBuffer,A3  ; [A_S674] 
    1309 00000374 033d22e6  ||         LDW     .D2T2   *SP(36),B6        ; [B_D64P] |186| 
    1310                    
    1311 00000378 01800068!            MVKH    .S1     ProcessBuffer,A3  ; [A_S674] 
    1312                            .dwpsn  file "../AudioTasks.c",line 177,column 21,is_stmt,isa 0
    1313 00000380     c246             MV      .L1     A4,A6             ; [A_L674] |177| 
    1314                            .dwpsn  file "../AudioTasks.c",line 186,column 17,is_stmt,isa 0
    1315                    
    1316 00000384 02000028!            MVKL    .S1     MagsPhases,A4     ; [A_S674] 
    1317 00000382     91c7  ||         MV      .L2X    A3,B4             ; [B_L674] |186| 
    1318                    
    1319                    ;** --------------------------------------------------------------------------*
    1320 00000388           $C$L10:    
TMS320C6x Assembler PC v8.1.3 Wed Apr 19 22:40:38 2017

Tools Copyright (c) 1996-2015 Texas Instruments Incorporated
AudioTasks.asm                                                       PAGE   25

    1321                    
    1322 00000388 01840163             ADDKPC  .S2     $C$RL26,B3,0      ; [B_Sb674] |186| 
    1323 0000038c 02000068! ||         MVKH    .S1     MagsPhases,A4     ; [A_S674] 
    1324                    
    1325 00000390           $C$RL26:   ; CALL OCCURS {SexyPitchShifter} {0}  ; [] |186| 
    1326                    ;** --------------------------------------------------------------------------*
    1327 00000390 02000028!            MVKL    .S1     ProcessBuffer,A4  ; [A_S674] 
    1328 00000394 03000028!            MVKL    .S1     ResultBuffer,A6   ; [A_S674] 
    1329 00000398 02000068!            MVKH    .S1     ProcessBuffer,A4  ; [A_S674] 
    1330                            .dwpsn  file "../AudioTasks.c",line 192,column 17,is_stmt,isa 0
    1331                    $C$DW$114       .dwtag  DW_TAG_TI_branch
    1332                            .dwattr $C$DW$114, DW_AT_low_pc(0x08)
    1333                            .dwattr $C$DW$114, DW_AT_name("RazIFFTMagsAndPhases")
    1334                            .dwattr $C$DW$114, DW_AT_TI_call
    1335                    
    1336                    
    1337 000003a0 03000069!            MVKH    .S1     ResultBuffer,A6   ; [A_S674] 
    1338 000003a8     9d4d  ||         LDW     .D2T2   *SP(32),B4        ; [B_D64P] |192| 
    1339 000003a4 10000013! ||         CALLP   .S2     RazIFFTMagsAndPhases,B3 ; [B_Sb674] |192| 
    1340                    
    1341 000003aa           $C$RL28:   ; CALLP OCCURS {RazIFFTMagsAndPhases} {0}  ; [] |192| 
    1342 000003aa     fccd             LDW     .D2T2   *SP(28),B4        ; [B_D64P] 
    1343                            .dwpsn  file "../AudioTasks.c",line 196,column 33,is_stmt,isa 0
    1344 000003ac 0300ff2a             MVK     .S2     510,B6            ; [B_Sb674] |196| 
    1345 000003b0 069803a2             MVC     .S2     B6,ILC            ; [B_Sb674] 
    1346 000003b4 03800028!            MVKL    .S1     ResultBuffer,A7   ; [A_S674] 
    1347 000003b8     0c6e             NOP             1                 ; [A_L674] 
    1348                    ;*----------------------------------------------------------------------------*
    1349                    ;*   SOFTWARE PIPELINE INFORMATION
    1350                    ;*
    1351                    ;*      Loop found in file               : ../AudioTasks.c
    1352                    ;*      Loop source line                 : 196
    1353                    ;*      Loop opening brace source line   : 197
    1354                    ;*      Loop closing brace source line   : 199
    1355                    ;*      Loop Unroll Multiple             : 2x
    1356                    ;*      Known Minimum Trip Count         : 512                    
    1357                    ;*      Known Maximum Trip Count         : 512                    
    1358                    ;*      Known Max Trip Count Factor      : 512
    1359                    ;*      Loop Carried Dependency Bound(^) : 0
    1360                    ;*      Unpartitioned Resource Bound     : 2
    1361                    ;*      Partitioned Resource Bound(*)    : 2
    1362                    ;*      Resource Partition:
    1363                    ;*                                A-side   B-side
    1364                    ;*      .L units                     0        0     
    1365                    ;*      .S units                     0        0     
    1366                    ;*      .D units                     1        2*    
    1367                    ;*      .M units                     2*       0     
    1368                    ;*      .X cross paths               0        2     
    1369                    ;*      .T address paths             1        2     
    1370                    ;*      Logical  ops (.LS)           0        2     (.L or .S unit)
    1371                    ;*      Addition ops (.LSD)          0        0     (.L or .S or .D unit)
    1372                    ;*      Bound(.L .S .LS)             0        1     
    1373                    ;*      Bound(.L .S .D .LS .LSD)     1        2*    
    1374                    ;*
    1375                    ;*      Searching for software pipeline schedule at ...
TMS320C6x Assembler PC v8.1.3 Wed Apr 19 22:40:38 2017

Tools Copyright (c) 1996-2015 Texas Instruments Incorporated
AudioTasks.asm                                                       PAGE   26

    1376                    ;*         ii = 2  Schedule found with 8 iterations in parallel
    1377                    ;*      Done
    1378                    ;*
    1379                    ;*      Loop will be splooped
    1380                    ;*      Collapsed epilog stages       : 0
    1381                    ;*      Collapsed prolog stages       : 0
    1382                    ;*      Minimum required memory pad   : 0 bytes
    1383                    ;*
    1384                    ;*      For further improvement on this loop, try option -mh40
    1385                    ;*
    1386                    ;*      Minimum safe trip count       : 1 (after unrolling)
    1387                    ;*
    1388                    ;*      (Performance) If you know that this loop will always execute at a multiple of <1024> and at le
    1389                    ;*----------------------------------------------------------------------------*
    1390 000003c0           $C$L11:    ; PIPED LOOP PROLOG
    1391                    
    1392 000003c0 0083a001             SPLOOPD         2                 ;16 ; [A_L674] (P) 
    1393 000003c4 03800069! ||         MVKH    .S1     ResultBuffer,A7   ; [A_S674] 
    1394 000003c8 041002e4  ||         LDW     .D2T1   *B4(0),A8         ; [B_D64P] 
    1395                    
    1396                    ;** --------------------------------------------------------------------------*
    1397 000003cc           $C$L12:    ; PIPED LOOP KERNEL
    1398                            .dwpsn  file "../AudioTasks.c",line 198,column 21,is_stmt,isa 0
    1399                    
    1400 000003cc     2e66             SPMASK                            ; [] 
    1401 000003d0 0280002a! ||^        MVKL    .S2     ShiftedFreqsBuffer,B5 ; [B_Sb674] 
    1402 000003ce     0dcc  ||         LDDW    .D1T1   *A7++(8),A5:A4    ; [A_D64P] |198| (P) <0,0> 
    1403                    
    1404 000003d4     0c6e             NOP             1                 ; [A_L674] 
    1405                    
    1406 000003d6     2e66             SPMASK                            ; [] 
    1407 000003d8 0280006a! ||^        MVKH    .S2     ShiftedFreqsBuffer,B5 ; [B_Sb674] 
    1408                    
    1409 000003e0     2ce6             SPMASK                            ; [] 
    1410 000003e2     0ac7  ||^        MV      .L2     B5,B16            ; [B_L674] 
    1411                    
    1412 000003e4 044037e6             LDDW    .D2T2   *B16++(8),B9:B8   ; [B_D64P] |198| (P) <0,4> 
    1413 000003e8 01950e00             MPYSP   .M1     A8,A5,A3          ; [A_M674] |198| (P) <0,5> 
    1414 000003ec 03110e00             MPYSP   .M1     A8,A4,A6          ; [A_M674] |198| (P) <0,6> 
    1415 000003f0 00002000             NOP             2                 ; [A_L674] 
    1416 000003f4 022007b2             ROTL    .M2     B8,0,B4           ; [B_M674] |198| (P) <0,9> Split a long life
    1417 000003f8 038d321a             ADDSP   .L2X    A3,B9,B7          ; [B_L674] |198| (P) <0,10> 
    1418 00000400 0318921a             ADDSP   .L2X    A6,B4,B6          ; [B_L674] |198| (P) <0,11> 
    1419 00000404     2c6e             NOP             2                 ; [A_L674] 
    1420 00000406     0c6e             NOP             1                 ; [A_L674] 
    1421                    
    1422 00000408     dc67             SPKERNEL        7,0               ; [] 
    1423 0000040a     1ce5  ||         STDW    .D2T2   B7:B6,*B5++(8)    ; [B_D64P] |198| <0,15> 
    1424                    
    1425                    ;** --------------------------------------------------------------------------*
    1426 0000040c           $C$L13:    ; PIPED LOOP EPILOG
    1427                    ;** --------------------------------------------------------------------------*
    1428                            .dwpsn  file "../AudioTasks.c",line 169,column 24,is_stmt,isa 0
    1429 0000040c 0630205a             ADD     .L2     1,B12,B12         ; [B_L674] |169| 
    1430 00000410 003088da             CMPLT   .L2     B12,4,B0          ; [B_L674] |169| 
TMS320C6x Assembler PC v8.1.3 Wed Apr 19 22:40:38 2017

Tools Copyright (c) 1996-2015 Texas Instruments Incorporated
AudioTasks.asm                                                       PAGE   27

    1431                    ;** --------------------------------------------------------------------------*
    1432 00000414           $C$L14:    
    1433 00000414 2fffd810     [ B0]   B       .S1     $C$L8             ; [A_S674] |169| 
    1434                            .dwpsn  file "../AudioTasks.c",line 204,column 9,is_stmt,isa 0
    1435                    $C$DW$115       .dwtag  DW_TAG_TI_branch
    1436                            .dwattr $C$DW$115, DW_AT_low_pc(0x00)
    1437                            .dwattr $C$DW$115, DW_AT_name("RazIFFT")
    1438                            .dwattr $C$DW$115, DW_AT_TI_call
    1439                    
    1440 00000418 30000010!    [!B0]   CALL    .S1     RazIFFT           ; [A_S674] |204| 
    1441 00000420 31800028!    [!B0]   MVKL    .S1     ProcessBuffer,A3  ; [A_S674] 
    1442 00000424 3200002a!    [!B0]   MVKL    .S2     ShiftedFreqsBuffer,B4 ; [B_Sb674] 
    1443 00000428 31800068!    [!B0]   MVKH    .S1     ProcessBuffer,A3  ; [A_S674] 
    1444 0000042c 3200006a!    [!B0]   MVKH    .S2     ShiftedFreqsBuffer,B4 ; [B_Sb674] 
    1445                            .dwpsn  file "../AudioTasks.c",line 169,column 24,is_stmt,isa 0
    1446                               ; BRANCHCC OCCURS {$C$L8}         ; [] |169| 
    1447                    ;** --------------------------------------------------------------------------*
    1448                            .dwpsn  file "../AudioTasks.c",line 204,column 9,is_stmt,isa 0
    1449                    
    1450 00000430     9246             MV      .L1X    B4,A4             ; [A_L674] |204| 
    1451 00000432     91c7  ||         MV      .L2X    A3,B4             ; [B_L674] |204| 
    1452 00000434 01860162  ||         ADDKPC  .S2     $C$RL30,B3,0      ; [B_Sb674] |204| 
    1453                    
    1454 00000438           $C$RL30:   ; CALL OCCURS {RazIFFT} {0}       ; [] |204| 
    1455                    ;** --------------------------------------------------------------------------*
    1456 00000438 02000028!            MVKL    .S1     ProcessBuffer,A4  ; [A_S674] 
    1457 00000440 03000028!            MVKL    .S1     ResultBuffer,A6   ; [A_S674] 
    1458 00000444 02000068!            MVKH    .S1     ProcessBuffer,A4  ; [A_S674] 
    1459 00000448 0200002a!            MVKL    .S2     HammingWindow,B4  ; [B_Sb674] 
    1460 0000044c 0200006a!            MVKH    .S2     HammingWindow,B4  ; [B_Sb674] 
    1461                            .dwpsn  file "../AudioTasks.c",line 207,column 9,is_stmt,isa 0
    1462                    $C$DW$116       .dwtag  DW_TAG_TI_branch
    1463                            .dwattr $C$DW$116, DW_AT_low_pc(0x08)
    1464                            .dwattr $C$DW$116, DW_AT_name("DSPF_sp_vecmul")
    1465                            .dwattr $C$DW$116, DW_AT_TI_call
    1466                    
    1467                    
    1468 00000450 03000069!            MVKH    .S1     ResultBuffer,A6   ; [A_S674] 
    1469 00000454 033c1fdb  ||         MV      .L2X    A15,B6            ; [B_L674] |207| 
    1470 00000458 10000012! ||         CALLP   .S2     DSPF_sp_vecmul,B3 ; [B_Sb674] |207| 
    1471                    
    1472 0000045c           $C$RL32:   ; CALLP OCCURS {DSPF_sp_vecmul} {0}  ; [] |207| 
    1473                            .dwpsn  file "../AudioTasks.c",line 211,column 25,is_stmt,isa 0
    1474 0000045c 0282002a             MVK     .S2     0x400,B5          ; [B_Sb674] |211| 
    1475 00000460     eed1             SUB     .L2     B5,1,B5           ; [B_L674] 
    1476                    
    1477 00000462     daef             MVC     .S2     B5,ILC            ; [B_Sb674] 
    1478 00000464 02000028! ||         MVKL    .S1     ResultBuffer,A4   ; [A_S674] 
    1479                    
    1480                    ;*----------------------------------------------------------------------------*
    1481                    ;*   SOFTWARE PIPELINE INFORMATION
    1482                    ;*
    1483                    ;*      Loop found in file               : ../AudioTasks.c
    1484                    ;*      Loop source line                 : 211
    1485                    ;*      Loop opening brace source line   : 212
TMS320C6x Assembler PC v8.1.3 Wed Apr 19 22:40:38 2017

Tools Copyright (c) 1996-2015 Texas Instruments Incorporated
AudioTasks.asm                                                       PAGE   28

    1486                    ;*      Loop closing brace source line   : 214
    1487                    ;*      Known Minimum Trip Count         : 1024                    
    1488                    ;*      Known Maximum Trip Count         : 1024                    
    1489                    ;*      Known Max Trip Count Factor      : 1024
    1490                    ;*      Loop Carried Dependency Bound(^) : 10
    1491                    ;*      Unpartitioned Resource Bound     : 2
    1492                    ;*      Partitioned Resource Bound(*)    : 2
    1493                    ;*      Resource Partition:
    1494                    ;*                                A-side   B-side
    1495                    ;*      .L units                     0        0     
    1496                    ;*      .S units                     0        1     
    1497                    ;*      .D units                     1        2*    
    1498                    ;*      .M units                     1        0     
    1499                    ;*      .X cross paths               1        0     
    1500                    ;*      .T address paths             2        1     
    1501                    ;*      Logical  ops (.LS)           1        0     (.L or .S unit)
    1502                    ;*      Addition ops (.LSD)          0        1     (.L or .S or .D unit)
    1503                    ;*      Bound(.L .S .LS)             1        1     
    1504                    ;*      Bound(.L .S .D .LS .LSD)     1        2*    
    1505                    ;*
    1506                    ;*      Searching for software pipeline schedule at ...
    1507                    ;*         ii = 10 Schedule found with 2 iterations in parallel
    1508                    ;*      Done
    1509                    ;*
    1510                    ;*      Loop will be splooped
    1511                    ;*      Collapsed epilog stages       : 0
    1512                    ;*      Collapsed prolog stages       : 0
    1513                    ;*      Minimum required memory pad   : 0 bytes
    1514                    ;*
    1515                    ;*      For further improvement on this loop, try option -mh20
    1516                    ;*
    1517                    ;*      Minimum safe trip count       : 1
    1518                    ;*
    1519                    ;*      (Performance) If you know that this loop will always execute at a multiple of <2048> and at le
    1520                    ;*----------------------------------------------------------------------------*
    1521 00000468           $C$L15:    ; PIPED LOOP PROLOG
    1522                    
    1523 00000468 0483a001             SPLOOPD         10                ;20 ; [A_L674] (P) 
    1524 0000046c 0280006d! ||         LDW     .D2T1   *+DP(MasterVolume),A5 ; [B_D64P] |211| 
    1525 00000470 02000068! ||         MVKH    .S1     ResultBuffer,A4   ; [A_S674] 
    1526                    
    1527                    ;** --------------------------------------------------------------------------*
    1528 00000474           $C$L16:    ; PIPED LOOP KERNEL
    1529                            .dwpsn  file "../AudioTasks.c",line 213,column 13,is_stmt,isa 0
    1530                    
    1531 00000474     2d66             SPMASK                            ; [] 
    1532 00000478 042c4ca0  ||^        SHL     .S1     A11,2,A8          ; [A_S674] 
    1533 00000476     0c3c  ||         LDW     .D1T1   *A4++(4),A3       ; [A_D64P] |213| (P) <0,0> 
    1534                    
    1535 00000480     0c6e             NOP             1                 ; [A_L674] 
    1536                    
    1537 00000482     2ce6             SPMASK                            ; [] 
    1538 00000484     d407  ||^        MV      .L2X    A8,B6             ; [B_L674] 
    1539                    
    1540 00000486     2ce6             SPMASK                            ; [] 
TMS320C6x Assembler PC v8.1.3 Wed Apr 19 22:40:38 2017

Tools Copyright (c) 1996-2015 Texas Instruments Incorporated
AudioTasks.asm                                                       PAGE   29

    1541 0000048c     a587  ||^        MV      .L2     B11,B5            ; [B_L674] 
    1542 00000488 039a540b  ||         EXTU    .S2     B6,18,20,B7       ; [B_Sb674] |213| (P) <0,3> 
    1543                    
    1544 0000048e     f4cd             LDW     .D2T2   *+B5[B7],B4       ; [B_D64P] |213| (P) <0,4>  ^ 
    1545 00000490 018cae00             MPYSP   .M1     A5,A3,A3          ; [A_M674] |213| (P) <0,5> 
    1546 00000494 00004000             NOP             3                 ; [A_L674] 
    1547 00000498 01907218             ADDSP   .L1X    A3,B4,A3          ; [A_L674] |213| (P) <0,9>  ^ 
    1548 000004a0     2c6e             NOP             2                 ; [A_L674] 
    1549                            .dwpsn  file "../AudioTasks.c",line 211,column 25,is_stmt,isa 0
    1550 000004a2     8761             ADD     .L2     4,B6,B6           ; [B_L674] |211| <0,12> 
    1551                            .dwpsn  file "../AudioTasks.c",line 213,column 13,is_stmt,isa 0
    1552                    
    1553 000004a4     1c66             SPKERNEL        0,0               ; [] 
    1554 000004a6     e4b5  ||         STW     .D2T1   A3,*+B5[B7]       ; [B_D64P] |213| <0,13>  ^ 
    1555                    
    1556                    ;** --------------------------------------------------------------------------*
    1557 000004a8           $C$L17:    ; PIPED LOOP EPILOG
    1558                            .dwpsn  file "../AudioTasks.c",line 218,column 40,is_stmt,isa 0
    1559                    
    1560 000004a8 03340fd9             MV      .L1     A13,A6            ; [A_L674] 
    1561 000004ac 02080029  ||         MVK     .S1     4096,A4           ; [A_S674] 
    1562 000004b0 0200802a  ||         MVK     .S2     0x100,B4          ; [B_Sb674] |218| 
    1563                    
    1564 000004b4     b2ce             MV      .S1X    B5,A5             ; [A_S674] 
    1565 000004b8 03a08078  ||         ADD     .L1     A4,A8,A7          ; [A_L674] 
    1566 000004b6     ce41  ||         SUB     .L2     B4,2,B4           ; [B_L674] 
    1567                    
    1568 000004c0     da6f             MVC     .S2     B4,ILC            ; [B_Sb674] 
    1569 000004c2     0c6e             NOP             1                 ; [A_L674] 
    1570                    ;** --------------------------------------------------------------------------*
    1571                    ;*----------------------------------------------------------------------------*
    1572                    ;*   SOFTWARE PIPELINE INFORMATION
    1573                    ;*
    1574                    ;*      Loop found in file               : ../AudioTasks.c
    1575                    ;*      Loop source line                 : 218
    1576                    ;*      Loop opening brace source line   : 219
    1577                    ;*      Loop closing brace source line   : 221
    1578                    ;*      Loop Unroll Multiple             : 2x
    1579                    ;*      Known Minimum Trip Count         : 256                    
    1580                    ;*      Known Maximum Trip Count         : 256                    
    1581                    ;*      Known Max Trip Count Factor      : 256
    1582                    ;*      Loop Carried Dependency Bound(^) : 1
    1583                    ;*      Unpartitioned Resource Bound     : 1
    1584                    ;*      Partitioned Resource Bound(*)    : 2
    1585                    ;*      Resource Partition:
    1586                    ;*                                A-side   B-side
    1587                    ;*      .L units                     0        0     
    1588                    ;*      .S units                     2*       0     
    1589                    ;*      .D units                     2*       0     
    1590                    ;*      .M units                     0        0     
    1591                    ;*      .X cross paths               0        0     
    1592                    ;*      .T address paths             2        0     
    1593                    ;*      Logical  ops (.LS)           0        0     (.L or .S unit)
    1594                    ;*      Addition ops (.LSD)          2        0     (.L or .S or .D unit)
    1595                    ;*      Bound(.L .S .LS)             1*       0     
TMS320C6x Assembler PC v8.1.3 Wed Apr 19 22:40:38 2017

Tools Copyright (c) 1996-2015 Texas Instruments Incorporated
AudioTasks.asm                                                       PAGE   30

    1596                    ;*      Bound(.L .S .D .LS .LSD)     2*       0     
    1597                    ;*
    1598                    ;*      Searching for software pipeline schedule at ...
    1599                    ;*         ii = 2  Schedule found with 2 iterations in parallel
    1600                    ;*      Done
    1601                    ;*
    1602                    ;*      Loop will be splooped
    1603                    ;*      Collapsed epilog stages       : 0
    1604                    ;*      Collapsed prolog stages       : 0
    1605                    ;*      Minimum required memory pad   : 0 bytes
    1606                    ;*
    1607                    ;*      Minimum safe trip count       : 1 (after unrolling)
    1608                    ;*----------------------------------------------------------------------------*
    1609 000004c4           $C$L18:    ; PIPED LOOP PROLOG
    1610 000004c4 0083a000             SPLOOPD         2                 ;4 ; [A_L674] (P) 
    1611                    ;** --------------------------------------------------------------------------*
    1612 000004c8           $C$L19:    ; PIPED LOOP KERNEL
    1613                            .dwpsn  file "../AudioTasks.c",line 220,column 13,is_stmt,isa 0
    1614                    
    1615 000004c8 021e5409             EXTU    .S1     A7,18,20,A4       ; [A_S674] |220| (P) <0,0>  ^ 
    1616 000004cc     87b0  ||         ADD     .L1     4,A7,A3           ; [A_L674] |220| (P) <0,0>  ^ 
    1617                    
    1618                            .dwpsn  file "../AudioTasks.c",line 218,column 40,is_stmt,isa 0
    1619                    
    1620 000004ce     84e4             STW     .D1T1   A6,*+A5[A4]       ; [A_D64P] |220| (P) <0,1> 
    1621 000004d4     07f0  ||         ADD     .L1     8,A7,A7           ; [A_L674] |218| (P) <0,1>  ^ 
    1622 000004d0 018e5409  ||         EXTU    .S1     A3,18,20,A3       ; [A_S674] |220| (P) <0,1> 
    1623                    
    1624                            .dwpsn  file "../AudioTasks.c",line 220,column 13,is_stmt,isa 0
    1625                    
    1626 000004d6     1c66             SPKERNEL        0,0               ; [] 
    1627 000004d8     64e4  ||         STW     .D1T1   A6,*+A5[A3]       ; [A_D64P] |220| <0,2> 
    1628                    
    1629                    ;** --------------------------------------------------------------------------*
    1630 000004e0           $C$L20:    ; PIPED LOOP EPILOG
    1631                            .dwpsn  file "../AudioTasks.c",line 225,column 25,is_stmt,isa 0
    1632                    
    1633 000004e0     a746             MV      .L1     A6,A13            ; [A_L674] 
    1634 000004e8 0380802a  ||         MVK     .S2     256,B7            ; [B_Sb674] |225| 
    1635 000004e4 01800029! ||         MVKL    .S1     TXPingPong,A3     ; [A_S674] 
    1636 000004e2     dccd  ||         LDW     .D2T2   *SP(24),B4        ; [B_D64P] 
    1637                    
    1638                    ;** --------------------------------------------------------------------------*
    1639 000004ec     2c6e             NOP             2                 ; [A_L674] 
    1640                    ;*----------------------------------------------------------------------------*
    1641                    ;*   SOFTWARE PIPELINE INFORMATION
    1642                    ;*
    1643                    ;*      Loop found in file               : ../AudioTasks.c
    1644                    ;*      Loop source line                 : 225
    1645                    ;*      Loop opening brace source line   : 226
    1646                    ;*      Loop closing brace source line   : 231
    1647                    ;*      Loop Unroll Multiple             : 2x
    1648                    ;*      Known Minimum Trip Count         : 128                    
    1649                    ;*      Known Maximum Trip Count         : 128                    
    1650                    ;*      Known Max Trip Count Factor      : 128
TMS320C6x Assembler PC v8.1.3 Wed Apr 19 22:40:38 2017

Tools Copyright (c) 1996-2015 Texas Instruments Incorporated
AudioTasks.asm                                                       PAGE   31

    1651                    ;*      Loop Carried Dependency Bound(^) : 2
    1652                    ;*      Unpartitioned Resource Bound     : 3
    1653                    ;*      Partitioned Resource Bound(*)    : 3
    1654                    ;*      Resource Partition:
    1655                    ;*                                A-side   B-side
    1656                    ;*      .L units                     2        1     
    1657                    ;*      .S units                     0        2     
    1658                    ;*      .D units                     2        2     
    1659                    ;*      .M units                     0        0     
    1660                    ;*      .X cross paths               0        0     
    1661                    ;*      .T address paths             2        2     
    1662                    ;*      Logical  ops (.LS)           1        1     (.L or .S unit)
    1663                    ;*      Addition ops (.LSD)          2        2     (.L or .S or .D unit)
    1664                    ;*      Bound(.L .S .LS)             2        2     
    1665                    ;*      Bound(.L .S .D .LS .LSD)     3*       3*    
    1666                    ;*
    1667                    ;*      Searching for software pipeline schedule at ...
    1668                    ;*         ii = 3  Schedule found with 6 iterations in parallel
    1669                    ;*      Done
    1670                    ;*
    1671                    ;*      Loop will be splooped
    1672                    ;*      Collapsed epilog stages       : 5
    1673                    ;*      Collapsed prolog stages       : 0
    1674                    ;*      Minimum required memory pad   : 0 bytes
    1675                    ;*
    1676                    ;*      Minimum safe trip count       : 1 (after unrolling)
    1677                    ;*----------------------------------------------------------------------------*
    1678 000004ee           $C$L21:    ; PIPED LOOP PROLOG
    1679 000004ee     24a6             MVK     .L1     1,A1              ; [A_L674] 
    1680 000004f0 8103e000     [ A1]   SPLOOPW         3                 ;18 ; [A_L674] (P) 
    1681                    ;** --------------------------------------------------------------------------*
    1682 000004f4           $C$L22:    ; PIPED LOOP KERNEL
    1683                    
    1684 000004f4     2ee6             SPMASK                            ; [] 
    1685 000004f8 04914ca2  ||^        SHL     .S2     B4,10,B9          ; [B_Sb674] 
    1686 000004f6     d407  ||^        MV      .L2X    A8,B6             ; [B_L674] 
    1687                    
    1688                            .dwpsn  file "../AudioTasks.c",line 227,column 29,is_stmt,isa 0
    1689                    
    1690 00000500     ad67             SPMASK                            ; [] 
    1691 00000504 01800069! ||^        MVKH    .S1     TXPingPong,A3     ; [A_S674] 
    1692 00000502     d3c6  ||^        MV      .L1X    B7,A6             ; [A_L674] 
    1693 00000510     b2d7  ||^        MV      .D2X    A5,B5             ; [B_D64P] 
    1694 0000050c 0418805b  ||         ADD     .L2     4,B6,B8           ; [B_L674] |227| (P) <0,1> 
    1695 00000508 021a540b  ||         EXTU    .S2     B6,18,20,B4       ; [B_Sb674] |227| (P) <0,1> 
    1696                    
    1697 00000512     2c67             SPMASK                            ; [] 
    1698 00000514 02247079  ||^        ADD     .L1X    A3,B9,A4          ; [A_L674] 
    1699 00000518 03a2540b  ||         EXTU    .S2     B8,18,20,B7       ; [B_Sb674] |227| (P) <0,2> 
    1700 00000520     84bd  ||         LDW     .D2T1   *+B5[B4],A3       ; [B_D64P] |227| (P) <0,2> 
    1701                    
    1702                            .dwpsn  file "../AudioTasks.c",line 225,column 25,is_stmt,isa 0
    1703                    
    1704 00000522     0f2f             ADD     .S2     8,B6,B6           ; [B_Sb674] |225| (P) <0,3> 
    1705 00000524     f4fd  ||         LDW     .D2T2   *+B5[B7],B7       ; [B_D64P] |227| (P) <0,3> 
TMS320C6x Assembler PC v8.1.3 Wed Apr 19 22:40:38 2017

Tools Copyright (c) 1996-2015 Texas Instruments Incorporated
AudioTasks.asm                                                       PAGE   32

    1706                    
    1707 00000526     4c6e             NOP             3                 ; [A_L674] 
    1708                            .dwpsn  file "../AudioTasks.c",line 227,column 29,is_stmt,isa 0
    1709 00000528 018c0178             SPTRUNC .L1     A3,A3             ; [A_L674] |227| (P) <0,7> 
    1710 0000052c 021c017a             SPTRUNC .L2     B7,B4             ; [B_L674] |227| (P) <0,8> 
    1711 00000530     0c6e             NOP             1                 ; [A_L674] 
    1712                            .dwpsn  file "../AudioTasks.c",line 225,column 20,is_stmt,isa 0
    1713                    
    1714 00000532     2d66             SPMASK                            ; [] 
    1715 00000534     0292  ||^        ZERO    .S1     A5                ; [A_S674] |225| 
    1716                    
    1717                            .dwpsn  file "../AudioTasks.c",line 225,column 25,is_stmt,isa 0
    1718                    
    1719 00000536     6c66             SPMASK                            ; [] 
    1720 00000538 021109c1  ||^        SUB     .D1     A4,8,A4           ; [A_D64P] 
    1721 00000544     46ae  ||         ADD     .S1     2,A5,A5           ; [A_S674] |225| (P) <0,11> 
    1722 00000540 018c6019  ||         PACK2   .L1     A3,A3,A3          ; [A_L674] |227| (P) <0,11> 
    1723                    
    1724 00000546     af08             CMPLT   .L1     A5,A6,A0          ; [A_L674] |225| (P) <0,12> 
    1725 00000548 0210801b  ||         PACK2   .L2     B4,B4,B4          ; [B_L674] |227| (P) <0,12> 
    1726 0000054c 81905274  || [ A1]   STW     .D1T1   A3,*++A4(8)       ; [A_D64P] |227| (P) <0,12>  ^ 
    1727                    
    1728 00000554     48ee     [!A0]   ZERO    .S1     A1                ; [A_S674] |225| (P) <0,13>  ^ 
    1729 00000550 82102277  || [ A1]   STW     .D1T2   B4,*A4(4)         ; [A_D64P] |227| (P) <0,13>  ^ 
    1730                    
    1731 00000556     2c6e             NOP             2                 ; [A_L674] 
    1732 00000558     0c6e             NOP             1                 ; [A_L674] 
    1733 0000055a     1c66             SPKERNEL        0,0               ; [] 
    1734                    ;** --------------------------------------------------------------------------*
    1735 00000560           $C$L23:    ; PIPED LOOP EPILOG
    1736                    ;** --------------------------------------------------------------------------*
    1737 00000560     cccd             LDW     .D2T1   *SP(24),A4        ; [B_D64P] 
    1738 00000562     66c7             MV      .L2     B5,B11            ; [B_L674] 
    1739 00000564 00000000             NOP             1                 ; [A_L674] 
    1740                            .dwpsn  file "../AudioTasks.c",line 234,column 9,is_stmt,isa 0
    1741                    $C$DW$117       .dwtag  DW_TAG_TI_branch
    1742                            .dwattr $C$DW$117, DW_AT_low_pc(0x00)
    1743                            .dwattr $C$DW$117, DW_AT_name("AudioTxActivate")
    1744                            .dwattr $C$DW$117, DW_AT_TI_call
    1745                    
    1746 00000568 10000012!            CALLP   .S2     AudioTxActivate,B3 ; [B_Sb674] |234| 
    1747 0000056c           $C$RL34:   ; CALLP OCCURS {AudioTxActivate} {0}  ; [] |234| 
    1748                    ;** --------------------------------------------------------------------------*
    1749                            .dwpsn  file "../AudioTasks.c",line 239,column 9,is_stmt,isa 0
    1750                    
    1751 0000056c 023cc2e7             LDW     .D2T2   *SP(24),B4        ; [B_D64P] |239| 
    1752 00000570 01808028  ||         MVK     .S1     256,A3            ; [A_S674] |239| 
    1753                    
    1754 00000574 01ac6078             ADD     .L1     A3,A11,A3         ; [A_L674] |239| 
    1755                            .dwpsn  file "../AudioTasks.c",line 125,column 11,is_stmt,isa 0
    1756 00000578 0fff7692             B       .S2     $C$L4             ; [B_Sb674] |125| 
    1757                            .dwpsn  file "../AudioTasks.c",line 128,column 9,is_stmt,isa 0
    1758                    $C$DW$118       .dwtag  DW_TAG_TI_branch
    1759                            .dwattr $C$DW$118, DW_AT_low_pc(0x00)
    1760                            .dwattr $C$DW$118, DW_AT_name("ti_sysbios_knl_Semaphore_pend__E")
TMS320C6x Assembler PC v8.1.3 Wed Apr 19 22:40:38 2017

Tools Copyright (c) 1996-2015 Texas Instruments Incorporated
AudioTasks.asm                                                       PAGE   33

    1761                            .dwattr $C$DW$118, DW_AT_TI_call
    1762                    
    1763 00000580 00000010!            CALL    .S1     ti_sysbios_knl_Semaphore_pend__E ; [A_S674] |128| 
    1764                            .dwpsn  file "../AudioTasks.c",line 239,column 9,is_stmt,isa 0
    1765 00000584 058e9408             EXTU    .S1     A3,20,20,A11      ; [A_S674] |239| 
    1766                            .dwpsn  file "../AudioTasks.c",line 236,column 9,is_stmt,isa 0
    1767 00000588 02102dda             XOR     .L2     1,B4,B4           ; [B_L674] |236| 
    1768 0000058c 02102f5a             AND     .L2     1,B4,B4           ; [B_L674] |236| 
    1769                            .dwpsn  file "../AudioTasks.c",line 239,column 9,is_stmt,isa 0
    1770                    
    1771 00000590     dcc5             STW     .D2T2   B4,*SP(24)        ; [B_D64P] |239| 
    1772 00000592     fe27  ||         MVK     .L2     -1,B4             ; [B_L674] 
    1773                    
    1774                            .dwpsn  file "../AudioTasks.c",line 125,column 11,is_stmt,isa 0
    1775                               ; BRANCH OCCURS {$C$L4}           ; [] |125| 
    1776                            .dwattr $C$DW$87, DW_AT_TI_end_file("../AudioTasks.c")
    1777                            .dwattr $C$DW$87, DW_AT_TI_end_line(0xf1)
    1778                            .dwattr $C$DW$87, DW_AT_TI_end_column(0x01)
    1779                            .dwendentry
    1780                            .dwendtag $C$DW$87
    1781                    
    1782 000005a0                   .sect   ".text"
    1783                            .clink
    1784                            .global DeviationDisplay
    1785                    
    1786                    $C$DW$119       .dwtag  DW_TAG_subprogram
    1787                            .dwattr $C$DW$119, DW_AT_name("DeviationDisplay")
    1788                            .dwattr $C$DW$119, DW_AT_low_pc(DeviationDisplay)
    1789                            .dwattr $C$DW$119, DW_AT_high_pc(0x00)
    1790                            .dwattr $C$DW$119, DW_AT_TI_symbol_name("DeviationDisplay")
    1791                            .dwattr $C$DW$119, DW_AT_external
    1792                            .dwattr $C$DW$119, DW_AT_TI_begin_file("../AudioTasks.c")
    1793                            .dwattr $C$DW$119, DW_AT_TI_begin_line(0x108)
    1794                            .dwattr $C$DW$119, DW_AT_TI_begin_column(0x06)
    1795                            .dwattr $C$DW$119, DW_AT_decl_file("../AudioTasks.c")
    1796                            .dwattr $C$DW$119, DW_AT_decl_line(0x108)
    1797                            .dwattr $C$DW$119, DW_AT_decl_column(0x06)
    1798                            .dwattr $C$DW$119, DW_AT_TI_max_frame_size(0x08)
    1799                            .dwpsn  file "../AudioTasks.c",line 265,column 1,is_stmt,address DeviationDisplay,isa 0
    1800                    
    1801                            .dwfde $C$DW$CIE, DeviationDisplay
    1802                    
    1803                    ;******************************************************************************
    1804                    ;* FUNCTION NAME: DeviationDisplay                                            *
    1805                    ;*                                                                            *
    1806                    ;*   Regs Modified     : A0,A1,A2,A3,A4,A5,A6,A7,A8,A9,A16,A17,A18,A19,A20,   *
    1807                    ;*                           A21,A22,A23,A24,A25,A26,A27,A28,A29,A30,A31,B0,  *
    1808                    ;*                           B1,B2,B3,B4,B5,B6,B7,B8,B9,B16,B17,B18,B19,B20,  *
    1809                    ;*                           B21,B22,B23,B24,B25,B26,B27,B28,B29,B30,B31      *
    1810                    ;*   Regs Used         : A0,A1,A2,A3,A4,A5,A6,A7,A8,A9,A16,A17,A18,A19,A20,   *
    1811                    ;*                           A21,A22,A23,A24,A25,A26,A27,A28,A29,A30,A31,B0,  *
    1812                    ;*                           B1,B2,B3,B4,B5,B6,B7,B8,B9,DP,SP,B16,B17,B18,B19,*
    1813                    ;*                           B20,B21,B22,B23,B24,B25,B26,B27,B28,B29,B30,B31  *
    1814                    ;*   Local Frame Size  : 0 Args + 0 Auto + 4 Save = 4 byte                    *
    1815                    ;******************************************************************************
TMS320C6x Assembler PC v8.1.3 Wed Apr 19 22:40:38 2017

Tools Copyright (c) 1996-2015 Texas Instruments Incorporated
AudioTasks.asm                                                       PAGE   34

    1816 000005a0           DeviationDisplay:
    1817                    ;** --------------------------------------------------------------------------*
    1818                            .dwcfi  cfa_offset, 0
    1819                            .dwpsn  file "../AudioTasks.c",line 266,column 5,is_stmt,isa 0
    1820                    
    1821 000005a0 036b852b             MVKL    .S2     0x70a3d70a,B6     ; [B_Sb674] |270| 
    1822 000005a8     e626  ||         MVK     .L1     7,A4              ; [A_L674] |268| 
    1823 000005a4 0400006f! ||         LDW     .D2T2   *+DP(FreqDeviation),B8 ; [B_D64P] |266| 
    1824                    
    1825 000005aa     05a6             ZERO    .L1     A3                ; [A_L674] |266| 
    1826                            .dwpsn  file "../AudioTasks.c",line 270,column 10,is_stmt,isa 0
    1827 000005ac 033851ea             MVKH    .S2     0x70a3d70a,B6     ; [B_Sb674] |270| 
    1828 000005b0 03851eaa             MVKL    .S2     0x3fef0a3d,B7     ; [B_Sb674] |270| 
    1829 000005b4 039ff7ea             MVKH    .S2     0x3fef0a3d,B7     ; [B_Sb674] |270| 
    1830                            .dwpsn  file "../AudioTasks.c",line 266,column 5,is_stmt,isa 0
    1831                    
    1832 000005b8 00207e21             CMPEQSP .S1X    B8,A3,A0          ; [A_S674] |266| 
    1833 000005c0 022000a2  ||         SPDP    .S2     B8,B5:B4          ; [B_Sb674] |270| 
    1834                    
    1835 000005c8 c0282120     [ A0]   BNOP            $C$L28,1          ; [] |266| 
    1836 000005c4 00988aa3  ||         CMPLTDP .S2     B5:B4,B7:B6,B1    ; [B_Sb674] |270| 
    1837                    
    1838                            .dwpsn  file "../AudioTasks.c",line 274,column 10,is_stmt,isa 0
    1839                    
    1840 000005cc c080a35b     [ A0]   ZERO    .L2     B1                ; [B_L674] |274| nullify predicate
    1841 000005d0 d3c28f2a  || [!A0]   MVKL    .S2     0x3fef851e,B7     ; [B_Sb674] |274| 
    1842                    
    1843                            .dwpsn  file "../AudioTasks.c",line 270,column 10,is_stmt,isa 0
    1844                    
    1845 000005d4 40001311     [ B1]   B       .S1     $C$L27            ; [A_S674] |270| 
    1846 000005d8 d375c2aa  || [!A0]   MVKL    .S2     0xb851eb85,B6     ; [B_Sb674] |274| 
    1847                    
    1848                            .dwpsn  file "../AudioTasks.c",line 268,column 9,is_stmt,isa 0
    1849                    $C$DW$120       .dwtag  DW_TAG_TI_branch
    1850                            .dwattr $C$DW$120, DW_AT_low_pc(0x00)
    1851                            .dwattr $C$DW$120, DW_AT_name("MicInterfaceWriteLed")
    1852                            .dwattr $C$DW$120, DW_AT_TI_call
    1853                            .dwattr $C$DW$120, DW_AT_TI_return
    1854                    
    1855                    
    1856 000005dc c0000011!    [ A0]   CALLRET .S1     MicInterfaceWriteLed ; [A_S674] |268| 
    1857 000005e0 d39ff7ea  || [!A0]   MVKH    .S2     0x3fef851e,B7     ; [B_Sb674] |274| 
    1858                    
    1859                            .dwpsn  file "../AudioTasks.c",line 274,column 10,is_stmt,isa 0
    1860 000005e4 d35c28ea     [!A0]   MVKH    .S2     0xb851eb85,B6     ; [B_Sb674] |274| 
    1861                            .dwpsn  file "../AudioTasks.c",line 266,column 5,is_stmt,isa 0
    1862                               ; BRANCHCC OCCURS {$C$L28}        ; [] |266| 
    1863                    ;** --------------------------------------------------------------------------*
    1864                            .dwpsn  file "../AudioTasks.c",line 272,column 9,is_stmt,isa 0
    1865                    $C$DW$121       .dwtag  DW_TAG_TI_branch
    1866                            .dwattr $C$DW$121, DW_AT_low_pc(0x00)
    1867                            .dwattr $C$DW$121, DW_AT_name("MicInterfaceWriteLed")
    1868                            .dwattr $C$DW$121, DW_AT_TI_call
    1869                            .dwattr $C$DW$121, DW_AT_TI_return
    1870                    
TMS320C6x Assembler PC v8.1.3 Wed Apr 19 22:40:38 2017

Tools Copyright (c) 1996-2015 Texas Instruments Incorporated
AudioTasks.asm                                                       PAGE   35

    1871 000005e8 40000010!    [ B1]   CALLRET .S1     MicInterfaceWriteLed ; [A_S674] |272| 
    1872                            .dwpsn  file "../AudioTasks.c",line 274,column 10,is_stmt,isa 0
    1873 000005ec 00188aa2             CMPLTDP .S2     B5:B4,B7:B6,B0    ; [B_Sb674] |274| 
    1874                            .dwpsn  file "../AudioTasks.c",line 272,column 9,is_stmt,isa 0
    1875 000005f0 0204a358             MVK     .L1     1,A4              ; [A_L674] |272| 
    1876                            .dwpsn  file "../AudioTasks.c",line 270,column 10,is_stmt,isa 0
    1877                               ; BRANCHCC OCCURS {$C$L27}        ; [] |270| 
    1878                    ;** --------------------------------------------------------------------------*
    1879                            .dwpsn  file "../AudioTasks.c",line 274,column 10,is_stmt,isa 0
    1880                    
    1881 000005f4 20000e91     [ B0]   B       .S1     $C$L26            ; [A_S674] |274| 
    1882 000005f8 03051eaa  ||         MVKL    .S2     0xa3d70a3d,B6     ; [B_Sb674] |278| 
    1883                    
    1884                            .dwpsn  file "../AudioTasks.c",line 276,column 9,is_stmt,isa 0
    1885                    $C$DW$122       .dwtag  DW_TAG_TI_branch
    1886                            .dwattr $C$DW$122, DW_AT_low_pc(0x00)
    1887                            .dwattr $C$DW$122, DW_AT_name("MicInterfaceWriteLed")
    1888                            .dwattr $C$DW$122, DW_AT_TI_call
    1889                            .dwattr $C$DW$122, DW_AT_TI_return
    1890                    
    1891                    
    1892 000005fc 20000011!    [ B0]   CALLRET .S1     MicInterfaceWriteLed ; [A_S674] |276| 
    1893 00000600 0351ebea  ||         MVKH    .S2     0xa3d70a3d,B6     ; [B_Sb674] |278| 
    1894                    
    1895                            .dwpsn  file "../AudioTasks.c",line 278,column 10,is_stmt,isa 0
    1896 00000604 039eb82a             MVKL    .S2     0x3ff03d70,B7     ; [B_Sb674] |278| 
    1897 00000608 039ff86a             MVKH    .S2     0x3ff03d70,B7     ; [B_Sb674] |278| 
    1898 0000060c 00988aa2             CMPLTDP .S2     B5:B4,B7:B6,B1    ; [B_Sb674] |278| 
    1899                            .dwpsn  file "../AudioTasks.c",line 276,column 9,is_stmt,isa 0
    1900 00000610 020ca358             MVK     .L1     3,A4              ; [A_L674] |276| 
    1901                            .dwpsn  file "../AudioTasks.c",line 274,column 10,is_stmt,isa 0
    1902                               ; BRANCHCC OCCURS {$C$L26}        ; [] |274| 
    1903                    ;** --------------------------------------------------------------------------*
    1904                            .dwpsn  file "../AudioTasks.c",line 278,column 10,is_stmt,isa 0
    1905                    
    1906 00000614 40000a11     [ B1]   B       .S1     $C$L25            ; [A_S674] |278| 
    1907 00000618 030a3daa  ||         MVKL    .S2     0x47ae147b,B6     ; [B_Sb674] |282| 
    1908                    
    1909                            .dwpsn  file "../AudioTasks.c",line 280,column 9,is_stmt,isa 0
    1910                    $C$DW$123       .dwtag  DW_TAG_TI_branch
    1911                            .dwattr $C$DW$123, DW_AT_low_pc(0x00)
    1912                            .dwattr $C$DW$123, DW_AT_name("MicInterfaceWriteLed")
    1913                            .dwattr $C$DW$123, DW_AT_TI_call
    1914                            .dwattr $C$DW$123, DW_AT_TI_return
    1915                    
    1916                    
    1917 0000061c 40000011!    [ B1]   CALLRET .S1     MicInterfaceWriteLed ; [A_S674] |280| 
    1918 00000620 0323d76a  ||         MVKH    .S2     0x47ae147b,B6     ; [B_Sb674] |282| 
    1919                    
    1920                            .dwpsn  file "../AudioTasks.c",line 282,column 10,is_stmt,isa 0
    1921 00000624 03bd70aa             MVKL    .S2     0x3ff07ae1,B7     ; [B_Sb674] |282| 
    1922 00000628 039ff86a             MVKH    .S2     0x3ff07ae1,B7     ; [B_Sb674] |282| 
    1923 0000062c 00188aa2             CMPLTDP .S2     B5:B4,B7:B6,B0    ; [B_Sb674] |282| 
    1924                            .dwpsn  file "../AudioTasks.c",line 280,column 9,is_stmt,isa 0
    1925 00000630     4626             MVK     .L1     2,A4              ; [A_L674] |280| 
TMS320C6x Assembler PC v8.1.3 Wed Apr 19 22:40:38 2017

Tools Copyright (c) 1996-2015 Texas Instruments Incorporated
AudioTasks.asm                                                       PAGE   36

    1926                            .dwpsn  file "../AudioTasks.c",line 278,column 10,is_stmt,isa 0
    1927                               ; BRANCHCC OCCURS {$C$L25}        ; [] |278| 
    1928                    ;** --------------------------------------------------------------------------*
    1929                            .dwpsn  file "../AudioTasks.c",line 282,column 10,is_stmt,isa 0
    1930 00000632     05ab     [ B0]   B       .S2     $C$L24            ; [B_Sb674] |282| 
    1931                            .dwpsn  file "../AudioTasks.c",line 288,column 9,is_stmt,isa 0
    1932                    $C$DW$124       .dwtag  DW_TAG_TI_branch
    1933                            .dwattr $C$DW$124, DW_AT_low_pc(0x00)
    1934                            .dwattr $C$DW$124, DW_AT_name("MicInterfaceWriteLed")
    1935                            .dwattr $C$DW$124, DW_AT_TI_call
    1936                            .dwattr $C$DW$124, DW_AT_TI_return
    1937                    
    1938 00000634 30000010!    [!B0]   CALLRET .S1     MicInterfaceWriteLed ; [A_S674] |288| 
    1939                            .dwpsn  file "../AudioTasks.c",line 284,column 9,is_stmt,isa 0
    1940                    $C$DW$125       .dwtag  DW_TAG_TI_branch
    1941                            .dwattr $C$DW$125, DW_AT_low_pc(0x00)
    1942                            .dwattr $C$DW$125, DW_AT_name("MicInterfaceWriteLed")
    1943                            .dwattr $C$DW$125, DW_AT_TI_call
    1944                            .dwattr $C$DW$125, DW_AT_TI_return
    1945                    
    1946 00000638 20000010!    [ B0]   CALLRET .S1     MicInterfaceWriteLed ; [A_S674] |284| 
    1947                            .dwpsn  file "../AudioTasks.c",line 288,column 9,is_stmt,isa 0
    1948 00000640 0210a358             MVK     .L1     4,A4              ; [A_L674] |288| 
    1949                            .dwpsn  file "../AudioTasks.c",line 284,column 9,is_stmt,isa 0
    1950 00000644 2218a358     [ B0]   MVK     .L1     6,A4              ; [A_L674] |284| 
    1951 00000648     0c6e             NOP             1                 ; [A_L674] 
    1952                            .dwpsn  file "../AudioTasks.c",line 282,column 10,is_stmt,isa 0
    1953                               ; BRANCHCC OCCURS {$C$L24}        ; [] |282| 
    1954                    ;** --------------------------------------------------------------------------*
    1955 0000064a     0c6e             NOP             1                 ; [A_L674] 
    1956                            .dwpsn  file "../AudioTasks.c",line 288,column 9,is_stmt,isa 0
    1957 0000064c           $C$RL36:   ; CALL-RETURN OCCURS {MicInterfaceWriteLed} 0  ; [] |288| 
    1958                    ;** --------------------------------------------------------------------------*
    1959 0000064c           $C$L24:    
    1960 0000064c 00002000             NOP             2                 ; [A_L674] 
    1961                            .dwpsn  file "../AudioTasks.c",line 284,column 9,is_stmt,isa 0
    1962 00000650           $C$RL38:   ; CALL-RETURN OCCURS {MicInterfaceWriteLed} 0  ; [] |284| 
    1963                    ;** --------------------------------------------------------------------------*
    1964 00000650           $C$L25:    
    1965 00000650 00000000             NOP             1                 ; [A_L674] 
    1966                            .dwpsn  file "../AudioTasks.c",line 280,column 9,is_stmt,isa 0
    1967 00000654           $C$RL40:   ; CALL-RETURN OCCURS {MicInterfaceWriteLed} 0  ; [] |280| 
    1968                    ;** --------------------------------------------------------------------------*
    1969 00000654           $C$L26:    
    1970 00000654 00000000             NOP             1                 ; [A_L674] 
    1971                            .dwpsn  file "../AudioTasks.c",line 276,column 9,is_stmt,isa 0
    1972 00000658           $C$RL42:   ; CALL-RETURN OCCURS {MicInterfaceWriteLed} 0  ; [] |276| 
    1973                    ;** --------------------------------------------------------------------------*
    1974 00000658           $C$L27:    
    1975 00000658 00004000             NOP             3                 ; [A_L674] 
    1976                            .dwpsn  file "../AudioTasks.c",line 272,column 9,is_stmt,isa 0
    1977 00000660           $C$RL44:   ; CALL-RETURN OCCURS {MicInterfaceWriteLed} 0  ; [] |272| 
    1978                    ;** --------------------------------------------------------------------------*
    1979 00000660           $C$L28:    
    1980 00000660 00006000             NOP             4                 ; [A_L674] 
TMS320C6x Assembler PC v8.1.3 Wed Apr 19 22:40:38 2017

Tools Copyright (c) 1996-2015 Texas Instruments Incorporated
AudioTasks.asm                                                       PAGE   37

    1981                            .dwpsn  file "../AudioTasks.c",line 268,column 9,is_stmt,isa 0
    1982                    $C$RL46:   ; CALL-RETURN OCCURS {MicInterfaceWriteLed} 0  ; [] |268| 
    1983                            .dwattr $C$DW$119, DW_AT_TI_end_file("../AudioTasks.c")
    1984                            .dwattr $C$DW$119, DW_AT_TI_end_line(0x122)
    1985                            .dwattr $C$DW$119, DW_AT_TI_end_column(0x01)
    1986                            .dwendentry
    1987                            .dwendtag $C$DW$119
    1988                    
    1989                    ;*****************************************************************************
    1990                    ;* UNDEFINED EXTERNAL REFERENCES                                             *
    1991                    ;*****************************************************************************
    1992                            .global ti_sysbios_knl_Queue_get__E
    1993                            .global ti_sysbios_knl_Semaphore_pend__E
    1994                            .global DSPF_sp_vecmul
    1995                            .global AudioTxActivate
    1996                            .global MicInterfaceWriteLed
    1997                            .global RazFFTInit
    1998                            .global RazFFT
    1999                            .global RazIFFT
    2000                            .global RazFFTMagsAndPhases
    2001                            .global RazIFFTMagsAndPhases
    2002                            .global SexyPitchShiftInit
    2003                            .global SexyPitchShifter
    2004                            .global dywapitch_inittracking
    2005                            .global dywapitch_computepitch
    2006                            .global GetNote
    2007                            .global CalculateScaleShift
    2008                            .global CalculateChordShift
    2009                            .global AudioRxBufferQueue
    2010                            .global AudioRxQueueSem
    2011                            .global RXPingPong
    2012                            .global TXPingPong
    2013                            .global HammingWindow
    2014                            .global NoteFreqs
    2015                            .global Presets
    2016                            .global CurrentPreset
    2017                            .global MasterVolume
    2018                            .global __c6xabi_divf
    2019                    
    2020                    ;******************************************************************************
    2021                    ;* BUILD ATTRIBUTES                                                           *
    2022                    ;******************************************************************************
    2023                            .battr "TI", Tag_File, 1, Tag_Long_Precision_Bits(2)
    2024                            .battr "TI", Tag_File, 1, Tag_Bitfield_layout(2)
    2025                            .battr "TI", Tag_File, 1, Tag_ABI_enum_size(2)
    2026                            .battr "c6xabi", Tag_File, 1, Tag_ABI_wchar_t(1)
    2027                            .battr "c6xabi", Tag_File, 1, Tag_ABI_array_object_alignment(0)
    2028                            .battr "c6xabi", Tag_File, 1, Tag_ABI_array_object_align_expected(0)
    2029                            .battr "c6xabi", Tag_File, 1, Tag_ABI_PIC(0)
    2030                            .battr "c6xabi", Tag_File, 1, Tag_ABI_PID(0)
    2031                            .battr "c6xabi", Tag_File, 1, Tag_ABI_DSBT(0)
    2032                            .battr "c6xabi", Tag_File, 1, Tag_ABI_stack_align_needed(0)
    2033                            .battr "c6xabi", Tag_File, 1, Tag_ABI_stack_align_preserved(0)
    2034                            .battr "TI", Tag_File, 1, Tag_Tramps_Use_SOC(1)
    2035                    
TMS320C6x Assembler PC v8.1.3 Wed Apr 19 22:40:38 2017

Tools Copyright (c) 1996-2015 Texas Instruments Incorporated
AudioTasks.asm                                                       PAGE   38

    2036                    ;******************************************************************************
    2037                    ;* TYPE INFORMATION                                                           *
    2038                    ;******************************************************************************
    2039                    
    2040                    $C$DW$T$154     .dwtag  DW_TAG_enumeration_type
    2041                            .dwattr $C$DW$T$154, DW_AT_byte_size(0x04)
    2042                    $C$DW$126       .dwtag  DW_TAG_enumerator
    2043                            .dwattr $C$DW$126, DW_AT_name("NoTune")
    2044                            .dwattr $C$DW$126, DW_AT_const_value(0x00)
    2045                            .dwattr $C$DW$126, DW_AT_decl_file("C:/Users/Raz Aloni/OneDrive/School/EEL4924/DSP/C_Libs/Voca
    2046                            .dwattr $C$DW$126, DW_AT_decl_line(0x22)
    2047                            .dwattr $C$DW$126, DW_AT_decl_column(0x05)
    2048                    
    2049                    $C$DW$127       .dwtag  DW_TAG_enumerator
    2050                            .dwattr $C$DW$127, DW_AT_name("FourthAbove")
    2051                            .dwattr $C$DW$127, DW_AT_const_value(0x01)
    2052                            .dwattr $C$DW$127, DW_AT_decl_file("C:/Users/Raz Aloni/OneDrive/School/EEL4924/DSP/C_Libs/Voca
    2053                            .dwattr $C$DW$127, DW_AT_decl_line(0x23)
    2054                            .dwattr $C$DW$127, DW_AT_decl_column(0x05)
    2055                    
    2056                    $C$DW$128       .dwtag  DW_TAG_enumerator
    2057                            .dwattr $C$DW$128, DW_AT_name("ThirdAbove")
    2058                            .dwattr $C$DW$128, DW_AT_const_value(0x02)
    2059                            .dwattr $C$DW$128, DW_AT_decl_file("C:/Users/Raz Aloni/OneDrive/School/EEL4924/DSP/C_Libs/Voca
    2060                            .dwattr $C$DW$128, DW_AT_decl_line(0x24)
    2061                            .dwattr $C$DW$128, DW_AT_decl_column(0x05)
    2062                    
    2063                    $C$DW$129       .dwtag  DW_TAG_enumerator
    2064                            .dwattr $C$DW$129, DW_AT_name("SecondAbove")
    2065                            .dwattr $C$DW$129, DW_AT_const_value(0x03)
    2066                            .dwattr $C$DW$129, DW_AT_decl_file("C:/Users/Raz Aloni/OneDrive/School/EEL4924/DSP/C_Libs/Voca
    2067                            .dwattr $C$DW$129, DW_AT_decl_line(0x25)
    2068                            .dwattr $C$DW$129, DW_AT_decl_column(0x05)
    2069                    
    2070                    $C$DW$130       .dwtag  DW_TAG_enumerator
    2071                            .dwattr $C$DW$130, DW_AT_name("AutoTune")
    2072                            .dwattr $C$DW$130, DW_AT_const_value(0x04)
    2073                            .dwattr $C$DW$130, DW_AT_decl_file("C:/Users/Raz Aloni/OneDrive/School/EEL4924/DSP/C_Libs/Voca
    2074                            .dwattr $C$DW$130, DW_AT_decl_line(0x26)
    2075                            .dwattr $C$DW$130, DW_AT_decl_column(0x05)
    2076                    
    2077                    $C$DW$131       .dwtag  DW_TAG_enumerator
    2078                            .dwattr $C$DW$131, DW_AT_name("SecondBelow")
    2079                            .dwattr $C$DW$131, DW_AT_const_value(0x05)
    2080                            .dwattr $C$DW$131, DW_AT_decl_file("C:/Users/Raz Aloni/OneDrive/School/EEL4924/DSP/C_Libs/Voca
    2081                            .dwattr $C$DW$131, DW_AT_decl_line(0x27)
    2082                            .dwattr $C$DW$131, DW_AT_decl_column(0x05)
    2083                    
    2084                    $C$DW$132       .dwtag  DW_TAG_enumerator
    2085                            .dwattr $C$DW$132, DW_AT_name("ThirdBelow")
    2086                            .dwattr $C$DW$132, DW_AT_const_value(0x06)
    2087                            .dwattr $C$DW$132, DW_AT_decl_file("C:/Users/Raz Aloni/OneDrive/School/EEL4924/DSP/C_Libs/Voca
    2088                            .dwattr $C$DW$132, DW_AT_decl_line(0x28)
    2089                            .dwattr $C$DW$132, DW_AT_decl_column(0x05)
    2090                    
TMS320C6x Assembler PC v8.1.3 Wed Apr 19 22:40:38 2017

Tools Copyright (c) 1996-2015 Texas Instruments Incorporated
AudioTasks.asm                                                       PAGE   39

    2091                    $C$DW$133       .dwtag  DW_TAG_enumerator
    2092                            .dwattr $C$DW$133, DW_AT_name("FourthBelow")
    2093                            .dwattr $C$DW$133, DW_AT_const_value(0x07)
    2094                            .dwattr $C$DW$133, DW_AT_decl_file("C:/Users/Raz Aloni/OneDrive/School/EEL4924/DSP/C_Libs/Voca
    2095                            .dwattr $C$DW$133, DW_AT_decl_line(0x29)
    2096                            .dwattr $C$DW$133, DW_AT_decl_column(0x05)
    2097                    
    2098                    $C$DW$134       .dwtag  DW_TAG_enumerator
    2099                            .dwattr $C$DW$134, DW_AT_name("FifthBelow")
    2100                            .dwattr $C$DW$134, DW_AT_const_value(0x08)
    2101                            .dwattr $C$DW$134, DW_AT_decl_file("C:/Users/Raz Aloni/OneDrive/School/EEL4924/DSP/C_Libs/Voca
    2102                            .dwattr $C$DW$134, DW_AT_decl_line(0x2a)
    2103                            .dwattr $C$DW$134, DW_AT_decl_column(0x05)
    2104                    
    2105                    $C$DW$135       .dwtag  DW_TAG_enumerator
    2106                            .dwattr $C$DW$135, DW_AT_name("SixthBelow")
    2107                            .dwattr $C$DW$135, DW_AT_const_value(0x09)
    2108                            .dwattr $C$DW$135, DW_AT_decl_file("C:/Users/Raz Aloni/OneDrive/School/EEL4924/DSP/C_Libs/Voca
    2109                            .dwattr $C$DW$135, DW_AT_decl_line(0x2b)
    2110                            .dwattr $C$DW$135, DW_AT_decl_column(0x05)
    2111                    
    2112                    $C$DW$136       .dwtag  DW_TAG_enumerator
    2113                            .dwattr $C$DW$136, DW_AT_name("OctaveBelow")
    2114                            .dwattr $C$DW$136, DW_AT_const_value(0x0a)
    2115                            .dwattr $C$DW$136, DW_AT_decl_file("C:/Users/Raz Aloni/OneDrive/School/EEL4924/DSP/C_Libs/Voca
    2116                            .dwattr $C$DW$136, DW_AT_decl_line(0x2c)
    2117                            .dwattr $C$DW$136, DW_AT_decl_column(0x05)
    2118                    
    2119                            .dwattr $C$DW$T$154, DW_AT_decl_file("C:/Users/Raz Aloni/OneDrive/School/EEL4924/DSP/C_Libs/Vo
    2120                            .dwattr $C$DW$T$154, DW_AT_decl_line(0x21)
    2121                            .dwattr $C$DW$T$154, DW_AT_decl_column(0x01)
    2122                            .dwendtag $C$DW$T$154
    2123                    
    2124                    $C$DW$T$155     .dwtag  DW_TAG_typedef
    2125                            .dwattr $C$DW$T$155, DW_AT_name("TuneType")
    2126                            .dwattr $C$DW$T$155, DW_AT_type(*$C$DW$T$154)
    2127                            .dwattr $C$DW$T$155, DW_AT_language(DW_LANG_C)
    2128                            .dwattr $C$DW$T$155, DW_AT_decl_file("C:/Users/Raz Aloni/OneDrive/School/EEL4924/DSP/C_Libs/Vo
    2129                            .dwattr $C$DW$T$155, DW_AT_decl_line(0x2d)
    2130                            .dwattr $C$DW$T$155, DW_AT_decl_column(0x03)
    2131                    
    2132                    
    2133                    $C$DW$T$156     .dwtag  DW_TAG_array_type
    2134                            .dwattr $C$DW$T$156, DW_AT_type(*$C$DW$T$155)
    2135                            .dwattr $C$DW$T$156, DW_AT_language(DW_LANG_C)
    2136                            .dwattr $C$DW$T$156, DW_AT_byte_size(0x10)
    2137                    $C$DW$137       .dwtag  DW_TAG_subrange_type
    2138                            .dwattr $C$DW$137, DW_AT_upper_bound(0x03)
    2139                    
    2140                            .dwendtag $C$DW$T$156
    2141                    
    2142                    
    2143                    $C$DW$T$161     .dwtag  DW_TAG_enumeration_type
    2144                            .dwattr $C$DW$T$161, DW_AT_byte_size(0x04)
    2145                    $C$DW$138       .dwtag  DW_TAG_enumerator
TMS320C6x Assembler PC v8.1.3 Wed Apr 19 22:40:38 2017

Tools Copyright (c) 1996-2015 Texas Instruments Incorporated
AudioTasks.asm                                                       PAGE   40

    2146                            .dwattr $C$DW$138, DW_AT_name("C")
    2147                            .dwattr $C$DW$138, DW_AT_const_value(0x00)
    2148                            .dwattr $C$DW$138, DW_AT_decl_file("C:/Users/Raz Aloni/OneDrive/School/EEL4924/DSP/C_Libs/Voca
    2149                            .dwattr $C$DW$138, DW_AT_decl_line(0x20)
    2150                            .dwattr $C$DW$138, DW_AT_decl_column(0x05)
    2151                    
    2152                    $C$DW$139       .dwtag  DW_TAG_enumerator
    2153                            .dwattr $C$DW$139, DW_AT_name("Csharp")
    2154                            .dwattr $C$DW$139, DW_AT_const_value(0x01)
    2155                            .dwattr $C$DW$139, DW_AT_decl_file("C:/Users/Raz Aloni/OneDrive/School/EEL4924/DSP/C_Libs/Voca
    2156                            .dwattr $C$DW$139, DW_AT_decl_line(0x21)
    2157                            .dwattr $C$DW$139, DW_AT_decl_column(0x05)
    2158                    
    2159                    $C$DW$140       .dwtag  DW_TAG_enumerator
    2160                            .dwattr $C$DW$140, DW_AT_name("Dflat")
    2161                            .dwattr $C$DW$140, DW_AT_const_value(0x01)
    2162                            .dwattr $C$DW$140, DW_AT_decl_file("C:/Users/Raz Aloni/OneDrive/School/EEL4924/DSP/C_Libs/Voca
    2163                            .dwattr $C$DW$140, DW_AT_decl_line(0x22)
    2164                            .dwattr $C$DW$140, DW_AT_decl_column(0x05)
    2165                    
    2166                    $C$DW$141       .dwtag  DW_TAG_enumerator
    2167                            .dwattr $C$DW$141, DW_AT_name("D")
    2168                            .dwattr $C$DW$141, DW_AT_const_value(0x02)
    2169                            .dwattr $C$DW$141, DW_AT_decl_file("C:/Users/Raz Aloni/OneDrive/School/EEL4924/DSP/C_Libs/Voca
    2170                            .dwattr $C$DW$141, DW_AT_decl_line(0x23)
    2171                            .dwattr $C$DW$141, DW_AT_decl_column(0x05)
    2172                    
    2173                    $C$DW$142       .dwtag  DW_TAG_enumerator
    2174                            .dwattr $C$DW$142, DW_AT_name("Dsharp")
    2175                            .dwattr $C$DW$142, DW_AT_const_value(0x03)
    2176                            .dwattr $C$DW$142, DW_AT_decl_file("C:/Users/Raz Aloni/OneDrive/School/EEL4924/DSP/C_Libs/Voca
    2177                            .dwattr $C$DW$142, DW_AT_decl_line(0x24)
    2178                            .dwattr $C$DW$142, DW_AT_decl_column(0x05)
    2179                    
    2180                    $C$DW$143       .dwtag  DW_TAG_enumerator
    2181                            .dwattr $C$DW$143, DW_AT_name("Eflat")
    2182                            .dwattr $C$DW$143, DW_AT_const_value(0x03)
    2183                            .dwattr $C$DW$143, DW_AT_decl_file("C:/Users/Raz Aloni/OneDrive/School/EEL4924/DSP/C_Libs/Voca
    2184                            .dwattr $C$DW$143, DW_AT_decl_line(0x25)
    2185                            .dwattr $C$DW$143, DW_AT_decl_column(0x05)
    2186                    
    2187                    $C$DW$144       .dwtag  DW_TAG_enumerator
    2188                            .dwattr $C$DW$144, DW_AT_name("E")
    2189                            .dwattr $C$DW$144, DW_AT_const_value(0x04)
    2190                            .dwattr $C$DW$144, DW_AT_decl_file("C:/Users/Raz Aloni/OneDrive/School/EEL4924/DSP/C_Libs/Voca
    2191                            .dwattr $C$DW$144, DW_AT_decl_line(0x26)
    2192                            .dwattr $C$DW$144, DW_AT_decl_column(0x05)
    2193                    
    2194                    $C$DW$145       .dwtag  DW_TAG_enumerator
    2195                            .dwattr $C$DW$145, DW_AT_name("F")
    2196                            .dwattr $C$DW$145, DW_AT_const_value(0x05)
    2197                            .dwattr $C$DW$145, DW_AT_decl_file("C:/Users/Raz Aloni/OneDrive/School/EEL4924/DSP/C_Libs/Voca
    2198                            .dwattr $C$DW$145, DW_AT_decl_line(0x27)
    2199                            .dwattr $C$DW$145, DW_AT_decl_column(0x05)
    2200                    
TMS320C6x Assembler PC v8.1.3 Wed Apr 19 22:40:38 2017

Tools Copyright (c) 1996-2015 Texas Instruments Incorporated
AudioTasks.asm                                                       PAGE   41

    2201                    $C$DW$146       .dwtag  DW_TAG_enumerator
    2202                            .dwattr $C$DW$146, DW_AT_name("Fsharp")
    2203                            .dwattr $C$DW$146, DW_AT_const_value(0x06)
    2204                            .dwattr $C$DW$146, DW_AT_decl_file("C:/Users/Raz Aloni/OneDrive/School/EEL4924/DSP/C_Libs/Voca
    2205                            .dwattr $C$DW$146, DW_AT_decl_line(0x28)
    2206                            .dwattr $C$DW$146, DW_AT_decl_column(0x05)
    2207                    
    2208                    $C$DW$147       .dwtag  DW_TAG_enumerator
    2209                            .dwattr $C$DW$147, DW_AT_name("Gflat")
    2210                            .dwattr $C$DW$147, DW_AT_const_value(0x06)
    2211                            .dwattr $C$DW$147, DW_AT_decl_file("C:/Users/Raz Aloni/OneDrive/School/EEL4924/DSP/C_Libs/Voca
    2212                            .dwattr $C$DW$147, DW_AT_decl_line(0x29)
    2213                            .dwattr $C$DW$147, DW_AT_decl_column(0x05)
    2214                    
    2215                    $C$DW$148       .dwtag  DW_TAG_enumerator
    2216                            .dwattr $C$DW$148, DW_AT_name("G")
    2217                            .dwattr $C$DW$148, DW_AT_const_value(0x07)
    2218                            .dwattr $C$DW$148, DW_AT_decl_file("C:/Users/Raz Aloni/OneDrive/School/EEL4924/DSP/C_Libs/Voca
    2219                            .dwattr $C$DW$148, DW_AT_decl_line(0x2a)
    2220                            .dwattr $C$DW$148, DW_AT_decl_column(0x05)
    2221                    
    2222                    $C$DW$149       .dwtag  DW_TAG_enumerator
    2223                            .dwattr $C$DW$149, DW_AT_name("Gsharp")
    2224                            .dwattr $C$DW$149, DW_AT_const_value(0x08)
    2225                            .dwattr $C$DW$149, DW_AT_decl_file("C:/Users/Raz Aloni/OneDrive/School/EEL4924/DSP/C_Libs/Voca
    2226                            .dwattr $C$DW$149, DW_AT_decl_line(0x2b)
    2227                            .dwattr $C$DW$149, DW_AT_decl_column(0x05)
    2228                    
    2229                    $C$DW$150       .dwtag  DW_TAG_enumerator
    2230                            .dwattr $C$DW$150, DW_AT_name("Aflat")
    2231                            .dwattr $C$DW$150, DW_AT_const_value(0x08)
    2232                            .dwattr $C$DW$150, DW_AT_decl_file("C:/Users/Raz Aloni/OneDrive/School/EEL4924/DSP/C_Libs/Voca
    2233                            .dwattr $C$DW$150, DW_AT_decl_line(0x2c)
    2234                            .dwattr $C$DW$150, DW_AT_decl_column(0x05)
    2235                    
    2236                    $C$DW$151       .dwtag  DW_TAG_enumerator
    2237                            .dwattr $C$DW$151, DW_AT_name("A")
    2238                            .dwattr $C$DW$151, DW_AT_const_value(0x09)
    2239                            .dwattr $C$DW$151, DW_AT_decl_file("C:/Users/Raz Aloni/OneDrive/School/EEL4924/DSP/C_Libs/Voca
    2240                            .dwattr $C$DW$151, DW_AT_decl_line(0x2d)
    2241                            .dwattr $C$DW$151, DW_AT_decl_column(0x05)
    2242                    
    2243                    $C$DW$152       .dwtag  DW_TAG_enumerator
    2244                            .dwattr $C$DW$152, DW_AT_name("Asharp")
    2245                            .dwattr $C$DW$152, DW_AT_const_value(0x0a)
    2246                            .dwattr $C$DW$152, DW_AT_decl_file("C:/Users/Raz Aloni/OneDrive/School/EEL4924/DSP/C_Libs/Voca
    2247                            .dwattr $C$DW$152, DW_AT_decl_line(0x2e)
    2248                            .dwattr $C$DW$152, DW_AT_decl_column(0x05)
    2249                    
    2250                    $C$DW$153       .dwtag  DW_TAG_enumerator
    2251                            .dwattr $C$DW$153, DW_AT_name("Bflat")
    2252                            .dwattr $C$DW$153, DW_AT_const_value(0x0a)
    2253                            .dwattr $C$DW$153, DW_AT_decl_file("C:/Users/Raz Aloni/OneDrive/School/EEL4924/DSP/C_Libs/Voca
    2254                            .dwattr $C$DW$153, DW_AT_decl_line(0x2f)
    2255                            .dwattr $C$DW$153, DW_AT_decl_column(0x05)
TMS320C6x Assembler PC v8.1.3 Wed Apr 19 22:40:38 2017

Tools Copyright (c) 1996-2015 Texas Instruments Incorporated
AudioTasks.asm                                                       PAGE   42

    2256                    
    2257                    $C$DW$154       .dwtag  DW_TAG_enumerator
    2258                            .dwattr $C$DW$154, DW_AT_name("B")
    2259                            .dwattr $C$DW$154, DW_AT_const_value(0x0b)
    2260                            .dwattr $C$DW$154, DW_AT_decl_file("C:/Users/Raz Aloni/OneDrive/School/EEL4924/DSP/C_Libs/Voca
    2261                            .dwattr $C$DW$154, DW_AT_decl_line(0x30)
    2262                            .dwattr $C$DW$154, DW_AT_decl_column(0x05)
    2263                    
    2264                            .dwattr $C$DW$T$161, DW_AT_decl_file("C:/Users/Raz Aloni/OneDrive/School/EEL4924/DSP/C_Libs/Vo
    2265                            .dwattr $C$DW$T$161, DW_AT_decl_line(0x1f)
    2266                            .dwattr $C$DW$T$161, DW_AT_decl_column(0x01)
    2267                            .dwendtag $C$DW$T$161
    2268                    
    2269                    $C$DW$T$162     .dwtag  DW_TAG_typedef
    2270                            .dwattr $C$DW$T$162, DW_AT_name("NoteIdx_t")
    2271                            .dwattr $C$DW$T$162, DW_AT_type(*$C$DW$T$161)
    2272                            .dwattr $C$DW$T$162, DW_AT_language(DW_LANG_C)
    2273                            .dwattr $C$DW$T$162, DW_AT_decl_file("C:/Users/Raz Aloni/OneDrive/School/EEL4924/DSP/C_Libs/Vo
    2274                            .dwattr $C$DW$T$162, DW_AT_decl_line(0x31)
    2275                            .dwattr $C$DW$T$162, DW_AT_decl_column(0x03)
    2276                    
    2277                    $C$DW$T$669     .dwtag  DW_TAG_pointer_type
    2278                            .dwattr $C$DW$T$669, DW_AT_type(*$C$DW$T$162)
    2279                            .dwattr $C$DW$T$669, DW_AT_address_class(0x20)
    2280                    
    2281                    
    2282                    $C$DW$T$163     .dwtag  DW_TAG_enumeration_type
    2283                            .dwattr $C$DW$T$163, DW_AT_byte_size(0x04)
    2284                    $C$DW$155       .dwtag  DW_TAG_enumerator
    2285                            .dwattr $C$DW$155, DW_AT_name("ScaleMajor")
    2286                            .dwattr $C$DW$155, DW_AT_const_value(0x00)
    2287                            .dwattr $C$DW$155, DW_AT_decl_file("C:/Users/Raz Aloni/OneDrive/School/EEL4924/DSP/C_Libs/Voca
    2288                            .dwattr $C$DW$155, DW_AT_decl_line(0x36)
    2289                            .dwattr $C$DW$155, DW_AT_decl_column(0x05)
    2290                    
    2291                    $C$DW$156       .dwtag  DW_TAG_enumerator
    2292                            .dwattr $C$DW$156, DW_AT_name("ScaleMinor")
    2293                            .dwattr $C$DW$156, DW_AT_const_value(0x01)
    2294                            .dwattr $C$DW$156, DW_AT_decl_file("C:/Users/Raz Aloni/OneDrive/School/EEL4924/DSP/C_Libs/Voca
    2295                            .dwattr $C$DW$156, DW_AT_decl_line(0x37)
    2296                            .dwattr $C$DW$156, DW_AT_decl_column(0x05)
    2297                    
    2298                    $C$DW$157       .dwtag  DW_TAG_enumerator
    2299                            .dwattr $C$DW$157, DW_AT_name("HarmonicMinor")
    2300                            .dwattr $C$DW$157, DW_AT_const_value(0x02)
    2301                            .dwattr $C$DW$157, DW_AT_decl_file("C:/Users/Raz Aloni/OneDrive/School/EEL4924/DSP/C_Libs/Voca
    2302                            .dwattr $C$DW$157, DW_AT_decl_line(0x38)
    2303                            .dwattr $C$DW$157, DW_AT_decl_column(0x05)
    2304                    
    2305                    $C$DW$158       .dwtag  DW_TAG_enumerator
    2306                            .dwattr $C$DW$158, DW_AT_name("Lydian")
    2307                            .dwattr $C$DW$158, DW_AT_const_value(0x03)
    2308                            .dwattr $C$DW$158, DW_AT_decl_file("C:/Users/Raz Aloni/OneDrive/School/EEL4924/DSP/C_Libs/Voca
    2309                            .dwattr $C$DW$158, DW_AT_decl_line(0x39)
    2310                            .dwattr $C$DW$158, DW_AT_decl_column(0x05)
TMS320C6x Assembler PC v8.1.3 Wed Apr 19 22:40:38 2017

Tools Copyright (c) 1996-2015 Texas Instruments Incorporated
AudioTasks.asm                                                       PAGE   43

    2311                    
    2312                    $C$DW$159       .dwtag  DW_TAG_enumerator
    2313                            .dwattr $C$DW$159, DW_AT_name("Mixolydian")
    2314                            .dwattr $C$DW$159, DW_AT_const_value(0x04)
    2315                            .dwattr $C$DW$159, DW_AT_decl_file("C:/Users/Raz Aloni/OneDrive/School/EEL4924/DSP/C_Libs/Voca
    2316                            .dwattr $C$DW$159, DW_AT_decl_line(0x3a)
    2317                            .dwattr $C$DW$159, DW_AT_decl_column(0x05)
    2318                    
    2319                            .dwattr $C$DW$T$163, DW_AT_decl_file("C:/Users/Raz Aloni/OneDrive/School/EEL4924/DSP/C_Libs/Vo
    2320                            .dwattr $C$DW$T$163, DW_AT_decl_line(0x35)
    2321                            .dwattr $C$DW$T$163, DW_AT_decl_column(0x01)
    2322                            .dwendtag $C$DW$T$163
    2323                    
    2324                    $C$DW$T$164     .dwtag  DW_TAG_typedef
    2325                            .dwattr $C$DW$T$164, DW_AT_name("Scale")
    2326                            .dwattr $C$DW$T$164, DW_AT_type(*$C$DW$T$163)
    2327                            .dwattr $C$DW$T$164, DW_AT_language(DW_LANG_C)
    2328                            .dwattr $C$DW$T$164, DW_AT_decl_file("C:/Users/Raz Aloni/OneDrive/School/EEL4924/DSP/C_Libs/Vo
    2329                            .dwattr $C$DW$T$164, DW_AT_decl_line(0x3b)
    2330                            .dwattr $C$DW$T$164, DW_AT_decl_column(0x03)
    2331                    
    2332                    
    2333                    $C$DW$T$165     .dwtag  DW_TAG_enumeration_type
    2334                            .dwattr $C$DW$T$165, DW_AT_byte_size(0x04)
    2335                    $C$DW$160       .dwtag  DW_TAG_enumerator
    2336                            .dwattr $C$DW$160, DW_AT_name("ChordMajor")
    2337                            .dwattr $C$DW$160, DW_AT_const_value(0x00)
    2338                            .dwattr $C$DW$160, DW_AT_decl_file("C:/Users/Raz Aloni/OneDrive/School/EEL4924/DSP/C_Libs/Voca
    2339                            .dwattr $C$DW$160, DW_AT_decl_line(0x40)
    2340                            .dwattr $C$DW$160, DW_AT_decl_column(0x05)
    2341                    
    2342                    $C$DW$161       .dwtag  DW_TAG_enumerator
    2343                            .dwattr $C$DW$161, DW_AT_name("ChordMinor")
    2344                            .dwattr $C$DW$161, DW_AT_const_value(0x01)
    2345                            .dwattr $C$DW$161, DW_AT_decl_file("C:/Users/Raz Aloni/OneDrive/School/EEL4924/DSP/C_Libs/Voca
    2346                            .dwattr $C$DW$161, DW_AT_decl_line(0x41)
    2347                            .dwattr $C$DW$161, DW_AT_decl_column(0x05)
    2348                    
    2349                    $C$DW$162       .dwtag  DW_TAG_enumerator
    2350                            .dwattr $C$DW$162, DW_AT_name("Dominant7")
    2351                            .dwattr $C$DW$162, DW_AT_const_value(0x02)
    2352                            .dwattr $C$DW$162, DW_AT_decl_file("C:/Users/Raz Aloni/OneDrive/School/EEL4924/DSP/C_Libs/Voca
    2353                            .dwattr $C$DW$162, DW_AT_decl_line(0x42)
    2354                            .dwattr $C$DW$162, DW_AT_decl_column(0x05)
    2355                    
    2356                    $C$DW$163       .dwtag  DW_TAG_enumerator
    2357                            .dwattr $C$DW$163, DW_AT_name("Minor7")
    2358                            .dwattr $C$DW$163, DW_AT_const_value(0x03)
    2359                            .dwattr $C$DW$163, DW_AT_decl_file("C:/Users/Raz Aloni/OneDrive/School/EEL4924/DSP/C_Libs/Voca
    2360                            .dwattr $C$DW$163, DW_AT_decl_line(0x43)
    2361                            .dwattr $C$DW$163, DW_AT_decl_column(0x05)
    2362                    
    2363                    $C$DW$164       .dwtag  DW_TAG_enumerator
    2364                            .dwattr $C$DW$164, DW_AT_name("Sus4")
    2365                            .dwattr $C$DW$164, DW_AT_const_value(0x04)
TMS320C6x Assembler PC v8.1.3 Wed Apr 19 22:40:38 2017

Tools Copyright (c) 1996-2015 Texas Instruments Incorporated
AudioTasks.asm                                                       PAGE   44

    2366                            .dwattr $C$DW$164, DW_AT_decl_file("C:/Users/Raz Aloni/OneDrive/School/EEL4924/DSP/C_Libs/Voca
    2367                            .dwattr $C$DW$164, DW_AT_decl_line(0x44)
    2368                            .dwattr $C$DW$164, DW_AT_decl_column(0x05)
    2369                    
    2370                    $C$DW$165       .dwtag  DW_TAG_enumerator
    2371                            .dwattr $C$DW$165, DW_AT_name("Sus2")
    2372                            .dwattr $C$DW$165, DW_AT_const_value(0x05)
    2373                            .dwattr $C$DW$165, DW_AT_decl_file("C:/Users/Raz Aloni/OneDrive/School/EEL4924/DSP/C_Libs/Voca
    2374                            .dwattr $C$DW$165, DW_AT_decl_line(0x45)
    2375                            .dwattr $C$DW$165, DW_AT_decl_column(0x05)
    2376                    
    2377                            .dwattr $C$DW$T$165, DW_AT_decl_file("C:/Users/Raz Aloni/OneDrive/School/EEL4924/DSP/C_Libs/Vo
    2378                            .dwattr $C$DW$T$165, DW_AT_decl_line(0x3f)
    2379                            .dwattr $C$DW$T$165, DW_AT_decl_column(0x01)
    2380                            .dwendtag $C$DW$T$165
    2381                    
    2382                    $C$DW$T$166     .dwtag  DW_TAG_typedef
    2383                            .dwattr $C$DW$T$166, DW_AT_name("Chord")
    2384                            .dwattr $C$DW$T$166, DW_AT_type(*$C$DW$T$165)
    2385                            .dwattr $C$DW$T$166, DW_AT_language(DW_LANG_C)
    2386                            .dwattr $C$DW$T$166, DW_AT_decl_file("C:/Users/Raz Aloni/OneDrive/School/EEL4924/DSP/C_Libs/Vo
    2387                            .dwattr $C$DW$T$166, DW_AT_decl_line(0x46)
    2388                            .dwattr $C$DW$T$166, DW_AT_decl_column(0x03)
    2389                    
    2390                    
    2391                    $C$DW$T$184     .dwtag  DW_TAG_enumeration_type
    2392                            .dwattr $C$DW$T$184, DW_AT_byte_size(0x04)
    2393                    $C$DW$166       .dwtag  DW_TAG_enumerator
    2394                            .dwattr $C$DW$166, DW_AT_name("ButtonNone")
    2395                            .dwattr $C$DW$166, DW_AT_const_value(0x00)
    2396                            .dwattr $C$DW$166, DW_AT_decl_file("C:/Users/Raz Aloni/OneDrive/School/EEL4924/DSP/C_Libs/MicC
    2397                            .dwattr $C$DW$166, DW_AT_decl_line(0x2b)
    2398                            .dwattr $C$DW$166, DW_AT_decl_column(0x05)
    2399                    
    2400                    $C$DW$167       .dwtag  DW_TAG_enumerator
    2401                            .dwattr $C$DW$167, DW_AT_name("Button0")
    2402                            .dwattr $C$DW$167, DW_AT_const_value(0x01)
    2403                            .dwattr $C$DW$167, DW_AT_decl_file("C:/Users/Raz Aloni/OneDrive/School/EEL4924/DSP/C_Libs/MicC
    2404                            .dwattr $C$DW$167, DW_AT_decl_line(0x2c)
    2405                            .dwattr $C$DW$167, DW_AT_decl_column(0x05)
    2406                    
    2407                    $C$DW$168       .dwtag  DW_TAG_enumerator
    2408                            .dwattr $C$DW$168, DW_AT_name("Button1")
    2409                            .dwattr $C$DW$168, DW_AT_const_value(0x02)
    2410                            .dwattr $C$DW$168, DW_AT_decl_file("C:/Users/Raz Aloni/OneDrive/School/EEL4924/DSP/C_Libs/MicC
    2411                            .dwattr $C$DW$168, DW_AT_decl_line(0x2d)
    2412                            .dwattr $C$DW$168, DW_AT_decl_column(0x05)
    2413                    
    2414                    $C$DW$169       .dwtag  DW_TAG_enumerator
    2415                            .dwattr $C$DW$169, DW_AT_name("Button2")
    2416                            .dwattr $C$DW$169, DW_AT_const_value(0x04)
    2417                            .dwattr $C$DW$169, DW_AT_decl_file("C:/Users/Raz Aloni/OneDrive/School/EEL4924/DSP/C_Libs/MicC
    2418                            .dwattr $C$DW$169, DW_AT_decl_line(0x2e)
    2419                            .dwattr $C$DW$169, DW_AT_decl_column(0x05)
    2420                    
TMS320C6x Assembler PC v8.1.3 Wed Apr 19 22:40:38 2017

Tools Copyright (c) 1996-2015 Texas Instruments Incorporated
AudioTasks.asm                                                       PAGE   45

    2421                    $C$DW$170       .dwtag  DW_TAG_enumerator
    2422                            .dwattr $C$DW$170, DW_AT_name("Button3")
    2423                            .dwattr $C$DW$170, DW_AT_const_value(0x08)
    2424                            .dwattr $C$DW$170, DW_AT_decl_file("C:/Users/Raz Aloni/OneDrive/School/EEL4924/DSP/C_Libs/MicC
    2425                            .dwattr $C$DW$170, DW_AT_decl_line(0x2f)
    2426                            .dwattr $C$DW$170, DW_AT_decl_column(0x05)
    2427                    
    2428                            .dwattr $C$DW$T$184, DW_AT_decl_file("C:/Users/Raz Aloni/OneDrive/School/EEL4924/DSP/C_Libs/Mi
    2429                            .dwattr $C$DW$T$184, DW_AT_decl_line(0x2a)
    2430                            .dwattr $C$DW$T$184, DW_AT_decl_column(0x01)
    2431                            .dwendtag $C$DW$T$184
    2432                    
    2433                    $C$DW$T$185     .dwtag  DW_TAG_typedef
    2434                            .dwattr $C$DW$T$185, DW_AT_name("micButton_t")
    2435                            .dwattr $C$DW$T$185, DW_AT_type(*$C$DW$T$184)
    2436                            .dwattr $C$DW$T$185, DW_AT_language(DW_LANG_C)
    2437                            .dwattr $C$DW$T$185, DW_AT_decl_file("C:/Users/Raz Aloni/OneDrive/School/EEL4924/DSP/C_Libs/Mi
    2438                            .dwattr $C$DW$T$185, DW_AT_decl_line(0x30)
    2439                            .dwattr $C$DW$T$185, DW_AT_decl_column(0x03)
    2440                    
    2441                    
    2442                    $C$DW$T$671     .dwtag  DW_TAG_enumeration_type
    2443                            .dwattr $C$DW$T$671, DW_AT_byte_size(0x04)
    2444                    $C$DW$171       .dwtag  DW_TAG_enumerator
    2445                            .dwattr $C$DW$171, DW_AT_name("LedOff")
    2446                            .dwattr $C$DW$171, DW_AT_const_value(0x00)
    2447                            .dwattr $C$DW$171, DW_AT_decl_file("C:/Users/Raz Aloni/OneDrive/School/EEL4924/DSP/C_Libs/MicC
    2448                            .dwattr $C$DW$171, DW_AT_decl_line(0x1f)
    2449                            .dwattr $C$DW$171, DW_AT_decl_column(0x05)
    2450                    
    2451                    $C$DW$172       .dwtag  DW_TAG_enumerator
    2452                            .dwattr $C$DW$172, DW_AT_name("LedRed")
    2453                            .dwattr $C$DW$172, DW_AT_const_value(0x01)
    2454                            .dwattr $C$DW$172, DW_AT_decl_file("C:/Users/Raz Aloni/OneDrive/School/EEL4924/DSP/C_Libs/MicC
    2455                            .dwattr $C$DW$172, DW_AT_decl_line(0x20)
    2456                            .dwattr $C$DW$172, DW_AT_decl_column(0x05)
    2457                    
    2458                    $C$DW$173       .dwtag  DW_TAG_enumerator
    2459                            .dwattr $C$DW$173, DW_AT_name("LedGreen")
    2460                            .dwattr $C$DW$173, DW_AT_const_value(0x02)
    2461                            .dwattr $C$DW$173, DW_AT_decl_file("C:/Users/Raz Aloni/OneDrive/School/EEL4924/DSP/C_Libs/MicC
    2462                            .dwattr $C$DW$173, DW_AT_decl_line(0x21)
    2463                            .dwattr $C$DW$173, DW_AT_decl_column(0x05)
    2464                    
    2465                    $C$DW$174       .dwtag  DW_TAG_enumerator
    2466                            .dwattr $C$DW$174, DW_AT_name("LedBlue")
    2467                            .dwattr $C$DW$174, DW_AT_const_value(0x04)
    2468                            .dwattr $C$DW$174, DW_AT_decl_file("C:/Users/Raz Aloni/OneDrive/School/EEL4924/DSP/C_Libs/MicC
    2469                            .dwattr $C$DW$174, DW_AT_decl_line(0x22)
    2470                            .dwattr $C$DW$174, DW_AT_decl_column(0x05)
    2471                    
    2472                    $C$DW$175       .dwtag  DW_TAG_enumerator
    2473                            .dwattr $C$DW$175, DW_AT_name("LedYellow")
    2474                            .dwattr $C$DW$175, DW_AT_const_value(0x03)
    2475                            .dwattr $C$DW$175, DW_AT_decl_file("C:/Users/Raz Aloni/OneDrive/School/EEL4924/DSP/C_Libs/MicC
TMS320C6x Assembler PC v8.1.3 Wed Apr 19 22:40:38 2017

Tools Copyright (c) 1996-2015 Texas Instruments Incorporated
AudioTasks.asm                                                       PAGE   46

    2476                            .dwattr $C$DW$175, DW_AT_decl_line(0x23)
    2477                            .dwattr $C$DW$175, DW_AT_decl_column(0x05)
    2478                    
    2479                    $C$DW$176       .dwtag  DW_TAG_enumerator
    2480                            .dwattr $C$DW$176, DW_AT_name("LedCyan")
    2481                            .dwattr $C$DW$176, DW_AT_const_value(0x06)
    2482                            .dwattr $C$DW$176, DW_AT_decl_file("C:/Users/Raz Aloni/OneDrive/School/EEL4924/DSP/C_Libs/MicC
    2483                            .dwattr $C$DW$176, DW_AT_decl_line(0x24)
    2484                            .dwattr $C$DW$176, DW_AT_decl_column(0x05)
    2485                    
    2486                    $C$DW$177       .dwtag  DW_TAG_enumerator
    2487                            .dwattr $C$DW$177, DW_AT_name("LedMagenta")
    2488                            .dwattr $C$DW$177, DW_AT_const_value(0x05)
    2489                            .dwattr $C$DW$177, DW_AT_decl_file("C:/Users/Raz Aloni/OneDrive/School/EEL4924/DSP/C_Libs/MicC
    2490                            .dwattr $C$DW$177, DW_AT_decl_line(0x25)
    2491                            .dwattr $C$DW$177, DW_AT_decl_column(0x05)
    2492                    
    2493                    $C$DW$178       .dwtag  DW_TAG_enumerator
    2494                            .dwattr $C$DW$178, DW_AT_name("LedWhite")
    2495                            .dwattr $C$DW$178, DW_AT_const_value(0x07)
    2496                            .dwattr $C$DW$178, DW_AT_decl_file("C:/Users/Raz Aloni/OneDrive/School/EEL4924/DSP/C_Libs/MicC
    2497                            .dwattr $C$DW$178, DW_AT_decl_line(0x26)
    2498                            .dwattr $C$DW$178, DW_AT_decl_column(0x05)
    2499                    
    2500                            .dwattr $C$DW$T$671, DW_AT_decl_file("C:/Users/Raz Aloni/OneDrive/School/EEL4924/DSP/C_Libs/Mi
    2501                            .dwattr $C$DW$T$671, DW_AT_decl_line(0x1e)
    2502                            .dwattr $C$DW$T$671, DW_AT_decl_column(0x01)
    2503                            .dwendtag $C$DW$T$671
    2504                    
    2505                    $C$DW$T$672     .dwtag  DW_TAG_typedef
    2506                            .dwattr $C$DW$T$672, DW_AT_name("micLed_t")
    2507                            .dwattr $C$DW$T$672, DW_AT_type(*$C$DW$T$671)
    2508                            .dwattr $C$DW$T$672, DW_AT_language(DW_LANG_C)
    2509                            .dwattr $C$DW$T$672, DW_AT_decl_file("C:/Users/Raz Aloni/OneDrive/School/EEL4924/DSP/C_Libs/Mi
    2510                            .dwattr $C$DW$T$672, DW_AT_decl_line(0x27)
    2511                            .dwattr $C$DW$T$672, DW_AT_decl_column(0x03)
    2512                    
    2513                    
    2514                    $C$DW$T$167     .dwtag  DW_TAG_structure_type
    2515                            .dwattr $C$DW$T$167, DW_AT_byte_size(0x6c)
    2516                    $C$DW$179       .dwtag  DW_TAG_member
    2517                            .dwattr $C$DW$179, DW_AT_type(*$C$DW$T$153)
    2518                            .dwattr $C$DW$179, DW_AT_name("isActive")
    2519                            .dwattr $C$DW$179, DW_AT_TI_symbol_name("isActive")
    2520                            .dwattr $C$DW$179, DW_AT_data_member_location[DW_OP_plus_uconst 0x0]
    2521                            .dwattr $C$DW$179, DW_AT_accessibility(DW_ACCESS_public)
    2522                            .dwattr $C$DW$179, DW_AT_decl_file("C:/Users/Raz Aloni/OneDrive/School/EEL4924/DSP/C_Libs/Voca
    2523                            .dwattr $C$DW$179, DW_AT_decl_line(0x32)
    2524                            .dwattr $C$DW$179, DW_AT_decl_column(0x0a)
    2525                    
    2526                    $C$DW$180       .dwtag  DW_TAG_member
    2527                            .dwattr $C$DW$180, DW_AT_type(*$C$DW$T$156)
    2528                            .dwattr $C$DW$180, DW_AT_name("tune")
    2529                            .dwattr $C$DW$180, DW_AT_TI_symbol_name("tune")
    2530                            .dwattr $C$DW$180, DW_AT_data_member_location[DW_OP_plus_uconst 0x8]
TMS320C6x Assembler PC v8.1.3 Wed Apr 19 22:40:38 2017

Tools Copyright (c) 1996-2015 Texas Instruments Incorporated
AudioTasks.asm                                                       PAGE   47

    2531                            .dwattr $C$DW$180, DW_AT_accessibility(DW_ACCESS_public)
    2532                            .dwattr $C$DW$180, DW_AT_decl_file("C:/Users/Raz Aloni/OneDrive/School/EEL4924/DSP/C_Libs/Voca
    2533                            .dwattr $C$DW$180, DW_AT_decl_line(0x33)
    2534                            .dwattr $C$DW$180, DW_AT_decl_column(0x0e)
    2535                    
    2536                    $C$DW$181       .dwtag  DW_TAG_member
    2537                            .dwattr $C$DW$181, DW_AT_type(*$C$DW$T$157)
    2538                            .dwattr $C$DW$181, DW_AT_name("Scale")
    2539                            .dwattr $C$DW$181, DW_AT_TI_symbol_name("Scale")
    2540                            .dwattr $C$DW$181, DW_AT_data_member_location[DW_OP_plus_uconst 0x18]
    2541                            .dwattr $C$DW$181, DW_AT_accessibility(DW_ACCESS_public)
    2542                            .dwattr $C$DW$181, DW_AT_decl_file("C:/Users/Raz Aloni/OneDrive/School/EEL4924/DSP/C_Libs/Voca
    2543                            .dwattr $C$DW$181, DW_AT_decl_line(0x34)
    2544                            .dwattr $C$DW$181, DW_AT_decl_column(0x0a)
    2545                    
    2546                    $C$DW$182       .dwtag  DW_TAG_member
    2547                            .dwattr $C$DW$182, DW_AT_type(*$C$DW$T$157)
    2548                            .dwattr $C$DW$182, DW_AT_name("Chord")
    2549                            .dwattr $C$DW$182, DW_AT_TI_symbol_name("Chord")
    2550                            .dwattr $C$DW$182, DW_AT_data_member_location[DW_OP_plus_uconst 0x30]
    2551                            .dwattr $C$DW$182, DW_AT_accessibility(DW_ACCESS_public)
    2552                            .dwattr $C$DW$182, DW_AT_decl_file("C:/Users/Raz Aloni/OneDrive/School/EEL4924/DSP/C_Libs/Voca
    2553                            .dwattr $C$DW$182, DW_AT_decl_line(0x35)
    2554                            .dwattr $C$DW$182, DW_AT_decl_column(0x0a)
    2555                    
    2556                    $C$DW$183       .dwtag  DW_TAG_member
    2557                            .dwattr $C$DW$183, DW_AT_type(*$C$DW$T$160)
    2558                            .dwattr $C$DW$183, DW_AT_name("Volume")
    2559                            .dwattr $C$DW$183, DW_AT_TI_symbol_name("Volume")
    2560                            .dwattr $C$DW$183, DW_AT_data_member_location[DW_OP_plus_uconst 0x48]
    2561                            .dwattr $C$DW$183, DW_AT_accessibility(DW_ACCESS_public)
    2562                            .dwattr $C$DW$183, DW_AT_decl_file("C:/Users/Raz Aloni/OneDrive/School/EEL4924/DSP/C_Libs/Voca
    2563                            .dwattr $C$DW$183, DW_AT_decl_line(0x36)
    2564                            .dwattr $C$DW$183, DW_AT_decl_column(0x0b)
    2565                    
    2566                    $C$DW$184       .dwtag  DW_TAG_member
    2567                            .dwattr $C$DW$184, DW_AT_type(*$C$DW$T$152)
    2568                            .dwattr $C$DW$184, DW_AT_name("isChordMode")
    2569                            .dwattr $C$DW$184, DW_AT_TI_symbol_name("isChordMode")
    2570                            .dwattr $C$DW$184, DW_AT_data_member_location[DW_OP_plus_uconst 0x58]
    2571                            .dwattr $C$DW$184, DW_AT_accessibility(DW_ACCESS_public)
    2572                            .dwattr $C$DW$184, DW_AT_decl_file("C:/Users/Raz Aloni/OneDrive/School/EEL4924/DSP/C_Libs/Voca
    2573                            .dwattr $C$DW$184, DW_AT_decl_line(0x37)
    2574                            .dwattr $C$DW$184, DW_AT_decl_column(0x0a)
    2575                    
    2576                    $C$DW$185       .dwtag  DW_TAG_member
    2577                            .dwattr $C$DW$185, DW_AT_type(*$C$DW$T$162)
    2578                            .dwattr $C$DW$185, DW_AT_name("ChordTonic")
    2579                            .dwattr $C$DW$185, DW_AT_TI_symbol_name("ChordTonic")
    2580                            .dwattr $C$DW$185, DW_AT_data_member_location[DW_OP_plus_uconst 0x5c]
    2581                            .dwattr $C$DW$185, DW_AT_accessibility(DW_ACCESS_public)
    2582                            .dwattr $C$DW$185, DW_AT_decl_file("C:/Users/Raz Aloni/OneDrive/School/EEL4924/DSP/C_Libs/Voca
    2583                            .dwattr $C$DW$185, DW_AT_decl_line(0x38)
    2584                            .dwattr $C$DW$185, DW_AT_decl_column(0x0f)
    2585                    
TMS320C6x Assembler PC v8.1.3 Wed Apr 19 22:40:38 2017

Tools Copyright (c) 1996-2015 Texas Instruments Incorporated
AudioTasks.asm                                                       PAGE   48

    2586                    $C$DW$186       .dwtag  DW_TAG_member
    2587                            .dwattr $C$DW$186, DW_AT_type(*$C$DW$T$162)
    2588                            .dwattr $C$DW$186, DW_AT_name("ScaleTonic")
    2589                            .dwattr $C$DW$186, DW_AT_TI_symbol_name("ScaleTonic")
    2590                            .dwattr $C$DW$186, DW_AT_data_member_location[DW_OP_plus_uconst 0x60]
    2591                            .dwattr $C$DW$186, DW_AT_accessibility(DW_ACCESS_public)
    2592                            .dwattr $C$DW$186, DW_AT_decl_file("C:/Users/Raz Aloni/OneDrive/School/EEL4924/DSP/C_Libs/Voca
    2593                            .dwattr $C$DW$186, DW_AT_decl_line(0x39)
    2594                            .dwattr $C$DW$186, DW_AT_decl_column(0x0f)
    2595                    
    2596                    $C$DW$187       .dwtag  DW_TAG_member
    2597                            .dwattr $C$DW$187, DW_AT_type(*$C$DW$T$164)
    2598                            .dwattr $C$DW$187, DW_AT_name("ScaleType")
    2599                            .dwattr $C$DW$187, DW_AT_TI_symbol_name("ScaleType")
    2600                            .dwattr $C$DW$187, DW_AT_data_member_location[DW_OP_plus_uconst 0x64]
    2601                            .dwattr $C$DW$187, DW_AT_accessibility(DW_ACCESS_public)
    2602                            .dwattr $C$DW$187, DW_AT_decl_file("C:/Users/Raz Aloni/OneDrive/School/EEL4924/DSP/C_Libs/Voca
    2603                            .dwattr $C$DW$187, DW_AT_decl_line(0x3a)
    2604                            .dwattr $C$DW$187, DW_AT_decl_column(0x0b)
    2605                    
    2606                    $C$DW$188       .dwtag  DW_TAG_member
    2607                            .dwattr $C$DW$188, DW_AT_type(*$C$DW$T$166)
    2608                            .dwattr $C$DW$188, DW_AT_name("ChordType")
    2609                            .dwattr $C$DW$188, DW_AT_TI_symbol_name("ChordType")
    2610                            .dwattr $C$DW$188, DW_AT_data_member_location[DW_OP_plus_uconst 0x68]
    2611                            .dwattr $C$DW$188, DW_AT_accessibility(DW_ACCESS_public)
    2612                            .dwattr $C$DW$188, DW_AT_decl_file("C:/Users/Raz Aloni/OneDrive/School/EEL4924/DSP/C_Libs/Voca
    2613                            .dwattr $C$DW$188, DW_AT_decl_line(0x3b)
    2614                            .dwattr $C$DW$188, DW_AT_decl_column(0x0b)
    2615                    
    2616                            .dwattr $C$DW$T$167, DW_AT_decl_file("C:/Users/Raz Aloni/OneDrive/School/EEL4924/DSP/C_Libs/Vo
    2617                            .dwattr $C$DW$T$167, DW_AT_decl_line(0x31)
    2618                            .dwattr $C$DW$T$167, DW_AT_decl_column(0x01)
    2619                            .dwendtag $C$DW$T$167
    2620                    
    2621                    $C$DW$T$673     .dwtag  DW_TAG_typedef
    2622                            .dwattr $C$DW$T$673, DW_AT_name("MicCheckPreset")
    2623                            .dwattr $C$DW$T$673, DW_AT_type(*$C$DW$T$167)
    2624                            .dwattr $C$DW$T$673, DW_AT_language(DW_LANG_C)
    2625                            .dwattr $C$DW$T$673, DW_AT_decl_file("C:/Users/Raz Aloni/OneDrive/School/EEL4924/DSP/C_Libs/Vo
    2626                            .dwattr $C$DW$T$673, DW_AT_decl_line(0x3c)
    2627                            .dwattr $C$DW$T$673, DW_AT_decl_column(0x03)
    2628                    
    2629                    
    2630                    $C$DW$T$674     .dwtag  DW_TAG_array_type
    2631                            .dwattr $C$DW$T$674, DW_AT_type(*$C$DW$T$673)
    2632                            .dwattr $C$DW$T$674, DW_AT_language(DW_LANG_C)
    2633                            .dwattr $C$DW$T$674, DW_AT_byte_size(0x1b0)
    2634                    $C$DW$189       .dwtag  DW_TAG_subrange_type
    2635                            .dwattr $C$DW$189, DW_AT_upper_bound(0x03)
    2636                    
    2637                            .dwendtag $C$DW$T$674
    2638                    
    2639                    $C$DW$T$675     .dwtag  DW_TAG_pointer_type
    2640                            .dwattr $C$DW$T$675, DW_AT_type(*$C$DW$T$673)
TMS320C6x Assembler PC v8.1.3 Wed Apr 19 22:40:38 2017

Tools Copyright (c) 1996-2015 Texas Instruments Incorporated
AudioTasks.asm                                                       PAGE   49

    2641                            .dwattr $C$DW$T$675, DW_AT_address_class(0x20)
    2642                    
    2643                    
    2644                    $C$DW$T$173     .dwtag  DW_TAG_structure_type
    2645                            .dwattr $C$DW$T$173, DW_AT_byte_size(0x0c)
    2646                    $C$DW$190       .dwtag  DW_TAG_member
    2647                            .dwattr $C$DW$190, DW_AT_type(*$C$DW$T$168)
    2648                            .dwattr $C$DW$190, DW_AT_name("elem")
    2649                            .dwattr $C$DW$190, DW_AT_TI_symbol_name("elem")
    2650                            .dwattr $C$DW$190, DW_AT_data_member_location[DW_OP_plus_uconst 0x0]
    2651                            .dwattr $C$DW$190, DW_AT_accessibility(DW_ACCESS_public)
    2652                            .dwattr $C$DW$190, DW_AT_decl_file("C:/Users/Raz Aloni/OneDrive/School/EEL4924/DSP/C_Libs/Audi
    2653                            .dwattr $C$DW$190, DW_AT_decl_line(0x50)
    2654                            .dwattr $C$DW$190, DW_AT_decl_column(0x10)
    2655                    
    2656                    $C$DW$191       .dwtag  DW_TAG_member
    2657                            .dwattr $C$DW$191, DW_AT_type(*$C$DW$T$172)
    2658                            .dwattr $C$DW$191, DW_AT_name("buffPtr")
    2659                            .dwattr $C$DW$191, DW_AT_TI_symbol_name("buffPtr")
    2660                            .dwattr $C$DW$191, DW_AT_data_member_location[DW_OP_plus_uconst 0x8]
    2661                            .dwattr $C$DW$191, DW_AT_accessibility(DW_ACCESS_public)
    2662                            .dwattr $C$DW$191, DW_AT_decl_file("C:/Users/Raz Aloni/OneDrive/School/EEL4924/DSP/C_Libs/Audi
    2663                            .dwattr $C$DW$191, DW_AT_decl_line(0x51)
    2664                            .dwattr $C$DW$191, DW_AT_decl_column(0x0c)
    2665                    
    2666                            .dwattr $C$DW$T$173, DW_AT_decl_file("C:/Users/Raz Aloni/OneDrive/School/EEL4924/DSP/C_Libs/Au
    2667                            .dwattr $C$DW$T$173, DW_AT_decl_line(0x4f)
    2668                            .dwattr $C$DW$T$173, DW_AT_decl_column(0x01)
    2669                            .dwendtag $C$DW$T$173
    2670                    
    2671                    $C$DW$T$678     .dwtag  DW_TAG_typedef
    2672                            .dwattr $C$DW$T$678, DW_AT_name("AudioBuffMsg")
    2673                            .dwattr $C$DW$T$678, DW_AT_type(*$C$DW$T$173)
    2674                            .dwattr $C$DW$T$678, DW_AT_language(DW_LANG_C)
    2675                            .dwattr $C$DW$T$678, DW_AT_decl_file("C:/Users/Raz Aloni/OneDrive/School/EEL4924/DSP/C_Libs/Au
    2676                            .dwattr $C$DW$T$678, DW_AT_decl_line(0x52)
    2677                            .dwattr $C$DW$T$678, DW_AT_decl_column(0x03)
    2678                    
    2679                    $C$DW$T$679     .dwtag  DW_TAG_pointer_type
    2680                            .dwattr $C$DW$T$679, DW_AT_type(*$C$DW$T$678)
    2681                            .dwattr $C$DW$T$679, DW_AT_address_class(0x20)
    2682                    
    2683                    
    2684                    $C$DW$T$177     .dwtag  DW_TAG_structure_type
    2685                            .dwattr $C$DW$T$177, DW_AT_byte_size(0x08)
    2686                    $C$DW$192       .dwtag  DW_TAG_member
    2687                            .dwattr $C$DW$192, DW_AT_type(*$C$DW$T$10)
    2688                            .dwattr $C$DW$192, DW_AT_name("length")
    2689                            .dwattr $C$DW$192, DW_AT_TI_symbol_name("length")
    2690                            .dwattr $C$DW$192, DW_AT_data_member_location[DW_OP_plus_uconst 0x0]
    2691                            .dwattr $C$DW$192, DW_AT_accessibility(DW_ACCESS_public)
    2692                            .dwattr $C$DW$192, DW_AT_decl_file("C:/ti/bios_6_50_00_10/packages/ti/sysbios/knl/Swi.h")
    2693                            .dwattr $C$DW$192, DW_AT_decl_line(0x14d)
    2694                            .dwattr $C$DW$192, DW_AT_decl_column(0x16)
    2695                    
TMS320C6x Assembler PC v8.1.3 Wed Apr 19 22:40:38 2017

Tools Copyright (c) 1996-2015 Texas Instruments Incorporated
AudioTasks.asm                                                       PAGE   50

    2696                    $C$DW$193       .dwtag  DW_TAG_member
    2697                            .dwattr $C$DW$193, DW_AT_type(*$C$DW$T$176)
    2698                            .dwattr $C$DW$193, DW_AT_name("elem")
    2699                            .dwattr $C$DW$193, DW_AT_TI_symbol_name("elem")
    2700                            .dwattr $C$DW$193, DW_AT_data_member_location[DW_OP_plus_uconst 0x4]
    2701                            .dwattr $C$DW$193, DW_AT_accessibility(DW_ACCESS_public)
    2702                            .dwattr $C$DW$193, DW_AT_decl_file("C:/ti/bios_6_50_00_10/packages/ti/sysbios/knl/Swi.h")
    2703                            .dwattr $C$DW$193, DW_AT_decl_line(0x14d)
    2704                            .dwattr $C$DW$193, DW_AT_decl_column(0x40)
    2705                    
    2706                            .dwattr $C$DW$T$177, DW_AT_decl_file("C:/ti/bios_6_50_00_10/packages/ti/sysbios/knl/Swi.h")
    2707                            .dwattr $C$DW$T$177, DW_AT_decl_line(0x14d)
    2708                            .dwattr $C$DW$T$177, DW_AT_decl_column(0x10)
    2709                            .dwendtag $C$DW$T$177
    2710                    
    2711                    $C$DW$T$681     .dwtag  DW_TAG_typedef
    2712                            .dwattr $C$DW$T$681, DW_AT_name("__ARRAY1_ti_sysbios_knl_Swi_hooks")
    2713                            .dwattr $C$DW$T$681, DW_AT_type(*$C$DW$T$177)
    2714                            .dwattr $C$DW$T$681, DW_AT_language(DW_LANG_C)
    2715                            .dwattr $C$DW$T$681, DW_AT_decl_file("C:/ti/bios_6_50_00_10/packages/ti/sysbios/knl/Swi.h")
    2716                            .dwattr $C$DW$T$681, DW_AT_decl_line(0x14d)
    2717                            .dwattr $C$DW$T$681, DW_AT_decl_column(0x48)
    2718                    
    2719                    $C$DW$T$682     .dwtag  DW_TAG_typedef
    2720                            .dwattr $C$DW$T$682, DW_AT_name("__TA_ti_sysbios_knl_Swi_hooks")
    2721                            .dwattr $C$DW$T$682, DW_AT_type(*$C$DW$T$681)
    2722                            .dwattr $C$DW$T$682, DW_AT_language(DW_LANG_C)
    2723                            .dwattr $C$DW$T$682, DW_AT_decl_file("C:/ti/bios_6_50_00_10/packages/ti/sysbios/knl/Swi.h")
    2724                            .dwattr $C$DW$T$682, DW_AT_decl_line(0x14f)
    2725                            .dwattr $C$DW$T$682, DW_AT_decl_column(0x2b)
    2726                    
    2727                    
    2728                    $C$DW$T$178     .dwtag  DW_TAG_structure_type
    2729                            .dwattr $C$DW$T$178, DW_AT_byte_size(0x08)
    2730                    $C$DW$194       .dwtag  DW_TAG_member
    2731                            .dwattr $C$DW$194, DW_AT_type(*$C$DW$T$10)
    2732                            .dwattr $C$DW$194, DW_AT_name("length")
    2733                            .dwattr $C$DW$194, DW_AT_TI_symbol_name("length")
    2734                            .dwattr $C$DW$194, DW_AT_data_member_location[DW_OP_plus_uconst 0x0]
    2735                            .dwattr $C$DW$194, DW_AT_accessibility(DW_ACCESS_public)
    2736                            .dwattr $C$DW$194, DW_AT_decl_file("C:/ti/bios_6_50_00_10/packages/ti/sysbios/knl/Swi.h")
    2737                            .dwattr $C$DW$194, DW_AT_decl_line(0x14e)
    2738                            .dwattr $C$DW$194, DW_AT_decl_column(0x16)
    2739                    
    2740                    $C$DW$195       .dwtag  DW_TAG_member
    2741                            .dwattr $C$DW$195, DW_AT_type(*$C$DW$T$176)
    2742                            .dwattr $C$DW$195, DW_AT_name("elem")
    2743                            .dwattr $C$DW$195, DW_AT_TI_symbol_name("elem")
    2744                            .dwattr $C$DW$195, DW_AT_data_member_location[DW_OP_plus_uconst 0x4]
    2745                            .dwattr $C$DW$195, DW_AT_accessibility(DW_ACCESS_public)
    2746                            .dwattr $C$DW$195, DW_AT_decl_file("C:/ti/bios_6_50_00_10/packages/ti/sysbios/knl/Swi.h")
    2747                            .dwattr $C$DW$195, DW_AT_decl_line(0x14e)
    2748                            .dwattr $C$DW$195, DW_AT_decl_column(0x40)
    2749                    
    2750                            .dwattr $C$DW$T$178, DW_AT_decl_file("C:/ti/bios_6_50_00_10/packages/ti/sysbios/knl/Swi.h")
TMS320C6x Assembler PC v8.1.3 Wed Apr 19 22:40:38 2017

Tools Copyright (c) 1996-2015 Texas Instruments Incorporated
AudioTasks.asm                                                       PAGE   51

    2751                            .dwattr $C$DW$T$178, DW_AT_decl_line(0x14e)
    2752                            .dwattr $C$DW$T$178, DW_AT_decl_column(0x10)
    2753                            .dwendtag $C$DW$T$178
    2754                    
    2755                    $C$DW$T$683     .dwtag  DW_TAG_typedef
    2756                            .dwattr $C$DW$T$683, DW_AT_name("__CARRAY1_ti_sysbios_knl_Swi_hooks")
    2757                            .dwattr $C$DW$T$683, DW_AT_type(*$C$DW$T$178)
    2758                            .dwattr $C$DW$T$683, DW_AT_language(DW_LANG_C)
    2759                            .dwattr $C$DW$T$683, DW_AT_decl_file("C:/ti/bios_6_50_00_10/packages/ti/sysbios/knl/Swi.h")
    2760                            .dwattr $C$DW$T$683, DW_AT_decl_line(0x14e)
    2761                            .dwattr $C$DW$T$683, DW_AT_decl_column(0x48)
    2762                    
    2763                    $C$DW$T$684     .dwtag  DW_TAG_typedef
    2764                            .dwattr $C$DW$T$684, DW_AT_name("CT__ti_sysbios_knl_Swi_hooks")
    2765                            .dwattr $C$DW$T$684, DW_AT_type(*$C$DW$T$683)
    2766                            .dwattr $C$DW$T$684, DW_AT_language(DW_LANG_C)
    2767                            .dwattr $C$DW$T$684, DW_AT_decl_file("C:/ti/bios_6_50_00_10/packages/ti/sysbios/knl/Swi.h")
    2768                            .dwattr $C$DW$T$684, DW_AT_decl_line(0x150)
    2769                            .dwattr $C$DW$T$684, DW_AT_decl_column(0x2c)
    2770                    
    2771                    
    2772                    $C$DW$T$182     .dwtag  DW_TAG_structure_type
    2773                            .dwattr $C$DW$T$182, DW_AT_byte_size(0x08)
    2774                    $C$DW$196       .dwtag  DW_TAG_member
    2775                            .dwattr $C$DW$196, DW_AT_type(*$C$DW$T$10)
    2776                            .dwattr $C$DW$196, DW_AT_name("length")
    2777                            .dwattr $C$DW$196, DW_AT_TI_symbol_name("length")
    2778                            .dwattr $C$DW$196, DW_AT_data_member_location[DW_OP_plus_uconst 0x0]
    2779                            .dwattr $C$DW$196, DW_AT_accessibility(DW_ACCESS_public)
    2780                            .dwattr $C$DW$196, DW_AT_decl_file("C:/ti/bios_6_50_00_10/packages/ti/sysbios/knl/Task.h")
    2781                            .dwattr $C$DW$196, DW_AT_decl_line(0x29b)
    2782                            .dwattr $C$DW$196, DW_AT_decl_column(0x16)
    2783                    
    2784                    $C$DW$197       .dwtag  DW_TAG_member
    2785                            .dwattr $C$DW$197, DW_AT_type(*$C$DW$T$181)
    2786                            .dwattr $C$DW$197, DW_AT_name("elem")
    2787                            .dwattr $C$DW$197, DW_AT_TI_symbol_name("elem")
    2788                            .dwattr $C$DW$197, DW_AT_data_member_location[DW_OP_plus_uconst 0x4]
    2789                            .dwattr $C$DW$197, DW_AT_accessibility(DW_ACCESS_public)
    2790                            .dwattr $C$DW$197, DW_AT_decl_file("C:/ti/bios_6_50_00_10/packages/ti/sysbios/knl/Task.h")
    2791                            .dwattr $C$DW$197, DW_AT_decl_line(0x29b)
    2792                            .dwattr $C$DW$197, DW_AT_decl_column(0x41)
    2793                    
    2794                            .dwattr $C$DW$T$182, DW_AT_decl_file("C:/ti/bios_6_50_00_10/packages/ti/sysbios/knl/Task.h")
    2795                            .dwattr $C$DW$T$182, DW_AT_decl_line(0x29b)
    2796                            .dwattr $C$DW$T$182, DW_AT_decl_column(0x10)
    2797                            .dwendtag $C$DW$T$182
    2798                    
    2799                    $C$DW$T$685     .dwtag  DW_TAG_typedef
    2800                            .dwattr $C$DW$T$685, DW_AT_name("__ARRAY1_ti_sysbios_knl_Task_hooks")
    2801                            .dwattr $C$DW$T$685, DW_AT_type(*$C$DW$T$182)
    2802                            .dwattr $C$DW$T$685, DW_AT_language(DW_LANG_C)
    2803                            .dwattr $C$DW$T$685, DW_AT_decl_file("C:/ti/bios_6_50_00_10/packages/ti/sysbios/knl/Task.h")
    2804                            .dwattr $C$DW$T$685, DW_AT_decl_line(0x29b)
    2805                            .dwattr $C$DW$T$685, DW_AT_decl_column(0x49)
TMS320C6x Assembler PC v8.1.3 Wed Apr 19 22:40:38 2017

Tools Copyright (c) 1996-2015 Texas Instruments Incorporated
AudioTasks.asm                                                       PAGE   52

    2806                    
    2807                    $C$DW$T$686     .dwtag  DW_TAG_typedef
    2808                            .dwattr $C$DW$T$686, DW_AT_name("__TA_ti_sysbios_knl_Task_hooks")
    2809                            .dwattr $C$DW$T$686, DW_AT_type(*$C$DW$T$685)
    2810                            .dwattr $C$DW$T$686, DW_AT_language(DW_LANG_C)
    2811                            .dwattr $C$DW$T$686, DW_AT_decl_file("C:/ti/bios_6_50_00_10/packages/ti/sysbios/knl/Task.h")
    2812                            .dwattr $C$DW$T$686, DW_AT_decl_line(0x29d)
    2813                            .dwattr $C$DW$T$686, DW_AT_decl_column(0x2c)
    2814                    
    2815                    
    2816                    $C$DW$T$183     .dwtag  DW_TAG_structure_type
    2817                            .dwattr $C$DW$T$183, DW_AT_byte_size(0x08)
    2818                    $C$DW$198       .dwtag  DW_TAG_member
    2819                            .dwattr $C$DW$198, DW_AT_type(*$C$DW$T$10)
    2820                            .dwattr $C$DW$198, DW_AT_name("length")
    2821                            .dwattr $C$DW$198, DW_AT_TI_symbol_name("length")
    2822                            .dwattr $C$DW$198, DW_AT_data_member_location[DW_OP_plus_uconst 0x0]
    2823                            .dwattr $C$DW$198, DW_AT_accessibility(DW_ACCESS_public)
    2824                            .dwattr $C$DW$198, DW_AT_decl_file("C:/ti/bios_6_50_00_10/packages/ti/sysbios/knl/Task.h")
    2825                            .dwattr $C$DW$198, DW_AT_decl_line(0x29c)
    2826                            .dwattr $C$DW$198, DW_AT_decl_column(0x16)
    2827                    
    2828                    $C$DW$199       .dwtag  DW_TAG_member
    2829                            .dwattr $C$DW$199, DW_AT_type(*$C$DW$T$181)
    2830                            .dwattr $C$DW$199, DW_AT_name("elem")
    2831                            .dwattr $C$DW$199, DW_AT_TI_symbol_name("elem")
    2832                            .dwattr $C$DW$199, DW_AT_data_member_location[DW_OP_plus_uconst 0x4]
    2833                            .dwattr $C$DW$199, DW_AT_accessibility(DW_ACCESS_public)
    2834                            .dwattr $C$DW$199, DW_AT_decl_file("C:/ti/bios_6_50_00_10/packages/ti/sysbios/knl/Task.h")
    2835                            .dwattr $C$DW$199, DW_AT_decl_line(0x29c)
    2836                            .dwattr $C$DW$199, DW_AT_decl_column(0x41)
    2837                    
    2838                            .dwattr $C$DW$T$183, DW_AT_decl_file("C:/ti/bios_6_50_00_10/packages/ti/sysbios/knl/Task.h")
    2839                            .dwattr $C$DW$T$183, DW_AT_decl_line(0x29c)
    2840                            .dwattr $C$DW$T$183, DW_AT_decl_column(0x10)
    2841                            .dwendtag $C$DW$T$183
    2842                    
    2843                    $C$DW$T$687     .dwtag  DW_TAG_typedef
    2844                            .dwattr $C$DW$T$687, DW_AT_name("__CARRAY1_ti_sysbios_knl_Task_hooks")
    2845                            .dwattr $C$DW$T$687, DW_AT_type(*$C$DW$T$183)
    2846                            .dwattr $C$DW$T$687, DW_AT_language(DW_LANG_C)
    2847                            .dwattr $C$DW$T$687, DW_AT_decl_file("C:/ti/bios_6_50_00_10/packages/ti/sysbios/knl/Task.h")
    2848                            .dwattr $C$DW$T$687, DW_AT_decl_line(0x29c)
    2849                            .dwattr $C$DW$T$687, DW_AT_decl_column(0x49)
    2850                    
    2851                    $C$DW$T$688     .dwtag  DW_TAG_typedef
    2852                            .dwattr $C$DW$T$688, DW_AT_name("CT__ti_sysbios_knl_Task_hooks")
    2853                            .dwattr $C$DW$T$688, DW_AT_type(*$C$DW$T$687)
    2854                            .dwattr $C$DW$T$688, DW_AT_language(DW_LANG_C)
    2855                            .dwattr $C$DW$T$688, DW_AT_decl_file("C:/ti/bios_6_50_00_10/packages/ti/sysbios/knl/Task.h")
    2856                            .dwattr $C$DW$T$688, DW_AT_decl_line(0x29e)
    2857                            .dwattr $C$DW$T$688, DW_AT_decl_column(0x2d)
    2858                    
    2859                    
    2860                    $C$DW$T$186     .dwtag  DW_TAG_structure_type
TMS320C6x Assembler PC v8.1.3 Wed Apr 19 22:40:38 2017

Tools Copyright (c) 1996-2015 Texas Instruments Incorporated
AudioTasks.asm                                                       PAGE   53

    2861                            .dwattr $C$DW$T$186, DW_AT_byte_size(0x0c)
    2862                    $C$DW$200       .dwtag  DW_TAG_member
    2863                            .dwattr $C$DW$200, DW_AT_type(*$C$DW$T$168)
    2864                            .dwattr $C$DW$200, DW_AT_name("elem")
    2865                            .dwattr $C$DW$200, DW_AT_TI_symbol_name("elem")
    2866                            .dwattr $C$DW$200, DW_AT_data_member_location[DW_OP_plus_uconst 0x0]
    2867                            .dwattr $C$DW$200, DW_AT_accessibility(DW_ACCESS_public)
    2868                            .dwattr $C$DW$200, DW_AT_decl_file("C:/Users/Raz Aloni/OneDrive/School/EEL4924/DSP/C_Libs/MicC
    2869                            .dwattr $C$DW$200, DW_AT_decl_line(0x34)
    2870                            .dwattr $C$DW$200, DW_AT_decl_column(0x10)
    2871                    
    2872                    $C$DW$201       .dwtag  DW_TAG_member
    2873                            .dwattr $C$DW$201, DW_AT_type(*$C$DW$T$185)
    2874                            .dwattr $C$DW$201, DW_AT_name("buttonValue")
    2875                            .dwattr $C$DW$201, DW_AT_TI_symbol_name("buttonValue")
    2876                            .dwattr $C$DW$201, DW_AT_data_member_location[DW_OP_plus_uconst 0x8]
    2877                            .dwattr $C$DW$201, DW_AT_accessibility(DW_ACCESS_public)
    2878                            .dwattr $C$DW$201, DW_AT_decl_file("C:/Users/Raz Aloni/OneDrive/School/EEL4924/DSP/C_Libs/MicC
    2879                            .dwattr $C$DW$201, DW_AT_decl_line(0x35)
    2880                            .dwattr $C$DW$201, DW_AT_decl_column(0x11)
    2881                    
    2882                            .dwattr $C$DW$T$186, DW_AT_decl_file("C:/Users/Raz Aloni/OneDrive/School/EEL4924/DSP/C_Libs/Mi
    2883                            .dwattr $C$DW$T$186, DW_AT_decl_line(0x33)
    2884                            .dwattr $C$DW$T$186, DW_AT_decl_column(0x01)
    2885                            .dwendtag $C$DW$T$186
    2886                    
    2887                    $C$DW$T$689     .dwtag  DW_TAG_typedef
    2888                            .dwattr $C$DW$T$689, DW_AT_name("MicBtnMsg_t")
    2889                            .dwattr $C$DW$T$689, DW_AT_type(*$C$DW$T$186)
    2890                            .dwattr $C$DW$T$689, DW_AT_language(DW_LANG_C)
    2891                            .dwattr $C$DW$T$689, DW_AT_decl_file("C:/Users/Raz Aloni/OneDrive/School/EEL4924/DSP/C_Libs/Mi
    2892                            .dwattr $C$DW$T$689, DW_AT_decl_line(0x36)
    2893                            .dwattr $C$DW$T$689, DW_AT_decl_column(0x03)
    2894                    
    2895                    
    2896                    $C$DW$T$189     .dwtag  DW_TAG_structure_type
    2897                            .dwattr $C$DW$T$189, DW_AT_byte_size(0x0c)
    2898                    $C$DW$202       .dwtag  DW_TAG_member
    2899                            .dwattr $C$DW$202, DW_AT_type(*$C$DW$T$16)
    2900                            .dwattr $C$DW$202, DW_AT_name("freq")
    2901                            .dwattr $C$DW$202, DW_AT_TI_symbol_name("freq")
    2902                            .dwattr $C$DW$202, DW_AT_data_member_location[DW_OP_plus_uconst 0x0]
    2903                            .dwattr $C$DW$202, DW_AT_accessibility(DW_ACCESS_public)
    2904                            .dwattr $C$DW$202, DW_AT_decl_file("C:\Users\Raz Aloni\OneDrive\School\EEL4924\DSP\C_Libs\Voca
    2905                            .dwattr $C$DW$202, DW_AT_decl_line(0x12)
    2906                            .dwattr $C$DW$202, DW_AT_decl_column(0x08)
    2907                    
    2908                    $C$DW$203       .dwtag  DW_TAG_member
    2909                            .dwattr $C$DW$203, DW_AT_type(*$C$DW$T$188)
    2910                            .dwattr $C$DW$203, DW_AT_name("name")
    2911                            .dwattr $C$DW$203, DW_AT_TI_symbol_name("name")
    2912                            .dwattr $C$DW$203, DW_AT_data_member_location[DW_OP_plus_uconst 0x4]
    2913                            .dwattr $C$DW$203, DW_AT_accessibility(DW_ACCESS_public)
    2914                            .dwattr $C$DW$203, DW_AT_decl_file("C:\Users\Raz Aloni\OneDrive\School\EEL4924\DSP\C_Libs\Voca
    2915                            .dwattr $C$DW$203, DW_AT_decl_line(0x13)
TMS320C6x Assembler PC v8.1.3 Wed Apr 19 22:40:38 2017

Tools Copyright (c) 1996-2015 Texas Instruments Incorporated
AudioTasks.asm                                                       PAGE   54

    2916                            .dwattr $C$DW$203, DW_AT_decl_column(0x07)
    2917                    
    2918                    $C$DW$204       .dwtag  DW_TAG_member
    2919                            .dwattr $C$DW$204, DW_AT_type(*$C$DW$T$152)
    2920                            .dwattr $C$DW$204, DW_AT_name("active")
    2921                            .dwattr $C$DW$204, DW_AT_TI_symbol_name("active")
    2922                            .dwattr $C$DW$204, DW_AT_data_member_location[DW_OP_plus_uconst 0x8]
    2923                            .dwattr $C$DW$204, DW_AT_accessibility(DW_ACCESS_public)
    2924                            .dwattr $C$DW$204, DW_AT_decl_file("C:\Users\Raz Aloni\OneDrive\School\EEL4924\DSP\C_Libs\Voca
    2925                            .dwattr $C$DW$204, DW_AT_decl_line(0x14)
    2926                            .dwattr $C$DW$204, DW_AT_decl_column(0x07)
    2927                    
    2928                            .dwattr $C$DW$T$189, DW_AT_decl_file("C:\Users\Raz Aloni\OneDrive\School\EEL4924\DSP\C_Libs\Vo
    2929                            .dwattr $C$DW$T$189, DW_AT_decl_line(0x11)
    2930                            .dwattr $C$DW$T$189, DW_AT_decl_column(0x01)
    2931                            .dwendtag $C$DW$T$189
    2932                    
    2933                    $C$DW$T$690     .dwtag  DW_TAG_typedef
    2934                            .dwattr $C$DW$T$690, DW_AT_name("Note_t")
    2935                            .dwattr $C$DW$T$690, DW_AT_type(*$C$DW$T$189)
    2936                            .dwattr $C$DW$T$690, DW_AT_language(DW_LANG_C)
    2937                            .dwattr $C$DW$T$690, DW_AT_decl_file("C:\Users\Raz Aloni\OneDrive\School\EEL4924\DSP\C_Libs\Vo
    2938                            .dwattr $C$DW$T$690, DW_AT_decl_line(0x15)
    2939                            .dwattr $C$DW$T$690, DW_AT_decl_column(0x03)
    2940                    
    2941                    
    2942                    $C$DW$T$192     .dwtag  DW_TAG_union_type
    2943                            .dwattr $C$DW$T$192, DW_AT_byte_size(0x04)
    2944                    $C$DW$205       .dwtag  DW_TAG_member
    2945                            .dwattr $C$DW$205, DW_AT_type(*$C$DW$T$158)
    2946                            .dwattr $C$DW$205, DW_AT_name("f")
    2947                            .dwattr $C$DW$205, DW_AT_TI_symbol_name("f")
    2948                            .dwattr $C$DW$205, DW_AT_data_member_location[DW_OP_plus_uconst 0x0]
    2949                            .dwattr $C$DW$205, DW_AT_accessibility(DW_ACCESS_public)
    2950                            .dwattr $C$DW$205, DW_AT_decl_file("C:/ti/xdctools_3_50_01_12_core/packages/xdc/std.h")
    2951                            .dwattr $C$DW$205, DW_AT_decl_line(0xb6)
    2952                            .dwattr $C$DW$205, DW_AT_decl_column(0x0f)
    2953                    
    2954                    $C$DW$206       .dwtag  DW_TAG_member
    2955                            .dwattr $C$DW$206, DW_AT_type(*$C$DW$T$191)
    2956                            .dwattr $C$DW$206, DW_AT_name("a")
    2957                            .dwattr $C$DW$206, DW_AT_TI_symbol_name("a")
    2958                            .dwattr $C$DW$206, DW_AT_data_member_location[DW_OP_plus_uconst 0x0]
    2959                            .dwattr $C$DW$206, DW_AT_accessibility(DW_ACCESS_public)
    2960                            .dwattr $C$DW$206, DW_AT_decl_file("C:/ti/xdctools_3_50_01_12_core/packages/xdc/std.h")
    2961                            .dwattr $C$DW$206, DW_AT_decl_line(0xb7)
    2962                            .dwattr $C$DW$206, DW_AT_decl_column(0x0f)
    2963                    
    2964                            .dwattr $C$DW$T$192, DW_AT_decl_file("C:/ti/xdctools_3_50_01_12_core/packages/xdc/std.h")
    2965                            .dwattr $C$DW$T$192, DW_AT_decl_line(0xb5)
    2966                            .dwattr $C$DW$T$192, DW_AT_decl_column(0x0f)
    2967                            .dwendtag $C$DW$T$192
    2968                    
    2969                    $C$DW$T$691     .dwtag  DW_TAG_typedef
    2970                            .dwattr $C$DW$T$691, DW_AT_name("xdc_FloatData")
TMS320C6x Assembler PC v8.1.3 Wed Apr 19 22:40:38 2017

Tools Copyright (c) 1996-2015 Texas Instruments Incorporated
AudioTasks.asm                                                       PAGE   55

    2971                            .dwattr $C$DW$T$691, DW_AT_type(*$C$DW$T$192)
    2972                            .dwattr $C$DW$T$691, DW_AT_language(DW_LANG_C)
    2973                            .dwattr $C$DW$T$691, DW_AT_decl_file("C:/ti/xdctools_3_50_01_12_core/packages/xdc/std.h")
    2974                            .dwattr $C$DW$T$691, DW_AT_decl_line(0xb8)
    2975                            .dwattr $C$DW$T$691, DW_AT_decl_column(0x03)
    2976                    
    2977                    $C$DW$T$2       .dwtag  DW_TAG_unspecified_type
    2978                            .dwattr $C$DW$T$2, DW_AT_name("void")
    2979                    
    2980                    $C$DW$T$3       .dwtag  DW_TAG_pointer_type
    2981                            .dwattr $C$DW$T$3, DW_AT_type(*$C$DW$T$2)
    2982                            .dwattr $C$DW$T$3, DW_AT_address_class(0x20)
    2983                    
    2984                    $C$DW$T$260     .dwtag  DW_TAG_typedef
    2985                            .dwattr $C$DW$T$260, DW_AT_name("xdc_Ptr")
    2986                            .dwattr $C$DW$T$260, DW_AT_type(*$C$DW$T$3)
    2987                            .dwattr $C$DW$T$260, DW_AT_language(DW_LANG_C)
    2988                            .dwattr $C$DW$T$260, DW_AT_decl_file("C:/ti/xdctools_3_50_01_12_core/packages/xdc/std.h")
    2989                            .dwattr $C$DW$T$260, DW_AT_decl_line(0x2e)
    2990                            .dwattr $C$DW$T$260, DW_AT_decl_column(0x1a)
    2991                    
    2992                    $C$DW$T$694     .dwtag  DW_TAG_typedef
    2993                            .dwattr $C$DW$T$694, DW_AT_name("CT__ti_sysbios_BIOS_Module__gateObj")
    2994                            .dwattr $C$DW$T$694, DW_AT_type(*$C$DW$T$260)
    2995                            .dwattr $C$DW$T$694, DW_AT_language(DW_LANG_C)
    2996                            .dwattr $C$DW$T$694, DW_AT_decl_file("C:/ti/bios_6_50_00_10/packages/ti/sysbios/BIOS.h")
    2997                            .dwattr $C$DW$T$694, DW_AT_decl_line(0xa3)
    2998                            .dwattr $C$DW$T$694, DW_AT_decl_column(0x11)
    2999                    
    3000                    $C$DW$T$695     .dwtag  DW_TAG_typedef
    3001                            .dwattr $C$DW$T$695, DW_AT_name("CT__ti_sysbios_BIOS_Module__gatePrms")
    3002                            .dwattr $C$DW$T$695, DW_AT_type(*$C$DW$T$260)
    3003                            .dwattr $C$DW$T$695, DW_AT_language(DW_LANG_C)
    3004                            .dwattr $C$DW$T$695, DW_AT_decl_file("C:/ti/bios_6_50_00_10/packages/ti/sysbios/BIOS.h")
    3005                            .dwattr $C$DW$T$695, DW_AT_decl_line(0xac)
    3006                            .dwattr $C$DW$T$695, DW_AT_decl_column(0x11)
    3007                    
    3008                    $C$DW$T$696     .dwtag  DW_TAG_typedef
    3009                            .dwattr $C$DW$T$696, DW_AT_name("CT__ti_sysbios_BIOS_Module__loggerObj")
    3010                            .dwattr $C$DW$T$696, DW_AT_type(*$C$DW$T$260)
    3011                            .dwattr $C$DW$T$696, DW_AT_language(DW_LANG_C)
    3012                            .dwattr $C$DW$T$696, DW_AT_decl_file("C:/ti/bios_6_50_00_10/packages/ti/sysbios/BIOS.h")
    3013                            .dwattr $C$DW$T$696, DW_AT_decl_line(0xc7)
    3014                            .dwattr $C$DW$T$696, DW_AT_decl_column(0x11)
    3015                    
    3016                    $C$DW$T$697     .dwtag  DW_TAG_typedef
    3017                            .dwattr $C$DW$T$697, DW_AT_name("CT__ti_sysbios_BIOS_Object__table")
    3018                            .dwattr $C$DW$T$697, DW_AT_type(*$C$DW$T$260)
    3019                            .dwattr $C$DW$T$697, DW_AT_language(DW_LANG_C)
    3020                            .dwattr $C$DW$T$697, DW_AT_decl_file("C:/ti/bios_6_50_00_10/packages/ti/sysbios/BIOS.h")
    3021                            .dwattr $C$DW$T$697, DW_AT_decl_line(0x118)
    3022                            .dwattr $C$DW$T$697, DW_AT_decl_column(0x11)
    3023                    
    3024                    $C$DW$T$698     .dwtag  DW_TAG_typedef
    3025                            .dwattr $C$DW$T$698, DW_AT_name("CT__ti_sysbios_BIOS_RtsGateProxy_Module__gateObj")
TMS320C6x Assembler PC v8.1.3 Wed Apr 19 22:40:38 2017

Tools Copyright (c) 1996-2015 Texas Instruments Incorporated
AudioTasks.asm                                                       PAGE   56

    3026                            .dwattr $C$DW$T$698, DW_AT_type(*$C$DW$T$260)
    3027                            .dwattr $C$DW$T$698, DW_AT_language(DW_LANG_C)
    3028                            .dwattr $C$DW$T$698, DW_AT_decl_file("C:/ti/bios_6_50_00_10/packages/ti/sysbios/package/BIOS_R
    3029                            .dwattr $C$DW$T$698, DW_AT_decl_line(0x68)
    3030                            .dwattr $C$DW$T$698, DW_AT_decl_column(0x11)
    3031                    
    3032                    $C$DW$T$699     .dwtag  DW_TAG_typedef
    3033                            .dwattr $C$DW$T$699, DW_AT_name("CT__ti_sysbios_BIOS_RtsGateProxy_Module__gatePrms")
    3034                            .dwattr $C$DW$T$699, DW_AT_type(*$C$DW$T$260)
    3035                            .dwattr $C$DW$T$699, DW_AT_language(DW_LANG_C)
    3036                            .dwattr $C$DW$T$699, DW_AT_decl_file("C:/ti/bios_6_50_00_10/packages/ti/sysbios/package/BIOS_R
    3037                            .dwattr $C$DW$T$699, DW_AT_decl_line(0x71)
    3038                            .dwattr $C$DW$T$699, DW_AT_decl_column(0x11)
    3039                    
    3040                    $C$DW$T$700     .dwtag  DW_TAG_typedef
    3041                            .dwattr $C$DW$T$700, DW_AT_name("CT__ti_sysbios_BIOS_RtsGateProxy_Module__loggerObj")
    3042                            .dwattr $C$DW$T$700, DW_AT_type(*$C$DW$T$260)
    3043                            .dwattr $C$DW$T$700, DW_AT_language(DW_LANG_C)
    3044                            .dwattr $C$DW$T$700, DW_AT_decl_file("C:/ti/bios_6_50_00_10/packages/ti/sysbios/package/BIOS_R
    3045                            .dwattr $C$DW$T$700, DW_AT_decl_line(0x8c)
    3046                            .dwattr $C$DW$T$700, DW_AT_decl_column(0x11)
    3047                    
    3048                    $C$DW$T$701     .dwtag  DW_TAG_typedef
    3049                            .dwattr $C$DW$T$701, DW_AT_name("CT__ti_sysbios_BIOS_RtsGateProxy_Object__table")
    3050                            .dwattr $C$DW$T$701, DW_AT_type(*$C$DW$T$260)
    3051                            .dwattr $C$DW$T$701, DW_AT_language(DW_LANG_C)
    3052                            .dwattr $C$DW$T$701, DW_AT_decl_file("C:/ti/bios_6_50_00_10/packages/ti/sysbios/package/BIOS_R
    3053                            .dwattr $C$DW$T$701, DW_AT_decl_line(0xdd)
    3054                            .dwattr $C$DW$T$701, DW_AT_decl_column(0x11)
    3055                    
    3056                    $C$DW$T$702     .dwtag  DW_TAG_typedef
    3057                            .dwattr $C$DW$T$702, DW_AT_name("CT__ti_sysbios_hal_Hwi_HwiProxy_Module__gateObj")
    3058                            .dwattr $C$DW$T$702, DW_AT_type(*$C$DW$T$260)
    3059                            .dwattr $C$DW$T$702, DW_AT_language(DW_LANG_C)
    3060                            .dwattr $C$DW$T$702, DW_AT_decl_file("C:/ti/bios_6_50_00_10/packages/ti/sysbios/hal/package/Hw
    3061                            .dwattr $C$DW$T$702, DW_AT_decl_line(0x7d)
    3062                            .dwattr $C$DW$T$702, DW_AT_decl_column(0x11)
    3063                    
    3064                    $C$DW$T$703     .dwtag  DW_TAG_typedef
    3065                            .dwattr $C$DW$T$703, DW_AT_name("CT__ti_sysbios_hal_Hwi_HwiProxy_Module__gatePrms")
    3066                            .dwattr $C$DW$T$703, DW_AT_type(*$C$DW$T$260)
    3067                            .dwattr $C$DW$T$703, DW_AT_language(DW_LANG_C)
    3068                            .dwattr $C$DW$T$703, DW_AT_decl_file("C:/ti/bios_6_50_00_10/packages/ti/sysbios/hal/package/Hw
    3069                            .dwattr $C$DW$T$703, DW_AT_decl_line(0x86)
    3070                            .dwattr $C$DW$T$703, DW_AT_decl_column(0x11)
    3071                    
    3072                    $C$DW$T$704     .dwtag  DW_TAG_typedef
    3073                            .dwattr $C$DW$T$704, DW_AT_name("CT__ti_sysbios_hal_Hwi_HwiProxy_Module__loggerObj")
    3074                            .dwattr $C$DW$T$704, DW_AT_type(*$C$DW$T$260)
    3075                            .dwattr $C$DW$T$704, DW_AT_language(DW_LANG_C)
    3076                            .dwattr $C$DW$T$704, DW_AT_decl_file("C:/ti/bios_6_50_00_10/packages/ti/sysbios/hal/package/Hw
    3077                            .dwattr $C$DW$T$704, DW_AT_decl_line(0xa1)
    3078                            .dwattr $C$DW$T$704, DW_AT_decl_column(0x11)
    3079                    
    3080                    $C$DW$T$705     .dwtag  DW_TAG_typedef
TMS320C6x Assembler PC v8.1.3 Wed Apr 19 22:40:38 2017

Tools Copyright (c) 1996-2015 Texas Instruments Incorporated
AudioTasks.asm                                                       PAGE   57

    3081                            .dwattr $C$DW$T$705, DW_AT_name("CT__ti_sysbios_hal_Hwi_HwiProxy_Object__table")
    3082                            .dwattr $C$DW$T$705, DW_AT_type(*$C$DW$T$260)
    3083                            .dwattr $C$DW$T$705, DW_AT_language(DW_LANG_C)
    3084                            .dwattr $C$DW$T$705, DW_AT_decl_file("C:/ti/bios_6_50_00_10/packages/ti/sysbios/hal/package/Hw
    3085                            .dwattr $C$DW$T$705, DW_AT_decl_line(0xf2)
    3086                            .dwattr $C$DW$T$705, DW_AT_decl_column(0x11)
    3087                    
    3088                    $C$DW$T$706     .dwtag  DW_TAG_typedef
    3089                            .dwattr $C$DW$T$706, DW_AT_name("CT__ti_sysbios_hal_Hwi_Module__gateObj")
    3090                            .dwattr $C$DW$T$706, DW_AT_type(*$C$DW$T$260)
    3091                            .dwattr $C$DW$T$706, DW_AT_language(DW_LANG_C)
    3092                            .dwattr $C$DW$T$706, DW_AT_decl_file("C:/ti/bios_6_50_00_10/packages/ti/sysbios/hal/Hwi.h")
    3093                            .dwattr $C$DW$T$706, DW_AT_decl_line(0x96)
    3094                            .dwattr $C$DW$T$706, DW_AT_decl_column(0x11)
    3095                    
    3096                    $C$DW$T$707     .dwtag  DW_TAG_typedef
    3097                            .dwattr $C$DW$T$707, DW_AT_name("CT__ti_sysbios_hal_Hwi_Module__gatePrms")
    3098                            .dwattr $C$DW$T$707, DW_AT_type(*$C$DW$T$260)
    3099                            .dwattr $C$DW$T$707, DW_AT_language(DW_LANG_C)
    3100                            .dwattr $C$DW$T$707, DW_AT_decl_file("C:/ti/bios_6_50_00_10/packages/ti/sysbios/hal/Hwi.h")
    3101                            .dwattr $C$DW$T$707, DW_AT_decl_line(0x9f)
    3102                            .dwattr $C$DW$T$707, DW_AT_decl_column(0x11)
    3103                    
    3104                    $C$DW$T$708     .dwtag  DW_TAG_typedef
    3105                            .dwattr $C$DW$T$708, DW_AT_name("CT__ti_sysbios_hal_Hwi_Module__loggerObj")
    3106                            .dwattr $C$DW$T$708, DW_AT_type(*$C$DW$T$260)
    3107                            .dwattr $C$DW$T$708, DW_AT_language(DW_LANG_C)
    3108                            .dwattr $C$DW$T$708, DW_AT_decl_file("C:/ti/bios_6_50_00_10/packages/ti/sysbios/hal/Hwi.h")
    3109                            .dwattr $C$DW$T$708, DW_AT_decl_line(0xba)
    3110                            .dwattr $C$DW$T$708, DW_AT_decl_column(0x11)
    3111                    
    3112                    $C$DW$T$709     .dwtag  DW_TAG_typedef
    3113                            .dwattr $C$DW$T$709, DW_AT_name("CT__ti_sysbios_hal_Hwi_Object__table")
    3114                            .dwattr $C$DW$T$709, DW_AT_type(*$C$DW$T$260)
    3115                            .dwattr $C$DW$T$709, DW_AT_language(DW_LANG_C)
    3116                            .dwattr $C$DW$T$709, DW_AT_decl_file("C:/ti/bios_6_50_00_10/packages/ti/sysbios/hal/Hwi.h")
    3117                            .dwattr $C$DW$T$709, DW_AT_decl_line(0x10b)
    3118                            .dwattr $C$DW$T$709, DW_AT_decl_column(0x11)
    3119                    
    3120                    $C$DW$T$710     .dwtag  DW_TAG_typedef
    3121                            .dwattr $C$DW$T$710, DW_AT_name("CT__ti_sysbios_knl_Clock_Module__gateObj")
    3122                            .dwattr $C$DW$T$710, DW_AT_type(*$C$DW$T$260)
    3123                            .dwattr $C$DW$T$710, DW_AT_language(DW_LANG_C)
    3124                            .dwattr $C$DW$T$710, DW_AT_decl_file("C:/ti/bios_6_50_00_10/packages/ti/sysbios/knl/Clock.h")
    3125                            .dwattr $C$DW$T$710, DW_AT_decl_line(0x8c)
    3126                            .dwattr $C$DW$T$710, DW_AT_decl_column(0x11)
    3127                    
    3128                    $C$DW$T$711     .dwtag  DW_TAG_typedef
    3129                            .dwattr $C$DW$T$711, DW_AT_name("CT__ti_sysbios_knl_Clock_Module__gatePrms")
    3130                            .dwattr $C$DW$T$711, DW_AT_type(*$C$DW$T$260)
    3131                            .dwattr $C$DW$T$711, DW_AT_language(DW_LANG_C)
    3132                            .dwattr $C$DW$T$711, DW_AT_decl_file("C:/ti/bios_6_50_00_10/packages/ti/sysbios/knl/Clock.h")
    3133                            .dwattr $C$DW$T$711, DW_AT_decl_line(0x95)
    3134                            .dwattr $C$DW$T$711, DW_AT_decl_column(0x11)
    3135                    
TMS320C6x Assembler PC v8.1.3 Wed Apr 19 22:40:38 2017

Tools Copyright (c) 1996-2015 Texas Instruments Incorporated
AudioTasks.asm                                                       PAGE   58

    3136                    $C$DW$T$712     .dwtag  DW_TAG_typedef
    3137                            .dwattr $C$DW$T$712, DW_AT_name("CT__ti_sysbios_knl_Clock_Module__loggerObj")
    3138                            .dwattr $C$DW$T$712, DW_AT_type(*$C$DW$T$260)
    3139                            .dwattr $C$DW$T$712, DW_AT_language(DW_LANG_C)
