TMS320C6x Assembler PC v8.1.3 Thu Apr 20 04:41:39 2017

Tools Copyright (c) 1996-2015 Texas Instruments Incorporated
edma.asm                                                             PAGE    1

       1                    ;******************************************************************************
       2                    ;* G3 TMS320C6x C/C++ Codegen                                       PC v8.1.3 *
       3                    ;* Date/Time created: Thu Apr 20 04:41:34 2017                                *
       4                    ;******************************************************************************
       5                            .compiler_opts --abi=eabi --array_alignment=8 --diag_wrap=off --endian=little --hll_source=on 
       6                    
       7                    ;******************************************************************************
       8                    ;* GLOBAL FILE PARAMETERS                                                     *
       9                    ;*                                                                            *
      10                    ;*   Architecture      : TMS320C674x                                          *
      11                    ;*   Optimization      : Enabled at level 3                                   *
      12                    ;*   Optimizing for    : Speed                                                *
      13                    ;*                       Based on options: -o3, no -ms                        *
      14                    ;*   Endian            : Little                                               *
      15                    ;*   Interrupt Thrshld : Disabled                                             *
      16                    ;*   Data Access Model : Far Aggregate Data                                   *
      17                    ;*   Pipelining        : Enabled                                              *
      18                    ;*   Speculate Loads   : Enabled with threshold = 0                           *
      19                    ;*   Memory Aliases    : Presume are aliases (pessimistic)                    *
      20                    ;*   Debug Info        : DWARF Debug                                          *
      21                    ;*                                                                            *
      22                    ;******************************************************************************
      23                    
      24                            .asg    A15, FP
      25                            .asg    B14, DP
      26                            .asg    B15, SP
      27                            .global $bss
      28                    
      29                    
      30                    $C$DW$CU        .dwtag  DW_TAG_compile_unit
      31                            .dwattr $C$DW$CU, DW_AT_name("C:/ti/OMAPL138_StarterWare_1_10_04_01/drivers/edma.c")
      32                            .dwattr $C$DW$CU, DW_AT_producer("TI G3 TMS320C6x C/C++ Codegen PC v8.1.3 Copyright (c) 1996-2
      33                            .dwattr $C$DW$CU, DW_AT_TI_version(0x01)
      34                            .dwattr $C$DW$CU, DW_AT_comp_dir("C:\Users\Raz Aloni\OneDrive\School\EEL4924\DSP\DSP_Workspace
      35                            .global regionId
      36                            .nearcommon     regionId,4,4
      37                    $C$DW$1 .dwtag  DW_TAG_variable
      38                            .dwattr $C$DW$1, DW_AT_name("regionId")
      39                            .dwattr $C$DW$1, DW_AT_TI_symbol_name("regionId")
      40                            .dwattr $C$DW$1, DW_AT_location[DW_OP_addr regionId]
      41                            .dwattr $C$DW$1, DW_AT_type(*$C$DW$T$11)
      42                            .dwattr $C$DW$1, DW_AT_external
      43                            .dwattr $C$DW$1, DW_AT_decl_file("C:/ti/OMAPL138_StarterWare_1_10_04_01/drivers/edma.c")
      44                            .dwattr $C$DW$1, DW_AT_decl_line(0x34)
      45                            .dwattr $C$DW$1, DW_AT_decl_column(0x0e)
      46                    
      47                    ;       C:\ti\ccsv7\tools\compiler\ti-cgt-c6000_8.1.3\bin\opt6x.exe C:\\Users\\RAZALO~1\\AppData\\Loca
      48 00000000                   .sect   ".text"
      49                            .clink
      50                            .global EDMAVersionGet
      51                    
      52                    $C$DW$2 .dwtag  DW_TAG_subprogram
      53                            .dwattr $C$DW$2, DW_AT_name("EDMAVersionGet")
      54                            .dwattr $C$DW$2, DW_AT_low_pc(EDMAVersionGet)
      55                            .dwattr $C$DW$2, DW_AT_high_pc(0x00)
TMS320C6x Assembler PC v8.1.3 Thu Apr 20 04:41:39 2017

Tools Copyright (c) 1996-2015 Texas Instruments Incorporated
edma.asm                                                             PAGE    2

      56                            .dwattr $C$DW$2, DW_AT_TI_symbol_name("EDMAVersionGet")
      57                            .dwattr $C$DW$2, DW_AT_external
      58                            .dwattr $C$DW$2, DW_AT_type(*$C$DW$T$11)
      59                            .dwattr $C$DW$2, DW_AT_TI_begin_file("C:/ti/OMAPL138_StarterWare_1_10_04_01/drivers/edma.c")
      60                            .dwattr $C$DW$2, DW_AT_TI_begin_line(0x644)
      61                            .dwattr $C$DW$2, DW_AT_TI_begin_column(0x0e)
      62                            .dwattr $C$DW$2, DW_AT_decl_file("C:/ti/OMAPL138_StarterWare_1_10_04_01/drivers/edma.c")
      63                            .dwattr $C$DW$2, DW_AT_decl_line(0x644)
      64                            .dwattr $C$DW$2, DW_AT_decl_column(0x0e)
      65                            .dwattr $C$DW$2, DW_AT_TI_max_frame_size(0x00)
      66                            .dwpsn  file "C:/ti/OMAPL138_StarterWare_1_10_04_01/drivers/edma.c",line 1605,column 1,is_stmt
      67                    
      68                            .dwfde $C$DW$CIE, EDMAVersionGet
      69                    
      70                    ;******************************************************************************
      71                    ;* FUNCTION NAME: EDMAVersionGet                                              *
      72                    ;*                                                                            *
      73                    ;*   Regs Modified     : A4                                                   *
      74                    ;*   Regs Used         : A4,B3                                                *
      75                    ;*   Local Frame Size  : 0 Args + 0 Auto + 0 Save = 0 byte                    *
      76                    ;******************************************************************************
      77 00000000           EDMAVersionGet:
      78                    ;** --------------------------------------------------------------------------*
      79                            .dwcfi  cfa_offset, 0
      80                            .dwpsn  file "C:/ti/OMAPL138_StarterWare_1_10_04_01/drivers/edma.c",line 1607,column 1,is_stmt
      81                    $C$DW$3 .dwtag  DW_TAG_TI_branch
      82                            .dwattr $C$DW$3, DW_AT_low_pc(0x00)
      83                            .dwattr $C$DW$3, DW_AT_TI_return
      84                    
      85 00000000     81ef             RETNOP          B3,4              ; [] |1607| 
      86                            .dwpsn  file "C:/ti/OMAPL138_StarterWare_1_10_04_01/drivers/edma.c",line 1606,column 5,is_stmt
      87 00000002     2626             MVK     .L1     1,A4              ; [A_L674] |1606| 
      88                            .dwpsn  file "C:/ti/OMAPL138_StarterWare_1_10_04_01/drivers/edma.c",line 1607,column 1,is_stmt
      89                               ; BRANCH OCCURS {B3}              ; [] |1607| 
      90                            .dwattr $C$DW$2, DW_AT_TI_end_file("C:/ti/OMAPL138_StarterWare_1_10_04_01/drivers/edma.c")
      91                            .dwattr $C$DW$2, DW_AT_TI_end_line(0x647)
      92                            .dwattr $C$DW$2, DW_AT_TI_end_column(0x01)
      93                            .dwendentry
      94                            .dwendtag $C$DW$2
      95                    
      96 00000004                   .sect   ".text"
      97                            .clink
      98                            .global EDMA3UnmapChToEvtQ
      99                    
     100                    $C$DW$4 .dwtag  DW_TAG_subprogram
     101                            .dwattr $C$DW$4, DW_AT_name("EDMA3UnmapChToEvtQ")
     102                            .dwattr $C$DW$4, DW_AT_low_pc(EDMA3UnmapChToEvtQ)
     103                            .dwattr $C$DW$4, DW_AT_high_pc(0x00)
     104                            .dwattr $C$DW$4, DW_AT_TI_symbol_name("EDMA3UnmapChToEvtQ")
     105                            .dwattr $C$DW$4, DW_AT_external
     106                            .dwattr $C$DW$4, DW_AT_TI_begin_file("C:/ti/OMAPL138_StarterWare_1_10_04_01/drivers/edma.c")
     107                            .dwattr $C$DW$4, DW_AT_TI_begin_line(0x14b)
     108                            .dwattr $C$DW$4, DW_AT_TI_begin_column(0x06)
     109                            .dwattr $C$DW$4, DW_AT_decl_file("C:/ti/OMAPL138_StarterWare_1_10_04_01/drivers/edma.c")
     110                            .dwattr $C$DW$4, DW_AT_decl_line(0x14b)
TMS320C6x Assembler PC v8.1.3 Thu Apr 20 04:41:39 2017

Tools Copyright (c) 1996-2015 Texas Instruments Incorporated
edma.asm                                                             PAGE    3

     111                            .dwattr $C$DW$4, DW_AT_decl_column(0x06)
     112                            .dwattr $C$DW$4, DW_AT_TI_max_frame_size(0x00)
     113                            .dwpsn  file "C:/ti/OMAPL138_StarterWare_1_10_04_01/drivers/edma.c",line 334,column 1,is_stmt,
     114                    
     115                            .dwfde $C$DW$CIE, EDMA3UnmapChToEvtQ
     116                    $C$DW$5 .dwtag  DW_TAG_formal_parameter
     117                            .dwattr $C$DW$5, DW_AT_name("baseAdd")
     118                            .dwattr $C$DW$5, DW_AT_TI_symbol_name("baseAdd")
     119                            .dwattr $C$DW$5, DW_AT_type(*$C$DW$T$11)
     120                            .dwattr $C$DW$5, DW_AT_location[DW_OP_reg4]
     121                    
     122                    $C$DW$6 .dwtag  DW_TAG_formal_parameter
     123                            .dwattr $C$DW$6, DW_AT_name("chType")
     124                            .dwattr $C$DW$6, DW_AT_TI_symbol_name("chType")
     125                            .dwattr $C$DW$6, DW_AT_type(*$C$DW$T$11)
     126                            .dwattr $C$DW$6, DW_AT_location[DW_OP_reg20]
     127                    
     128                    $C$DW$7 .dwtag  DW_TAG_formal_parameter
     129                            .dwattr $C$DW$7, DW_AT_name("chNum")
     130                            .dwattr $C$DW$7, DW_AT_TI_symbol_name("chNum")
     131                            .dwattr $C$DW$7, DW_AT_type(*$C$DW$T$11)
     132                            .dwattr $C$DW$7, DW_AT_location[DW_OP_reg6]
     133                    
     134                    
     135                    ;******************************************************************************
     136                    ;* FUNCTION NAME: EDMA3UnmapChToEvtQ                                          *
     137                    ;*                                                                            *
     138                    ;*   Regs Modified     : A3,A4,A5,A6,A7,A8,B0,B1,B4,B5,B6                     *
     139                    ;*   Regs Used         : A3,A4,A5,A6,A7,A8,B0,B1,B3,B4,B5,B6                  *
     140                    ;*   Local Frame Size  : 0 Args + 0 Auto + 0 Save = 0 byte                    *
     141                    ;******************************************************************************
     142                    EDMA3UnmapChToEvtQ:
     143                    ;** --------------------------------------------------------------------------*
     144                    $C$DW$8 .dwtag  DW_TAG_variable
     145                            .dwattr $C$DW$8, DW_AT_name("chType")
     146                            .dwattr $C$DW$8, DW_AT_TI_symbol_name("chType")
     147                            .dwattr $C$DW$8, DW_AT_type(*$C$DW$T$62)
     148                            .dwattr $C$DW$8, DW_AT_location[DW_OP_reg16]
     149                    
     150                    $C$DW$9 .dwtag  DW_TAG_variable
     151                            .dwattr $C$DW$9, DW_AT_name("chNum")
     152                            .dwattr $C$DW$9, DW_AT_TI_symbol_name("chNum")
     153                            .dwattr $C$DW$9, DW_AT_type(*$C$DW$T$62)
     154                            .dwattr $C$DW$9, DW_AT_location[DW_OP_reg6]
     155                    
     156                            .dwcfi  cfa_offset, 0
     157                            .dwpsn  file "C:/ti/OMAPL138_StarterWare_1_10_04_01/drivers/edma.c",line 338,column 9,is_stmt,
     158 00000004 019829a0             SHRU    .S1     A6,1,A3           ; [A_S674] |338| 
     159 00000008 018f8f58             AND     .L1     -4,A3,A3          ; [A_L674] |338| 
     160 0000000c     81b0             ADD     .L1     A4,A3,A3          ; [A_L674] |338| 
     161                            .dwpsn  file "C:/ti/OMAPL138_StarterWare_1_10_04_01/drivers/edma.c",line 334,column 1,is_stmt,
     162                    
     163 00000010 01812050             ADDK    .S1     576,A3            ; [A_S674] |338| 
     164 0000000e     0247  ||         MV      .L2     B4,B0             ; [B_L674] |334| 
     165                    
TMS320C6x Assembler PC v8.1.3 Thu Apr 20 04:41:39 2017

Tools Copyright (c) 1996-2015 Texas Instruments Incorporated
edma.asm                                                             PAGE    4

     166                            .dwpsn  file "C:/ti/OMAPL138_StarterWare_1_10_04_01/drivers/edma.c",line 338,column 9,is_stmt,
     167 00000014 320c0264     [!B0]   LDW     .D1T1   *A3(0),A4         ; [A_D64P] |338| 
     168 00000018 0398ef58             AND     .L1     7,A6,A7           ; [A_L674] |338| 
     169                    
     170 00000020 039c4ca1             SHL     .S1     A7,2,A7           ; [A_S674] |338| 
     171 00000024 041ca358  ||         MVK     .L1     7,A8              ; [A_L674] |338| 
     172                    
     173 00000028 03a0ece1             SHL     .S1     A8,A7,A7          ; [A_S674] |338| 
     174 0000002c 2281302a  || [ B0]   MVK     .S2     608,B5            ; [B_Sb674] |344| 
     175                    
     176 00000030 031fedd9             NOT     .L1     A7,A6             ; [A_L674] |338| 
     177 00000034 22185ca3  || [ B0]   SHL     .S2X    A6,2,B4           ; [B_Sb674] |344| 
     178 00000038 00902a5a  ||         CMPEQ   .L2     B4,1,B1           ; [B_L674] |341| 
     179                    
     180 0000003c 3210cff8     [!B0]   OR      .L1     A6,A4,A4          ; [A_L674] |338| 
     181                    
     182 00000040 320c0275     [!B0]   STW     .D1T1   A4,*A3(0)         ; [A_D64P] |338| 
     183 00000044 22949079  || [ B0]   ADD     .L1X    B5,A4,A5          ; [A_L674] |344| 
     184 00000048 3080a35a  || [!B0]   ZERO    .L2     B1                ; [B_L674] |344| 
     185                    
     186                            .dwpsn  file "C:/ti/OMAPL138_StarterWare_1_10_04_01/drivers/edma.c",line 344,column 9,is_stmt,
     187 0000004c 42940266     [ B1]   LDW     .D1T2   *A5(0),B5         ; [A_D64P] |344| 
     188                            .dwpsn  file "C:/ti/OMAPL138_StarterWare_1_10_04_01/drivers/edma.c",line 347,column 1,is_stmt,
     189                    $C$DW$10        .dwtag  DW_TAG_TI_branch
     190                            .dwattr $C$DW$10, DW_AT_low_pc(0x00)
     191                            .dwattr $C$DW$10, DW_AT_TI_return
     192                    
     193 00000050 000c0362             RET     .S2     B3                ; [B_Sb674] |347| 
     194                            .dwpsn  file "C:/ti/OMAPL138_StarterWare_1_10_04_01/drivers/edma.c",line 344,column 9,is_stmt,
     195 00000054 23201fda     [ B0]   MV      .L2X    A8,B6             ; [B_L674] |344| 
     196 00000058 22188ce2     [ B0]   SHL     .S2     B6,B4,B4          ; [B_Sb674] |344| 
     197 0000005c 2213edda     [ B0]   NOT     .L2     B4,B4             ; [B_L674] |344| 
     198 00000060 42148ffa     [ B1]   OR      .L2     B4,B5,B4          ; [B_L674] |344| 
     199 00000064 42140276     [ B1]   STW     .D1T2   B4,*A5(0)         ; [A_D64P] |344| 
     200                            .dwpsn  file "C:/ti/OMAPL138_StarterWare_1_10_04_01/drivers/edma.c",line 347,column 1,is_stmt,
     201                               ; BRANCH OCCURS {B3}              ; [] |347| 
     202                            .dwattr $C$DW$4, DW_AT_TI_end_file("C:/ti/OMAPL138_StarterWare_1_10_04_01/drivers/edma.c")
     203                            .dwattr $C$DW$4, DW_AT_TI_end_line(0x15b)
     204                            .dwattr $C$DW$4, DW_AT_TI_end_column(0x01)
     205                            .dwendentry
     206                            .dwendtag $C$DW$4
     207                    
     208 00000068                   .sect   ".text"
     209                            .clink
     210                            .global EDMA3SetQdmaTrigWord
     211                    
     212                    $C$DW$11        .dwtag  DW_TAG_subprogram
     213                            .dwattr $C$DW$11, DW_AT_name("EDMA3SetQdmaTrigWord")
     214                            .dwattr $C$DW$11, DW_AT_low_pc(EDMA3SetQdmaTrigWord)
     215                            .dwattr $C$DW$11, DW_AT_high_pc(0x00)
     216                            .dwattr $C$DW$11, DW_AT_TI_symbol_name("EDMA3SetQdmaTrigWord")
     217                            .dwattr $C$DW$11, DW_AT_external
     218                            .dwattr $C$DW$11, DW_AT_TI_begin_file("C:/ti/OMAPL138_StarterWare_1_10_04_01/drivers/edma.c")
     219                            .dwattr $C$DW$11, DW_AT_TI_begin_line(0x19b)
     220                            .dwattr $C$DW$11, DW_AT_TI_begin_column(0x06)
TMS320C6x Assembler PC v8.1.3 Thu Apr 20 04:41:39 2017

Tools Copyright (c) 1996-2015 Texas Instruments Incorporated
edma.asm                                                             PAGE    5

     221                            .dwattr $C$DW$11, DW_AT_decl_file("C:/ti/OMAPL138_StarterWare_1_10_04_01/drivers/edma.c")
     222                            .dwattr $C$DW$11, DW_AT_decl_line(0x19b)
     223                            .dwattr $C$DW$11, DW_AT_decl_column(0x06)
     224                            .dwattr $C$DW$11, DW_AT_TI_max_frame_size(0x00)
     225                            .dwpsn  file "C:/ti/OMAPL138_StarterWare_1_10_04_01/drivers/edma.c",line 414,column 1,is_stmt,
     226                    
     227                            .dwfde $C$DW$CIE, EDMA3SetQdmaTrigWord
     228                    $C$DW$12        .dwtag  DW_TAG_formal_parameter
     229                            .dwattr $C$DW$12, DW_AT_name("baseAdd")
     230                            .dwattr $C$DW$12, DW_AT_TI_symbol_name("baseAdd")
     231                            .dwattr $C$DW$12, DW_AT_type(*$C$DW$T$11)
     232                            .dwattr $C$DW$12, DW_AT_location[DW_OP_reg4]
     233                    
     234                    $C$DW$13        .dwtag  DW_TAG_formal_parameter
     235                            .dwattr $C$DW$13, DW_AT_name("chNum")
     236                            .dwattr $C$DW$13, DW_AT_TI_symbol_name("chNum")
     237                            .dwattr $C$DW$13, DW_AT_type(*$C$DW$T$11)
     238                            .dwattr $C$DW$13, DW_AT_location[DW_OP_reg20]
     239                    
     240                    $C$DW$14        .dwtag  DW_TAG_formal_parameter
     241                            .dwattr $C$DW$14, DW_AT_name("trigWord")
     242                            .dwattr $C$DW$14, DW_AT_TI_symbol_name("trigWord")
     243                            .dwattr $C$DW$14, DW_AT_type(*$C$DW$T$11)
     244                            .dwattr $C$DW$14, DW_AT_location[DW_OP_reg6]
     245                    
     246                    
     247                    ;******************************************************************************
     248                    ;* FUNCTION NAME: EDMA3SetQdmaTrigWord                                        *
     249                    ;*                                                                            *
     250                    ;*   Regs Modified     : A3,A4,A5                                             *
     251                    ;*   Regs Used         : A3,A4,A5,A6,B3,B4                                    *
     252                    ;*   Local Frame Size  : 0 Args + 0 Auto + 0 Save = 0 byte                    *
     253                    ;******************************************************************************
     254                    EDMA3SetQdmaTrigWord:
     255                    ;** --------------------------------------------------------------------------*
     256                    $C$DW$15        .dwtag  DW_TAG_variable
     257                            .dwattr $C$DW$15, DW_AT_name("trigWord")
     258                            .dwattr $C$DW$15, DW_AT_TI_symbol_name("trigWord")
     259                            .dwattr $C$DW$15, DW_AT_type(*$C$DW$T$62)
     260                            .dwattr $C$DW$15, DW_AT_location[DW_OP_reg6]
     261                    
     262                    $C$DW$16        .dwtag  DW_TAG_variable
     263                            .dwattr $C$DW$16, DW_AT_name("chNum")
     264                            .dwattr $C$DW$16, DW_AT_TI_symbol_name("chNum")
     265                            .dwattr $C$DW$16, DW_AT_type(*$C$DW$T$62)
     266                            .dwattr $C$DW$16, DW_AT_location[DW_OP_reg3]
     267                    
     268                    $C$DW$17        .dwtag  DW_TAG_variable
     269                            .dwattr $C$DW$17, DW_AT_name("baseAdd")
     270                            .dwattr $C$DW$17, DW_AT_TI_symbol_name("baseAdd")
     271                            .dwattr $C$DW$17, DW_AT_type(*$C$DW$T$62)
     272                            .dwattr $C$DW$17, DW_AT_location[DW_OP_reg4]
     273                    
     274                            .dwcfi  cfa_offset, 0
     275 00000068 01901fd8             MV      .L1X    B4,A3             ; [A_L674] |414| 
TMS320C6x Assembler PC v8.1.3 Thu Apr 20 04:41:39 2017

Tools Copyright (c) 1996-2015 Texas Instruments Incorporated
edma.asm                                                             PAGE    6

     276                            .dwpsn  file "C:/ti/OMAPL138_StarterWare_1_10_04_01/drivers/edma.c",line 416,column 6,is_stmt,
     277 0000006c 01907c40             ADDAW   .D1     A4,A3,A3          ; [A_D64P] |416| 
     278 00000070 01810050             ADDK    .S1     512,A3            ; [A_S674] |416| 
     279 00000074 020c0264             LDW     .D1T1   *A3(0),A4         ; [A_D64P] |416| 
     280                            .dwpsn  file "C:/ti/OMAPL138_StarterWare_1_10_04_01/drivers/edma.c",line 417,column 1,is_stmt,
     281                    $C$DW$18        .dwtag  DW_TAG_TI_branch
     282                            .dwattr $C$DW$18, DW_AT_low_pc(0x00)
     283                            .dwattr $C$DW$18, DW_AT_TI_return
     284                    
     285 00000078 008c4362             RETNOP          B3,2              ; [] |417| 
     286                            .dwpsn  file "C:/ti/OMAPL138_StarterWare_1_10_04_01/drivers/edma.c",line 416,column 6,is_stmt,
     287 0000007c 029bbb08             EXTU    .S1     A6,29,27,A5       ; [A_S674] |416| 
     288 00000080 0210aff8             OR      .L1     A5,A4,A4          ; [A_L674] |416| 
     289 00000084 020c0274             STW     .D1T1   A4,*A3(0)         ; [A_D64P] |416| 
     290                            .dwpsn  file "C:/ti/OMAPL138_StarterWare_1_10_04_01/drivers/edma.c",line 417,column 1,is_stmt,
     291                               ; BRANCH OCCURS {B3}              ; [] |417| 
     292                            .dwattr $C$DW$11, DW_AT_TI_end_file("C:/ti/OMAPL138_StarterWare_1_10_04_01/drivers/edma.c")
     293                            .dwattr $C$DW$11, DW_AT_TI_end_line(0x1a1)
     294                            .dwattr $C$DW$11, DW_AT_TI_end_column(0x01)
     295                            .dwendentry
     296                            .dwendtag $C$DW$11
     297                    
     298 00000088                   .sect   ".text"
     299                            .clink
     300                            .global EDMA3SetPaRAM
     301                    
     302                    $C$DW$19        .dwtag  DW_TAG_subprogram
     303                            .dwattr $C$DW$19, DW_AT_name("EDMA3SetPaRAM")
     304                            .dwattr $C$DW$19, DW_AT_low_pc(EDMA3SetPaRAM)
     305                            .dwattr $C$DW$19, DW_AT_high_pc(0x00)
     306                            .dwattr $C$DW$19, DW_AT_TI_symbol_name("EDMA3SetPaRAM")
     307                            .dwattr $C$DW$19, DW_AT_external
     308                            .dwattr $C$DW$19, DW_AT_TI_begin_file("C:/ti/OMAPL138_StarterWare_1_10_04_01/drivers/edma.c")
     309                            .dwattr $C$DW$19, DW_AT_TI_begin_line(0x382)
     310                            .dwattr $C$DW$19, DW_AT_TI_begin_column(0x06)
     311                            .dwattr $C$DW$19, DW_AT_decl_file("C:/ti/OMAPL138_StarterWare_1_10_04_01/drivers/edma.c")
     312                            .dwattr $C$DW$19, DW_AT_decl_line(0x382)
     313                            .dwattr $C$DW$19, DW_AT_decl_column(0x06)
     314                            .dwattr $C$DW$19, DW_AT_TI_max_frame_size(0x00)
     315                            .dwpsn  file "C:/ti/OMAPL138_StarterWare_1_10_04_01/drivers/edma.c",line 901,column 1,is_stmt,
     316                    
     317                            .dwfde $C$DW$CIE, EDMA3SetPaRAM
     318                    $C$DW$20        .dwtag  DW_TAG_formal_parameter
     319                            .dwattr $C$DW$20, DW_AT_name("baseAdd")
     320                            .dwattr $C$DW$20, DW_AT_TI_symbol_name("baseAdd")
     321                            .dwattr $C$DW$20, DW_AT_type(*$C$DW$T$11)
     322                            .dwattr $C$DW$20, DW_AT_location[DW_OP_reg4]
     323                    
     324                    $C$DW$21        .dwtag  DW_TAG_formal_parameter
     325                            .dwattr $C$DW$21, DW_AT_name("chNum")
     326                            .dwattr $C$DW$21, DW_AT_TI_symbol_name("chNum")
     327                            .dwattr $C$DW$21, DW_AT_type(*$C$DW$T$11)
     328                            .dwattr $C$DW$21, DW_AT_location[DW_OP_reg20]
     329                    
     330                    $C$DW$22        .dwtag  DW_TAG_formal_parameter
TMS320C6x Assembler PC v8.1.3 Thu Apr 20 04:41:39 2017

Tools Copyright (c) 1996-2015 Texas Instruments Incorporated
edma.asm                                                             PAGE    7

     331                            .dwattr $C$DW$22, DW_AT_name("newPaRAM")
     332                            .dwattr $C$DW$22, DW_AT_TI_symbol_name("newPaRAM")
     333                            .dwattr $C$DW$22, DW_AT_type(*$C$DW$T$34)
     334                            .dwattr $C$DW$22, DW_AT_location[DW_OP_reg6]
     335                    
     336                    
     337                    ;******************************************************************************
     338                    ;* FUNCTION NAME: EDMA3SetPaRAM                                               *
     339                    ;*                                                                            *
     340                    ;*   Regs Modified     : A3,A4,A5,A6,A7,B0,B4,B5                              *
     341                    ;*   Regs Used         : A3,A4,A5,A6,A7,B0,B3,B4,B5                           *
     342                    ;*   Local Frame Size  : 0 Args + 0 Auto + 0 Save = 0 byte                    *
     343                    ;******************************************************************************
     344                    EDMA3SetPaRAM:
     345                    ;** --------------------------------------------------------------------------*
     346                    $C$DW$23        .dwtag  DW_TAG_variable
     347                            .dwattr $C$DW$23, DW_AT_name("chNum")
     348                            .dwattr $C$DW$23, DW_AT_TI_symbol_name("chNum")
     349                            .dwattr $C$DW$23, DW_AT_type(*$C$DW$T$62)
     350                            .dwattr $C$DW$23, DW_AT_location[DW_OP_reg20]
     351                    
     352                    $C$DW$24        .dwtag  DW_TAG_variable
     353                            .dwattr $C$DW$24, DW_AT_name("sr")
     354                            .dwattr $C$DW$24, DW_AT_TI_symbol_name("sr")
     355                            .dwattr $C$DW$24, DW_AT_type(*$C$DW$T$43)
     356                            .dwattr $C$DW$24, DW_AT_location[DW_OP_reg3]
     357                    
     358                    $C$DW$25        .dwtag  DW_TAG_variable
     359                            .dwattr $C$DW$25, DW_AT_name("ds")
     360                            .dwattr $C$DW$25, DW_AT_TI_symbol_name("ds")
     361                            .dwattr $C$DW$25, DW_AT_type(*$C$DW$T$70)
     362                            .dwattr $C$DW$25, DW_AT_location[DW_OP_reg5]
     363                    
     364                            .dwcfi  cfa_offset, 0
     365                    
     366 00000088     6346             MV      .L1     A6,A3             ; [A_L674] |901| 
     367 0000008a     0ea7  ||         MVK     .L2     8,B5              ; [B_L674] 
     368 0000008c 0210aca2  ||         SHL     .S2     B4,5,B4           ; [B_Sb674] |907| 
     369                    
     370                            .dwpsn  file "C:/ti/OMAPL138_StarterWare_1_10_04_01/drivers/edma.c",line 909,column 14,is_stmt
     371 00000090 03a01028             MVK     .S1     16416,A7          ; [A_S674] |909| 
     372                            .dwpsn  file "C:/ti/OMAPL138_StarterWare_1_10_04_01/drivers/edma.c",line 907,column 5,is_stmt,
     373                    
     374 00000098 02909078             ADD     .L1X    A4,B4,A5          ; [A_L674] |907| 
     375 00000094 02600fab  ||         MVK     .S2     -16353,B4         ; [B_Sb674] |909| 
     376                    
     377 000000a0 02a00050             ADDK    .S1     16384,A5          ; [A_S674] |907| 
     378                            .dwpsn  file "C:/ti/OMAPL138_StarterWare_1_10_04_01/drivers/edma.c",line 909,column 14,is_stmt
     379 000000a4     ab40             SUB     .L1     A5,A6,A4          ; [A_L674] |909| 
     380 000000a6     cae0             SUB     .L1     A6,A5,A6          ; [A_L674] |909| 
     381                    
     382 000000a8 02109afb             CMPGT   .L2X    A4,B4,B4          ; [B_L674] |909| 
     383 000000ac 021ccaf8  ||         CMPLT   .L1     A6,A7,A4          ; [A_L674] |909| 
     384                    
     385 000000b0     fa67             XOR     .L2     1,B4,B4           ; [B_L674] |909| 
TMS320C6x Assembler PC v8.1.3 Thu Apr 20 04:41:39 2017

Tools Copyright (c) 1996-2015 Texas Instruments Incorporated
edma.asm                                                             PAGE    8

     386                    
     387 000000b2     9609             AND     .L2X    A4,B4,B0          ; [B_L674] |909| 
     388 000000b4 021406a2  ||         MV      .S2     B5,B4             ; [B_Sb674] |909| 
     389                    
     390 000000b8 30266121     [!B0]   BNOP            $C$L4,3           ; [] |909| 
     391 000000c0 2293e05b  || [ B0]   SUB     .L2     B4,1,B5           ; [B_L674] 
     392 000000c4 329781a2  || [!B0]   SUB     .S2     B5,4,B5           ; [B_Sb674] 
     393                    
     394 000000c8 269403a2     [ B0]   MVC     .S2     B5,ILC            ; [B_Sb674] 
     395 000000cc 369403a2     [!B0]   MVC     .S2     B5,ILC            ; [B_Sb674] 
     396                               ; BRANCHCC OCCURS {$C$L4}         ; [] |909| 
     397                    ;*----------------------------------------------------------------------------*
     398                    ;*   SOFTWARE PIPELINE INFORMATION
     399                    ;*
     400                    ;*      Loop found in file               : C:/ti/OMAPL138_StarterWare_1_10_04_01/drivers/edma.c
     401                    ;*      Loop source line                 : 909
     402                    ;*      Loop opening brace source line   : 910
     403                    ;*      Loop closing brace source line   : 914
     404                    ;*      Known Minimum Trip Count         : 8                    
     405                    ;*      Known Maximum Trip Count         : 8                    
     406                    ;*      Known Max Trip Count Factor      : 8
     407                    ;*      Loop Carried Dependency Bound(^) : 6
     408                    ;*      Unpartitioned Resource Bound     : 1
     409                    ;*      Partitioned Resource Bound(*)    : 2
     410                    ;*      Resource Partition:
     411                    ;*                                A-side   B-side
     412                    ;*      .L units                     0        0     
     413                    ;*      .S units                     0        0     
     414                    ;*      .D units                     1*       1*    
     415                    ;*      .M units                     0        0     
     416                    ;*      .X cross paths               0        0     
     417                    ;*      .T address paths             0        2     
     418                    ;*      Logical  ops (.LS)           0        0     (.L or .S unit)
     419                    ;*      Addition ops (.LSD)          0        0     (.L or .S or .D unit)
     420                    ;*      Bound(.L .S .LS)             0        0     
     421                    ;*      Bound(.L .S .D .LS .LSD)     1*       1*    
     422                    ;*
     423                    ;*      Searching for software pipeline schedule at ...
     424                    ;*         ii = 6  Schedule found with 2 iterations in parallel
     425                    ;*      Done
     426                    ;*
     427                    ;*      Loop will be splooped
     428                    ;*      Collapsed epilog stages       : 0
     429                    ;*      Collapsed prolog stages       : 0
     430                    ;*      Minimum required memory pad   : 0 bytes
     431                    ;*
     432                    ;*      Minimum safe trip count       : 1
     433                    ;*
     434                    ;*      (Performance) Consider adding assertions to indicate n-byte alignment of variables newPaRAM if
     435                    ;*----------------------------------------------------------------------------*
     436 000000d0           $C$L1:    ; PIPED LOOP PROLOG
     437                            .dwcfi  remember_state
     438 000000d0 0283a000             SPLOOPD         6                 ;12 ; [A_L674] (P) 
     439                    ;** --------------------------------------------------------------------------*
     440 000000d4           $C$L2:    ; PIPED LOOP KERNEL
TMS320C6x Assembler PC v8.1.3 Thu Apr 20 04:41:39 2017

Tools Copyright (c) 1996-2015 Texas Instruments Incorporated
edma.asm                                                             PAGE    9

     441                            .dwpsn  file "C:/ti/OMAPL138_StarterWare_1_10_04_01/drivers/edma.c",line 911,column 9,is_stmt,
     442 000000d4 020c3666             LDW     .D1T2   *A3++(4),B4       ; [A_D64P] |911| (P) <0,0>  ^ 
     443 000000d8     4c6e             NOP             3                 ; [A_L674] 
     444                    
     445 000000da     2ce6             SPMASK                            ; [] 
     446 000000e0     b2c7  ||^        MV      .L2X    A5,B5             ; [B_L674] 
     447                    
     448 000000e2     1cc5             STW     .D2T2   B4,*B5++(4)       ; [B_D64P] |911| (P) <0,5>  ^ 
     449 000000e4     1c66             SPKERNEL        0,0               ; [] 
     450                    ;** --------------------------------------------------------------------------*
     451 000000e6           $C$L3:    ; PIPED LOOP EPILOG
     452                            .dwpsn  file "C:/ti/OMAPL138_StarterWare_1_10_04_01/drivers/edma.c",line 915,column 1,is_stmt,
     453                    $C$DW$26        .dwtag  DW_TAG_TI_branch
     454                            .dwattr $C$DW$26, DW_AT_low_pc(0x00)
     455                            .dwattr $C$DW$26, DW_AT_TI_return
     456                    
     457 000000e6     a1ef             RETNOP          B3,5              ; [] |915| 
     458                               ; BRANCH OCCURS {B3}              ; [] |915| 
     459                            .dwcfi  restore_state
     460                    ;** --------------------------------------------------------------------------*
     461 000000e8     8ed1             SUB     .L2     B5,4,B5           ; [B_L674] 
     462 000000ea     daef             MVC     .S2     B5,ILC            ; [B_Sb674] 
     463                    ;*----------------------------------------------------------------------------*
     464                    ;*   SOFTWARE PIPELINE INFORMATION
     465                    ;*
     466                    ;*      Loop found in file               : C:/ti/OMAPL138_StarterWare_1_10_04_01/drivers/edma.c
     467                    ;*      Loop source line                 : 909
     468                    ;*      Loop opening brace source line   : 910
     469                    ;*      Loop closing brace source line   : 914
     470                    ;*      Known Minimum Trip Count         : 8                    
     471                    ;*      Known Maximum Trip Count         : 8                    
     472                    ;*      Known Max Trip Count Factor      : 8
     473                    ;*      Loop Carried Dependency Bound(^) : 0
     474                    ;*      Unpartitioned Resource Bound     : 1
     475                    ;*      Partitioned Resource Bound(*)    : 1
     476                    ;*      Resource Partition:
     477                    ;*                                A-side   B-side
     478                    ;*      .L units                     0        0     
     479                    ;*      .S units                     0        0     
     480                    ;*      .D units                     1*       1*    
     481                    ;*      .M units                     0        0     
     482                    ;*      .X cross paths               0        1     
     483                    ;*      .T address paths             1        1     
     484                    ;*      Logical  ops (.LS)           0        0     (.L or .S unit)
     485                    ;*      Addition ops (.LSD)          0        1     (.L or .S or .D unit)
     486                    ;*      Bound(.L .S .LS)             0        0     
     487                    ;*      Bound(.L .S .D .LS .LSD)     1*       1*    
     488                    ;*
     489                    ;*      Searching for software pipeline schedule at ...
     490                    ;*         ii = 1  Schedule found with 7 iterations in parallel
     491                    ;*      Done
     492                    ;*
     493                    ;*      Loop will be splooped
     494                    ;*      Collapsed epilog stages       : 0
     495                    ;*      Collapsed prolog stages       : 0
TMS320C6x Assembler PC v8.1.3 Thu Apr 20 04:41:39 2017

Tools Copyright (c) 1996-2015 Texas Instruments Incorporated
edma.asm                                                             PAGE   10

     496                    ;*      Minimum required memory pad   : 0 bytes
     497                    ;*
     498                    ;*      Minimum safe trip count       : 1
     499                    ;*----------------------------------------------------------------------------*
     500 000000ec           $C$L4:    ; PIPED LOOP PROLOG
     501                    
     502 000000ec     0c67             SPLOOPD         1                 ;7 ; [A_L674] (P) 
     503 000000ee     81ce  ||         MV      .S1     A3,A4             ; [A_S674] 
     504                    
     505                    ;** --------------------------------------------------------------------------*
     506 000000f0           $C$L5:    ; PIPED LOOP KERNEL
     507                            .dwpsn  file "C:/ti/OMAPL138_StarterWare_1_10_04_01/drivers/edma.c",line 911,column 9,is_stmt,
     508 000000f0     0c3c             LDW     .D1T1   *A4++(4),A3       ; [A_D64P] |911| (P) <0,0> 
     509 000000f2     4c6e             NOP             3                 ; [A_L674] 
     510                    
     511 000000f4     2ce6             SPMASK                            ; [] 
     512 000000f6     b2c7  ||^        MV      .L2X    A5,B5             ; [B_L674] 
     513                    
     514 000000f8     91c7             MV      .L2X    A3,B4             ; [B_L674] |911| (P) <0,5> Define a twin register
     515                    
     516 000000fa     1c66             SPKERNEL        0,0               ; [] 
     517 00000100     1cc5  ||         STW     .D2T2   B4,*B5++(4)       ; [B_D64P] |911| <0,6> 
     518                    
     519                    ;** --------------------------------------------------------------------------*
     520 00000102           $C$L6:    ; PIPED LOOP EPILOG
     521                            .dwpsn  file "C:/ti/OMAPL138_StarterWare_1_10_04_01/drivers/edma.c",line 915,column 1,is_stmt,
     522                    $C$DW$27        .dwtag  DW_TAG_TI_branch
     523                            .dwattr $C$DW$27, DW_AT_low_pc(0x00)
     524                            .dwattr $C$DW$27, DW_AT_TI_return
     525                    
     526 00000102     a1ef             RETNOP          B3,5              ; [] |915| 
     527                               ; BRANCH OCCURS {B3}              ; [] |915| 
     528                            .dwattr $C$DW$19, DW_AT_TI_end_file("C:/ti/OMAPL138_StarterWare_1_10_04_01/drivers/edma.c")
     529                            .dwattr $C$DW$19, DW_AT_TI_end_line(0x393)
     530                            .dwattr $C$DW$19, DW_AT_TI_end_column(0x01)
     531                            .dwendentry
     532                            .dwendtag $C$DW$19
     533                    
     534 00000104                   .sect   ".text"
     535                            .clink
     536                            .global EDMA3SetEvt
     537                    
     538                    $C$DW$28        .dwtag  DW_TAG_subprogram
     539                            .dwattr $C$DW$28, DW_AT_name("EDMA3SetEvt")
     540                            .dwattr $C$DW$28, DW_AT_low_pc(EDMA3SetEvt)
     541                            .dwattr $C$DW$28, DW_AT_high_pc(0x00)
     542                            .dwattr $C$DW$28, DW_AT_TI_symbol_name("EDMA3SetEvt")
     543                            .dwattr $C$DW$28, DW_AT_external
     544                            .dwattr $C$DW$28, DW_AT_TI_begin_file("C:/ti/OMAPL138_StarterWare_1_10_04_01/drivers/edma.c")
     545                            .dwattr $C$DW$28, DW_AT_TI_begin_line(0x1f5)
     546                            .dwattr $C$DW$28, DW_AT_TI_begin_column(0x06)
     547                            .dwattr $C$DW$28, DW_AT_decl_file("C:/ti/OMAPL138_StarterWare_1_10_04_01/drivers/edma.c")
     548                            .dwattr $C$DW$28, DW_AT_decl_line(0x1f5)
     549                            .dwattr $C$DW$28, DW_AT_decl_column(0x06)
     550                            .dwattr $C$DW$28, DW_AT_TI_max_frame_size(0x00)
TMS320C6x Assembler PC v8.1.3 Thu Apr 20 04:41:39 2017

Tools Copyright (c) 1996-2015 Texas Instruments Incorporated
edma.asm                                                             PAGE   11

     551                            .dwpsn  file "C:/ti/OMAPL138_StarterWare_1_10_04_01/drivers/edma.c",line 503,column 1,is_stmt,
     552                    
     553                            .dwfde $C$DW$CIE, EDMA3SetEvt
     554                    $C$DW$29        .dwtag  DW_TAG_formal_parameter
     555                            .dwattr $C$DW$29, DW_AT_name("baseAdd")
     556                            .dwattr $C$DW$29, DW_AT_TI_symbol_name("baseAdd")
     557                            .dwattr $C$DW$29, DW_AT_type(*$C$DW$T$11)
     558                            .dwattr $C$DW$29, DW_AT_location[DW_OP_reg4]
     559                    
     560                    $C$DW$30        .dwtag  DW_TAG_formal_parameter
     561                            .dwattr $C$DW$30, DW_AT_name("chNum")
     562                            .dwattr $C$DW$30, DW_AT_TI_symbol_name("chNum")
     563                            .dwattr $C$DW$30, DW_AT_type(*$C$DW$T$11)
     564                            .dwattr $C$DW$30, DW_AT_location[DW_OP_reg20]
     565                    
     566                    
     567                    ;******************************************************************************
     568                    ;* FUNCTION NAME: EDMA3SetEvt                                                 *
     569                    ;*                                                                            *
     570                    ;*   Regs Modified     : A3,A4,A5,A6,B0,B4,B5,B6,B7                           *
     571                    ;*   Regs Used         : A3,A4,A5,A6,B0,B3,B4,B5,B6,B7,DP                     *
     572                    ;*   Local Frame Size  : 0 Args + 0 Auto + 0 Save = 0 byte                    *
     573                    ;******************************************************************************
     574                    EDMA3SetEvt:
     575                    ;** --------------------------------------------------------------------------*
     576                    $C$DW$31        .dwtag  DW_TAG_variable
     577                            .dwattr $C$DW$31, DW_AT_name("chNum")
     578                            .dwattr $C$DW$31, DW_AT_TI_symbol_name("chNum")
     579                            .dwattr $C$DW$31, DW_AT_type(*$C$DW$T$62)
     580                            .dwattr $C$DW$31, DW_AT_location[DW_OP_reg20]
     581                    
     582                            .dwcfi  cfa_offset, 0
     583                            .dwpsn  file "C:/ti/OMAPL138_StarterWare_1_10_04_01/drivers/edma.c",line 504,column 5,is_stmt,
     584 00000104 0280006e!            LDW     .D2T2   *+DP(regionId),B5 ; [B_D64P] |504| 
     585 00000108 00000000             NOP             4                 ; [A_L674] 
     586                            .dwpsn  file "C:/ti/OMAPL138_StarterWare_1_10_04_01/drivers/edma.c",line 507,column 10,is_stmt
     587 00000108 03152ca2             SHL     .S2     B5,9,B6           ; [B_Sb674] |507| 
     588                            .dwpsn  file "C:/ti/OMAPL138_StarterWare_1_10_04_01/drivers/edma.c",line 512,column 10,is_stmt
     589 0000010c     2e83             SHL     .S2     B5,9,B5           ; [B_Sb674] |512| 
     590                            .dwpsn  file "C:/ti/OMAPL138_StarterWare_1_10_04_01/drivers/edma.c",line 504,column 5,is_stmt,
     591                    
     592 0000010e     9330             ADD     .L1X    A4,B6,A3          ; [A_L674] |507| 
     593 00000110     b261  ||         ADD     .L2X    A4,B5,B6          ; [B_L674] |512| 
     594 00000112     02b3  ||         MVK     .S2     32,B5             ; [B_Sb674] |504| 
     595                    
     596 00000114 01900851             ADDK    .S1     8208,A3           ; [A_S674] |507| 
     597 00000118 03100a53  ||         ADDK    .S2     8212,B6           ; [B_Sb674] |512| 
     598 00000120     8ec9  ||         CMPLTU  .L2     B4,B5,B0          ; [B_L674] |504| 
     599                    
     600                            .dwpsn  file "C:/ti/OMAPL138_StarterWare_1_10_04_01/drivers/edma.c",line 507,column 10,is_stmt
     601                    
     602 00000124 220c0265     [ B0]   LDW     .D1T1   *A3(0),A4         ; [A_D64P] |507| 
     603 00000122     b2c6  ||         MV      .L1X    B5,A5             ; [A_L674] |512| 
     604 0000012c     26a7  ||         MVK     .L2     1,B5              ; [B_L674] |507| 
     605 00000128 339802e7  || [!B0]   LDW     .D2T2   *B6(0),B7         ; [B_D64P] |512| 
TMS320C6x Assembler PC v8.1.3 Thu Apr 20 04:41:39 2017

Tools Copyright (c) 1996-2015 Texas Instruments Incorporated
edma.asm                                                             PAGE   12

     606                    
     607                            .dwpsn  file "C:/ti/OMAPL138_StarterWare_1_10_04_01/drivers/edma.c",line 512,column 10,is_stmt
     608                    $C$DW$32        .dwtag  DW_TAG_TI_branch
     609                            .dwattr $C$DW$32, DW_AT_low_pc(0x00)
     610                            .dwattr $C$DW$32, DW_AT_TI_return
     611                    
     612                    
     613 0000012e     01ef             RET     .S2     B3                ; [B_Sb674] |514| 
     614 00000130 029492f8  ||         SUB     .L1X    B4,A5,A5          ; [A_L674] |512| 
     615                    
     616                            .dwpsn  file "C:/ti/OMAPL138_StarterWare_1_10_04_01/drivers/edma.c",line 507,column 10,is_stmt
     617 00000134 03141fd8             MV      .L1X    B5,A6             ; [A_L674] |507| 
     618                    
     619 00000138 0298ace1             SHL     .S1     A6,A5,A5          ; [A_S674] |512| 
     620 00000140 02148ce2  ||         SHL     .S2     B5,B4,B4          ; [B_Sb674] |507| 
     621                    
     622 00000144 00000000             NOP             1                 ; [A_L674] 
     623                    
     624 00000148 22109ff9     [ B0]   OR      .L1X    B4,A4,A4          ; [A_L674] |507| 
     625 0000014c 3214fffa  || [!B0]   OR      .L2X    A5,B7,B4          ; [B_L674] |512| 
     626                    
     627 00000150 321802f7     [!B0]   STW     .D2T2   B4,*B6(0)         ; [B_D64P] |512| 
     628 00000154 220c0275  || [ B0]   STW     .D1T1   A4,*A3(0)         ; [A_D64P] |507| 
     629                    
     630                            .dwpsn  file "C:/ti/OMAPL138_StarterWare_1_10_04_01/drivers/edma.c",line 514,column 1,is_stmt,
     631                               ; BRANCH OCCURS {B3}              ; [] |514| 
     632                            .dwattr $C$DW$28, DW_AT_TI_end_file("C:/ti/OMAPL138_StarterWare_1_10_04_01/drivers/edma.c")
     633                            .dwattr $C$DW$28, DW_AT_TI_end_line(0x202)
     634                            .dwattr $C$DW$28, DW_AT_TI_end_column(0x01)
     635                            .dwendentry
     636                            .dwendtag $C$DW$28
     637                    
     638 00000160                   .sect   ".text"
     639                            .clink
     640                            .global EDMA3EnableChInShadowReg
     641                    
     642                    $C$DW$33        .dwtag  DW_TAG_subprogram
     643                            .dwattr $C$DW$33, DW_AT_name("EDMA3EnableChInShadowReg")
     644                            .dwattr $C$DW$33, DW_AT_low_pc(EDMA3EnableChInShadowReg)
     645                            .dwattr $C$DW$33, DW_AT_high_pc(0x00)
     646                            .dwattr $C$DW$33, DW_AT_TI_symbol_name("EDMA3EnableChInShadowReg")
     647                            .dwattr $C$DW$33, DW_AT_external
     648                            .dwattr $C$DW$33, DW_AT_TI_begin_file("C:/ti/OMAPL138_StarterWare_1_10_04_01/drivers/edma.c")
     649                            .dwattr $C$DW$33, DW_AT_TI_begin_line(0xab)
     650                            .dwattr $C$DW$33, DW_AT_TI_begin_column(0x06)
     651                            .dwattr $C$DW$33, DW_AT_decl_file("C:/ti/OMAPL138_StarterWare_1_10_04_01/drivers/edma.c")
     652                            .dwattr $C$DW$33, DW_AT_decl_line(0xab)
     653                            .dwattr $C$DW$33, DW_AT_decl_column(0x06)
     654                            .dwattr $C$DW$33, DW_AT_TI_max_frame_size(0x00)
     655                            .dwpsn  file "C:/ti/OMAPL138_StarterWare_1_10_04_01/drivers/edma.c",line 174,column 1,is_stmt,
     656                    
     657                            .dwfde $C$DW$CIE, EDMA3EnableChInShadowReg
     658                    $C$DW$34        .dwtag  DW_TAG_formal_parameter
     659                            .dwattr $C$DW$34, DW_AT_name("baseAdd")
     660                            .dwattr $C$DW$34, DW_AT_TI_symbol_name("baseAdd")
TMS320C6x Assembler PC v8.1.3 Thu Apr 20 04:41:39 2017

Tools Copyright (c) 1996-2015 Texas Instruments Incorporated
edma.asm                                                             PAGE   13

     661                            .dwattr $C$DW$34, DW_AT_type(*$C$DW$T$11)
     662                            .dwattr $C$DW$34, DW_AT_location[DW_OP_reg4]
     663                    
     664                    $C$DW$35        .dwtag  DW_TAG_formal_parameter
     665                            .dwattr $C$DW$35, DW_AT_name("chType")
     666                            .dwattr $C$DW$35, DW_AT_TI_symbol_name("chType")
     667                            .dwattr $C$DW$35, DW_AT_type(*$C$DW$T$11)
     668                            .dwattr $C$DW$35, DW_AT_location[DW_OP_reg20]
     669                    
     670                    $C$DW$36        .dwtag  DW_TAG_formal_parameter
     671                            .dwattr $C$DW$36, DW_AT_name("chNum")
     672                            .dwattr $C$DW$36, DW_AT_TI_symbol_name("chNum")
     673                            .dwattr $C$DW$36, DW_AT_type(*$C$DW$T$11)
     674                            .dwattr $C$DW$36, DW_AT_location[DW_OP_reg6]
     675                    
     676                    
     677                    ;******************************************************************************
     678                    ;* FUNCTION NAME: EDMA3EnableChInShadowReg                                    *
     679                    ;*                                                                            *
     680                    ;*   Regs Modified     : A0,A3,A4,A5,A7,A30,A31,B0,B1,B4,B5                   *
     681                    ;*   Regs Used         : A0,A3,A4,A5,A6,A7,A30,A31,B0,B1,B3,B4,B5,DP          *
     682                    ;*   Local Frame Size  : 0 Args + 0 Auto + 0 Save = 0 byte                    *
     683                    ;******************************************************************************
     684                    EDMA3EnableChInShadowReg:
     685                    ;** --------------------------------------------------------------------------*
     686                    $C$DW$37        .dwtag  DW_TAG_variable
     687                            .dwattr $C$DW$37, DW_AT_name("baseAdd")
     688                            .dwattr $C$DW$37, DW_AT_TI_symbol_name("baseAdd")
     689                            .dwattr $C$DW$37, DW_AT_type(*$C$DW$T$62)
     690                            .dwattr $C$DW$37, DW_AT_location[DW_OP_reg4]
     691                    
     692                    $C$DW$38        .dwtag  DW_TAG_variable
     693                            .dwattr $C$DW$38, DW_AT_name("chType")
     694                            .dwattr $C$DW$38, DW_AT_TI_symbol_name("chType")
     695                            .dwattr $C$DW$38, DW_AT_type(*$C$DW$T$62)
     696                            .dwattr $C$DW$38, DW_AT_location[DW_OP_reg16]
     697                    
     698                    $C$DW$39        .dwtag  DW_TAG_variable
     699                            .dwattr $C$DW$39, DW_AT_name("chNum")
     700                            .dwattr $C$DW$39, DW_AT_TI_symbol_name("chNum")
     701                            .dwattr $C$DW$39, DW_AT_type(*$C$DW$T$62)
     702                            .dwattr $C$DW$39, DW_AT_location[DW_OP_reg6]
     703                    
     704                            .dwcfi  cfa_offset, 0
     705                    
     706 00000160     0247             MV      .L2     B4,B0             ; [B_L674] |174| 
     707 00000164 00103a58  ||         CMPEQ   .L1X    B4,1,A0           ; [A_L674] |191| 
     708 00000162     0233  ||         MVK     .S2     32,B4             ; [B_Sb674] |179| 
     709                    
     710                            .dwpsn  file "C:/ti/OMAPL138_StarterWare_1_10_04_01/drivers/edma.c",line 176,column 5,is_stmt,
     711                    
     712 00000168 20318121     [ B0]   BNOP            $C$L7,4           ; [] |176| 
     713 00000170     9f79  ||         CMPLTU  .L2X    A6,B4,B1          ; [B_L674] |179| 
     714 0000016c 0200006f! ||         LDW     .D2T2   *+DP(regionId),B4 ; [B_D64P] |179| 
     715                    
TMS320C6x Assembler PC v8.1.3 Thu Apr 20 04:41:39 2017

Tools Copyright (c) 1996-2015 Texas Instruments Incorporated
edma.asm                                                             PAGE   14

     716 00000172     7246             MV      .L1X    B4,A3             ; [A_L674] 
     717                               ; BRANCHCC OCCURS {$C$L7}         ; [] |176| 
     718                    ;** --------------------------------------------------------------------------*
     719                            .dwpsn  file "C:/ti/OMAPL138_StarterWare_1_10_04_01/drivers/edma.c",line 187,column 15,is_stmt
     720                    
     721 00000174 02907e41             ADDAD   .D1     A4,A3,A5          ; [A_D64P] |187| 
     722 00000178 0f04a359  ||         MVK     .L1     1,A30             ; [A_L674] |187| 
     723 00000180 02901fda  ||         MV      .L2X    A4,B5             ; [B_L674] Define a LI twin register
     724                    
     725                            .dwpsn  file "C:/ti/OMAPL138_StarterWare_1_10_04_01/drivers/edma.c",line 182,column 15,is_stmt
     726                    
     727 00000184 0281a251             ADDK    .S1     836,A5            ; [A_S674] |187| 
     728 00000188 0f991dc1  ||         SUBAW   .D1     A6,8,A31          ; [A_D64P] |187| 
     729 0000018c 02149e42  ||         ADDAD   .D2     B5,B4,B4          ; [B_D64P] |182| 
     730                    
     731 00000190 53940265     [!B1]   LDW     .D1T1   *A5(0),A7         ; [A_D64P] |187| 
     732 00000194 02f81fdb  ||         MV      .L2X    A30,B5            ; [B_L674] |182| 
     733 00000198 01fbece1  ||         SHL     .S1     A30,A31,A3        ; [A_S674] |187| 
     734 0000019c 0201a052  ||         ADDK    .S2     832,B4            ; [B_Sb674] |182| 
     735                    
     736                            .dwpsn  file "C:/ti/OMAPL138_StarterWare_1_10_04_01/drivers/edma.c",line 187,column 15,is_stmt
     737 000001a0 50116120     [!B1]   BNOP            $C$L8,3           ; [] |187| 
     738                    $C$DW$40        .dwtag  DW_TAG_TI_branch
     739                            .dwattr $C$DW$40, DW_AT_low_pc(0x00)
     740                            .dwattr $C$DW$40, DW_AT_TI_return
     741                    
     742                    
     743 000001a4 500c0363     [!B1]   RET     .S2     B3                ; [B_Sb674] |197| 
     744 000001a8 519c6ff8  || [!B1]   OR      .L1     A3,A7,A3          ; [A_L674] |187| 
     745                    
     746                            .dwpsn  file "C:/ti/OMAPL138_StarterWare_1_10_04_01/drivers/edma.c",line 182,column 15,is_stmt
     747                    
     748 000001ac 51940275     [!B1]   STW     .D1T1   A3,*A5(0)         ; [A_D64P] |187| 
     749 000001b0 0194dce1  ||         SHL     .S1X    B5,A6,A3          ; [A_S674] |182| 
     750 000001b4 429002e6  || [ B1]   LDW     .D2T2   *B4(0),B5         ; [B_D64P] |182| 
     751                    
     752                            .dwpsn  file "C:/ti/OMAPL138_StarterWare_1_10_04_01/drivers/edma.c",line 187,column 15,is_stmt
     753                               ; BRANCHCC OCCURS {$C$L8}         ; [] |187| 
     754                    ;** --------------------------------------------------------------------------*
     755                            .dwcfi  remember_state
     756                            .dwpsn  file "C:/ti/OMAPL138_StarterWare_1_10_04_01/drivers/edma.c",line 197,column 1,is_stmt,
     757                    $C$DW$41        .dwtag  DW_TAG_TI_branch
     758                            .dwattr $C$DW$41, DW_AT_low_pc(0x00)
     759                            .dwattr $C$DW$41, DW_AT_TI_return
     760                    
     761 000001b8 008c6362             RETNOP          B3,3              ; [] |197| 
     762                            .dwpsn  file "C:/ti/OMAPL138_StarterWare_1_10_04_01/drivers/edma.c",line 182,column 15,is_stmt
     763 000001bc 028cbffa             OR      .L2X    A3,B5,B5          ; [B_L674] |182| 
     764 000001c0     1055             STW     .D2T2   B5,*B4(0)         ; [B_D64P] |182| 
     765                            .dwpsn  file "C:/ti/OMAPL138_StarterWare_1_10_04_01/drivers/edma.c",line 197,column 1,is_stmt,
     766                               ; BRANCH OCCURS {B3}              ; [] |197| 
     767                            .dwcfi  restore_state
     768                    ;** --------------------------------------------------------------------------*
     769 000001c2           $C$L7:    
     770 000001c2     7246             MV      .L1X    B4,A3             ; [A_L674] 
TMS320C6x Assembler PC v8.1.3 Thu Apr 20 04:41:39 2017

Tools Copyright (c) 1996-2015 Texas Instruments Incorporated
edma.asm                                                             PAGE   15

     771                            .dwpsn  file "C:/ti/OMAPL138_StarterWare_1_10_04_01/drivers/edma.c",line 195,column 9,is_stmt,
     772 000001c4 02107c40             ADDAW   .D1     A4,A3,A4          ; [A_D64P] |195| 
     773 000001c8 0201c050             ADDK    .S1     896,A4            ; [A_S674] |195| 
     774 000001cc c1900264     [ A0]   LDW     .D1T1   *A4(0),A3         ; [A_D64P] |195| 
     775 000001d0     26a6             MVK     .L1     1,A5              ; [A_L674] |195| 
     776 000001d2     c6e2             SHL     .S1     A5,A6,A5          ; [A_S674] |195| 
     777 000001d4     2c6e             NOP             2                 ; [A_L674] 
     778                    $C$DW$42        .dwtag  DW_TAG_TI_branch
     779                            .dwattr $C$DW$42, DW_AT_low_pc(0x04)
     780                            .dwattr $C$DW$42, DW_AT_TI_return
     781                    
     782                    
     783 000001d8 c18caff8     [ A0]   OR      .L1     A5,A3,A3          ; [A_L674] |195| 
     784 000001d6     01ef  ||         RET     .S2     B3                ; [B_Sb674] |197| 
     785                    
     786 000001e0 c1900274     [ A0]   STW     .D1T1   A3,*A4(0)         ; [A_D64P] |195| 
     787                    ;** --------------------------------------------------------------------------*
     788 000001e4           $C$L8:    
     789 000001e4 00006000             NOP             4                 ; [A_L674] 
     790                            .dwpsn  file "C:/ti/OMAPL138_StarterWare_1_10_04_01/drivers/edma.c",line 197,column 1,is_stmt,
     791                               ; BRANCH OCCURS {B3}              ; [] |197| 
     792                            .dwattr $C$DW$33, DW_AT_TI_end_file("C:/ti/OMAPL138_StarterWare_1_10_04_01/drivers/edma.c")
     793                            .dwattr $C$DW$33, DW_AT_TI_end_line(0xc5)
     794                            .dwattr $C$DW$33, DW_AT_TI_end_column(0x01)
     795                            .dwendentry
     796                            .dwendtag $C$DW$33
     797                    
     798 000001e8                   .sect   ".text"
     799                            .clink
     800                            .global EDMA3MapChToEvtQ
     801                    
     802                    $C$DW$43        .dwtag  DW_TAG_subprogram
     803                            .dwattr $C$DW$43, DW_AT_name("EDMA3MapChToEvtQ")
     804                            .dwattr $C$DW$43, DW_AT_low_pc(EDMA3MapChToEvtQ)
     805                            .dwattr $C$DW$43, DW_AT_high_pc(0x00)
     806                            .dwattr $C$DW$43, DW_AT_TI_symbol_name("EDMA3MapChToEvtQ")
     807                            .dwattr $C$DW$43, DW_AT_external
     808                            .dwattr $C$DW$43, DW_AT_TI_begin_file("C:/ti/OMAPL138_StarterWare_1_10_04_01/drivers/edma.c")
     809                            .dwattr $C$DW$43, DW_AT_TI_begin_line(0x122)
     810                            .dwattr $C$DW$43, DW_AT_TI_begin_column(0x06)
     811                            .dwattr $C$DW$43, DW_AT_decl_file("C:/ti/OMAPL138_StarterWare_1_10_04_01/drivers/edma.c")
     812                            .dwattr $C$DW$43, DW_AT_decl_line(0x122)
     813                            .dwattr $C$DW$43, DW_AT_decl_column(0x06)
     814                            .dwattr $C$DW$43, DW_AT_TI_max_frame_size(0x00)
     815                            .dwpsn  file "C:/ti/OMAPL138_StarterWare_1_10_04_01/drivers/edma.c",line 294,column 1,is_stmt,
     816                    
     817                            .dwfde $C$DW$CIE, EDMA3MapChToEvtQ
     818                    $C$DW$44        .dwtag  DW_TAG_formal_parameter
     819                            .dwattr $C$DW$44, DW_AT_name("baseAdd")
     820                            .dwattr $C$DW$44, DW_AT_TI_symbol_name("baseAdd")
     821                            .dwattr $C$DW$44, DW_AT_type(*$C$DW$T$11)
     822                            .dwattr $C$DW$44, DW_AT_location[DW_OP_reg4]
     823                    
     824                    $C$DW$45        .dwtag  DW_TAG_formal_parameter
     825                            .dwattr $C$DW$45, DW_AT_name("chType")
TMS320C6x Assembler PC v8.1.3 Thu Apr 20 04:41:39 2017

Tools Copyright (c) 1996-2015 Texas Instruments Incorporated
edma.asm                                                             PAGE   16

     826                            .dwattr $C$DW$45, DW_AT_TI_symbol_name("chType")
     827                            .dwattr $C$DW$45, DW_AT_type(*$C$DW$T$11)
     828                            .dwattr $C$DW$45, DW_AT_location[DW_OP_reg20]
     829                    
     830                    $C$DW$46        .dwtag  DW_TAG_formal_parameter
     831                            .dwattr $C$DW$46, DW_AT_name("chNum")
     832                            .dwattr $C$DW$46, DW_AT_TI_symbol_name("chNum")
     833                            .dwattr $C$DW$46, DW_AT_type(*$C$DW$T$11)
     834                            .dwattr $C$DW$46, DW_AT_location[DW_OP_reg6]
     835                    
     836                    $C$DW$47        .dwtag  DW_TAG_formal_parameter
     837                            .dwattr $C$DW$47, DW_AT_name("evtQNum")
     838                            .dwattr $C$DW$47, DW_AT_TI_symbol_name("evtQNum")
     839                            .dwattr $C$DW$47, DW_AT_type(*$C$DW$T$11)
     840                            .dwattr $C$DW$47, DW_AT_location[DW_OP_reg22]
     841                    
     842                    
     843                    ;******************************************************************************
     844                    ;* FUNCTION NAME: EDMA3MapChToEvtQ                                            *
     845                    ;*                                                                            *
     846                    ;*   Regs Modified     : A3,A4,A5,A7,A8,B0,B1,B4,B5                           *
     847                    ;*   Regs Used         : A3,A4,A5,A6,A7,A8,B0,B1,B3,B4,B5,B6                  *
     848                    ;*   Local Frame Size  : 0 Args + 0 Auto + 0 Save = 0 byte                    *
     849                    ;******************************************************************************
     850                    EDMA3MapChToEvtQ:
     851                    ;** --------------------------------------------------------------------------*
     852                    $C$DW$48        .dwtag  DW_TAG_variable
     853                            .dwattr $C$DW$48, DW_AT_name("baseAdd")
     854                            .dwattr $C$DW$48, DW_AT_TI_symbol_name("baseAdd")
     855                            .dwattr $C$DW$48, DW_AT_type(*$C$DW$T$62)
     856                            .dwattr $C$DW$48, DW_AT_location[DW_OP_reg4]
     857                    
     858                    $C$DW$49        .dwtag  DW_TAG_variable
     859                            .dwattr $C$DW$49, DW_AT_name("chType")
     860                            .dwattr $C$DW$49, DW_AT_TI_symbol_name("chType")
     861                            .dwattr $C$DW$49, DW_AT_type(*$C$DW$T$62)
     862                            .dwattr $C$DW$49, DW_AT_location[DW_OP_reg16]
     863                    
     864                    $C$DW$50        .dwtag  DW_TAG_variable
     865                            .dwattr $C$DW$50, DW_AT_name("chNum")
     866                            .dwattr $C$DW$50, DW_AT_TI_symbol_name("chNum")
     867                            .dwattr $C$DW$50, DW_AT_type(*$C$DW$T$62)
     868                            .dwattr $C$DW$50, DW_AT_location[DW_OP_reg6]
     869                    
     870                    $C$DW$51        .dwtag  DW_TAG_variable
     871                            .dwattr $C$DW$51, DW_AT_name("evtQNum")
     872                            .dwattr $C$DW$51, DW_AT_TI_symbol_name("evtQNum")
     873                            .dwattr $C$DW$51, DW_AT_type(*$C$DW$T$62)
     874                            .dwattr $C$DW$51, DW_AT_location[DW_OP_reg22]
     875                    
     876                            .dwcfi  cfa_offset, 0
     877                    
     878 000001e8     2a27             CMPEQ   .L2     B4,1,B1           ; [B_L674] |304| 
     879 000001ea     024f  ||         MV      .S2     B4,B0             ; [B_Sb674] |294| 
     880 000001ec 019829a1  ||         SHRU    .S1     A6,1,A3           ; [A_S674] |298| 
TMS320C6x Assembler PC v8.1.3 Thu Apr 20 04:41:39 2017

Tools Copyright (c) 1996-2015 Texas Instruments Incorporated
edma.asm                                                             PAGE   17

     881 000001f0 0218e9f3  ||         AND     .D2     7,B6,B4           ; [B_D64P] |301| 
     882 000001f4 0298ef58  ||         AND     .L1     7,A6,A5           ; [A_L674] |298| 
     883                    
     884                            .dwpsn  file "C:/ti/OMAPL138_StarterWare_1_10_04_01/drivers/edma.c",line 295,column 5,is_stmt,
     885                    
     886 000001f8     e8e7     [!B0]   MVK     .L2     1,B1              ; [B_L674] |307| nullify predicate
     887 000001fa     0d7b  || [!B0]   B       .S2     $C$L9             ; [B_Sb674] |295| 
     888 00000200 018f8f59  ||         AND     .L1     -4,A3,A3          ; [A_L674] |298| 
     889 00000204 04144ca1  ||         SHL     .S1     A5,2,A8           ; [A_S674] |298| 
     890 00000208 0280e040  ||         MVK     .D1     7,A5              ; [A_D64P] |298| 
     891                    
     892                            .dwpsn  file "C:/ti/OMAPL138_StarterWare_1_10_04_01/drivers/edma.c",line 298,column 9,is_stmt,
     893                    
     894 0000020c 50000d13     [!B1]   B       .S2     $C$L10            ; [B_Sb674] |304| 
     895 00000210 018c8079  ||         ADD     .L1     A4,A3,A3          ; [A_L674] |298| 
     896 00000214 03950ce0  ||         SHL     .S1     A5,A8,A7          ; [A_S674] |298| 
     897                    
     898 00000218 01812051             ADDK    .S1     576,A3            ; [A_S674] |298| 
     899 0000021c 2281302a  || [ B0]   MVK     .S2     608,B5            ; [B_Sb674] |307| 
     900                    
     901 00000220 02911ce1             SHL     .S1X    B4,A8,A5          ; [A_S674] |301| 
     902 00000224 2218ef5b  || [ B0]   AND     .L2     7,B6,B4           ; [B_L674] |307| 
     903 00000228 320c0264  || [!B0]   LDW     .D1T1   *A3(0),A4         ; [A_D64P] |298| 
     904                    
     905                            .dwpsn  file "C:/ti/OMAPL138_StarterWare_1_10_04_01/drivers/edma.c",line 307,column 9,is_stmt,
     906 0000022c 21984ca0     [ B0]   SHL     .S1     A6,2,A3           ; [A_S674] |307| 
     907                    
     908 00000230 21907ce1     [ B0]   SHL     .S1X    B4,A3,A3          ; [A_S674] |307| 
     909 00000234 2210b07a  || [ B0]   ADD     .L2X    B5,A4,B4          ; [B_L674] |307| 
     910                    
     911                            .dwpsn  file "C:/ti/OMAPL138_StarterWare_1_10_04_01/drivers/edma.c",line 295,column 5,is_stmt,
     912                               ; BRANCHCC OCCURS {$C$L9}         ; [] |295| 
     913                    ;** --------------------------------------------------------------------------*
     914                            .dwpsn  file "C:/ti/OMAPL138_StarterWare_1_10_04_01/drivers/edma.c",line 307,column 9,is_stmt,
     915                    $C$DW$52        .dwtag  DW_TAG_TI_branch
     916                            .dwattr $C$DW$52, DW_AT_low_pc(0x04)
     917                            .dwattr $C$DW$52, DW_AT_TI_return
     918                    
     919                    
     920 00000238 429002e7     [ B1]   LDW     .D2T2   *B4(0),B5         ; [B_D64P] |307| 
     921 0000023c 500c0362  || [!B1]   RET     .S2     B3                ; [B_Sb674] |310| 
     922                    
     923                            .dwpsn  file "C:/ti/OMAPL138_StarterWare_1_10_04_01/drivers/edma.c",line 304,column 10,is_stmt
     924                               ; BRANCHCC OCCURS {$C$L10}        ; [] |304| 
     925                    ;** --------------------------------------------------------------------------*
     926                            .dwcfi  remember_state
     927                            .dwpsn  file "C:/ti/OMAPL138_StarterWare_1_10_04_01/drivers/edma.c",line 310,column 1,is_stmt,
     928                    $C$DW$53        .dwtag  DW_TAG_TI_branch
     929                            .dwattr $C$DW$53, DW_AT_low_pc(0x00)
     930                            .dwattr $C$DW$53, DW_AT_TI_return
     931                    
     932 00000240 008c6362             RETNOP          B3,3              ; [] |310| 
     933                            .dwpsn  file "C:/ti/OMAPL138_StarterWare_1_10_04_01/drivers/edma.c",line 307,column 9,is_stmt,
     934 00000244 028cbffa             OR      .L2X    A3,B5,B5          ; [B_L674] |307| 
     935 00000248     1055             STW     .D2T2   B5,*B4(0)         ; [B_D64P] |307| 
TMS320C6x Assembler PC v8.1.3 Thu Apr 20 04:41:39 2017

Tools Copyright (c) 1996-2015 Texas Instruments Incorporated
edma.asm                                                             PAGE   18

     936                            .dwpsn  file "C:/ti/OMAPL138_StarterWare_1_10_04_01/drivers/edma.c",line 310,column 1,is_stmt,
     937                               ; BRANCH OCCURS {B3}              ; [] |310| 
     938                            .dwcfi  restore_state
     939                    ;** --------------------------------------------------------------------------*
     940 0000024a           $C$L9:    
     941 0000024a     2c6e             NOP             2                 ; [A_L674] 
     942                            .dwpsn  file "C:/ti/OMAPL138_StarterWare_1_10_04_01/drivers/edma.c",line 298,column 9,is_stmt,
     943 0000024c 021c8f98             ANDN    .L1     A4,A7,A4          ; [A_L674] |298| 
     944 00000250 020c0274             STW     .D1T1   A4,*A3(0)         ; [A_D64P] |298| 
     945                            .dwpsn  file "C:/ti/OMAPL138_StarterWare_1_10_04_01/drivers/edma.c",line 301,column 9,is_stmt,
     946 00000254 020c0264             LDW     .D1T1   *A3(0),A4         ; [A_D64P] |301| 
     947 00000258 00000000             NOP             4                 ; [A_L674] 
     948 00000258 0210aff8             OR      .L1     A5,A4,A4          ; [A_L674] |301| 
     949                    $C$DW$54        .dwtag  DW_TAG_TI_branch
     950                            .dwattr $C$DW$54, DW_AT_low_pc(0x04)
     951                            .dwattr $C$DW$54, DW_AT_TI_return
     952                    
     953                    
     954 00000260 020c0275             STW     .D1T1   A4,*A3(0)         ; [A_D64P] |301| 
     955 00000264 000c0362  ||         RET     .S2     B3                ; [B_Sb674] |310| 
     956                    
     957                    ;** --------------------------------------------------------------------------*
     958 00000268           $C$L10:    
     959 00000268 00008000             NOP             5                 ; [A_L674] 
     960                            .dwpsn  file "C:/ti/OMAPL138_StarterWare_1_10_04_01/drivers/edma.c",line 310,column 1,is_stmt,
     961                               ; BRANCH OCCURS {B3}              ; [] |310| 
     962                            .dwattr $C$DW$43, DW_AT_TI_end_file("C:/ti/OMAPL138_StarterWare_1_10_04_01/drivers/edma.c")
     963                            .dwattr $C$DW$43, DW_AT_TI_end_line(0x136)
     964                            .dwattr $C$DW$43, DW_AT_TI_end_column(0x01)
     965                            .dwendentry
     966                            .dwendtag $C$DW$43
     967                    
     968 0000026c                   .sect   ".text"
     969                            .clink
     970                            .global EDMA3EnableEvtIntr
     971                    
     972                    $C$DW$55        .dwtag  DW_TAG_subprogram
     973                            .dwattr $C$DW$55, DW_AT_name("EDMA3EnableEvtIntr")
     974                            .dwattr $C$DW$55, DW_AT_low_pc(EDMA3EnableEvtIntr)
     975                            .dwattr $C$DW$55, DW_AT_high_pc(0x00)
     976                            .dwattr $C$DW$55, DW_AT_TI_symbol_name("EDMA3EnableEvtIntr")
     977                            .dwattr $C$DW$55, DW_AT_external
     978                            .dwattr $C$DW$55, DW_AT_TI_begin_file("C:/ti/OMAPL138_StarterWare_1_10_04_01/drivers/edma.c")
     979                            .dwattr $C$DW$55, DW_AT_TI_begin_line(0x2f0)
     980                            .dwattr $C$DW$55, DW_AT_TI_begin_column(0x06)
     981                            .dwattr $C$DW$55, DW_AT_decl_file("C:/ti/OMAPL138_StarterWare_1_10_04_01/drivers/edma.c")
     982                            .dwattr $C$DW$55, DW_AT_decl_line(0x2f0)
     983                            .dwattr $C$DW$55, DW_AT_decl_column(0x06)
     984                            .dwattr $C$DW$55, DW_AT_TI_max_frame_size(0x00)
     985                            .dwpsn  file "C:/ti/OMAPL138_StarterWare_1_10_04_01/drivers/edma.c",line 754,column 1,is_stmt,
     986                    
     987                            .dwfde $C$DW$CIE, EDMA3EnableEvtIntr
     988                    $C$DW$56        .dwtag  DW_TAG_formal_parameter
     989                            .dwattr $C$DW$56, DW_AT_name("baseAdd")
     990                            .dwattr $C$DW$56, DW_AT_TI_symbol_name("baseAdd")
TMS320C6x Assembler PC v8.1.3 Thu Apr 20 04:41:39 2017

Tools Copyright (c) 1996-2015 Texas Instruments Incorporated
edma.asm                                                             PAGE   19

     991                            .dwattr $C$DW$56, DW_AT_type(*$C$DW$T$11)
     992                            .dwattr $C$DW$56, DW_AT_location[DW_OP_reg4]
     993                    
     994                    $C$DW$57        .dwtag  DW_TAG_formal_parameter
     995                            .dwattr $C$DW$57, DW_AT_name("chNum")
     996                            .dwattr $C$DW$57, DW_AT_TI_symbol_name("chNum")
     997                            .dwattr $C$DW$57, DW_AT_type(*$C$DW$T$11)
     998                            .dwattr $C$DW$57, DW_AT_location[DW_OP_reg20]
     999                    
    1000                    
    1001                    ;******************************************************************************
    1002                    ;* FUNCTION NAME: EDMA3EnableEvtIntr                                          *
    1003                    ;*                                                                            *
    1004                    ;*   Regs Modified     : A3,A4,A5,A6,B0,B4,B5,B6,B7                           *
    1005                    ;*   Regs Used         : A3,A4,A5,A6,B0,B3,B4,B5,B6,B7,DP                     *
    1006                    ;*   Local Frame Size  : 0 Args + 0 Auto + 0 Save = 0 byte                    *
    1007                    ;******************************************************************************
    1008                    EDMA3EnableEvtIntr:
    1009                    ;** --------------------------------------------------------------------------*
    1010                    $C$DW$58        .dwtag  DW_TAG_variable
    1011                            .dwattr $C$DW$58, DW_AT_name("chNum")
    1012                            .dwattr $C$DW$58, DW_AT_TI_symbol_name("chNum")
    1013                            .dwattr $C$DW$58, DW_AT_type(*$C$DW$T$62)
    1014                            .dwattr $C$DW$58, DW_AT_location[DW_OP_reg20]
    1015                    
    1016                            .dwcfi  cfa_offset, 0
    1017                            .dwpsn  file "C:/ti/OMAPL138_StarterWare_1_10_04_01/drivers/edma.c",line 755,column 5,is_stmt,
    1018 0000026c 0280006e!            LDW     .D2T2   *+DP(regionId),B5 ; [B_D64P] |755| 
    1019 00000270 00000000             NOP             4                 ; [A_L674] 
    1020                            .dwpsn  file "C:/ti/OMAPL138_StarterWare_1_10_04_01/drivers/edma.c",line 758,column 10,is_stmt
    1021 00000270 03152ca2             SHL     .S2     B5,9,B6           ; [B_Sb674] |758| 
    1022                            .dwpsn  file "C:/ti/OMAPL138_StarterWare_1_10_04_01/drivers/edma.c",line 763,column 10,is_stmt
    1023 00000274     2e83             SHL     .S2     B5,9,B5           ; [B_Sb674] |763| 
    1024                            .dwpsn  file "C:/ti/OMAPL138_StarterWare_1_10_04_01/drivers/edma.c",line 755,column 5,is_stmt,
    1025                    
    1026 00000276     9330             ADD     .L1X    A4,B6,A3          ; [A_L674] |758| 
    1027 00000278     b261  ||         ADD     .L2X    A4,B5,B6          ; [B_L674] |763| 
    1028 0000027a     02b3  ||         MVK     .S2     32,B5             ; [B_Sb674] |755| 
    1029                    
    1030 00000280 01903051             ADDK    .S1     8288,A3           ; [A_S674] |758| 
    1031 00000284 03103253  ||         ADDK    .S2     8292,B6           ; [B_Sb674] |763| 
    1032 00000288     8ec9  ||         CMPLTU  .L2     B4,B5,B0          ; [B_L674] |755| 
    1033                    
    1034                            .dwpsn  file "C:/ti/OMAPL138_StarterWare_1_10_04_01/drivers/edma.c",line 758,column 10,is_stmt
    1035                    
    1036 0000028c 220c0265     [ B0]   LDW     .D1T1   *A3(0),A4         ; [A_D64P] |758| 
    1037 0000028a     b2c6  ||         MV      .L1X    B5,A5             ; [A_L674] |763| 
    1038 00000294     26a7  ||         MVK     .L2     1,B5              ; [B_L674] |758| 
    1039 00000290 339802e7  || [!B0]   LDW     .D2T2   *B6(0),B7         ; [B_D64P] |763| 
    1040                    
    1041                            .dwpsn  file "C:/ti/OMAPL138_StarterWare_1_10_04_01/drivers/edma.c",line 763,column 10,is_stmt
    1042                    $C$DW$59        .dwtag  DW_TAG_TI_branch
    1043                            .dwattr $C$DW$59, DW_AT_low_pc(0x00)
    1044                            .dwattr $C$DW$59, DW_AT_TI_return
    1045                    
TMS320C6x Assembler PC v8.1.3 Thu Apr 20 04:41:39 2017

Tools Copyright (c) 1996-2015 Texas Instruments Incorporated
edma.asm                                                             PAGE   20

    1046                    
    1047 00000296     01ef             RET     .S2     B3                ; [B_Sb674] |765| 
    1048 00000298 029492f8  ||         SUB     .L1X    B4,A5,A5          ; [A_L674] |763| 
    1049                    
    1050                            .dwpsn  file "C:/ti/OMAPL138_StarterWare_1_10_04_01/drivers/edma.c",line 758,column 10,is_stmt
    1051 000002a0 03141fd8             MV      .L1X    B5,A6             ; [A_L674] |758| 
    1052                    
    1053 000002a4 0298ace1             SHL     .S1     A6,A5,A5          ; [A_S674] |763| 
    1054 000002a8 02148ce2  ||         SHL     .S2     B5,B4,B4          ; [B_Sb674] |758| 
    1055                    
    1056 000002ac 00000000             NOP             1                 ; [A_L674] 
    1057                    
    1058 000002b0 22109ff9     [ B0]   OR      .L1X    B4,A4,A4          ; [A_L674] |758| 
    1059 000002b4 3214fffa  || [!B0]   OR      .L2X    A5,B7,B4          ; [B_L674] |763| 
    1060                    
    1061 000002b8 321802f7     [!B0]   STW     .D2T2   B4,*B6(0)         ; [B_D64P] |763| 
    1062 000002bc 220c0274  || [ B0]   STW     .D1T1   A4,*A3(0)         ; [A_D64P] |758| 
    1063                    
    1064                            .dwpsn  file "C:/ti/OMAPL138_StarterWare_1_10_04_01/drivers/edma.c",line 765,column 1,is_stmt,
    1065                               ; BRANCH OCCURS {B3}              ; [] |765| 
    1066                            .dwattr $C$DW$55, DW_AT_TI_end_file("C:/ti/OMAPL138_StarterWare_1_10_04_01/drivers/edma.c")
    1067                            .dwattr $C$DW$55, DW_AT_TI_end_line(0x2fd)
    1068                            .dwattr $C$DW$55, DW_AT_TI_end_column(0x01)
    1069                            .dwendentry
    1070                            .dwendtag $C$DW$55
    1071                    
    1072 000002c0                   .sect   ".text"
    1073                            .clink
    1074                            .global EDMA3RequestChannel
    1075                    
    1076                    $C$DW$60        .dwtag  DW_TAG_subprogram
    1077                            .dwattr $C$DW$60, DW_AT_name("EDMA3RequestChannel")
    1078                            .dwattr $C$DW$60, DW_AT_low_pc(EDMA3RequestChannel)
    1079                            .dwattr $C$DW$60, DW_AT_high_pc(0x00)
    1080                            .dwattr $C$DW$60, DW_AT_TI_symbol_name("EDMA3RequestChannel")
    1081                            .dwattr $C$DW$60, DW_AT_external
    1082                            .dwattr $C$DW$60, DW_AT_type(*$C$DW$T$11)
    1083                            .dwattr $C$DW$60, DW_AT_TI_begin_file("C:/ti/OMAPL138_StarterWare_1_10_04_01/drivers/edma.c")
    1084                            .dwattr $C$DW$60, DW_AT_TI_begin_line(0x444)
    1085                            .dwattr $C$DW$60, DW_AT_TI_begin_column(0x0e)
    1086                            .dwattr $C$DW$60, DW_AT_decl_file("C:/ti/OMAPL138_StarterWare_1_10_04_01/drivers/edma.c")
    1087                            .dwattr $C$DW$60, DW_AT_decl_line(0x444)
    1088                            .dwattr $C$DW$60, DW_AT_decl_column(0x0e)
    1089                            .dwattr $C$DW$60, DW_AT_TI_max_frame_size(0x00)
    1090                            .dwpsn  file "C:/ti/OMAPL138_StarterWare_1_10_04_01/drivers/edma.c",line 1097,column 1,is_stmt
    1091                    
    1092                            .dwfde $C$DW$CIE, EDMA3RequestChannel
    1093                    $C$DW$61        .dwtag  DW_TAG_formal_parameter
    1094                            .dwattr $C$DW$61, DW_AT_name("baseAdd")
    1095                            .dwattr $C$DW$61, DW_AT_TI_symbol_name("baseAdd")
    1096                            .dwattr $C$DW$61, DW_AT_type(*$C$DW$T$11)
    1097                            .dwattr $C$DW$61, DW_AT_location[DW_OP_reg4]
    1098                    
    1099                    $C$DW$62        .dwtag  DW_TAG_formal_parameter
    1100                            .dwattr $C$DW$62, DW_AT_name("chType")
TMS320C6x Assembler PC v8.1.3 Thu Apr 20 04:41:39 2017

Tools Copyright (c) 1996-2015 Texas Instruments Incorporated
edma.asm                                                             PAGE   21

    1101                            .dwattr $C$DW$62, DW_AT_TI_symbol_name("chType")
    1102                            .dwattr $C$DW$62, DW_AT_type(*$C$DW$T$11)
    1103                            .dwattr $C$DW$62, DW_AT_location[DW_OP_reg20]
    1104                    
    1105                    $C$DW$63        .dwtag  DW_TAG_formal_parameter
    1106                            .dwattr $C$DW$63, DW_AT_name("chNum")
    1107                            .dwattr $C$DW$63, DW_AT_TI_symbol_name("chNum")
    1108                            .dwattr $C$DW$63, DW_AT_type(*$C$DW$T$11)
    1109                            .dwattr $C$DW$63, DW_AT_location[DW_OP_reg6]
    1110                    
    1111                    $C$DW$64        .dwtag  DW_TAG_formal_parameter
    1112                            .dwattr $C$DW$64, DW_AT_name("tccNum")
    1113                            .dwattr $C$DW$64, DW_AT_TI_symbol_name("tccNum")
    1114                            .dwattr $C$DW$64, DW_AT_type(*$C$DW$T$11)
    1115                            .dwattr $C$DW$64, DW_AT_location[DW_OP_reg22]
    1116                    
    1117                    $C$DW$65        .dwtag  DW_TAG_formal_parameter
    1118                            .dwattr $C$DW$65, DW_AT_name("evtQNum")
    1119                            .dwattr $C$DW$65, DW_AT_TI_symbol_name("evtQNum")
    1120                            .dwattr $C$DW$65, DW_AT_type(*$C$DW$T$11)
    1121                            .dwattr $C$DW$65, DW_AT_location[DW_OP_reg8]
    1122                    
    1123                    
    1124                    ;******************************************************************************
    1125                    ;* FUNCTION NAME: EDMA3RequestChannel                                         *
    1126                    ;*                                                                            *
    1127                    ;*   Regs Modified     : A0,A1,A3,A4,A5,A7,A8,A9,A16,B0,B1,B2,B3,B4,B5,B6,B7, *
    1128                    ;*                           B8,B9                                            *
    1129                    ;*   Regs Used         : A0,A1,A3,A4,A5,A6,A7,A8,A9,A16,B0,B1,B2,B3,B4,B5,B6, *
    1130                    ;*                           B7,B8,B9,DP,SP                                   *
    1131                    ;*   Local Frame Size  : 0 Args + 0 Auto + 0 Save = 0 byte                    *
    1132                    ;******************************************************************************
    1133                    EDMA3RequestChannel:
    1134                    ;** --------------------------------------------------------------------------*
    1135                    $C$DW$66        .dwtag  DW_TAG_variable
    1136                            .dwattr $C$DW$66, DW_AT_name("retVal")
    1137                            .dwattr $C$DW$66, DW_AT_TI_symbol_name("retVal")
    1138                            .dwattr $C$DW$66, DW_AT_type(*$C$DW$T$11)
    1139                            .dwattr $C$DW$66, DW_AT_location[DW_OP_reg23]
    1140                    
    1141                    $C$DW$67        .dwtag  DW_TAG_variable
    1142                            .dwattr $C$DW$67, DW_AT_name("baseAdd")
    1143                            .dwattr $C$DW$67, DW_AT_TI_symbol_name("baseAdd")
    1144                            .dwattr $C$DW$67, DW_AT_type(*$C$DW$T$62)
    1145                            .dwattr $C$DW$67, DW_AT_location[DW_OP_reg9]
    1146                    
    1147                    $C$DW$68        .dwtag  DW_TAG_variable
    1148                            .dwattr $C$DW$68, DW_AT_name("chType")
    1149                            .dwattr $C$DW$68, DW_AT_TI_symbol_name("chType")
    1150                            .dwattr $C$DW$68, DW_AT_type(*$C$DW$T$62)
    1151                            .dwattr $C$DW$68, DW_AT_location[DW_OP_reg18]
    1152                    
    1153                    $C$DW$69        .dwtag  DW_TAG_variable
    1154                            .dwattr $C$DW$69, DW_AT_name("chNum")
    1155                            .dwattr $C$DW$69, DW_AT_TI_symbol_name("chNum")
TMS320C6x Assembler PC v8.1.3 Thu Apr 20 04:41:39 2017

Tools Copyright (c) 1996-2015 Texas Instruments Incorporated
edma.asm                                                             PAGE   22

    1156                            .dwattr $C$DW$69, DW_AT_type(*$C$DW$T$62)
    1157                            .dwattr $C$DW$69, DW_AT_location[DW_OP_reg6]
    1158                    
    1159                    $C$DW$70        .dwtag  DW_TAG_variable
    1160                            .dwattr $C$DW$70, DW_AT_name("tccNum")
    1161                            .dwattr $C$DW$70, DW_AT_TI_symbol_name("tccNum")
    1162                            .dwattr $C$DW$70, DW_AT_type(*$C$DW$T$62)
    1163                            .dwattr $C$DW$70, DW_AT_location[DW_OP_reg24]
    1164                    
    1165                    $C$DW$71        .dwtag  DW_TAG_variable
    1166                            .dwattr $C$DW$71, DW_AT_name("evtQNum")
    1167                            .dwattr $C$DW$71, DW_AT_TI_symbol_name("evtQNum")
    1168                            .dwattr $C$DW$71, DW_AT_type(*$C$DW$T$62)
    1169                            .dwattr $C$DW$71, DW_AT_location[DW_OP_reg22]
    1170                    
    1171                            .dwcfi  cfa_offset, 0
    1172                    
    1173 000002c0     01b2             MVK     .S1     32,A3             ; [A_S674] |1099| 
    1174 000002c2     2646  ||         MV      .L1     A4,A9             ; [A_L674] |1097| 
    1175 000002c4     0747  ||         MV      .L2     B6,B8             ; [B_L674] |1097| 
    1176 000002c6     d40f  ||         MV      .S2X    A8,B6             ; [B_Sb674] |1097| 
    1177 000002c8     31d6  ||         MV      .D1X    B3,A1             ; [A_D64P] |1097| 
    1178 000002ca     1bf7  ||         ZERO    .D2     B7                ; [B_D64P] |1098| 
    1179                    
    1180                            .dwcfi  save_reg_to_reg, 19, 1
    1181                            .dwpsn  file "C:/ti/OMAPL138_StarterWare_1_10_04_01/drivers/edma.c",line 176,column 5,is_stmt,
    1182                    
    1183 000002cc     cdc8             CMPLTU  .L1     A6,A3,A0          ; [A_L674] |1099| 
    1184 000002d0 0180006d! ||         LDW     .D2T1   *+DP(regionId),A3 ; [B_D64P] |176| 
    1185 000002ce     4247  ||         MV      .L2     B4,B2             ; [B_L674] |1097| 
    1186 000002d4 08001028  ||         MVK     .S1     0x20,A16          ; [A_S674] |1099| 
    1187                    
    1188                            .dwpsn  file "C:/ti/OMAPL138_StarterWare_1_10_04_01/drivers/edma.c",line 1099,column 5,is_stmt
    1189 000002d8 d0a86120     [!A0]   BNOP            $C$L12,3          ; [] |1099| 
    1190                            .dwpsn  file "C:/ti/OMAPL138_StarterWare_1_10_04_01/drivers/edma.c",line 182,column 15,is_stmt
    1191 000002e0 02247e40             ADDAD   .D1     A9,A3,A4          ; [A_D64P] |182| 
    1192 000002e4 0201a050             ADDK    .S1     832,A4            ; [A_S674] |182| 
    1193                            .dwpsn  file "C:/ti/OMAPL138_StarterWare_1_10_04_01/drivers/edma.c",line 1099,column 5,is_stmt
    1194                               ; BRANCHCC OCCURS {$C$L12}        ; [] |1099| 
    1195                    ;** --------------------------------------------------------------------------*
    1196                            .dwpsn  file "C:/ti/OMAPL138_StarterWare_1_10_04_01/drivers/edma.c",line 182,column 15,is_stmt
    1197                    
    1198 000002e8 73900265     [!B2]   LDW     .D1T1   *A4(0),A7         ; [A_D64P] |182| 
    1199 000002ec     91cf  ||         MV      .S2X    A3,B4             ; [B_Sb674] Define a LI twin register
    1200 000002ee     25a6  ||         MVK     .L1     1,A3              ; [A_L674] |182| 
    1201 000002f0     2127  ||         CMPEQ   .L2     B2,1,B0           ; [B_L674] |191| 
    1202                    
    1203                            .dwpsn  file "C:/ti/OMAPL138_StarterWare_1_10_04_01/drivers/edma.c",line 195,column 9,is_stmt,
    1204                    
    1205 000002f2     b487             MV      .L2X    A9,B5             ; [B_L674] Define a LI twin register
    1206 000002f4 701c06a2  || [!B2]   MV      .S2     B7,B0             ; [B_Sb674] |195| 
    1207                    
    1208                            .dwpsn  file "C:/ti/OMAPL138_StarterWare_1_10_04_01/drivers/edma.c",line 182,column 15,is_stmt
    1209 000002f8 018ccce0             SHL     .S1     A3,A6,A3          ; [A_S674] |182| 
    1210                            .dwpsn  file "C:/ti/OMAPL138_StarterWare_1_10_04_01/drivers/edma.c",line 195,column 9,is_stmt,
TMS320C6x Assembler PC v8.1.3 Thu Apr 20 04:41:39 2017

Tools Copyright (c) 1996-2015 Texas Instruments Incorporated
edma.asm                                                             PAGE   23

    1211 00000300 64949c42     [ B2]   ADDAW   .D2     B5,B4,B9          ; [B_D64P] |195| 
    1212 00000304 6481c052     [ B2]   ADDK    .S2     896,B9            ; [B_Sb674] |195| 
    1213                            .dwpsn  file "C:/ti/OMAPL138_StarterWare_1_10_04_01/drivers/edma.c",line 182,column 15,is_stmt
    1214 00000308 719c6ff8     [!B2]   OR      .L1     A3,A7,A3          ; [A_L674] |182| 
    1215 0000030c 71900274     [!B2]   STW     .D1T1   A3,*A4(0)         ; [A_D64P] |182| 
    1216                            .dwpsn  file "C:/ti/OMAPL138_StarterWare_1_10_04_01/drivers/edma.c",line 195,column 9,is_stmt,
    1217 00000310 222402e6     [ B0]   LDW     .D2T2   *B9(0),B4         ; [B_D64P] |195| 
    1218                            .dwpsn  file "C:/ti/OMAPL138_StarterWare_1_10_04_01/drivers/edma.c",line 1106,column 9,is_stmt
    1219                    $C$DW$72        .dwtag  DW_TAG_TI_branch
    1220                            .dwattr $C$DW$72, DW_AT_low_pc(0x00)
    1221                            .dwattr $C$DW$72, DW_AT_name("EDMA3MapChToEvtQ")
    1222                            .dwattr $C$DW$72, DW_AT_TI_call
    1223                    
    1224 00000314 0fffdd10             CALL    .S1     EDMA3MapChToEvtQ  ; [A_S674] |1106| 
    1225                            .dwpsn  file "C:/ti/OMAPL138_StarterWare_1_10_04_01/drivers/edma.c",line 195,column 9,is_stmt,
    1226 00000318 6184a358     [ B2]   MVK     .L1     1,A3              ; [A_L674] |195| 
    1227 0000031c 628ccce0     [ B2]   SHL     .S1     A3,A6,A5          ; [A_S674] |195| 
    1228                            .dwpsn  file "C:/ti/OMAPL138_StarterWare_1_10_04_01/drivers/edma.c",line 1106,column 9,is_stmt
    1229 00000320 02240fd8             MV      .L1     A9,A4             ; [A_L674] |1106| 
    1230                            .dwpsn  file "C:/ti/OMAPL138_StarterWare_1_10_04_01/drivers/edma.c",line 195,column 9,is_stmt,
    1231 00000324 22149ffa     [ B0]   OR      .L2X    A5,B4,B4          ; [B_L674] |195| 
    1232                    
    1233 00000328 01880163             ADDKPC  .S2     $C$RL0,B3,0       ; [B_Sb674] |1106| 
    1234 0000032c 222402f7  || [ B0]   STW     .D2T2   B4,*B9(0)         ; [B_D64P] |195| 
    1235 00000330 02080fdb  ||         MV      .L2     B2,B4             ; [B_L674] |1106| 
    1236                    
    1237                            .dwpsn  file "C:/ti/OMAPL138_StarterWare_1_10_04_01/drivers/edma.c",line 1106,column 9,is_stmt
    1238 00000340           $C$RL0:    ; CALL OCCURS {EDMA3MapChToEvtQ} {0}  ; [] |1106| 
    1239                    ;** --------------------------------------------------------------------------*
    1240                            .dwpsn  file "C:/ti/OMAPL138_StarterWare_1_10_04_01/drivers/edma.c",line 758,column 10,is_stmt
    1241                    
    1242 00000340 7200006f!    [!B2]   LDW     .D2T2   *+DP(regionId),B4 ; [B_D64P] |758| 
    1243 00000344 60000e93  || [ B2]   B       .S2     $C$L11            ; [B_Sb674] |1107| 
    1244 00000348 00882a5b  ||         CMPEQ   .L2     B2,1,B1           ; [B_L674] |1119| 
    1245 0000034c 002219f8  ||         CMPLTU  .L1X    B8,A16,A0         ; [A_L674] |1110| 
    1246                    
    1247                            .dwpsn  file "C:/ti/OMAPL138_StarterWare_1_10_04_01/drivers/edma.c",line 1122,column 13,is_stm
    1248                    
    1249 00000350 708000ab     [!B2]   MVK     .S2     1,B1              ; [B_Sb674] |1122| nullify predicate
    1250 00000354 602109da  || [ B2]   CMPLTU  .L2     B8,8,B0           ; [B_L674] |1122| 
    1251                    
    1252                            .dwpsn  file "C:/ti/OMAPL138_StarterWare_1_10_04_01/drivers/edma.c",line 1119,column 14,is_stm
    1253 00000358 50364120     [!B1]   BNOP            $C$L13,2          ; [] |1119| 
    1254                            .dwpsn  file "C:/ti/OMAPL138_StarterWare_1_10_04_01/drivers/edma.c",line 758,column 10,is_stmt
    1255 0000035c 72112ca2     [!B2]   SHL     .S2     B4,9,B4           ; [B_Sb674] |758| 
    1256                            .dwpsn  file "C:/ti/OMAPL138_StarterWare_1_10_04_01/drivers/edma.c",line 1107,column 9,is_stmt
    1257                               ; BRANCHCC OCCURS {$C$L11}        ; [] |1107| 
    1258                    ;** --------------------------------------------------------------------------*
    1259                            .dwcfi  remember_state
    1260                            .dwpsn  file "C:/ti/OMAPL138_StarterWare_1_10_04_01/drivers/edma.c",line 758,column 10,is_stmt
    1261 00000360 0224907a             ADD     .L2X    A9,B4,B4          ; [B_L674] |758| 
    1262 00000364 02103052             ADDK    .S2     8288,B4           ; [B_Sb674] |758| 
    1263 00000368 c29002e6     [ A0]   LDW     .D2T2   *B4(0),B5         ; [B_D64P] |758| 
    1264                            .dwpsn  file "C:/ti/OMAPL138_StarterWare_1_10_04_01/drivers/edma.c",line 1116,column 13,is_stm
    1265 0000036c     a74a             SHL     .S1     A6,5,A4           ; [A_S674] |1116| 
TMS320C6x Assembler PC v8.1.3 Thu Apr 20 04:41:39 2017

Tools Copyright (c) 1996-2015 Texas Instruments Incorporated
edma.asm                                                             PAGE   24

    1266                            .dwpsn  file "C:/ti/OMAPL138_StarterWare_1_10_04_01/drivers/edma.c",line 758,column 10,is_stmt
    1267 0000036e     25a6             MVK     .L1     1,A3              ; [A_L674] |758| 
    1268                    
    1269 00000370 020ccce1             SHL     .S1     A3,A6,A4          ; [A_S674] |758| 
    1270 00000374 01912078  ||         ADD     .L1     A9,A4,A3          ; [A_L674] |1116| 
    1271                    
    1272                            .dwpsn  file "C:/ti/OMAPL138_StarterWare_1_10_04_01/drivers/edma.c",line 1116,column 13,is_stm
    1273 00000378 01a00050             ADDK    .S1     16384,A3          ; [A_S674] |1116| 
    1274                            .dwpsn  file "C:/ti/OMAPL138_StarterWare_1_10_04_01/drivers/edma.c",line 758,column 10,is_stmt
    1275 00000380 c290bffa     [ A0]   OR      .L2X    A4,B5,B5          ; [B_L674] |758| 
    1276 00000384 c29002f6     [ A0]   STW     .D2T2   B5,*B4(0)         ; [B_D64P] |758| 
    1277                            .dwpsn  file "C:/ti/OMAPL138_StarterWare_1_10_04_01/drivers/edma.c",line 1116,column 13,is_stm
    1278 00000388 020c0264             LDW     .D1T1   *A3(0),A4         ; [A_D64P] |1116| 
    1279                            .dwpsn  file "C:/ti/OMAPL138_StarterWare_1_10_04_01/drivers/edma.c",line 1114,column 17,is_stm
    1280 0000038c c384a35a     [ A0]   MVK     .L2     1,B7              ; [B_L674] |1114| 
    1281                            .dwpsn  file "C:/ti/OMAPL138_StarterWare_1_10_04_01/drivers/edma.c",line 1117,column 13,is_stm
    1282 00000390 029b4e08             EXTU    .S1     A6,26,14,A5       ; [A_S674] |1117| 
    1283 00000394 00002000             NOP             2                 ; [A_L674] 
    1284                            .dwpsn  file "C:/ti/OMAPL138_StarterWare_1_10_04_01/drivers/edma.c",line 1116,column 13,is_stm
    1285 00000398 021191c8             CLR     .S1     A4,12,17,A4       ; [A_S674] |1116| 
    1286 0000039c 020c0274             STW     .D1T1   A4,*A3(0)         ; [A_D64P] |1116| 
    1287                            .dwpsn  file "C:/ti/OMAPL138_StarterWare_1_10_04_01/drivers/edma.c",line 1117,column 13,is_stm
    1288 000003a0 020c0264             LDW     .D1T1   *A3(0),A4         ; [A_D64P] |1117| 
    1289                            .dwpsn  file "C:/ti/OMAPL138_StarterWare_1_10_04_01/drivers/edma.c",line 1133,column 1,is_stmt
    1290                    $C$DW$73        .dwtag  DW_TAG_TI_branch
    1291                            .dwattr $C$DW$73, DW_AT_low_pc(0x00)
    1292                            .dwattr $C$DW$73, DW_AT_TI_return
    1293                    
    1294 000003a4 00847362             RETNOP          A1,3              ; [] |1133| 
    1295                            .dwpsn  file "C:/ti/OMAPL138_StarterWare_1_10_04_01/drivers/edma.c",line 1117,column 13,is_stm
    1296                    
    1297 000003a8 0290aff9             OR      .L1     A5,A4,A5          ; [A_L674] |1117| 
    1298 000003ac 021c16a0  ||         MV      .S1X    B7,A4             ; [A_S674] |1132| 
    1299                    
    1300 000003b0 028c0274             STW     .D1T1   A5,*A3(0)         ; [A_D64P] |1117| 
    1301                            .dwpsn  file "C:/ti/OMAPL138_StarterWare_1_10_04_01/drivers/edma.c",line 1133,column 1,is_stmt
    1302                               ; BRANCH OCCURS {A1}              ; [] |1133| 
    1303                            .dwcfi  restore_state
    1304                    ;** --------------------------------------------------------------------------*
    1305 000003b4           $C$L11:    
    1306                            .dwpsn  file "C:/ti/OMAPL138_StarterWare_1_10_04_01/drivers/edma.c",line 758,column 10,is_stmt
    1307                    $C$DW$74        .dwtag  DW_TAG_TI_branch
    1308                            .dwattr $C$DW$74, DW_AT_low_pc(0x00)
    1309                            .dwattr $C$DW$74, DW_AT_TI_return
    1310                    
    1311                    
    1312 000003b4 50843363     [!B1]   RETNOP          A1,1              ; [] |1133| 
    1313 000003b8 4200006f! || [ B1]   LDW     .D2T2   *+DP(regionId),B4 ; [B_D64P] |758| 
    1314 000003bc 521c1fd8  || [!B1]   MV      .L1X    B7,A4             ; [A_L674] |1132| 
    1315                    
    1316                            .dwpsn  file "C:/ti/OMAPL138_StarterWare_1_10_04_01/drivers/edma.c",line 1119,column 14,is_stm
    1317                               ; BRANCHCC OCCURS {$C$L13}        ; [] |1119| 
    1318                    ;** --------------------------------------------------------------------------*
    1319                            .dwpsn  file "C:/ti/OMAPL138_StarterWare_1_10_04_01/drivers/edma.c",line 1128,column 13,is_stm
    1320 000003c0     a73a             SHL     .S1     A6,5,A3           ; [A_S674] |1128| 
TMS320C6x Assembler PC v8.1.3 Thu Apr 20 04:41:39 2017

Tools Copyright (c) 1996-2015 Texas Instruments Incorporated
edma.asm                                                             PAGE   25

    1321                            .dwpsn  file "C:/ti/OMAPL138_StarterWare_1_10_04_01/drivers/edma.c",line 758,column 10,is_stmt
    1322 000003c2     2626             MVK     .L1     1,A4              ; [A_L674] |758| 
    1323                            .dwpsn  file "C:/ti/OMAPL138_StarterWare_1_10_04_01/drivers/edma.c",line 1128,column 13,is_stm
    1324 000003c4 018d2078             ADD     .L1     A9,A3,A3          ; [A_L674] |1128| 
    1325                            .dwpsn  file "C:/ti/OMAPL138_StarterWare_1_10_04_01/drivers/edma.c",line 758,column 10,is_stmt
    1326 000003c8 02112ca2             SHL     .S2     B4,9,B4           ; [B_Sb674] |758| 
    1327 000003cc 0224907a             ADD     .L2X    A9,B4,B4          ; [B_L674] |758| 
    1328 000003d0 02103052             ADDK    .S2     8288,B4           ; [B_Sb674] |758| 
    1329 000003d4 229002e6     [ B0]   LDW     .D2T2   *B4(0),B5         ; [B_D64P] |758| 
    1330 000003d8 0210cce0             SHL     .S1     A4,A6,A4          ; [A_S674] |758| 
    1331                            .dwpsn  file "C:/ti/OMAPL138_StarterWare_1_10_04_01/drivers/edma.c",line 1128,column 13,is_stm
    1332 000003e0 01a00050             ADDK    .S1     16384,A3          ; [A_S674] |1128| 
    1333                            .dwpsn  file "C:/ti/OMAPL138_StarterWare_1_10_04_01/drivers/edma.c",line 1126,column 17,is_stm
    1334 000003e4 2384a35a     [ B0]   MVK     .L2     1,B7              ; [B_L674] |1126| 
    1335                            .dwpsn  file "C:/ti/OMAPL138_StarterWare_1_10_04_01/drivers/edma.c",line 1129,column 13,is_stm
    1336 000003e8 029b4e08             EXTU    .S1     A6,26,14,A5       ; [A_S674] |1129| 
    1337                            .dwpsn  file "C:/ti/OMAPL138_StarterWare_1_10_04_01/drivers/edma.c",line 758,column 10,is_stmt
    1338 000003ec 2290bffa     [ B0]   OR      .L2X    A4,B5,B5          ; [B_L674] |758| 
    1339 000003f0 229002f6     [ B0]   STW     .D2T2   B5,*B4(0)         ; [B_D64P] |758| 
    1340                            .dwpsn  file "C:/ti/OMAPL138_StarterWare_1_10_04_01/drivers/edma.c",line 1128,column 13,is_stm
    1341 000003f4 020c0264             LDW     .D1T1   *A3(0),A4         ; [A_D64P] |1128| 
    1342 000003f8 00000000             NOP             4                 ; [A_L674] 
    1343 000003f8 021191c8             CLR     .S1     A4,12,17,A4       ; [A_S674] |1128| 
    1344 00000400 020c0274             STW     .D1T1   A4,*A3(0)         ; [A_D64P] |1128| 
    1345                            .dwpsn  file "C:/ti/OMAPL138_StarterWare_1_10_04_01/drivers/edma.c",line 1129,column 13,is_stm
    1346 00000404 020c0264             LDW     .D1T1   *A3(0),A4         ; [A_D64P] |1129| 
    1347 00000408 00000000             NOP             4                 ; [A_L674] 
    1348 00000408 0210aff8             OR      .L1     A5,A4,A4          ; [A_L674] |1129| 
    1349 0000040c 020c0274             STW     .D1T1   A4,*A3(0)         ; [A_D64P] |1129| 
    1350                    ;** --------------------------------------------------------------------------*
    1351 00000410           $C$L12:    
    1352                            .dwpsn  file "C:/ti/OMAPL138_StarterWare_1_10_04_01/drivers/edma.c",line 1133,column 1,is_stmt
    1353                    $C$DW$75        .dwtag  DW_TAG_TI_branch
    1354                            .dwattr $C$DW$75, DW_AT_low_pc(0x00)
    1355                            .dwattr $C$DW$75, DW_AT_TI_return
    1356                    
    1357 00000410 00041362             RET     .S2     A1                ; [B_Sb674] |1133| 
    1358                            .dwpsn  file "C:/ti/OMAPL138_StarterWare_1_10_04_01/drivers/edma.c",line 1132,column 5,is_stmt
    1359 00000414 021c1fd8             MV      .L1X    B7,A4             ; [A_L674] |1132| 
    1360                    ;** --------------------------------------------------------------------------*
    1361 00000418           $C$L13:    
    1362 00000418 00006000             NOP             4                 ; [A_L674] 
    1363                            .dwpsn  file "C:/ti/OMAPL138_StarterWare_1_10_04_01/drivers/edma.c",line 1133,column 1,is_stmt
    1364                               ; BRANCH OCCURS {A1}              ; [] |1133| 
    1365                            .dwattr $C$DW$60, DW_AT_TI_end_file("C:/ti/OMAPL138_StarterWare_1_10_04_01/drivers/edma.c")
    1366                            .dwattr $C$DW$60, DW_AT_TI_end_line(0x46d)
    1367                            .dwattr $C$DW$60, DW_AT_TI_end_column(0x01)
    1368                            .dwendentry
    1369                            .dwendtag $C$DW$60
    1370                    
    1371 00000420                   .sect   ".text"
    1372                            .clink
    1373                            .global EDMA3QdmaSetPaRAMEntry
    1374                    
    1375                    $C$DW$76        .dwtag  DW_TAG_subprogram
TMS320C6x Assembler PC v8.1.3 Thu Apr 20 04:41:39 2017

Tools Copyright (c) 1996-2015 Texas Instruments Incorporated
edma.asm                                                             PAGE   26

    1376                            .dwattr $C$DW$76, DW_AT_name("EDMA3QdmaSetPaRAMEntry")
    1377                            .dwattr $C$DW$76, DW_AT_low_pc(EDMA3QdmaSetPaRAMEntry)
    1378                            .dwattr $C$DW$76, DW_AT_high_pc(0x00)
    1379                            .dwattr $C$DW$76, DW_AT_TI_symbol_name("EDMA3QdmaSetPaRAMEntry")
    1380                            .dwattr $C$DW$76, DW_AT_external
    1381                            .dwattr $C$DW$76, DW_AT_TI_begin_file("C:/ti/OMAPL138_StarterWare_1_10_04_01/drivers/edma.c")
    1382                            .dwattr $C$DW$76, DW_AT_TI_begin_line(0x3de)
    1383                            .dwattr $C$DW$76, DW_AT_TI_begin_column(0x06)
    1384                            .dwattr $C$DW$76, DW_AT_decl_file("C:/ti/OMAPL138_StarterWare_1_10_04_01/drivers/edma.c")
    1385                            .dwattr $C$DW$76, DW_AT_decl_line(0x3de)
    1386                            .dwattr $C$DW$76, DW_AT_decl_column(0x06)
    1387                            .dwattr $C$DW$76, DW_AT_TI_max_frame_size(0x00)
    1388                            .dwpsn  file "C:/ti/OMAPL138_StarterWare_1_10_04_01/drivers/edma.c",line 994,column 1,is_stmt,
    1389                    
    1390                            .dwfde $C$DW$CIE, EDMA3QdmaSetPaRAMEntry
    1391                    $C$DW$77        .dwtag  DW_TAG_formal_parameter
    1392                            .dwattr $C$DW$77, DW_AT_name("baseAdd")
    1393                            .dwattr $C$DW$77, DW_AT_TI_symbol_name("baseAdd")
    1394                            .dwattr $C$DW$77, DW_AT_type(*$C$DW$T$11)
    1395                            .dwattr $C$DW$77, DW_AT_location[DW_OP_reg4]
    1396                    
    1397                    $C$DW$78        .dwtag  DW_TAG_formal_parameter
    1398                            .dwattr $C$DW$78, DW_AT_name("paRAMId")
    1399                            .dwattr $C$DW$78, DW_AT_TI_symbol_name("paRAMId")
    1400                            .dwattr $C$DW$78, DW_AT_type(*$C$DW$T$11)
    1401                            .dwattr $C$DW$78, DW_AT_location[DW_OP_reg20]
    1402                    
    1403                    $C$DW$79        .dwtag  DW_TAG_formal_parameter
    1404                            .dwattr $C$DW$79, DW_AT_name("paRAMEntry")
    1405                            .dwattr $C$DW$79, DW_AT_TI_symbol_name("paRAMEntry")
    1406                            .dwattr $C$DW$79, DW_AT_type(*$C$DW$T$11)
    1407                            .dwattr $C$DW$79, DW_AT_location[DW_OP_reg6]
    1408                    
    1409                    $C$DW$80        .dwtag  DW_TAG_formal_parameter
    1410                            .dwattr $C$DW$80, DW_AT_name("newPaRAMEntryVal")
    1411                            .dwattr $C$DW$80, DW_AT_TI_symbol_name("newPaRAMEntryVal")
    1412                            .dwattr $C$DW$80, DW_AT_type(*$C$DW$T$11)
    1413                            .dwattr $C$DW$80, DW_AT_location[DW_OP_reg22]
    1414                    
    1415                    
    1416                    ;******************************************************************************
    1417                    ;* FUNCTION NAME: EDMA3QdmaSetPaRAMEntry                                      *
    1418                    ;*                                                                            *
    1419                    ;*   Regs Modified     : A0,A3,A4,B4,B5                                       *
    1420                    ;*   Regs Used         : A0,A3,A4,A6,B3,B4,B5,B6                              *
    1421                    ;*   Local Frame Size  : 0 Args + 0 Auto + 0 Save = 0 byte                    *
    1422                    ;******************************************************************************
    1423                    EDMA3QdmaSetPaRAMEntry:
    1424                    ;** --------------------------------------------------------------------------*
    1425                    $C$DW$81        .dwtag  DW_TAG_variable
    1426                            .dwattr $C$DW$81, DW_AT_name("paRAMId")
    1427                            .dwattr $C$DW$81, DW_AT_TI_symbol_name("paRAMId")
    1428                            .dwattr $C$DW$81, DW_AT_type(*$C$DW$T$62)
    1429                            .dwattr $C$DW$81, DW_AT_location[DW_OP_reg20]
    1430                    
TMS320C6x Assembler PC v8.1.3 Thu Apr 20 04:41:39 2017

Tools Copyright (c) 1996-2015 Texas Instruments Incorporated
edma.asm                                                             PAGE   27

    1431                    $C$DW$82        .dwtag  DW_TAG_variable
    1432                            .dwattr $C$DW$82, DW_AT_name("paRAMEntry")
    1433                            .dwattr $C$DW$82, DW_AT_TI_symbol_name("paRAMEntry")
    1434                            .dwattr $C$DW$82, DW_AT_type(*$C$DW$T$62)
    1435                            .dwattr $C$DW$82, DW_AT_location[DW_OP_reg21]
    1436                    
    1437                    $C$DW$83        .dwtag  DW_TAG_variable
    1438                            .dwattr $C$DW$83, DW_AT_name("newPaRAMEntryVal")
    1439                            .dwattr $C$DW$83, DW_AT_TI_symbol_name("newPaRAMEntryVal")
    1440                            .dwattr $C$DW$83, DW_AT_type(*$C$DW$T$62)
    1441                            .dwattr $C$DW$83, DW_AT_location[DW_OP_reg22]
    1442                    
    1443                            .dwcfi  cfa_offset, 0
    1444                            .dwpsn  file "C:/ti/OMAPL138_StarterWare_1_10_04_01/drivers/edma.c",line 1001,column 1,is_stmt
    1445                    $C$DW$84        .dwtag  DW_TAG_TI_branch
    1446                            .dwattr $C$DW$84, DW_AT_low_pc(0x00)
    1447                            .dwattr $C$DW$84, DW_AT_TI_return
    1448                    
    1449 00000420     01ef             RET     .S2     B3                ; [B_Sb674] |1001| 
    1450                            .dwpsn  file "C:/ti/OMAPL138_StarterWare_1_10_04_01/drivers/edma.c",line 994,column 1,is_stmt,
    1451                    
    1452 00000422     a603             SHL     .S2     B4,5,B4           ; [B_Sb674] |998| 
    1453 00000424 02981fda  ||         MV      .L2X    A6,B5             ; [B_L674] |994| 
    1454                    
    1455                            .dwpsn  file "C:/ti/OMAPL138_StarterWare_1_10_04_01/drivers/edma.c",line 995,column 5,is_stmt,
    1456                    
    1457 00000428 0210bc43             ADDAW   .D2     B4,B5,B4          ; [B_D64P] |998| 
    1458 0000042c 0198e9d8  ||         CMPLTU  .L1     A6,7,A3           ; [A_L674] |995| 
    1459                    
    1460 00000430     76a8             OR      .L1X    B5,A3,A0          ; [A_L674] |995| 
    1461                            .dwpsn  file "C:/ti/OMAPL138_StarterWare_1_10_04_01/drivers/edma.c",line 998,column 9,is_stmt,
    1462                    
    1463 00000434 02080028             MVK     .S1     4096,A4           ; [A_S674] |998| 
    1464 00000432     9230  ||         ADD     .L1X    A4,B4,A3          ; [A_L674] |998| 
    1465                    
    1466 00000438 c30c8a76     [ A0]   STW     .D1T2   B6,*+A3[A4]       ; [A_D64P] |998| 
    1467                            .dwpsn  file "C:/ti/OMAPL138_StarterWare_1_10_04_01/drivers/edma.c",line 1001,column 1,is_stmt
    1468                               ; BRANCH OCCURS {B3}              ; [] |1001| 
    1469                            .dwattr $C$DW$76, DW_AT_TI_end_file("C:/ti/OMAPL138_StarterWare_1_10_04_01/drivers/edma.c")
    1470                            .dwattr $C$DW$76, DW_AT_TI_end_line(0x3e9)
    1471                            .dwattr $C$DW$76, DW_AT_TI_end_column(0x01)
    1472                            .dwendentry
    1473                            .dwendtag $C$DW$76
    1474                    
    1475 00000440                   .sect   ".text"
    1476                            .clink
    1477                            .global EDMA3QdmaSetPaRAM
    1478                    
    1479                    $C$DW$85        .dwtag  DW_TAG_subprogram
    1480                            .dwattr $C$DW$85, DW_AT_name("EDMA3QdmaSetPaRAM")
    1481                            .dwattr $C$DW$85, DW_AT_low_pc(EDMA3QdmaSetPaRAM)
    1482                            .dwattr $C$DW$85, DW_AT_high_pc(0x00)
    1483                            .dwattr $C$DW$85, DW_AT_TI_symbol_name("EDMA3QdmaSetPaRAM")
    1484                            .dwattr $C$DW$85, DW_AT_external
    1485                            .dwattr $C$DW$85, DW_AT_TI_begin_file("C:/ti/OMAPL138_StarterWare_1_10_04_01/drivers/edma.c")
TMS320C6x Assembler PC v8.1.3 Thu Apr 20 04:41:39 2017

Tools Copyright (c) 1996-2015 Texas Instruments Incorporated
edma.asm                                                             PAGE   28

    1486                            .dwattr $C$DW$85, DW_AT_TI_begin_line(0x3ab)
    1487                            .dwattr $C$DW$85, DW_AT_TI_begin_column(0x06)
    1488                            .dwattr $C$DW$85, DW_AT_decl_file("C:/ti/OMAPL138_StarterWare_1_10_04_01/drivers/edma.c")
    1489                            .dwattr $C$DW$85, DW_AT_decl_line(0x3ab)
    1490                            .dwattr $C$DW$85, DW_AT_decl_column(0x06)
    1491                            .dwattr $C$DW$85, DW_AT_TI_max_frame_size(0x00)
    1492                            .dwpsn  file "C:/ti/OMAPL138_StarterWare_1_10_04_01/drivers/edma.c",line 943,column 1,is_stmt,
    1493                    
    1494                            .dwfde $C$DW$CIE, EDMA3QdmaSetPaRAM
    1495                    $C$DW$86        .dwtag  DW_TAG_formal_parameter
    1496                            .dwattr $C$DW$86, DW_AT_name("baseAdd")
    1497                            .dwattr $C$DW$86, DW_AT_TI_symbol_name("baseAdd")
    1498                            .dwattr $C$DW$86, DW_AT_type(*$C$DW$T$11)
    1499                            .dwattr $C$DW$86, DW_AT_location[DW_OP_reg4]
    1500                    
    1501                    $C$DW$87        .dwtag  DW_TAG_formal_parameter
    1502                            .dwattr $C$DW$87, DW_AT_name("chNum")
    1503                            .dwattr $C$DW$87, DW_AT_TI_symbol_name("chNum")
    1504                            .dwattr $C$DW$87, DW_AT_type(*$C$DW$T$11)
    1505                            .dwattr $C$DW$87, DW_AT_location[DW_OP_reg20]
    1506                    
    1507                    $C$DW$88        .dwtag  DW_TAG_formal_parameter
    1508                            .dwattr $C$DW$88, DW_AT_name("paRAMId")
    1509                            .dwattr $C$DW$88, DW_AT_TI_symbol_name("paRAMId")
    1510                            .dwattr $C$DW$88, DW_AT_type(*$C$DW$T$11)
    1511                            .dwattr $C$DW$88, DW_AT_location[DW_OP_reg6]
    1512                    
    1513                    $C$DW$89        .dwtag  DW_TAG_formal_parameter
    1514                            .dwattr $C$DW$89, DW_AT_name("newPaRAM")
    1515                            .dwattr $C$DW$89, DW_AT_TI_symbol_name("newPaRAM")
    1516                            .dwattr $C$DW$89, DW_AT_type(*$C$DW$T$34)
    1517                            .dwattr $C$DW$89, DW_AT_location[DW_OP_reg22]
    1518                    
    1519                    
    1520                    ;******************************************************************************
    1521                    ;* FUNCTION NAME: EDMA3QdmaSetPaRAM                                           *
    1522                    ;*                                                                            *
    1523                    ;*   Regs Modified     : A3,A4,A5,B0,B4,B5                                    *
    1524                    ;*   Regs Used         : A3,A4,A5,A6,B0,B3,B4,B5,B6                           *
    1525                    ;*   Local Frame Size  : 0 Args + 0 Auto + 0 Save = 0 byte                    *
    1526                    ;******************************************************************************
    1527                    EDMA3QdmaSetPaRAM:
    1528                    ;** --------------------------------------------------------------------------*
    1529                    $C$DW$90        .dwtag  DW_TAG_variable
    1530                            .dwattr $C$DW$90, DW_AT_name("paRAMId")
    1531                            .dwattr $C$DW$90, DW_AT_TI_symbol_name("paRAMId")
    1532                            .dwattr $C$DW$90, DW_AT_type(*$C$DW$T$62)
    1533                            .dwattr $C$DW$90, DW_AT_location[DW_OP_reg6]
    1534                    
    1535                    $C$DW$91        .dwtag  DW_TAG_variable
    1536                            .dwattr $C$DW$91, DW_AT_name("sr")
    1537                            .dwattr $C$DW$91, DW_AT_TI_symbol_name("sr")
    1538                            .dwattr $C$DW$91, DW_AT_type(*$C$DW$T$43)
    1539                            .dwattr $C$DW$91, DW_AT_location[DW_OP_reg22]
    1540                    
TMS320C6x Assembler PC v8.1.3 Thu Apr 20 04:41:39 2017

Tools Copyright (c) 1996-2015 Texas Instruments Incorporated
edma.asm                                                             PAGE   29

    1541                    $C$DW$92        .dwtag  DW_TAG_variable
    1542                            .dwattr $C$DW$92, DW_AT_name("ds")
    1543                            .dwattr $C$DW$92, DW_AT_TI_symbol_name("ds")
    1544                            .dwattr $C$DW$92, DW_AT_type(*$C$DW$T$43)
    1545                            .dwattr $C$DW$92, DW_AT_location[DW_OP_reg5]
    1546                    
    1547                            .dwcfi  cfa_offset, 0
    1548                            .dwpsn  file "C:/ti/OMAPL138_StarterWare_1_10_04_01/drivers/edma.c",line 948,column 5,is_stmt,
    1549                    
    1550 00000440 0198aca1             SHL     .S1     A6,5,A3           ; [A_S674] |948| 
    1551 00000444 02600faa  ||         MVK     .S2     -16353,B4         ; [B_Sb674] |950| 
    1552                    
    1553 00000448 028c8079             ADD     .L1     A4,A3,A5          ; [A_L674] |948| 
    1554 0000044c 02201028  ||         MVK     .S1     16416,A4          ; [A_S674] |950| 
    1555                    
    1556 00000450 02a00050             ADDK    .S1     16384,A5          ; [A_S674] |948| 
    1557                            .dwpsn  file "C:/ti/OMAPL138_StarterWare_1_10_04_01/drivers/edma.c",line 950,column 13,is_stmt
    1558 00000454 0194d2f8             SUB     .L1X    B6,A5,A3          ; [A_L674] |950| 
    1559                    
    1560 00000458 0298b2fb             SUB     .L2X    A5,B6,B5          ; [B_L674] |950| 
    1561 0000045c 01906af8  ||         CMPLT   .L1     A3,A4,A3          ; [A_L674] |950| 
    1562                    
    1563 00000460 0210a8fb             CMPGT   .L2     B5,B4,B4          ; [B_L674] |950| 
    1564 00000464     0a93  ||         MVK     .S2     8,B5              ; [B_Sb674] 
    1565                    
    1566 00000466     fa67             XOR     .L2     1,B4,B4           ; [B_L674] |950| 
    1567                    
    1568 00000468     9589             AND     .L2X    A3,B4,B0          ; [B_L674] |950| 
    1569 0000046a     82cf  ||         MV      .S2     B5,B4             ; [B_Sb674] |950| 
    1570                    
    1571 0000046c 30206121     [!B0]   BNOP            $C$L17,3          ; [] |950| 
    1572 00000470 2293e05b  || [ B0]   SUB     .L2     B4,1,B5           ; [B_L674] 
    1573 00000474 329781a2  || [!B0]   SUB     .S2     B5,4,B5           ; [B_Sb674] 
    1574                    
    1575 00000478 269403a2     [ B0]   MVC     .S2     B5,ILC            ; [B_Sb674] 
    1576 00000480 369403a2     [!B0]   MVC     .S2     B5,ILC            ; [B_Sb674] 
    1577                               ; BRANCHCC OCCURS {$C$L17}        ; [] |950| 
    1578                    ;*----------------------------------------------------------------------------*
    1579                    ;*   SOFTWARE PIPELINE INFORMATION
    1580                    ;*
    1581                    ;*      Loop found in file               : C:/ti/OMAPL138_StarterWare_1_10_04_01/drivers/edma.c
    1582                    ;*      Loop source line                 : 950
    1583                    ;*      Loop opening brace source line   : 951
    1584                    ;*      Loop closing brace source line   : 955
    1585                    ;*      Known Minimum Trip Count         : 8                    
    1586                    ;*      Known Maximum Trip Count         : 8                    
    1587                    ;*      Known Max Trip Count Factor      : 8
    1588                    ;*      Loop Carried Dependency Bound(^) : 6
    1589                    ;*      Unpartitioned Resource Bound     : 1
    1590                    ;*      Partitioned Resource Bound(*)    : 2
    1591                    ;*      Resource Partition:
    1592                    ;*                                A-side   B-side
    1593                    ;*      .L units                     0        0     
    1594                    ;*      .S units                     0        0     
    1595                    ;*      .D units                     1*       1*    
TMS320C6x Assembler PC v8.1.3 Thu Apr 20 04:41:39 2017

Tools Copyright (c) 1996-2015 Texas Instruments Incorporated
edma.asm                                                             PAGE   30

    1596                    ;*      .M units                     0        0     
    1597                    ;*      .X cross paths               0        0     
    1598                    ;*      .T address paths             0        2     
    1599                    ;*      Logical  ops (.LS)           0        0     (.L or .S unit)
    1600                    ;*      Addition ops (.LSD)          0        0     (.L or .S or .D unit)
    1601                    ;*      Bound(.L .S .LS)             0        0     
    1602                    ;*      Bound(.L .S .D .LS .LSD)     1*       1*    
    1603                    ;*
    1604                    ;*      Searching for software pipeline schedule at ...
    1605                    ;*         ii = 6  Schedule found with 2 iterations in parallel
    1606                    ;*      Done
    1607                    ;*
    1608                    ;*      Loop will be splooped
    1609                    ;*      Collapsed epilog stages       : 0
    1610                    ;*      Collapsed prolog stages       : 0
    1611                    ;*      Minimum required memory pad   : 0 bytes
    1612                    ;*
    1613                    ;*      Minimum safe trip count       : 1
    1614                    ;*
    1615                    ;*      (Performance) Consider adding the restrict qualifier to the definition of newPaRAM if they don
    1616                    ;*
    1617                    ;*      (Performance) Consider adding assertions to indicate n-byte alignment of variables newPaRAM if
    1618                    ;*----------------------------------------------------------------------------*
    1619 00000484           $C$L14:    ; PIPED LOOP PROLOG
    1620                            .dwcfi  remember_state
    1621                    
    1622 00000484     0ee7             SPLOOPD         6                 ;12 ; [A_L674] (P) 
    1623 00000486     734e  ||         MV      .S1X    B6,A3             ; [A_S674] 
    1624                    
    1625                    ;** --------------------------------------------------------------------------*
    1626 00000488           $C$L15:    ; PIPED LOOP KERNEL
    1627                            .dwpsn  file "C:/ti/OMAPL138_StarterWare_1_10_04_01/drivers/edma.c",line 952,column 9,is_stmt,
    1628 00000488 020c3666             LDW     .D1T2   *A3++(4),B4       ; [A_D64P] |952| (P) <0,0>  ^ 
    1629 0000048c     4c6e             NOP             3                 ; [A_L674] 
    1630                    
    1631 0000048e     2ce6             SPMASK                            ; [] 
    1632 00000490     b2c7  ||^        MV      .L2X    A5,B5             ; [B_L674] 
    1633                    
    1634 00000492     1cc5             STW     .D2T2   B4,*B5++(4)       ; [B_D64P] |952| (P) <0,5>  ^ 
    1635 00000494     1c66             SPKERNEL        0,0               ; [] 
    1636                    ;** --------------------------------------------------------------------------*
    1637 00000496           $C$L16:    ; PIPED LOOP EPILOG
    1638                            .dwpsn  file "C:/ti/OMAPL138_StarterWare_1_10_04_01/drivers/edma.c",line 956,column 1,is_stmt,
    1639                    $C$DW$93        .dwtag  DW_TAG_TI_branch
    1640                            .dwattr $C$DW$93, DW_AT_low_pc(0x00)
    1641                            .dwattr $C$DW$93, DW_AT_TI_return
    1642                    
    1643 00000496     a1ef             RETNOP          B3,5              ; [] |956| 
    1644                               ; BRANCH OCCURS {B3}              ; [] |956| 
    1645                            .dwcfi  restore_state
    1646                    ;** --------------------------------------------------------------------------*
    1647 00000498     8ed1             SUB     .L2     B5,4,B5           ; [B_L674] 
    1648 0000049a     daef             MVC     .S2     B5,ILC            ; [B_Sb674] 
    1649                    ;*----------------------------------------------------------------------------*
    1650                    ;*   SOFTWARE PIPELINE INFORMATION
TMS320C6x Assembler PC v8.1.3 Thu Apr 20 04:41:39 2017

Tools Copyright (c) 1996-2015 Texas Instruments Incorporated
edma.asm                                                             PAGE   31

    1651                    ;*
    1652                    ;*      Loop found in file               : C:/ti/OMAPL138_StarterWare_1_10_04_01/drivers/edma.c
    1653                    ;*      Loop source line                 : 950
    1654                    ;*      Loop opening brace source line   : 951
    1655                    ;*      Loop closing brace source line   : 955
    1656                    ;*      Known Minimum Trip Count         : 8                    
    1657                    ;*      Known Maximum Trip Count         : 8                    
    1658                    ;*      Known Max Trip Count Factor      : 8
    1659                    ;*      Loop Carried Dependency Bound(^) : 0
    1660                    ;*      Unpartitioned Resource Bound     : 1
    1661                    ;*      Partitioned Resource Bound(*)    : 1
    1662                    ;*      Resource Partition:
    1663                    ;*                                A-side   B-side
    1664                    ;*      .L units                     0        0     
    1665                    ;*      .S units                     0        0     
    1666                    ;*      .D units                     1*       1*    
    1667                    ;*      .M units                     0        0     
    1668                    ;*      .X cross paths               0        1     
    1669                    ;*      .T address paths             1        1     
    1670                    ;*      Logical  ops (.LS)           0        0     (.L or .S unit)
    1671                    ;*      Addition ops (.LSD)          0        1     (.L or .S or .D unit)
    1672                    ;*      Bound(.L .S .LS)             0        0     
    1673                    ;*      Bound(.L .S .D .LS .LSD)     1*       1*    
    1674                    ;*
    1675                    ;*      Searching for software pipeline schedule at ...
    1676                    ;*         ii = 1  Schedule found with 7 iterations in parallel
    1677                    ;*      Done
    1678                    ;*
    1679                    ;*      Loop will be splooped
    1680                    ;*      Collapsed epilog stages       : 0
    1681                    ;*      Collapsed prolog stages       : 0
    1682                    ;*      Minimum required memory pad   : 0 bytes
    1683                    ;*
    1684                    ;*      Minimum safe trip count       : 1
    1685                    ;*----------------------------------------------------------------------------*
    1686 000004a0           $C$L17:    ; PIPED LOOP PROLOG
    1687                    
    1688 000004a0     0c67             SPLOOPD         1                 ;7 ; [A_L674] (P) 
    1689 000004a2     934e  ||         MV      .S1X    B6,A4             ; [A_S674] 
    1690                    
    1691                    ;** --------------------------------------------------------------------------*
    1692 000004a4           $C$L18:    ; PIPED LOOP KERNEL
    1693                            .dwpsn  file "C:/ti/OMAPL138_StarterWare_1_10_04_01/drivers/edma.c",line 952,column 9,is_stmt,
    1694 000004a4     0c3c             LDW     .D1T1   *A4++(4),A3       ; [A_D64P] |952| (P) <0,0> 
    1695 000004a6     4c6e             NOP             3                 ; [A_L674] 
    1696                    
    1697 000004a8     2ce6             SPMASK                            ; [] 
    1698 000004aa     b2c7  ||^        MV      .L2X    A5,B5             ; [B_L674] 
    1699                    
    1700 000004ac     91c7             MV      .L2X    A3,B4             ; [B_L674] |952| (P) <0,5> Define a twin register
    1701                    
    1702 000004ae     1c66             SPKERNEL        0,0               ; [] 
    1703 000004b0     1cc5  ||         STW     .D2T2   B4,*B5++(4)       ; [B_D64P] |952| <0,6> 
    1704                    
    1705                    ;** --------------------------------------------------------------------------*
TMS320C6x Assembler PC v8.1.3 Thu Apr 20 04:41:39 2017

Tools Copyright (c) 1996-2015 Texas Instruments Incorporated
edma.asm                                                             PAGE   32

    1706 000004b2           $C$L19:    ; PIPED LOOP EPILOG
    1707                            .dwpsn  file "C:/ti/OMAPL138_StarterWare_1_10_04_01/drivers/edma.c",line 956,column 1,is_stmt,
    1708                    $C$DW$94        .dwtag  DW_TAG_TI_branch
    1709                            .dwattr $C$DW$94, DW_AT_low_pc(0x00)
    1710                            .dwattr $C$DW$94, DW_AT_TI_return
    1711                    
    1712 000004b2     a1ef             RETNOP          B3,5              ; [] |956| 
    1713                               ; BRANCH OCCURS {B3}              ; [] |956| 
    1714                            .dwattr $C$DW$85, DW_AT_TI_end_file("C:/ti/OMAPL138_StarterWare_1_10_04_01/drivers/edma.c")
    1715                            .dwattr $C$DW$85, DW_AT_TI_end_line(0x3bc)
    1716                            .dwattr $C$DW$85, DW_AT_TI_end_column(0x01)
    1717                            .dwendentry
    1718                            .dwendtag $C$DW$85
    1719                    
    1720 000004b4                   .sect   ".text"
    1721                            .clink
    1722                            .global EDMA3QdmaGetPaRAMEntry
    1723                    
    1724                    $C$DW$95        .dwtag  DW_TAG_subprogram
    1725                            .dwattr $C$DW$95, DW_AT_name("EDMA3QdmaGetPaRAMEntry")
    1726                            .dwattr $C$DW$95, DW_AT_low_pc(EDMA3QdmaGetPaRAMEntry)
    1727                            .dwattr $C$DW$95, DW_AT_high_pc(0x00)
    1728                            .dwattr $C$DW$95, DW_AT_TI_symbol_name("EDMA3QdmaGetPaRAMEntry")
    1729                            .dwattr $C$DW$95, DW_AT_external
    1730                            .dwattr $C$DW$95, DW_AT_type(*$C$DW$T$11)
    1731                            .dwattr $C$DW$95, DW_AT_TI_begin_file("C:/ti/OMAPL138_StarterWare_1_10_04_01/drivers/edma.c")
    1732                            .dwattr $C$DW$95, DW_AT_TI_begin_line(0x40b)
    1733                            .dwattr $C$DW$95, DW_AT_TI_begin_column(0x0e)
    1734                            .dwattr $C$DW$95, DW_AT_decl_file("C:/ti/OMAPL138_StarterWare_1_10_04_01/drivers/edma.c")
    1735                            .dwattr $C$DW$95, DW_AT_decl_line(0x40b)
    1736                            .dwattr $C$DW$95, DW_AT_decl_column(0x0e)
    1737                            .dwattr $C$DW$95, DW_AT_TI_max_frame_size(0x00)
    1738                            .dwpsn  file "C:/ti/OMAPL138_StarterWare_1_10_04_01/drivers/edma.c",line 1038,column 1,is_stmt
    1739                    
    1740                            .dwfde $C$DW$CIE, EDMA3QdmaGetPaRAMEntry
    1741                    $C$DW$96        .dwtag  DW_TAG_formal_parameter
    1742                            .dwattr $C$DW$96, DW_AT_name("baseAdd")
    1743                            .dwattr $C$DW$96, DW_AT_TI_symbol_name("baseAdd")
    1744                            .dwattr $C$DW$96, DW_AT_type(*$C$DW$T$11)
    1745                            .dwattr $C$DW$96, DW_AT_location[DW_OP_reg4]
    1746                    
    1747                    $C$DW$97        .dwtag  DW_TAG_formal_parameter
    1748                            .dwattr $C$DW$97, DW_AT_name("paRAMId")
    1749                            .dwattr $C$DW$97, DW_AT_TI_symbol_name("paRAMId")
    1750                            .dwattr $C$DW$97, DW_AT_type(*$C$DW$T$11)
    1751                            .dwattr $C$DW$97, DW_AT_location[DW_OP_reg20]
    1752                    
    1753                    $C$DW$98        .dwtag  DW_TAG_formal_parameter
    1754                            .dwattr $C$DW$98, DW_AT_name("paRAMEntry")
    1755                            .dwattr $C$DW$98, DW_AT_TI_symbol_name("paRAMEntry")
    1756                            .dwattr $C$DW$98, DW_AT_type(*$C$DW$T$11)
    1757                            .dwattr $C$DW$98, DW_AT_location[DW_OP_reg6]
    1758                    
    1759                    
    1760                    ;******************************************************************************
TMS320C6x Assembler PC v8.1.3 Thu Apr 20 04:41:39 2017

Tools Copyright (c) 1996-2015 Texas Instruments Incorporated
edma.asm                                                             PAGE   33

    1761                    ;* FUNCTION NAME: EDMA3QdmaGetPaRAMEntry                                      *
    1762                    ;*                                                                            *
    1763                    ;*   Regs Modified     : A3,A4,A5,B0,B4,B5                                    *
    1764                    ;*   Regs Used         : A3,A4,A5,A6,B0,B3,B4,B5                              *
    1765                    ;*   Local Frame Size  : 0 Args + 0 Auto + 0 Save = 0 byte                    *
    1766                    ;******************************************************************************
    1767                    EDMA3QdmaGetPaRAMEntry:
    1768                    ;** --------------------------------------------------------------------------*
    1769                    $C$DW$99        .dwtag  DW_TAG_variable
    1770                            .dwattr $C$DW$99, DW_AT_name("paRAMEntryVal")
    1771                            .dwattr $C$DW$99, DW_AT_TI_symbol_name("paRAMEntryVal")
    1772                            .dwattr $C$DW$99, DW_AT_type(*$C$DW$T$11)
    1773                            .dwattr $C$DW$99, DW_AT_location[DW_OP_reg4]
    1774                    
    1775                    $C$DW$100       .dwtag  DW_TAG_variable
    1776                            .dwattr $C$DW$100, DW_AT_name("paRAMId")
    1777                            .dwattr $C$DW$100, DW_AT_TI_symbol_name("paRAMId")
    1778                            .dwattr $C$DW$100, DW_AT_type(*$C$DW$T$62)
    1779                            .dwattr $C$DW$100, DW_AT_location[DW_OP_reg20]
    1780                    
    1781                    $C$DW$101       .dwtag  DW_TAG_variable
    1782                            .dwattr $C$DW$101, DW_AT_name("paRAMEntry")
    1783                            .dwattr $C$DW$101, DW_AT_TI_symbol_name("paRAMEntry")
    1784                            .dwattr $C$DW$101, DW_AT_type(*$C$DW$T$62)
    1785                            .dwattr $C$DW$101, DW_AT_location[DW_OP_reg21]
    1786                    
    1787                            .dwcfi  cfa_offset, 0
    1788                    
    1789 000004b4     b347             MV      .L2X    A6,B5             ; [B_L674] |1038| 
    1790 000004b6     a603  ||         SHL     .S2     B4,5,B4           ; [B_Sb674] |1043| 
    1791                    
    1792                            .dwpsn  file "C:/ti/OMAPL138_StarterWare_1_10_04_01/drivers/edma.c",line 1043,column 9,is_stmt
    1793                    
    1794 000004b8 0210bc43             ADDAW   .D2     B4,B5,B4          ; [B_D64P] |1043| 
    1795 000004c0 0198e9d8  ||         CMPLTU  .L1     A6,7,A3           ; [A_L674] |1043| 
    1796                    
    1797 000004c4 02880028             MVK     .S1     4096,A5           ; [A_S674] |1043| 
    1798                    $C$DW$102       .dwtag  DW_TAG_TI_branch
    1799                            .dwattr $C$DW$102, DW_AT_low_pc(0x00)
    1800                            .dwattr $C$DW$102, DW_AT_TI_return
    1801                    
    1802                    
    1803 000004c8     01ef             RET     .S2     B3                ; [B_Sb674] |1047| 
    1804 000004ca     b5a9  ||         OR      .L2X    B5,A3,B0          ; [B_L674] |1043| 
    1805 000004cc     9230  ||         ADD     .L1X    A4,B4,A3          ; [A_L674] |1043| 
    1806                    
    1807 000004ce     0626             ZERO    .L1     A4                ; [A_L674] |1043| 
    1808 000004d0 220caa64  || [ B0]   LDW     .D1T1   *+A3[A5],A4       ; [A_D64P] |1043| 
    1809                    
    1810 000004d4 00000000             NOP             4                 ; [A_L674] 
    1811                            .dwpsn  file "C:/ti/OMAPL138_StarterWare_1_10_04_01/drivers/edma.c",line 1047,column 1,is_stmt
    1812                               ; BRANCH OCCURS {B3}              ; [] |1047| 
    1813                            .dwattr $C$DW$95, DW_AT_TI_end_file("C:/ti/OMAPL138_StarterWare_1_10_04_01/drivers/edma.c")
    1814                            .dwattr $C$DW$95, DW_AT_TI_end_line(0x417)
    1815                            .dwattr $C$DW$95, DW_AT_TI_end_column(0x01)
TMS320C6x Assembler PC v8.1.3 Thu Apr 20 04:41:39 2017

Tools Copyright (c) 1996-2015 Texas Instruments Incorporated
edma.asm                                                             PAGE   34

    1816                            .dwendentry
    1817                            .dwendtag $C$DW$95
    1818                    
    1819 000004d4                   .sect   ".text"
    1820                            .clink
    1821                            .global EDMA3QdmaGetPaRAM
    1822                    
    1823                    $C$DW$103       .dwtag  DW_TAG_subprogram
    1824                            .dwattr $C$DW$103, DW_AT_name("EDMA3QdmaGetPaRAM")
    1825                            .dwattr $C$DW$103, DW_AT_low_pc(EDMA3QdmaGetPaRAM)
    1826                            .dwattr $C$DW$103, DW_AT_high_pc(0x00)
    1827                            .dwattr $C$DW$103, DW_AT_TI_symbol_name("EDMA3QdmaGetPaRAM")
    1828                            .dwattr $C$DW$103, DW_AT_external
    1829                            .dwattr $C$DW$103, DW_AT_TI_begin_file("C:/ti/OMAPL138_StarterWare_1_10_04_01/drivers/edma.c")
    1830                            .dwattr $C$DW$103, DW_AT_TI_begin_line(0x35c)
    1831                            .dwattr $C$DW$103, DW_AT_TI_begin_column(0x06)
    1832                            .dwattr $C$DW$103, DW_AT_decl_file("C:/ti/OMAPL138_StarterWare_1_10_04_01/drivers/edma.c")
    1833                            .dwattr $C$DW$103, DW_AT_decl_line(0x35c)
    1834                            .dwattr $C$DW$103, DW_AT_decl_column(0x06)
    1835                            .dwattr $C$DW$103, DW_AT_TI_max_frame_size(0x00)
    1836                            .dwpsn  file "C:/ti/OMAPL138_StarterWare_1_10_04_01/drivers/edma.c",line 864,column 1,is_stmt,
    1837                    
    1838                            .dwfde $C$DW$CIE, EDMA3QdmaGetPaRAM
    1839                    $C$DW$104       .dwtag  DW_TAG_formal_parameter
    1840                            .dwattr $C$DW$104, DW_AT_name("baseAdd")
    1841                            .dwattr $C$DW$104, DW_AT_TI_symbol_name("baseAdd")
    1842                            .dwattr $C$DW$104, DW_AT_type(*$C$DW$T$11)
    1843                            .dwattr $C$DW$104, DW_AT_location[DW_OP_reg4]
    1844                    
    1845                    $C$DW$105       .dwtag  DW_TAG_formal_parameter
    1846                            .dwattr $C$DW$105, DW_AT_name("chNum")
    1847                            .dwattr $C$DW$105, DW_AT_TI_symbol_name("chNum")
    1848                            .dwattr $C$DW$105, DW_AT_type(*$C$DW$T$11)
    1849                            .dwattr $C$DW$105, DW_AT_location[DW_OP_reg20]
    1850                    
    1851                    $C$DW$106       .dwtag  DW_TAG_formal_parameter
    1852                            .dwattr $C$DW$106, DW_AT_name("paRAMId")
    1853                            .dwattr $C$DW$106, DW_AT_TI_symbol_name("paRAMId")
    1854                            .dwattr $C$DW$106, DW_AT_type(*$C$DW$T$11)
    1855                            .dwattr $C$DW$106, DW_AT_location[DW_OP_reg6]
    1856                    
    1857                    $C$DW$107       .dwtag  DW_TAG_formal_parameter
    1858                            .dwattr $C$DW$107, DW_AT_name("currPaRAM")
    1859                            .dwattr $C$DW$107, DW_AT_TI_symbol_name("currPaRAM")
    1860                            .dwattr $C$DW$107, DW_AT_type(*$C$DW$T$34)
    1861                            .dwattr $C$DW$107, DW_AT_location[DW_OP_reg22]
    1862                    
    1863                    
    1864                    ;******************************************************************************
    1865                    ;* FUNCTION NAME: EDMA3QdmaGetPaRAM                                           *
    1866                    ;*                                                                            *
    1867                    ;*   Regs Modified     : A3,A4,A5,B0,B4,B5,B6,B7                              *
    1868                    ;*   Regs Used         : A3,A4,A5,A6,B0,B3,B4,B5,B6,B7                        *
    1869                    ;*   Local Frame Size  : 0 Args + 0 Auto + 0 Save = 0 byte                    *
    1870                    ;******************************************************************************
TMS320C6x Assembler PC v8.1.3 Thu Apr 20 04:41:39 2017

Tools Copyright (c) 1996-2015 Texas Instruments Incorporated
edma.asm                                                             PAGE   35

    1871                    EDMA3QdmaGetPaRAM:
    1872                    ;** --------------------------------------------------------------------------*
    1873                    $C$DW$108       .dwtag  DW_TAG_variable
    1874                            .dwattr $C$DW$108, DW_AT_name("paRAMId")
    1875                            .dwattr $C$DW$108, DW_AT_TI_symbol_name("paRAMId")
    1876                            .dwattr $C$DW$108, DW_AT_type(*$C$DW$T$62)
    1877                            .dwattr $C$DW$108, DW_AT_location[DW_OP_reg6]
    1878                    
    1879                    $C$DW$109       .dwtag  DW_TAG_variable
    1880                            .dwattr $C$DW$109, DW_AT_name("sr")
    1881                            .dwattr $C$DW$109, DW_AT_TI_symbol_name("sr")
    1882                            .dwattr $C$DW$109, DW_AT_type(*$C$DW$T$43)
    1883                            .dwattr $C$DW$109, DW_AT_location[DW_OP_reg3]
    1884                    
    1885                    $C$DW$110       .dwtag  DW_TAG_variable
    1886                            .dwattr $C$DW$110, DW_AT_name("ds")
    1887                            .dwattr $C$DW$110, DW_AT_TI_symbol_name("ds")
    1888                            .dwattr $C$DW$110, DW_AT_type(*$C$DW$T$43)
    1889                            .dwattr $C$DW$110, DW_AT_location[DW_OP_reg21]
    1890                    
    1891                            .dwcfi  cfa_offset, 0
    1892                    
    1893 000004d4     a73a             SHL     .S1     A6,5,A3           ; [A_S674] |869| 
    1894 000004d8 02600faa  ||         MVK     .S2     -16353,B4         ; [B_Sb674] |871| 
    1895 000004d6     a347  ||         MV      .L2     B6,B5             ; [B_L674] |864| 
    1896                    
    1897                            .dwpsn  file "C:/ti/OMAPL138_StarterWare_1_10_04_01/drivers/edma.c",line 869,column 5,is_stmt,
    1898                    
    1899 000004e0 018c8079             ADD     .L1     A4,A3,A3          ; [A_L674] |869| 
    1900 000004e4 02a01028  ||         MVK     .S1     16416,A5          ; [A_S674] |871| 
    1901                    
    1902 000004e8 01a00050             ADDK    .S1     16384,A3          ; [A_S674] |869| 
    1903                            .dwpsn  file "C:/ti/OMAPL138_StarterWare_1_10_04_01/drivers/edma.c",line 871,column 13,is_stmt
    1904 000004ec 020cd2f8             SUB     .L1X    B6,A3,A4          ; [A_L674] |871| 
    1905                    
    1906 000004f0 031872fb             SUB     .L2X    A3,B6,B6          ; [B_L674] |871| 
    1907 000004f4 02148af8  ||         CMPLT   .L1     A4,A5,A4          ; [A_L674] |871| 
    1908                    
    1909 000004f8 0210c8fb             CMPGT   .L2     B6,B4,B4          ; [B_L674] |871| 
    1910 000004fc 0300042a  ||         MVK     .S2     8,B6              ; [B_Sb674] 
    1911                    
    1912 00000500     fa67             XOR     .L2     1,B4,B4           ; [B_L674] |871| 
    1913                    
    1914 00000502     9609             AND     .L2X    B4,A4,B0          ; [B_L674] |871| 
    1915 00000504 021806a2  ||         MV      .S2     B6,B4             ; [B_Sb674] |871| 
    1916                    
    1917 00000508 30196121     [!B0]   BNOP            $C$L23,3          ; [] |871| 
    1918 0000050c 2393e05b  || [ B0]   SUB     .L2     B4,1,B7           ; [B_L674] 
    1919 00000510 331b81a2  || [!B0]   SUB     .S2     B6,4,B6           ; [B_Sb674] 
    1920                    
    1921 00000514 269c03a2     [ B0]   MVC     .S2     B7,ILC            ; [B_Sb674] 
    1922 00000518 369803a2     [!B0]   MVC     .S2     B6,ILC            ; [B_Sb674] 
    1923                               ; BRANCHCC OCCURS {$C$L23}        ; [] |871| 
    1924                    ;*----------------------------------------------------------------------------*
    1925                    ;*   SOFTWARE PIPELINE INFORMATION
TMS320C6x Assembler PC v8.1.3 Thu Apr 20 04:41:39 2017

Tools Copyright (c) 1996-2015 Texas Instruments Incorporated
edma.asm                                                             PAGE   36

    1926                    ;*
    1927                    ;*      Loop found in file               : C:/ti/OMAPL138_StarterWare_1_10_04_01/drivers/edma.c
    1928                    ;*      Loop source line                 : 871
    1929                    ;*      Loop opening brace source line   : 872
    1930                    ;*      Loop closing brace source line   : 876
    1931                    ;*      Known Minimum Trip Count         : 8                    
    1932                    ;*      Known Maximum Trip Count         : 8                    
    1933                    ;*      Known Max Trip Count Factor      : 8
    1934                    ;*      Loop Carried Dependency Bound(^) : 6
    1935                    ;*      Unpartitioned Resource Bound     : 1
    1936                    ;*      Partitioned Resource Bound(*)    : 2
    1937                    ;*      Resource Partition:
    1938                    ;*                                A-side   B-side
    1939                    ;*      .L units                     0        0     
    1940                    ;*      .S units                     0        0     
    1941                    ;*      .D units                     1*       1*    
    1942                    ;*      .M units                     0        0     
    1943                    ;*      .X cross paths               0        0     
    1944                    ;*      .T address paths             0        2     
    1945                    ;*      Logical  ops (.LS)           0        0     (.L or .S unit)
    1946                    ;*      Addition ops (.LSD)          0        0     (.L or .S or .D unit)
    1947                    ;*      Bound(.L .S .LS)             0        0     
    1948                    ;*      Bound(.L .S .D .LS .LSD)     1*       1*    
    1949                    ;*
    1950                    ;*      Searching for software pipeline schedule at ...
    1951                    ;*         ii = 6  Schedule found with 2 iterations in parallel
    1952                    ;*      Done
    1953                    ;*
    1954                    ;*      Loop will be splooped
    1955                    ;*      Collapsed epilog stages       : 0
    1956                    ;*      Collapsed prolog stages       : 0
    1957                    ;*      Minimum required memory pad   : 0 bytes
    1958                    ;*
    1959                    ;*      Minimum safe trip count       : 1
    1960                    ;*
    1961                    ;*      (Performance) Consider adding the restrict qualifier to the definition of currPaRAM if they do
    1962                    ;*
    1963                    ;*      (Performance) Consider adding assertions to indicate n-byte alignment of variables currPaRAM i
    1964                    ;*----------------------------------------------------------------------------*
    1965 00000520           $C$L20:    ; PIPED LOOP PROLOG
    1966                            .dwcfi  remember_state
    1967 00000520 0283a000             SPLOOPD         6                 ;12 ; [A_L674] (P) 
    1968                    ;** --------------------------------------------------------------------------*
    1969 00000524           $C$L21:    ; PIPED LOOP KERNEL
    1970                            .dwpsn  file "C:/ti/OMAPL138_StarterWare_1_10_04_01/drivers/edma.c",line 873,column 9,is_stmt,
    1971 00000524 020c3666             LDW     .D1T2   *A3++(4),B4       ; [A_D64P] |873| (P) <0,0>  ^ 
    1972 00000528 00000000             NOP             4                 ; [A_L674] 
    1973 00000528     1cc5             STW     .D2T2   B4,*B5++(4)       ; [B_D64P] |873| (P) <0,5>  ^ 
    1974 0000052a     1c66             SPKERNEL        0,0               ; [] 
    1975                    ;** --------------------------------------------------------------------------*
    1976 0000052c           $C$L22:    ; PIPED LOOP EPILOG
    1977                            .dwpsn  file "C:/ti/OMAPL138_StarterWare_1_10_04_01/drivers/edma.c",line 877,column 1,is_stmt,
    1978                    $C$DW$111       .dwtag  DW_TAG_TI_branch
    1979                            .dwattr $C$DW$111, DW_AT_low_pc(0x00)
    1980                            .dwattr $C$DW$111, DW_AT_TI_return
TMS320C6x Assembler PC v8.1.3 Thu Apr 20 04:41:39 2017

Tools Copyright (c) 1996-2015 Texas Instruments Incorporated
edma.asm                                                             PAGE   37

    1981                    
    1982 0000052c     a1ef             RETNOP          B3,5              ; [] |877| 
    1983                               ; BRANCH OCCURS {B3}              ; [] |877| 
    1984                            .dwcfi  restore_state
    1985                    ;** --------------------------------------------------------------------------*
    1986 0000052e     8f61             SUB     .L2     B6,4,B6           ; [B_L674] 
    1987 00000530     db6f             MVC     .S2     B6,ILC            ; [B_Sb674] 
    1988                    ;*----------------------------------------------------------------------------*
    1989                    ;*   SOFTWARE PIPELINE INFORMATION
    1990                    ;*
    1991                    ;*      Loop found in file               : C:/ti/OMAPL138_StarterWare_1_10_04_01/drivers/edma.c
    1992                    ;*      Loop source line                 : 871
    1993                    ;*      Loop opening brace source line   : 872
    1994                    ;*      Loop closing brace source line   : 876
    1995                    ;*      Known Minimum Trip Count         : 8                    
    1996                    ;*      Known Maximum Trip Count         : 8                    
    1997                    ;*      Known Max Trip Count Factor      : 8
    1998                    ;*      Loop Carried Dependency Bound(^) : 0
    1999                    ;*      Unpartitioned Resource Bound     : 1
    2000                    ;*      Partitioned Resource Bound(*)    : 1
    2001                    ;*      Resource Partition:
    2002                    ;*                                A-side   B-side
    2003                    ;*      .L units                     0        0     
    2004                    ;*      .S units                     0        0     
    2005                    ;*      .D units                     1*       1*    
    2006                    ;*      .M units                     0        0     
    2007                    ;*      .X cross paths               0        1     
    2008                    ;*      .T address paths             1        1     
    2009                    ;*      Logical  ops (.LS)           0        0     (.L or .S unit)
    2010                    ;*      Addition ops (.LSD)          0        1     (.L or .S or .D unit)
    2011                    ;*      Bound(.L .S .LS)             0        0     
    2012                    ;*      Bound(.L .S .D .LS .LSD)     1*       1*    
    2013                    ;*
    2014                    ;*      Searching for software pipeline schedule at ...
    2015                    ;*         ii = 1  Schedule found with 7 iterations in parallel
    2016                    ;*      Done
    2017                    ;*
    2018                    ;*      Loop will be splooped
    2019                    ;*      Collapsed epilog stages       : 0
    2020                    ;*      Collapsed prolog stages       : 0
    2021                    ;*      Minimum required memory pad   : 0 bytes
    2022                    ;*
    2023                    ;*      Minimum safe trip count       : 1
    2024                    ;*----------------------------------------------------------------------------*
    2025 00000532           $C$L23:    ; PIPED LOOP PROLOG
    2026                    
    2027 00000532     0c67             SPLOOPD         1                 ;7 ; [A_L674] (P) 
    2028 00000534     81ce  ||         MV      .S1     A3,A4             ; [A_S674] 
    2029                    
    2030                    ;** --------------------------------------------------------------------------*
    2031 00000536           $C$L24:    ; PIPED LOOP KERNEL
    2032                            .dwpsn  file "C:/ti/OMAPL138_StarterWare_1_10_04_01/drivers/edma.c",line 873,column 9,is_stmt,
    2033 00000536     0c3c             LDW     .D1T1   *A4++(4),A3       ; [A_D64P] |873| (P) <0,0> 
    2034 00000538 00000000             NOP             4                 ; [A_L674] 
    2035 00000538     91c7             MV      .L2X    A3,B4             ; [B_L674] |873| (P) <0,5> Define a twin register
TMS320C6x Assembler PC v8.1.3 Thu Apr 20 04:41:39 2017

Tools Copyright (c) 1996-2015 Texas Instruments Incorporated
edma.asm                                                             PAGE   38

    2036                    
    2037 0000053a     1c66             SPKERNEL        0,0               ; [] 
    2038 00000540     1cc5  ||         STW     .D2T2   B4,*B5++(4)       ; [B_D64P] |873| <0,6> 
    2039                    
    2040                    ;** --------------------------------------------------------------------------*
    2041 00000542           $C$L25:    ; PIPED LOOP EPILOG
    2042                            .dwpsn  file "C:/ti/OMAPL138_StarterWare_1_10_04_01/drivers/edma.c",line 877,column 1,is_stmt,
    2043                    $C$DW$112       .dwtag  DW_TAG_TI_branch
    2044                            .dwattr $C$DW$112, DW_AT_low_pc(0x00)
    2045                            .dwattr $C$DW$112, DW_AT_TI_return
    2046                    
    2047 00000542     a1ef             RETNOP          B3,5              ; [] |877| 
    2048                               ; BRANCH OCCURS {B3}              ; [] |877| 
    2049                            .dwattr $C$DW$103, DW_AT_TI_end_file("C:/ti/OMAPL138_StarterWare_1_10_04_01/drivers/edma.c")
    2050                            .dwattr $C$DW$103, DW_AT_TI_end_line(0x36d)
    2051                            .dwattr $C$DW$103, DW_AT_TI_end_column(0x01)
    2052                            .dwendentry
    2053                            .dwendtag $C$DW$103
    2054                    
    2055 00000544                   .sect   ".text"
    2056                            .clink
    2057                            .global EDMA3QdmaGetErrIntrStatus
    2058                    
    2059                    $C$DW$113       .dwtag  DW_TAG_subprogram
    2060                            .dwattr $C$DW$113, DW_AT_name("EDMA3QdmaGetErrIntrStatus")
    2061                            .dwattr $C$DW$113, DW_AT_low_pc(EDMA3QdmaGetErrIntrStatus)
    2062                            .dwattr $C$DW$113, DW_AT_high_pc(0x00)
    2063                            .dwattr $C$DW$113, DW_AT_TI_symbol_name("EDMA3QdmaGetErrIntrStatus")
    2064                            .dwattr $C$DW$113, DW_AT_external
    2065                            .dwattr $C$DW$113, DW_AT_type(*$C$DW$T$11)
    2066                            .dwattr $C$DW$113, DW_AT_TI_begin_file("C:/ti/OMAPL138_StarterWare_1_10_04_01/drivers/edma.c")
    2067                            .dwattr $C$DW$113, DW_AT_TI_begin_line(0x2db)
    2068                            .dwattr $C$DW$113, DW_AT_TI_begin_column(0x0e)
    2069                            .dwattr $C$DW$113, DW_AT_decl_file("C:/ti/OMAPL138_StarterWare_1_10_04_01/drivers/edma.c")
    2070                            .dwattr $C$DW$113, DW_AT_decl_line(0x2db)
    2071                            .dwattr $C$DW$113, DW_AT_decl_column(0x0e)
    2072                            .dwattr $C$DW$113, DW_AT_TI_max_frame_size(0x00)
    2073                            .dwpsn  file "C:/ti/OMAPL138_StarterWare_1_10_04_01/drivers/edma.c",line 732,column 1,is_stmt,
    2074                    
    2075                            .dwfde $C$DW$CIE, EDMA3QdmaGetErrIntrStatus
    2076                    $C$DW$114       .dwtag  DW_TAG_formal_parameter
    2077                            .dwattr $C$DW$114, DW_AT_name("baseAdd")
    2078                            .dwattr $C$DW$114, DW_AT_TI_symbol_name("baseAdd")
    2079                            .dwattr $C$DW$114, DW_AT_type(*$C$DW$T$11)
    2080                            .dwattr $C$DW$114, DW_AT_location[DW_OP_reg4]
    2081                    
    2082                    
    2083                    ;******************************************************************************
    2084                    ;* FUNCTION NAME: EDMA3QdmaGetErrIntrStatus                                   *
    2085                    ;*                                                                            *
    2086                    ;*   Regs Modified     : A3,A4                                                *
    2087                    ;*   Regs Used         : A3,A4,B3                                             *
    2088                    ;*   Local Frame Size  : 0 Args + 0 Auto + 0 Save = 0 byte                    *
    2089                    ;******************************************************************************
    2090                    EDMA3QdmaGetErrIntrStatus:
TMS320C6x Assembler PC v8.1.3 Thu Apr 20 04:41:39 2017

Tools Copyright (c) 1996-2015 Texas Instruments Incorporated
edma.asm                                                             PAGE   39

    2091                    ;** --------------------------------------------------------------------------*
    2092                    $C$DW$115       .dwtag  DW_TAG_variable
    2093                            .dwattr $C$DW$115, DW_AT_name("baseAdd")
    2094                            .dwattr $C$DW$115, DW_AT_TI_symbol_name("baseAdd")
    2095                            .dwattr $C$DW$115, DW_AT_type(*$C$DW$T$62)
    2096                            .dwattr $C$DW$115, DW_AT_location[DW_OP_reg4]
    2097                    
    2098                            .dwcfi  cfa_offset, 0
    2099                            .dwpsn  file "C:/ti/OMAPL138_StarterWare_1_10_04_01/drivers/edma.c",line 734,column 5,is_stmt,
    2100                    $C$DW$116       .dwtag  DW_TAG_TI_branch
    2101                            .dwattr $C$DW$116, DW_AT_low_pc(0x04)
    2102                            .dwattr $C$DW$116, DW_AT_TI_return
    2103                    
    2104                    
    2105 00000544     85d2             MVK     .S1     196,A3            ; [A_S674] |734| 
    2106 00000546     01ef  ||         RET     .S2     B3                ; [B_Sb674] |737| 
    2107                    
    2108 00000548     644c             LDW     .D1T1   *+A4[A3],A4       ; [A_D64P] |734| 
    2109 0000054a     6c6e             NOP             4                 ; [A_L674] 
    2110                            .dwpsn  file "C:/ti/OMAPL138_StarterWare_1_10_04_01/drivers/edma.c",line 737,column 1,is_stmt,
    2111                               ; BRANCH OCCURS {B3}              ; [] |737| 
    2112                            .dwattr $C$DW$113, DW_AT_TI_end_file("C:/ti/OMAPL138_StarterWare_1_10_04_01/drivers/edma.c")
    2113                            .dwattr $C$DW$113, DW_AT_TI_end_line(0x2e1)
    2114                            .dwattr $C$DW$113, DW_AT_TI_end_column(0x01)
    2115                            .dwendentry
    2116                            .dwendtag $C$DW$113
    2117                    
    2118 0000054c                   .sect   ".text"
    2119                            .clink
    2120                            .global EDMA3QdmaClrMissEvt
    2121                    
    2122                    $C$DW$117       .dwtag  DW_TAG_subprogram
    2123                            .dwattr $C$DW$117, DW_AT_name("EDMA3QdmaClrMissEvt")
    2124                            .dwattr $C$DW$117, DW_AT_low_pc(EDMA3QdmaClrMissEvt)
    2125                            .dwattr $C$DW$117, DW_AT_high_pc(0x00)
    2126                            .dwattr $C$DW$117, DW_AT_TI_symbol_name("EDMA3QdmaClrMissEvt")
    2127                            .dwattr $C$DW$117, DW_AT_external
    2128                            .dwattr $C$DW$117, DW_AT_TI_begin_file("C:/ti/OMAPL138_StarterWare_1_10_04_01/drivers/edma.c")
    2129                            .dwattr $C$DW$117, DW_AT_TI_begin_line(0x1c8)
    2130                            .dwattr $C$DW$117, DW_AT_TI_begin_column(0x06)
    2131                            .dwattr $C$DW$117, DW_AT_decl_file("C:/ti/OMAPL138_StarterWare_1_10_04_01/drivers/edma.c")
    2132                            .dwattr $C$DW$117, DW_AT_decl_line(0x1c8)
    2133                            .dwattr $C$DW$117, DW_AT_decl_column(0x06)
    2134                            .dwattr $C$DW$117, DW_AT_TI_max_frame_size(0x00)
    2135                            .dwpsn  file "C:/ti/OMAPL138_StarterWare_1_10_04_01/drivers/edma.c",line 458,column 1,is_stmt,
    2136                    
    2137                            .dwfde $C$DW$CIE, EDMA3QdmaClrMissEvt
    2138                    $C$DW$118       .dwtag  DW_TAG_formal_parameter
    2139                            .dwattr $C$DW$118, DW_AT_name("baseAdd")
    2140                            .dwattr $C$DW$118, DW_AT_TI_symbol_name("baseAdd")
    2141                            .dwattr $C$DW$118, DW_AT_type(*$C$DW$T$11)
    2142                            .dwattr $C$DW$118, DW_AT_location[DW_OP_reg4]
    2143                    
    2144                    $C$DW$119       .dwtag  DW_TAG_formal_parameter
    2145                            .dwattr $C$DW$119, DW_AT_name("chNum")
TMS320C6x Assembler PC v8.1.3 Thu Apr 20 04:41:39 2017

Tools Copyright (c) 1996-2015 Texas Instruments Incorporated
edma.asm                                                             PAGE   40

    2146                            .dwattr $C$DW$119, DW_AT_TI_symbol_name("chNum")
    2147                            .dwattr $C$DW$119, DW_AT_type(*$C$DW$T$11)
    2148                            .dwattr $C$DW$119, DW_AT_location[DW_OP_reg20]
    2149                    
    2150                    
    2151                    ;******************************************************************************
    2152                    ;* FUNCTION NAME: EDMA3QdmaClrMissEvt                                         *
    2153                    ;*                                                                            *
    2154                    ;*   Regs Modified     : A3,A4,B4,B5,B6,B7                                    *
    2155                    ;*   Regs Used         : A3,A4,B3,B4,B5,B6,B7,DP                              *
    2156                    ;*   Local Frame Size  : 0 Args + 0 Auto + 0 Save = 0 byte                    *
    2157                    ;******************************************************************************
    2158                    EDMA3QdmaClrMissEvt:
    2159                    ;** --------------------------------------------------------------------------*
    2160                    $C$DW$120       .dwtag  DW_TAG_variable
    2161                            .dwattr $C$DW$120, DW_AT_name("chNum")
    2162                            .dwattr $C$DW$120, DW_AT_TI_symbol_name("chNum")
    2163                            .dwattr $C$DW$120, DW_AT_type(*$C$DW$T$62)
    2164                            .dwattr $C$DW$120, DW_AT_location[DW_OP_reg20]
    2165                    
    2166                            .dwcfi  cfa_offset, 0
    2167                            .dwpsn  file "C:/ti/OMAPL138_StarterWare_1_10_04_01/drivers/edma.c",line 460,column 5,is_stmt,
    2168 0000054c 0280006e!            LDW     .D2T2   *+DP(regionId),B5 ; [B_D64P] |460| 
    2169 00000550 030412aa             MVK     .S2     2085,B6           ; [B_Sb674] |460| 
    2170                            .dwpsn  file "C:/ti/OMAPL138_StarterWare_1_10_04_01/drivers/edma.c",line 463,column 5,is_stmt,
    2171 00000554 01818a28             MVK     .S1     788,A3            ; [A_S674] |463| 
    2172 00000558     6230             ADD     .L1     A3,A4,A3          ; [A_L674] |463| 
    2173 0000055a     0c6e             NOP             1                 ; [A_L674] 
    2174                            .dwpsn  file "C:/ti/OMAPL138_StarterWare_1_10_04_01/drivers/edma.c",line 460,column 5,is_stmt,
    2175                    
    2176 00000560 03952ca3             SHL     .S2     B5,9,B7           ; [B_Sb674] |460| 
    2177 00000564     26a7  ||         MVK     .L2     1,B5              ; [B_L674] |460| 
    2178                    
    2179 00000568 02148ce2             SHL     .S2     B5,B4,B4          ; [B_Sb674] |460| 
    2180 00000566     f251  ||         ADD     .L2X    A4,B7,B5          ; [B_L674] |460| 
    2181                    
    2182 0000056c 0214caf6             STW     .D2T2   B4,*+B5[B6]       ; [B_D64P] |460| 
    2183                            .dwpsn  file "C:/ti/OMAPL138_StarterWare_1_10_04_01/drivers/edma.c",line 463,column 5,is_stmt,
    2184 00000570 020c0264             LDW     .D1T1   *A3(0),A4         ; [A_D64P] |463| 
    2185                            .dwpsn  file "C:/ti/OMAPL138_StarterWare_1_10_04_01/drivers/edma.c",line 464,column 1,is_stmt,
    2186                    $C$DW$121       .dwtag  DW_TAG_TI_branch
    2187                            .dwattr $C$DW$121, DW_AT_low_pc(0x00)
    2188                            .dwattr $C$DW$121, DW_AT_TI_return
    2189                    
    2190 00000574 008c6362             RETNOP          B3,3              ; [] |464| 
    2191                            .dwpsn  file "C:/ti/OMAPL138_StarterWare_1_10_04_01/drivers/edma.c",line 463,column 5,is_stmt,
    2192 00000578 02109ff8             OR      .L1X    B4,A4,A4          ; [A_L674] |463| 
    2193 00000580 020c0274             STW     .D1T1   A4,*A3(0)         ; [A_D64P] |463| 
    2194                            .dwpsn  file "C:/ti/OMAPL138_StarterWare_1_10_04_01/drivers/edma.c",line 464,column 1,is_stmt,
    2195                               ; BRANCH OCCURS {B3}              ; [] |464| 
    2196                            .dwattr $C$DW$117, DW_AT_TI_end_file("C:/ti/OMAPL138_StarterWare_1_10_04_01/drivers/edma.c")
    2197                            .dwattr $C$DW$117, DW_AT_TI_end_line(0x1d0)
    2198                            .dwattr $C$DW$117, DW_AT_TI_end_column(0x01)
    2199                            .dwendentry
    2200                            .dwendtag $C$DW$117
TMS320C6x Assembler PC v8.1.3 Thu Apr 20 04:41:39 2017

Tools Copyright (c) 1996-2015 Texas Instruments Incorporated
edma.asm                                                             PAGE   41

    2201                    
    2202 00000584                   .sect   ".text"
    2203                            .clink
    2204                            .global EDMA3PeripheralIdGet
    2205                    
    2206                    $C$DW$122       .dwtag  DW_TAG_subprogram
    2207                            .dwattr $C$DW$122, DW_AT_name("EDMA3PeripheralIdGet")
    2208                            .dwattr $C$DW$122, DW_AT_low_pc(EDMA3PeripheralIdGet)
    2209                            .dwattr $C$DW$122, DW_AT_high_pc(0x00)
    2210                            .dwattr $C$DW$122, DW_AT_TI_symbol_name("EDMA3PeripheralIdGet")
    2211                            .dwattr $C$DW$122, DW_AT_external
    2212                            .dwattr $C$DW$122, DW_AT_type(*$C$DW$T$11)
    2213                            .dwattr $C$DW$122, DW_AT_TI_begin_file("C:/ti/OMAPL138_StarterWare_1_10_04_01/drivers/edma.c")
    2214                            .dwattr $C$DW$122, DW_AT_TI_begin_line(0x91)
    2215                            .dwattr $C$DW$122, DW_AT_TI_begin_column(0x0e)
    2216                            .dwattr $C$DW$122, DW_AT_decl_file("C:/ti/OMAPL138_StarterWare_1_10_04_01/drivers/edma.c")
    2217                            .dwattr $C$DW$122, DW_AT_decl_line(0x91)
    2218                            .dwattr $C$DW$122, DW_AT_decl_column(0x0e)
    2219                            .dwattr $C$DW$122, DW_AT_TI_max_frame_size(0x00)
    2220                            .dwpsn  file "C:/ti/OMAPL138_StarterWare_1_10_04_01/drivers/edma.c",line 146,column 1,is_stmt,
    2221                    
    2222                            .dwfde $C$DW$CIE, EDMA3PeripheralIdGet
    2223                    $C$DW$123       .dwtag  DW_TAG_formal_parameter
    2224                            .dwattr $C$DW$123, DW_AT_name("baseAdd")
    2225                            .dwattr $C$DW$123, DW_AT_TI_symbol_name("baseAdd")
    2226                            .dwattr $C$DW$123, DW_AT_type(*$C$DW$T$11)
    2227                            .dwattr $C$DW$123, DW_AT_location[DW_OP_reg4]
    2228                    
    2229                    
    2230                    ;******************************************************************************
    2231                    ;* FUNCTION NAME: EDMA3PeripheralIdGet                                        *
    2232                    ;*                                                                            *
    2233                    ;*   Regs Modified     : A4                                                   *
    2234                    ;*   Regs Used         : A4,B3                                                *
    2235                    ;*   Local Frame Size  : 0 Args + 0 Auto + 0 Save = 0 byte                    *
    2236                    ;******************************************************************************
    2237                    EDMA3PeripheralIdGet:
    2238                    ;** --------------------------------------------------------------------------*
    2239                    $C$DW$124       .dwtag  DW_TAG_variable
    2240                            .dwattr $C$DW$124, DW_AT_name("baseAdd")
    2241                            .dwattr $C$DW$124, DW_AT_TI_symbol_name("baseAdd")
    2242                            .dwattr $C$DW$124, DW_AT_type(*$C$DW$T$62)
    2243                            .dwattr $C$DW$124, DW_AT_location[DW_OP_reg4]
    2244                    
    2245                            .dwcfi  cfa_offset, 0
    2246                            .dwpsn  file "C:/ti/OMAPL138_StarterWare_1_10_04_01/drivers/edma.c",line 148,column 1,is_stmt,
    2247                    $C$DW$125       .dwtag  DW_TAG_TI_branch
    2248                            .dwattr $C$DW$125, DW_AT_low_pc(0x00)
    2249                            .dwattr $C$DW$125, DW_AT_TI_return
    2250                    
    2251 00000584     01ef             RET     .S2     B3                ; [B_Sb674] |148| 
    2252                            .dwpsn  file "C:/ti/OMAPL138_StarterWare_1_10_04_01/drivers/edma.c",line 147,column 5,is_stmt,
    2253 00000586     004c             LDW     .D1T1   *A4(0),A4         ; [A_D64P] |147| 
    2254 00000588 00006000             NOP             4                 ; [A_L674] 
    2255                            .dwpsn  file "C:/ti/OMAPL138_StarterWare_1_10_04_01/drivers/edma.c",line 148,column 1,is_stmt,
TMS320C6x Assembler PC v8.1.3 Thu Apr 20 04:41:39 2017

Tools Copyright (c) 1996-2015 Texas Instruments Incorporated
edma.asm                                                             PAGE   42

    2256                               ; BRANCH OCCURS {B3}              ; [] |148| 
    2257                            .dwattr $C$DW$122, DW_AT_TI_end_file("C:/ti/OMAPL138_StarterWare_1_10_04_01/drivers/edma.c")
    2258                            .dwattr $C$DW$122, DW_AT_TI_end_line(0x94)
    2259                            .dwattr $C$DW$122, DW_AT_TI_end_column(0x01)
    2260                            .dwendentry
    2261                            .dwendtag $C$DW$122
    2262                    
    2263 0000058c                   .sect   ".text"
    2264                            .clink
    2265                            .global EDMA3MapQdmaChToPaRAM
    2266                    
    2267                    $C$DW$126       .dwtag  DW_TAG_subprogram
    2268                            .dwattr $C$DW$126, DW_AT_name("EDMA3MapQdmaChToPaRAM")
    2269                            .dwattr $C$DW$126, DW_AT_low_pc(EDMA3MapQdmaChToPaRAM)
    2270                            .dwattr $C$DW$126, DW_AT_high_pc(0x00)
    2271                            .dwattr $C$DW$126, DW_AT_TI_symbol_name("EDMA3MapQdmaChToPaRAM")
    2272                            .dwattr $C$DW$126, DW_AT_external
    2273                            .dwattr $C$DW$126, DW_AT_TI_begin_file("C:/ti/OMAPL138_StarterWare_1_10_04_01/drivers/edma.c")
    2274                            .dwattr $C$DW$126, DW_AT_TI_begin_line(0x173)
    2275                            .dwattr $C$DW$126, DW_AT_TI_begin_column(0x06)
    2276                            .dwattr $C$DW$126, DW_AT_decl_file("C:/ti/OMAPL138_StarterWare_1_10_04_01/drivers/edma.c")
    2277                            .dwattr $C$DW$126, DW_AT_decl_line(0x173)
    2278                            .dwattr $C$DW$126, DW_AT_decl_column(0x06)
    2279                            .dwattr $C$DW$126, DW_AT_TI_max_frame_size(0x00)
    2280                            .dwpsn  file "C:/ti/OMAPL138_StarterWare_1_10_04_01/drivers/edma.c",line 374,column 1,is_stmt,
    2281                    
    2282                            .dwfde $C$DW$CIE, EDMA3MapQdmaChToPaRAM
    2283                    $C$DW$127       .dwtag  DW_TAG_formal_parameter
    2284                            .dwattr $C$DW$127, DW_AT_name("baseAdd")
    2285                            .dwattr $C$DW$127, DW_AT_TI_symbol_name("baseAdd")
    2286                            .dwattr $C$DW$127, DW_AT_type(*$C$DW$T$11)
    2287                            .dwattr $C$DW$127, DW_AT_location[DW_OP_reg4]
    2288                    
    2289                    $C$DW$128       .dwtag  DW_TAG_formal_parameter
    2290                            .dwattr $C$DW$128, DW_AT_name("chNum")
    2291                            .dwattr $C$DW$128, DW_AT_TI_symbol_name("chNum")
    2292                            .dwattr $C$DW$128, DW_AT_type(*$C$DW$T$11)
    2293                            .dwattr $C$DW$128, DW_AT_location[DW_OP_reg20]
    2294                    
    2295                    $C$DW$129       .dwtag  DW_TAG_formal_parameter
    2296                            .dwattr $C$DW$129, DW_AT_name("paRAMId")
    2297                            .dwattr $C$DW$129, DW_AT_TI_symbol_name("paRAMId")
    2298                            .dwattr $C$DW$129, DW_AT_type(*$C$DW$T$43)
    2299                            .dwattr $C$DW$129, DW_AT_location[DW_OP_reg6]
    2300                    
    2301                    
    2302                    ;******************************************************************************
    2303                    ;* FUNCTION NAME: EDMA3MapQdmaChToPaRAM                                       *
    2304                    ;*                                                                            *
    2305                    ;*   Regs Modified     : A3,B0,B4,B5,B6,B7,B8                                 *
    2306                    ;*   Regs Used         : A3,A4,A6,B0,B3,B4,B5,B6,B7,B8                        *
    2307                    ;*   Local Frame Size  : 0 Args + 0 Auto + 0 Save = 0 byte                    *
    2308                    ;******************************************************************************
    2309                    EDMA3MapQdmaChToPaRAM:
    2310                    ;** --------------------------------------------------------------------------*
TMS320C6x Assembler PC v8.1.3 Thu Apr 20 04:41:39 2017

Tools Copyright (c) 1996-2015 Texas Instruments Incorporated
edma.asm                                                             PAGE   43

    2311                    $C$DW$130       .dwtag  DW_TAG_variable
    2312                            .dwattr $C$DW$130, DW_AT_name("baseAdd")
    2313                            .dwattr $C$DW$130, DW_AT_TI_symbol_name("baseAdd")
    2314                            .dwattr $C$DW$130, DW_AT_type(*$C$DW$T$62)
    2315                            .dwattr $C$DW$130, DW_AT_location[DW_OP_reg22]
    2316                    
    2317                    $C$DW$131       .dwtag  DW_TAG_variable
    2318                            .dwattr $C$DW$131, DW_AT_name("chNum")
    2319                            .dwattr $C$DW$131, DW_AT_TI_symbol_name("chNum")
    2320                            .dwattr $C$DW$131, DW_AT_type(*$C$DW$T$62)
    2321                            .dwattr $C$DW$131, DW_AT_location[DW_OP_reg20]
    2322                    
    2323                    $C$DW$132       .dwtag  DW_TAG_variable
    2324                            .dwattr $C$DW$132, DW_AT_name("paRAMId")
    2325                            .dwattr $C$DW$132, DW_AT_TI_symbol_name("paRAMId")
    2326                            .dwattr $C$DW$132, DW_AT_type(*$C$DW$T$61)
    2327                            .dwattr $C$DW$132, DW_AT_location[DW_OP_reg6]
    2328                    
    2329                            .dwcfi  cfa_offset, 0
    2330                    
    2331 0000058c     013c             LDW     .D1T1   *A6(0),A3         ; [A_D64P] |378| 
    2332 00000590 047ff02a  ||         MVK     .S2     -32,B8            ; [B_Sb674] |378| 
    2333 0000058e     d247  ||         MV      .L2X    A4,B6             ; [B_L674] |374| 
    2334                    
    2335                            .dwpsn  file "C:/ti/OMAPL138_StarterWare_1_10_04_01/drivers/edma.c",line 388,column 9,is_stmt,
    2336 00000594 02989c42             ADDAW   .D2     B6,B4,B5          ; [B_D64P] |388| 
    2337 00000598 02810052             ADDK    .S2     512,B5            ; [B_Sb674] |388| 
    2338                            .dwpsn  file "C:/ti/OMAPL138_StarterWare_1_10_04_01/drivers/edma.c",line 381,column 9,is_stmt,
    2339 000005a0 03189c42             ADDAW   .D2     B6,B4,B6          ; [B_D64P] |381| 
    2340 000005a4 03010052             ADDK    .S2     512,B6            ; [B_Sb674] |381| 
    2341                            .dwpsn  file "C:/ti/OMAPL138_StarterWare_1_10_04_01/drivers/edma.c",line 378,column 5,is_stmt,
    2342 000005a8     99f1             SUB     .L2X    B4,A3,B7          ; [B_L674] |378| 
    2343                    
    2344 000005b0 0020ea7a             CMPEQ   .L2     B7,B8,B0          ; [B_L674] |378| 
    2345 000005ac 03909ec3  ||         ADDAD   .D2     B4,4,B7           ; [B_D64P] |386| 
    2346 000005aa     834f  ||         MV      .S2     B6,B4             ; [B_Sb674] |381| 
    2347                    
    2348 000005b4 33980277     [!B0]   STW     .D1T2   B7,*A6(0)         ; [A_D64P] |386| 
    2349 000005b8 20000a90  || [ B0]   B       .S1     $C$L26            ; [A_S674] |378| 
    2350                    
    2351                            .dwpsn  file "C:/ti/OMAPL138_StarterWare_1_10_04_01/drivers/edma.c",line 388,column 9,is_stmt,
    2352 000005c0 321402e6     [!B0]   LDW     .D2T2   *B5(0),B4         ; [B_D64P] |388| 
    2353                            .dwpsn  file "C:/ti/OMAPL138_StarterWare_1_10_04_01/drivers/edma.c",line 381,column 9,is_stmt,
    2354 000005c4 229002e6     [ B0]   LDW     .D2T2   *B4(0),B5         ; [B_D64P] |381| 
    2355                            .dwpsn  file "C:/ti/OMAPL138_StarterWare_1_10_04_01/drivers/edma.c",line 382,column 9,is_stmt,
    2356 000005c8 018ef208             EXTU    .S1     A3,23,18,A3       ; [A_S674] |382| 
    2357 000005cc 00002000             NOP             2                 ; [A_L674] 
    2358                            .dwpsn  file "C:/ti/OMAPL138_StarterWare_1_10_04_01/drivers/edma.c",line 378,column 5,is_stmt,
    2359                               ; BRANCHCC OCCURS {$C$L26}        ; [] |378| 
    2360                    ;** --------------------------------------------------------------------------*
    2361                            .dwcfi  remember_state
    2362                            .dwpsn  file "C:/ti/OMAPL138_StarterWare_1_10_04_01/drivers/edma.c",line 388,column 9,is_stmt,
    2363 000005d0 0210adca             CLR     .S2     B4,5,13,B4        ; [B_Sb674] |388| 
    2364 000005d4     10c5             STW     .D2T2   B4,*B5(0)         ; [B_D64P] |388| 
    2365                            .dwpsn  file "C:/ti/OMAPL138_StarterWare_1_10_04_01/drivers/edma.c",line 389,column 9,is_stmt,
TMS320C6x Assembler PC v8.1.3 Thu Apr 20 04:41:39 2017

Tools Copyright (c) 1996-2015 Texas Instruments Incorporated
edma.asm                                                             PAGE   44

    2366 000005d6     013c             LDW     .D1T1   *A6(0),A3         ; [A_D64P] |389| 
    2367 000005d8     10cd             LDW     .D2T2   *B5(0),B4         ; [B_D64P] |389| 
    2368 000005da     0c6e             NOP             1                 ; [A_L674] 
    2369                            .dwpsn  file "C:/ti/OMAPL138_StarterWare_1_10_04_01/drivers/edma.c",line 391,column 1,is_stmt,
    2370                    $C$DW$133       .dwtag  DW_TAG_TI_branch
    2371                            .dwattr $C$DW$133, DW_AT_low_pc(0x00)
    2372                            .dwattr $C$DW$133, DW_AT_TI_return
    2373                    
    2374 000005e0 008c2362             RETNOP          B3,1              ; [] |391| 
    2375                            .dwpsn  file "C:/ti/OMAPL138_StarterWare_1_10_04_01/drivers/edma.c",line 389,column 9,is_stmt,
    2376 000005e4 018ef208             EXTU    .S1     A3,23,18,A3       ; [A_S674] |389| 
    2377 000005e8 00000000             NOP             1                 ; [A_L674] 
    2378 000005ec 020c9ffa             OR      .L2X    A3,B4,B4          ; [B_L674] |389| 
    2379 000005f0 021402f6             STW     .D2T2   B4,*B5(0)         ; [B_D64P] |389| 
    2380                            .dwpsn  file "C:/ti/OMAPL138_StarterWare_1_10_04_01/drivers/edma.c",line 391,column 1,is_stmt,
    2381                               ; BRANCH OCCURS {B3}              ; [] |391| 
    2382                            .dwcfi  restore_state
    2383                    ;** --------------------------------------------------------------------------*
    2384 000005f4           $C$L26:    
    2385 000005f4 00000000             NOP             1                 ; [A_L674] 
    2386                            .dwpsn  file "C:/ti/OMAPL138_StarterWare_1_10_04_01/drivers/edma.c",line 381,column 9,is_stmt,
    2387 000005f8 0294adca             CLR     .S2     B5,5,13,B5        ; [B_Sb674] |381| 
    2388 000005fc 029002f6             STW     .D2T2   B5,*B4(0)         ; [B_D64P] |381| 
    2389                            .dwpsn  file "C:/ti/OMAPL138_StarterWare_1_10_04_01/drivers/edma.c",line 382,column 9,is_stmt,
    2390 00000600     105d             LDW     .D2T2   *B4(0),B5         ; [B_D64P] |382| 
    2391                            .dwpsn  file "C:/ti/OMAPL138_StarterWare_1_10_04_01/drivers/edma.c",line 391,column 1,is_stmt,
    2392                    $C$DW$134       .dwtag  DW_TAG_TI_branch
    2393                            .dwattr $C$DW$134, DW_AT_low_pc(0x00)
    2394                            .dwattr $C$DW$134, DW_AT_TI_return
    2395                    
    2396 00000602     61ef             RETNOP          B3,3              ; [] |391| 
    2397                            .dwpsn  file "C:/ti/OMAPL138_StarterWare_1_10_04_01/drivers/edma.c",line 382,column 9,is_stmt,
    2398 00000604 028cbffa             OR      .L2X    A3,B5,B5          ; [B_L674] |382| 
    2399 00000608 029002f6             STW     .D2T2   B5,*B4(0)         ; [B_D64P] |382| 
    2400                            .dwpsn  file "C:/ti/OMAPL138_StarterWare_1_10_04_01/drivers/edma.c",line 391,column 1,is_stmt,
    2401                               ; BRANCH OCCURS {B3}              ; [] |391| 
    2402                            .dwattr $C$DW$126, DW_AT_TI_end_file("C:/ti/OMAPL138_StarterWare_1_10_04_01/drivers/edma.c")
    2403                            .dwattr $C$DW$126, DW_AT_TI_end_line(0x187)
    2404                            .dwattr $C$DW$126, DW_AT_TI_end_column(0x01)
    2405                            .dwendentry
    2406                            .dwendtag $C$DW$126
    2407                    
    2408 0000060c                   .sect   ".text"
    2409                            .clink
    2410                            .global EDMA3IntrStatusHighGet
    2411                    
    2412                    $C$DW$135       .dwtag  DW_TAG_subprogram
    2413                            .dwattr $C$DW$135, DW_AT_name("EDMA3IntrStatusHighGet")
    2414                            .dwattr $C$DW$135, DW_AT_low_pc(EDMA3IntrStatusHighGet)
    2415                            .dwattr $C$DW$135, DW_AT_high_pc(0x00)
    2416                            .dwattr $C$DW$135, DW_AT_TI_symbol_name("EDMA3IntrStatusHighGet")
    2417                            .dwattr $C$DW$135, DW_AT_external
    2418                            .dwattr $C$DW$135, DW_AT_type(*$C$DW$T$11)
    2419                            .dwattr $C$DW$135, DW_AT_TI_begin_file("C:/ti/OMAPL138_StarterWare_1_10_04_01/drivers/edma.c")
    2420                            .dwattr $C$DW$135, DW_AT_TI_begin_line(0x2a6)
TMS320C6x Assembler PC v8.1.3 Thu Apr 20 04:41:39 2017

Tools Copyright (c) 1996-2015 Texas Instruments Incorporated
edma.asm                                                             PAGE   45

    2421                            .dwattr $C$DW$135, DW_AT_TI_begin_column(0x0e)
    2422                            .dwattr $C$DW$135, DW_AT_decl_file("C:/ti/OMAPL138_StarterWare_1_10_04_01/drivers/edma.c")
    2423                            .dwattr $C$DW$135, DW_AT_decl_line(0x2a6)
    2424                            .dwattr $C$DW$135, DW_AT_decl_column(0x0e)
    2425                            .dwattr $C$DW$135, DW_AT_TI_max_frame_size(0x00)
    2426                            .dwpsn  file "C:/ti/OMAPL138_StarterWare_1_10_04_01/drivers/edma.c",line 679,column 1,is_stmt,
    2427                    
    2428                            .dwfde $C$DW$CIE, EDMA3IntrStatusHighGet
    2429                    $C$DW$136       .dwtag  DW_TAG_formal_parameter
    2430                            .dwattr $C$DW$136, DW_AT_name("baseAdd")
    2431                            .dwattr $C$DW$136, DW_AT_TI_symbol_name("baseAdd")
    2432                            .dwattr $C$DW$136, DW_AT_type(*$C$DW$T$11)
    2433                            .dwattr $C$DW$136, DW_AT_location[DW_OP_reg4]
    2434                    
    2435                    
    2436                    ;******************************************************************************
    2437                    ;* FUNCTION NAME: EDMA3IntrStatusHighGet                                      *
    2438                    ;*                                                                            *
    2439                    ;*   Regs Modified     : A3,A4,B4                                             *
    2440                    ;*   Regs Used         : A3,A4,B3,B4,DP                                       *
    2441                    ;*   Local Frame Size  : 0 Args + 0 Auto + 0 Save = 0 byte                    *
    2442                    ;******************************************************************************
    2443                    EDMA3IntrStatusHighGet:
    2444                    ;** --------------------------------------------------------------------------*
    2445                    $C$DW$137       .dwtag  DW_TAG_variable
    2446                            .dwattr $C$DW$137, DW_AT_name("baseAdd")
    2447                            .dwattr $C$DW$137, DW_AT_TI_symbol_name("baseAdd")
    2448                            .dwattr $C$DW$137, DW_AT_type(*$C$DW$T$62)
    2449                            .dwattr $C$DW$137, DW_AT_location[DW_OP_reg4]
    2450                    
    2451                            .dwcfi  cfa_offset, 0
    2452                            .dwpsn  file "C:/ti/OMAPL138_StarterWare_1_10_04_01/drivers/edma.c",line 682,column 5,is_stmt,
    2453 0000060c 0200006e!            LDW     .D2T2   *+DP(regionId),B4 ; [B_D64P] |682| 
    2454 00000610     6c6e             NOP             4                 ; [A_L674] 
    2455 00000612     2e03             SHL     .S2     B4,9,B4           ; [B_Sb674] |682| 
    2456 00000614     0c6e             NOP             1                 ; [A_L674] 
    2457                    $C$DW$138       .dwtag  DW_TAG_TI_branch
    2458                            .dwattr $C$DW$138, DW_AT_low_pc(0x08)
    2459                            .dwattr $C$DW$138, DW_AT_TI_return
    2460                    
    2461                    
    2462 00000616     9230             ADD     .L1X    A4,B4,A3          ; [A_L674] |682| 
    2463 00000618 02040da9  ||         MVK     .S1     2075,A4           ; [A_S674] |682| 
    2464 00000620 000c0362  ||         RET     .S2     B3                ; [B_Sb674] |685| 
    2465                    
    2466 00000624 020c8a64             LDW     .D1T1   *+A3[A4],A4       ; [A_D64P] |682| 
    2467 00000628 00000000             NOP             4                 ; [A_L674] 
    2468                            .dwpsn  file "C:/ti/OMAPL138_StarterWare_1_10_04_01/drivers/edma.c",line 685,column 1,is_stmt,
    2469                               ; BRANCH OCCURS {B3}              ; [] |685| 
    2470                            .dwattr $C$DW$135, DW_AT_TI_end_file("C:/ti/OMAPL138_StarterWare_1_10_04_01/drivers/edma.c")
    2471                            .dwattr $C$DW$135, DW_AT_TI_end_line(0x2ad)
    2472                            .dwattr $C$DW$135, DW_AT_TI_end_column(0x01)
    2473                            .dwendentry
    2474                            .dwendtag $C$DW$135
    2475                    
TMS320C6x Assembler PC v8.1.3 Thu Apr 20 04:41:39 2017

Tools Copyright (c) 1996-2015 Texas Instruments Incorporated
edma.asm                                                             PAGE   46

    2476 00000628                   .sect   ".text"
    2477                            .clink
    2478                            .global EDMA3Init
    2479                    
    2480                    $C$DW$139       .dwtag  DW_TAG_subprogram
    2481                            .dwattr $C$DW$139, DW_AT_name("EDMA3Init")
    2482                            .dwattr $C$DW$139, DW_AT_low_pc(EDMA3Init)
    2483                            .dwattr $C$DW$139, DW_AT_high_pc(0x00)
    2484                            .dwattr $C$DW$139, DW_AT_TI_symbol_name("EDMA3Init")
    2485                            .dwattr $C$DW$139, DW_AT_external
    2486                            .dwattr $C$DW$139, DW_AT_TI_begin_file("C:/ti/OMAPL138_StarterWare_1_10_04_01/drivers/edma.c")
    2487                            .dwattr $C$DW$139, DW_AT_TI_begin_line(0x4d)
    2488                            .dwattr $C$DW$139, DW_AT_TI_begin_column(0x06)
    2489                            .dwattr $C$DW$139, DW_AT_decl_file("C:/ti/OMAPL138_StarterWare_1_10_04_01/drivers/edma.c")
    2490                            .dwattr $C$DW$139, DW_AT_decl_line(0x4d)
    2491                            .dwattr $C$DW$139, DW_AT_decl_column(0x06)
    2492                            .dwattr $C$DW$139, DW_AT_TI_max_frame_size(0x00)
    2493                            .dwpsn  file "C:/ti/OMAPL138_StarterWare_1_10_04_01/drivers/edma.c",line 79,column 1,is_stmt,a
    2494                    
    2495                            .dwfde $C$DW$CIE, EDMA3Init
    2496                    $C$DW$140       .dwtag  DW_TAG_formal_parameter
    2497                            .dwattr $C$DW$140, DW_AT_name("baseAdd")
    2498                            .dwattr $C$DW$140, DW_AT_TI_symbol_name("baseAdd")
    2499                            .dwattr $C$DW$140, DW_AT_type(*$C$DW$T$11)
    2500                            .dwattr $C$DW$140, DW_AT_location[DW_OP_reg4]
    2501                    
    2502                    $C$DW$141       .dwtag  DW_TAG_formal_parameter
    2503                            .dwattr $C$DW$141, DW_AT_name("queNum")
    2504                            .dwattr $C$DW$141, DW_AT_TI_symbol_name("queNum")
    2505                            .dwattr $C$DW$141, DW_AT_type(*$C$DW$T$11)
    2506                            .dwattr $C$DW$141, DW_AT_location[DW_OP_reg20]
    2507                    
    2508                    
    2509                    ;******************************************************************************
    2510                    ;* FUNCTION NAME: EDMA3Init                                                   *
    2511                    ;*                                                                            *
    2512                    ;*   Regs Modified     : A3,A4,A5,A6,A7,A8,A31,B4,B5,B6,B7,B8                 *
    2513                    ;*   Regs Used         : A3,A4,A5,A6,A7,A8,A31,B3,B4,B5,B6,B7,B8,DP           *
    2514                    ;*   Local Frame Size  : 0 Args + 0 Auto + 0 Save = 0 byte                    *
    2515                    ;******************************************************************************
    2516                    EDMA3Init:
    2517                    ;** --------------------------------------------------------------------------*
    2518                    $C$DW$142       .dwtag  DW_TAG_variable
    2519                            .dwattr $C$DW$142, DW_AT_name("count")
    2520                            .dwattr $C$DW$142, DW_AT_TI_symbol_name("count")
    2521                            .dwattr $C$DW$142, DW_AT_type(*$C$DW$T$11)
    2522                            .dwattr $C$DW$142, DW_AT_location[DW_OP_reg22]
    2523                    
    2524                    $C$DW$143       .dwtag  DW_TAG_variable
    2525                            .dwattr $C$DW$143, DW_AT_name("count")
    2526                            .dwattr $C$DW$143, DW_AT_TI_symbol_name("count")
    2527                            .dwattr $C$DW$143, DW_AT_type(*$C$DW$T$11)
    2528                            .dwattr $C$DW$143, DW_AT_location[DW_OP_reg6]
    2529                    
    2530                    $C$DW$144       .dwtag  DW_TAG_variable
TMS320C6x Assembler PC v8.1.3 Thu Apr 20 04:41:39 2017

Tools Copyright (c) 1996-2015 Texas Instruments Incorporated
edma.asm                                                             PAGE   47

    2531                            .dwattr $C$DW$144, DW_AT_name("queNum")
    2532                            .dwattr $C$DW$144, DW_AT_TI_symbol_name("queNum")
    2533                            .dwattr $C$DW$144, DW_AT_type(*$C$DW$T$62)
    2534                            .dwattr $C$DW$144, DW_AT_location[DW_OP_reg20]
    2535                    
    2536                    $C$DW$145       .dwtag  DW_TAG_variable
    2537                            .dwattr $C$DW$145, DW_AT_name("baseAdd")
    2538                            .dwattr $C$DW$145, DW_AT_TI_symbol_name("baseAdd")
    2539                            .dwattr $C$DW$145, DW_AT_type(*$C$DW$T$62)
    2540                            .dwattr $C$DW$145, DW_AT_location[DW_OP_reg5]
    2541                    
    2542                            .dwcfi  cfa_offset, 0
    2543                            .dwpsn  file "C:/ti/OMAPL138_StarterWare_1_10_04_01/drivers/edma.c",line 85,column 5,is_stmt,i
    2544                    
    2545 00000628 02818429             MVK     .S1     776,A5            ; [A_S674] |92| 
    2546 0000062c     26a7  ||         MVK     .L2     1,B5              ; [B_L674] |85| 
    2547                    
    2548 0000062e     a250             ADD     .L1     A5,A4,A5          ; [A_L674] |92| 
    2549 00000630 0417c05b  ||         ADD     .L2     -2,B5,B8          ; [B_L674] 
    2550 00000634 0280007e! ||         STW     .D2T2   B5,*+DP(regionId) ; [B_D64P] |85| 
    2551                    
    2552                            .dwpsn  file "C:/ti/OMAPL138_StarterWare_1_10_04_01/drivers/edma.c",line 92,column 5,is_stmt,i
    2553 00000638 04140276             STW     .D1T2   B8,*A5(0)         ; [A_D64P] |92| 
    2554                            .dwpsn  file "C:/ti/OMAPL138_StarterWare_1_10_04_01/drivers/edma.c",line 93,column 5,is_stmt,i
    2555 00000640 04142276             STW     .D1T2   B8,*A5(4)         ; [A_D64P] |93| 
    2556                            .dwpsn  file "C:/ti/OMAPL138_StarterWare_1_10_04_01/drivers/edma.c",line 95,column 5,is_stmt,i
    2557 00000644 04146276             STW     .D1T2   B8,*A5(12)        ; [A_D64P] |95| 
    2558                            .dwpsn  file "C:/ti/OMAPL138_StarterWare_1_10_04_01/drivers/edma.c",line 98,column 5,is_stmt,i
    2559 00000648 0414a276             STW     .D1T2   B8,*A5(20)        ; [A_D64P] |98| 
    2560                            .dwpsn  file "C:/ti/OMAPL138_StarterWare_1_10_04_01/drivers/edma.c",line 103,column 5,is_stmt,
    2561                    
    2562 0000064c 04160277             STW     .D1T2   B8,*A5(64)        ; [A_D64P] |103| 
    2563 00000650     03b3  ||         MVK     .S2     0x20,B7           ; [B_Sb674] |117| 
    2564                    
    2565                            .dwpsn  file "C:/ti/OMAPL138_StarterWare_1_10_04_01/drivers/edma.c",line 104,column 5,is_stmt,
    2566                    
    2567 00000654 04162276             STW     .D1T2   B8,*A5(68)        ; [A_D64P] |104| 
    2568 00000652     eff1  ||         SUB     .L2     B7,1,B7           ; [B_L674] 
    2569                    
    2570 00000658     dbef             MVC     .S2     B7,ILC            ; [B_Sb674] 
    2571                    ;*----------------------------------------------------------------------------*
    2572                    ;*   SOFTWARE PIPELINE INFORMATION
    2573                    ;*
    2574                    ;*      Loop found in file               : C:/ti/OMAPL138_StarterWare_1_10_04_01/drivers/edma.c
    2575                    ;*      Loop source line                 : 117
    2576                    ;*      Loop opening brace source line   : 118
    2577                    ;*      Loop closing brace source line   : 123
    2578                    ;*      Known Minimum Trip Count         : 32                    
    2579                    ;*      Known Maximum Trip Count         : 32                    
    2580                    ;*      Known Max Trip Count Factor      : 32
    2581                    ;*      Loop Carried Dependency Bound(^) : 14
    2582                    ;*      Unpartitioned Resource Bound     : 3
    2583                    ;*      Partitioned Resource Bound(*)    : 4
    2584                    ;*      Resource Partition:
    2585                    ;*                                A-side   B-side
TMS320C6x Assembler PC v8.1.3 Thu Apr 20 04:41:39 2017

Tools Copyright (c) 1996-2015 Texas Instruments Incorporated
edma.asm                                                             PAGE   48

    2586                    ;*      .L units                     0        0     
    2587                    ;*      .S units                     4*       1     
    2588                    ;*      .D units                     0        4*    
    2589                    ;*      .M units                     0        0     
    2590                    ;*      .X cross paths               0        3     
    2591                    ;*      .T address paths             0        4     
    2592                    ;*      Logical  ops (.LS)           0        0     (.L or .S unit)
    2593                    ;*      Addition ops (.LSD)          4        4     (.L or .S or .D unit)
    2594                    ;*      Bound(.L .S .LS)             2        1     
    2595                    ;*      Bound(.L .S .D .LS .LSD)     3*       3*    
    2596                    ;*
    2597                    ;*      Searching for software pipeline schedule at ...
    2598                    ;*         ii = 14 Schedule found with 2 iterations in parallel
    2599                    ;*      Done
    2600                    ;*
    2601                    ;*      Loop will be splooped
    2602                    ;*      Collapsed epilog stages       : 0
    2603                    ;*      Collapsed prolog stages       : 0
    2604                    ;*      Minimum required memory pad   : 0 bytes
    2605                    ;*
    2606                    ;*      Minimum safe trip count       : 1
    2607                    ;*----------------------------------------------------------------------------*
    2608 00000660           $C$L27:    ; PIPED LOOP PROLOG
    2609                            .dwpsn  file "C:/ti/OMAPL138_StarterWare_1_10_04_01/drivers/edma.c",line 117,column 10,is_stmt
    2610                    
    2611 00000660     4ee7             SPLOOPD         14                ;28 ; [A_L674] (P) 
    2612 00000662     0312  ||         ZERO    .S1     A6                ; [A_S674] |117| 
    2613                    
    2614                    ;** --------------------------------------------------------------------------*
    2615 00000664           $C$L28:    ; PIPED LOOP KERNEL
    2616                            .dwpsn  file "C:/ti/OMAPL138_StarterWare_1_10_04_01/drivers/edma.c",line 119,column 10,is_stmt
    2617                    
    2618 00000664 0398ef59             AND     .L1     7,A6,A7           ; [A_L674] |119| (P) <0,0> 
    2619 00000668 019829a0  ||         SHRU    .S1     A6,1,A3           ; [A_S674] |119| (P) <0,0> 
    2620                    
    2621                            .dwpsn  file "C:/ti/OMAPL138_StarterWare_1_10_04_01/drivers/edma.c",line 79,column 1,is_stmt,i
    2622                    
    2623 0000066c     2d66             SPMASK                            ; [] 
    2624 0000066e     a24e  ||^        MV      .S1     A4,A5             ; [A_S674] |79| 
    2625 00000670 018f8f58  ||         AND     .L1     -4,A3,A3          ; [A_L674] |119| (P) <0,1> 
    2626                    
    2627                            .dwpsn  file "C:/ti/OMAPL138_StarterWare_1_10_04_01/drivers/edma.c",line 119,column 10,is_stmt
    2628 00000674 018ca078             ADD     .L1     A5,A3,A3          ; [A_L674] |119| (P) <0,2> 
    2629 00000678 01812050             ADDK    .S1     576,A3            ; [A_S674] |119| (P) <0,3> 
    2630 00000680     0c6e             NOP             1                 ; [A_L674] 
    2631 00000682     d1c7             MV      .L2X    A3,B6             ; [B_L674] |119| (P) <0,5> 
    2632 00000684     115d             LDW     .D2T2   *B6(0),B5         ; [B_D64P] |119| (P) <0,6>  ^ 
    2633                    
    2634 00000686     2c67             SPMASK                            ; [] 
    2635 00000688 0210ff59  ||^        AND     .L1X    7,B4,A4           ; [A_L674] 
    2636 0000068c 019c4ca0  ||         SHL     .S1     A7,2,A3           ; [A_S674] |119| (P) <0,7> 
    2637                    
    2638                            .dwpsn  file "C:/ti/OMAPL138_StarterWare_1_10_04_01/drivers/edma.c",line 121,column 10,is_stmt
    2639 00000690 04106ce0             SHL     .S1     A4,A3,A8          ; [A_S674] |121| (P) <0,8> 
    2640                            .dwpsn  file "C:/ti/OMAPL138_StarterWare_1_10_04_01/drivers/edma.c",line 119,column 10,is_stmt
TMS320C6x Assembler PC v8.1.3 Thu Apr 20 04:41:39 2017

Tools Copyright (c) 1996-2015 Texas Instruments Incorporated
edma.asm                                                             PAGE   49

    2641                    
    2642 00000694     2e66             SPMASK                            ; [] 
    2643 00000696     e393  ||^        MVK     .S2     7,B7              ; [B_Sb674] |119| 
    2644 00000698 020c1fda  ||         MV      .L2X    A3,B4             ; [B_L674] |119| (P) <0,9> Define a twin register
    2645                    
    2646 000006a0 021c8ce2             SHL     .S2     B7,B4,B4          ; [B_Sb674] |119| (P) <0,10> 
    2647 000006a4 0210af9a             ANDN    .L2     B5,B4,B4          ; [B_L674] |119| (P) <0,11>  ^ 
    2648 000006a8     1145             STW     .D2T2   B4,*B6(0)         ; [B_D64P] |119| (P) <0,12>  ^ 
    2649                            .dwpsn  file "C:/ti/OMAPL138_StarterWare_1_10_04_01/drivers/edma.c",line 117,column 20,is_stmt
    2650                    
    2651 000006aa     2760             ADD     .L1     1,A6,A6           ; [A_L674] |117| (P) <0,13> 
    2652 000006ac     114d  ||         LDW     .D2T2   *B6(0),B4         ; [B_D64P] |121| (P) <0,13>  ^ 
    2653                    
    2654 000006ae     6c6e             NOP             4                 ; [A_L674] 
    2655                            .dwpsn  file "C:/ti/OMAPL138_StarterWare_1_10_04_01/drivers/edma.c",line 121,column 10,is_stmt
    2656 000006b0 02209ffa             OR      .L2X    A8,B4,B4          ; [B_L674] |121| <0,18>  ^ 
    2657                    
    2658 000006b4     1c66             SPKERNEL        0,0               ; [] 
    2659 000006b6     1145  ||         STW     .D2T2   B4,*B6(0)         ; [B_D64P] |121| <0,19>  ^ 
    2660                    
    2661                    ;** --------------------------------------------------------------------------*
    2662 000006c0           $C$L29:    ; PIPED LOOP EPILOG
    2663                            .dwpsn  file "C:/ti/OMAPL138_StarterWare_1_10_04_01/drivers/edma.c",line 127,column 5,is_stmt,
    2664                    
    2665 000006c0     c2c6             MV      .L1     A5,A6             ; [A_L674] 
    2666 000006c2     e7a7  ||         MVK     .L2     7,B7              ; [B_L674] |130| 
    2667 000006c4     25f2  ||         MVK     .S1     225,A3            ; [A_S674] |127| 
    2668                    
    2669                            .dwpsn  file "C:/ti/OMAPL138_StarterWare_1_10_04_01/drivers/edma.c",line 132,column 9,is_stmt,
    2670                    
    2671 000006c6     b247             MV      .L2X    A4,B5             ; [B_L674] 
    2672 000006c8 0f813028  ||         MVK     .S1     608,A31           ; [A_S674] |132| 
    2673                    
    2674 000006cc     4c6e             NOP             3                 ; [A_L674] 
    2675                            .dwpsn  file "C:/ti/OMAPL138_StarterWare_1_10_04_01/drivers/edma.c",line 130,column 10,is_stmt
    2676 000006ce     0727             ZERO    .L2     B6                ; [B_L674] |130| 
    2677                    ;** --------------------------------------------------------------------------*
    2678                            .dwpsn  file "C:/ti/OMAPL138_StarterWare_1_10_04_01/drivers/edma.c",line 127,column 5,is_stmt,
    2679 000006d0 04146a76             STW     .D1T2   B8,*+A5[A3]       ; [A_D64P] |127| 
    2680 000006d4     dbef             MVC     .S2     B7,ILC            ; [B_Sb674] 
    2681                    ;*----------------------------------------------------------------------------*
    2682                    ;*   SOFTWARE PIPELINE INFORMATION
    2683                    ;*
    2684                    ;*      Loop found in file               : C:/ti/OMAPL138_StarterWare_1_10_04_01/drivers/edma.c
    2685                    ;*      Loop source line                 : 130
    2686                    ;*      Loop opening brace source line   : 131
    2687                    ;*      Loop closing brace source line   : 135
    2688                    ;*      Known Minimum Trip Count         : 8                    
    2689                    ;*      Known Maximum Trip Count         : 8                    
    2690                    ;*      Known Max Trip Count Factor      : 8
    2691                    ;*      Loop Carried Dependency Bound(^) : 14
    2692                    ;*      Unpartitioned Resource Bound     : 2
    2693                    ;*      Partitioned Resource Bound(*)    : 4
    2694                    ;*      Resource Partition:
    2695                    ;*                                A-side   B-side
TMS320C6x Assembler PC v8.1.3 Thu Apr 20 04:41:39 2017

Tools Copyright (c) 1996-2015 Texas Instruments Incorporated
edma.asm                                                             PAGE   50

    2696                    ;*      .L units                     0        0     
    2697                    ;*      .S units                     0        3*    
    2698                    ;*      .D units                     4*       0     
    2699                    ;*      .M units                     0        0     
    2700                    ;*      .X cross paths               2        0     
    2701                    ;*      .T address paths             4        0     
    2702                    ;*      Logical  ops (.LS)           0        0     (.L or .S unit)
    2703                    ;*      Addition ops (.LSD)          3        1     (.L or .S or .D unit)
    2704                    ;*      Bound(.L .S .LS)             0        2*    
    2705                    ;*      Bound(.L .S .D .LS .LSD)     3*       2*    
    2706                    ;*
    2707                    ;*      Searching for software pipeline schedule at ...
    2708                    ;*         ii = 14 Schedule found with 2 iterations in parallel
    2709                    ;*      Done
    2710                    ;*
    2711                    ;*      Loop will be splooped
    2712                    ;*      Collapsed epilog stages       : 0
    2713                    ;*      Collapsed prolog stages       : 0
    2714                    ;*      Minimum required memory pad   : 0 bytes
    2715                    ;*
    2716                    ;*      Minimum safe trip count       : 1
    2717                    ;*----------------------------------------------------------------------------*
    2718 000006d6           $C$L30:    ; PIPED LOOP PROLOG
    2719                    
    2720 000006d6     4ee7             SPLOOPD         14                ;28 ; [A_L674] (P) 
    2721 000006d8     af8e  ||         MV      .S1     A31,A5            ; [A_S674] 
    2722                    
    2723                    ;** --------------------------------------------------------------------------*
    2724 000006da           $C$L31:    ; PIPED LOOP KERNEL
    2725                            .dwpsn  file "C:/ti/OMAPL138_StarterWare_1_10_04_01/drivers/edma.c",line 132,column 9,is_stmt,
    2726 000006da     a340             ADD     .L1     A5,A6,A4          ; [A_L674] |132| (P) <0,0> 
    2727 000006e0     003c             LDW     .D1T1   *A4(0),A3         ; [A_D64P] |132| (P) <0,1>  ^ 
    2728 000006e2     0c6e             NOP             1                 ; [A_L674] 
    2729                    
    2730 000006e4     2ce6             SPMASK                            ; [] 
    2731 000006e8 041ca35a  ||^        MVK     .L2     7,B8              ; [B_L674] |132| 
    2732 000006e6     477b  ||         SHL     .S2     B6,2,B7           ; [B_Sb674] |132| (P) <0,3> 
    2733                    
    2734 000006ec 0220ece2             SHL     .S2     B8,B7,B4          ; [B_Sb674] |132| (P) <0,4> 
    2735                            .dwpsn  file "C:/ti/OMAPL138_StarterWare_1_10_04_01/drivers/edma.c",line 133,column 9,is_stmt,
    2736 000006f0 0394ece2             SHL     .S2     B5,B7,B7          ; [B_Sb674] |133| (P) <0,5> 
    2737                            .dwpsn  file "C:/ti/OMAPL138_StarterWare_1_10_04_01/drivers/edma.c",line 132,column 9,is_stmt,
    2738 000006f4 01907f98             ANDN    .L1X    A3,B4,A3          ; [A_L674] |132| (P) <0,6>  ^ 
    2739 000006f8     0034             STW     .D1T1   A3,*A4(0)         ; [A_D64P] |132| (P) <0,7>  ^ 
    2740                            .dwpsn  file "C:/ti/OMAPL138_StarterWare_1_10_04_01/drivers/edma.c",line 133,column 9,is_stmt,
    2741 000006fa     003c             LDW     .D1T1   *A4(0),A3         ; [A_D64P] |133| (P) <0,8>  ^ 
    2742 00000700 00006000             NOP             4                 ; [A_L674] 
    2743 00000704 019c7ff8             OR      .L1X    B7,A3,A3          ; [A_L674] |133| (P) <0,13>  ^ 
    2744                            .dwpsn  file "C:/ti/OMAPL138_StarterWare_1_10_04_01/drivers/edma.c",line 130,column 20,is_stmt
    2745                    
    2746 00000708     1c66             SPKERNEL        0,0               ; [] 
    2747 0000070a     2761  ||         ADD     .L2     1,B6,B6           ; [B_L674] |130| <0,14> 
    2748 0000070c     0034  ||         STW     .D1T1   A3,*A4(0)         ; [A_D64P] |133| <0,14>  ^ 
    2749                    
    2750                    ;** --------------------------------------------------------------------------*
TMS320C6x Assembler PC v8.1.3 Thu Apr 20 04:41:39 2017

Tools Copyright (c) 1996-2015 Texas Instruments Incorporated
edma.asm                                                             PAGE   51

    2751 0000070e           $C$L32:    ; PIPED LOOP EPILOG
    2752                            .dwpsn  file "C:/ti/OMAPL138_StarterWare_1_10_04_01/drivers/edma.c",line 136,column 1,is_stmt,
    2753                    $C$DW$146       .dwtag  DW_TAG_TI_branch
    2754                            .dwattr $C$DW$146, DW_AT_low_pc(0x00)
    2755                            .dwattr $C$DW$146, DW_AT_TI_return
    2756                    
    2757 0000070e     a1ef             RETNOP          B3,5              ; [] |136| 
    2758                               ; BRANCH OCCURS {B3}              ; [] |136| 
    2759                            .dwattr $C$DW$139, DW_AT_TI_end_file("C:/ti/OMAPL138_StarterWare_1_10_04_01/drivers/edma.c")
    2760                            .dwattr $C$DW$139, DW_AT_TI_end_line(0x88)
    2761                            .dwattr $C$DW$139, DW_AT_TI_end_column(0x01)
    2762                            .dwendentry
    2763                            .dwendtag $C$DW$139
    2764                    
    2765 00000710                   .sect   ".text"
    2766                            .clink
    2767                            .global EDMA3GetPaRAM
    2768                    
    2769                    $C$DW$147       .dwtag  DW_TAG_subprogram
    2770                            .dwattr $C$DW$147, DW_AT_name("EDMA3GetPaRAM")
    2771                            .dwattr $C$DW$147, DW_AT_low_pc(EDMA3GetPaRAM)
    2772                            .dwattr $C$DW$147, DW_AT_high_pc(0x00)
    2773                            .dwattr $C$DW$147, DW_AT_TI_symbol_name("EDMA3GetPaRAM")
    2774                            .dwattr $C$DW$147, DW_AT_external
    2775                            .dwattr $C$DW$147, DW_AT_TI_begin_file("C:/ti/OMAPL138_StarterWare_1_10_04_01/drivers/edma.c")
    2776                            .dwattr $C$DW$147, DW_AT_TI_begin_line(0x33f)
    2777                            .dwattr $C$DW$147, DW_AT_TI_begin_column(0x06)
    2778                            .dwattr $C$DW$147, DW_AT_decl_file("C:/ti/OMAPL138_StarterWare_1_10_04_01/drivers/edma.c")
    2779                            .dwattr $C$DW$147, DW_AT_decl_line(0x33f)
    2780                            .dwattr $C$DW$147, DW_AT_decl_column(0x06)
    2781                            .dwattr $C$DW$147, DW_AT_TI_max_frame_size(0x00)
    2782                            .dwpsn  file "C:/ti/OMAPL138_StarterWare_1_10_04_01/drivers/edma.c",line 834,column 1,is_stmt,
    2783                    
    2784                            .dwfde $C$DW$CIE, EDMA3GetPaRAM
    2785                    $C$DW$148       .dwtag  DW_TAG_formal_parameter
    2786                            .dwattr $C$DW$148, DW_AT_name("baseAdd")
    2787                            .dwattr $C$DW$148, DW_AT_TI_symbol_name("baseAdd")
    2788                            .dwattr $C$DW$148, DW_AT_type(*$C$DW$T$11)
    2789                            .dwattr $C$DW$148, DW_AT_location[DW_OP_reg4]
    2790                    
    2791                    $C$DW$149       .dwtag  DW_TAG_formal_parameter
    2792                            .dwattr $C$DW$149, DW_AT_name("PaRAMId")
    2793                            .dwattr $C$DW$149, DW_AT_TI_symbol_name("PaRAMId")
    2794                            .dwattr $C$DW$149, DW_AT_type(*$C$DW$T$11)
    2795                            .dwattr $C$DW$149, DW_AT_location[DW_OP_reg20]
    2796                    
    2797                    $C$DW$150       .dwtag  DW_TAG_formal_parameter
    2798                            .dwattr $C$DW$150, DW_AT_name("currPaRAM")
    2799                            .dwattr $C$DW$150, DW_AT_TI_symbol_name("currPaRAM")
    2800                            .dwattr $C$DW$150, DW_AT_type(*$C$DW$T$34)
    2801                            .dwattr $C$DW$150, DW_AT_location[DW_OP_reg6]
    2802                    
    2803                    
    2804                    ;******************************************************************************
    2805                    ;* FUNCTION NAME: EDMA3GetPaRAM                                               *
TMS320C6x Assembler PC v8.1.3 Thu Apr 20 04:41:39 2017

Tools Copyright (c) 1996-2015 Texas Instruments Incorporated
edma.asm                                                             PAGE   52

    2806                    ;*                                                                            *
    2807                    ;*   Regs Modified     : A3,A4,A5,A7,B0,B4,B5                                 *
    2808                    ;*   Regs Used         : A3,A4,A5,A6,A7,B0,B3,B4,B5                           *
    2809                    ;*   Local Frame Size  : 0 Args + 0 Auto + 0 Save = 0 byte                    *
    2810                    ;******************************************************************************
    2811                    EDMA3GetPaRAM:
    2812                    ;** --------------------------------------------------------------------------*
    2813                    $C$DW$151       .dwtag  DW_TAG_variable
    2814                            .dwattr $C$DW$151, DW_AT_name("PaRAMId")
    2815                            .dwattr $C$DW$151, DW_AT_TI_symbol_name("PaRAMId")
    2816                            .dwattr $C$DW$151, DW_AT_type(*$C$DW$T$62)
    2817                            .dwattr $C$DW$151, DW_AT_location[DW_OP_reg20]
    2818                    
    2819                    $C$DW$152       .dwtag  DW_TAG_variable
    2820                            .dwattr $C$DW$152, DW_AT_name("sr")
    2821                            .dwattr $C$DW$152, DW_AT_TI_symbol_name("sr")
    2822                            .dwattr $C$DW$152, DW_AT_type(*$C$DW$T$43)
    2823                            .dwattr $C$DW$152, DW_AT_location[DW_OP_reg3]
    2824                    
    2825                    $C$DW$153       .dwtag  DW_TAG_variable
    2826                            .dwattr $C$DW$153, DW_AT_name("ds")
    2827                            .dwattr $C$DW$153, DW_AT_TI_symbol_name("ds")
    2828                            .dwattr $C$DW$153, DW_AT_type(*$C$DW$T$43)
    2829                            .dwattr $C$DW$153, DW_AT_location[DW_OP_reg6]
    2830                    
    2831                            .dwcfi  cfa_offset, 0
    2832                            .dwpsn  file "C:/ti/OMAPL138_StarterWare_1_10_04_01/drivers/edma.c",line 839,column 5,is_stmt,
    2833                    
    2834 00000710     0ea7             MVK     .L2     8,B5              ; [B_L674] 
    2835 00000712     a603  ||         SHL     .S2     B4,5,B4           ; [B_Sb674] |839| 
    2836                    
    2837                            .dwpsn  file "C:/ti/OMAPL138_StarterWare_1_10_04_01/drivers/edma.c",line 841,column 13,is_stmt
    2838 00000714 02a01028             MVK     .S1     16416,A5          ; [A_S674] |841| 
    2839                            .dwpsn  file "C:/ti/OMAPL138_StarterWare_1_10_04_01/drivers/edma.c",line 839,column 5,is_stmt,
    2840                    
    2841 00000720 01909078             ADD     .L1X    A4,B4,A3          ; [A_L674] |839| 
    2842 00000718 02600fab  ||         MVK     .S2     -16353,B4         ; [B_Sb674] |841| 
    2843                    
    2844 00000724 01a00050             ADDK    .S1     16384,A3          ; [A_S674] |839| 
    2845                            .dwpsn  file "C:/ti/OMAPL138_StarterWare_1_10_04_01/drivers/edma.c",line 841,column 13,is_stmt
    2846                    
    2847 00000728     6b70             SUB     .L1     A3,A6,A7          ; [A_L674] |841| 
    2848 0000072a     c9ca  ||         SUB     .S1     A6,A3,A4          ; [A_S674] |841| 
    2849                    
    2850 0000072c 02148af8             CMPLT   .L1     A4,A5,A4          ; [A_L674] |841| 
    2851 00000730 021c9afa             CMPGT   .L2X    A7,B4,B4          ; [B_L674] |841| 
    2852 00000734     fa67             XOR     .L2     1,B4,B4           ; [B_L674] |841| 
    2853                    
    2854 00000736     9609             AND     .L2X    B4,A4,B0          ; [B_L674] |841| 
    2855 00000738 021406a2  ||         MV      .S2     B5,B4             ; [B_Sb674] |841| 
    2856                    
    2857 00000740 300c6121     [!B0]   BNOP            $C$L36,3          ; [] |841| 
    2858 00000744 2293e05b  || [ B0]   SUB     .L2     B4,1,B5           ; [B_L674] 
    2859 00000748 329781a2  || [!B0]   SUB     .S2     B5,4,B5           ; [B_Sb674] 
    2860                    
TMS320C6x Assembler PC v8.1.3 Thu Apr 20 04:41:39 2017

Tools Copyright (c) 1996-2015 Texas Instruments Incorporated
edma.asm                                                             PAGE   53

    2861 0000074c 269403a2     [ B0]   MVC     .S2     B5,ILC            ; [B_Sb674] 
    2862 00000750 369403a2     [!B0]   MVC     .S2     B5,ILC            ; [B_Sb674] 
    2863                               ; BRANCHCC OCCURS {$C$L36}        ; [] |841| 
    2864                    ;*----------------------------------------------------------------------------*
    2865                    ;*   SOFTWARE PIPELINE INFORMATION
    2866                    ;*
    2867                    ;*      Loop found in file               : C:/ti/OMAPL138_StarterWare_1_10_04_01/drivers/edma.c
    2868                    ;*      Loop source line                 : 841
    2869                    ;*      Loop opening brace source line   : 842
    2870                    ;*      Loop closing brace source line   : 844
    2871                    ;*      Known Minimum Trip Count         : 8                    
    2872                    ;*      Known Maximum Trip Count         : 8                    
    2873                    ;*      Known Max Trip Count Factor      : 8
    2874                    ;*      Loop Carried Dependency Bound(^) : 6
    2875                    ;*      Unpartitioned Resource Bound     : 1
    2876                    ;*      Partitioned Resource Bound(*)    : 2
    2877                    ;*      Resource Partition:
    2878                    ;*                                A-side   B-side
    2879                    ;*      .L units                     0        0     
    2880                    ;*      .S units                     0        0     
    2881                    ;*      .D units                     1*       1*    
    2882                    ;*      .M units                     0        0     
    2883                    ;*      .X cross paths               0        0     
    2884                    ;*      .T address paths             0        2     
    2885                    ;*      Logical  ops (.LS)           0        0     (.L or .S unit)
    2886                    ;*      Addition ops (.LSD)          0        0     (.L or .S or .D unit)
    2887                    ;*      Bound(.L .S .LS)             0        0     
    2888                    ;*      Bound(.L .S .D .LS .LSD)     1*       1*    
    2889                    ;*
    2890                    ;*      Searching for software pipeline schedule at ...
    2891                    ;*         ii = 6  Schedule found with 2 iterations in parallel
    2892                    ;*      Done
    2893                    ;*
    2894                    ;*      Loop will be splooped
    2895                    ;*      Collapsed epilog stages       : 0
    2896                    ;*      Collapsed prolog stages       : 0
    2897                    ;*      Minimum required memory pad   : 0 bytes
    2898                    ;*
    2899                    ;*      Minimum safe trip count       : 1
    2900                    ;*
    2901                    ;*      (Performance) Consider adding the restrict qualifier to the definition of currPaRAM if they do
    2902                    ;*
    2903                    ;*      (Performance) Consider adding assertions to indicate n-byte alignment of variables currPaRAM i
    2904                    ;*----------------------------------------------------------------------------*
    2905 00000754           $C$L33:    ; PIPED LOOP PROLOG
    2906                            .dwcfi  remember_state
    2907 00000754 0283a000             SPLOOPD         6                 ;12 ; [A_L674] (P) 
    2908                    ;** --------------------------------------------------------------------------*
    2909 00000758           $C$L34:    ; PIPED LOOP KERNEL
    2910                            .dwpsn  file "C:/ti/OMAPL138_StarterWare_1_10_04_01/drivers/edma.c",line 843,column 9,is_stmt,
    2911 00000758 020c3666             LDW     .D1T2   *A3++(4),B4       ; [A_D64P] |843| (P) <0,0>  ^ 
    2912 0000075c 00004000             NOP             3                 ; [A_L674] 
    2913                    
    2914 00000760     2ce6             SPMASK                            ; [] 
    2915 00000762     b347  ||^        MV      .L2X    A6,B5             ; [B_L674] 
TMS320C6x Assembler PC v8.1.3 Thu Apr 20 04:41:39 2017

Tools Copyright (c) 1996-2015 Texas Instruments Incorporated
edma.asm                                                             PAGE   54

    2916                    
    2917 00000764     1cc5             STW     .D2T2   B4,*B5++(4)       ; [B_D64P] |843| (P) <0,5>  ^ 
    2918 00000766     1c66             SPKERNEL        0,0               ; [] 
    2919                    ;** --------------------------------------------------------------------------*
    2920 00000768           $C$L35:    ; PIPED LOOP EPILOG
    2921                            .dwpsn  file "C:/ti/OMAPL138_StarterWare_1_10_04_01/drivers/edma.c",line 845,column 1,is_stmt,
    2922                    $C$DW$154       .dwtag  DW_TAG_TI_branch
    2923                            .dwattr $C$DW$154, DW_AT_low_pc(0x00)
    2924                            .dwattr $C$DW$154, DW_AT_TI_return
    2925                    
    2926 00000768     a1ef             RETNOP          B3,5              ; [] |845| 
    2927                               ; BRANCH OCCURS {B3}              ; [] |845| 
    2928                            .dwcfi  restore_state
    2929                    ;** --------------------------------------------------------------------------*
    2930 0000076a     8ed1             SUB     .L2     B5,4,B5           ; [B_L674] 
    2931 0000076c 069403a2             MVC     .S2     B5,ILC            ; [B_Sb674] 
    2932                    ;*----------------------------------------------------------------------------*
    2933                    ;*   SOFTWARE PIPELINE INFORMATION
    2934                    ;*
    2935                    ;*      Loop found in file               : C:/ti/OMAPL138_StarterWare_1_10_04_01/drivers/edma.c
    2936                    ;*      Loop source line                 : 841
    2937                    ;*      Loop opening brace source line   : 842
    2938                    ;*      Loop closing brace source line   : 844
    2939                    ;*      Known Minimum Trip Count         : 8                    
    2940                    ;*      Known Maximum Trip Count         : 8                    
    2941                    ;*      Known Max Trip Count Factor      : 8
    2942                    ;*      Loop Carried Dependency Bound(^) : 0
    2943                    ;*      Unpartitioned Resource Bound     : 1
    2944                    ;*      Partitioned Resource Bound(*)    : 1
    2945                    ;*      Resource Partition:
    2946                    ;*                                A-side   B-side
    2947                    ;*      .L units                     0        0     
    2948                    ;*      .S units                     0        0     
    2949                    ;*      .D units                     1*       1*    
    2950                    ;*      .M units                     0        0     
    2951                    ;*      .X cross paths               0        1     
    2952                    ;*      .T address paths             1        1     
    2953                    ;*      Logical  ops (.LS)           0        0     (.L or .S unit)
    2954                    ;*      Addition ops (.LSD)          0        1     (.L or .S or .D unit)
    2955                    ;*      Bound(.L .S .LS)             0        0     
    2956                    ;*      Bound(.L .S .D .LS .LSD)     1*       1*    
    2957                    ;*
    2958                    ;*      Searching for software pipeline schedule at ...
    2959                    ;*         ii = 1  Schedule found with 7 iterations in parallel
    2960                    ;*      Done
    2961                    ;*
    2962                    ;*      Loop will be splooped
    2963                    ;*      Collapsed epilog stages       : 0
    2964                    ;*      Collapsed prolog stages       : 0
    2965                    ;*      Minimum required memory pad   : 0 bytes
    2966                    ;*
    2967                    ;*      Minimum safe trip count       : 1
    2968                    ;*----------------------------------------------------------------------------*
    2969 00000770           $C$L36:    ; PIPED LOOP PROLOG
    2970                    
TMS320C6x Assembler PC v8.1.3 Thu Apr 20 04:41:39 2017

Tools Copyright (c) 1996-2015 Texas Instruments Incorporated
edma.asm                                                             PAGE   55

    2971 00000770     0c67             SPLOOPD         1                 ;7 ; [A_L674] (P) 
    2972 00000772     81ce  ||         MV      .S1     A3,A4             ; [A_S674] 
    2973                    
    2974                    ;** --------------------------------------------------------------------------*
    2975 00000774           $C$L37:    ; PIPED LOOP KERNEL
    2976                            .dwpsn  file "C:/ti/OMAPL138_StarterWare_1_10_04_01/drivers/edma.c",line 843,column 9,is_stmt,
    2977 00000774     0c3c             LDW     .D1T1   *A4++(4),A3       ; [A_D64P] |843| (P) <0,0> 
    2978 00000776     4c6e             NOP             3                 ; [A_L674] 
    2979                    
    2980 00000778     2ce6             SPMASK                            ; [] 
    2981 0000077a     b347  ||^        MV      .L2X    A6,B5             ; [B_L674] 
    2982                    
    2983 00000780     91c7             MV      .L2X    A3,B4             ; [B_L674] |843| (P) <0,5> Define a twin register
    2984                    
    2985 00000782     1c66             SPKERNEL        0,0               ; [] 
    2986 00000784     1cc5  ||         STW     .D2T2   B4,*B5++(4)       ; [B_D64P] |843| <0,6> 
    2987                    
    2988                    ;** --------------------------------------------------------------------------*
    2989 00000786           $C$L38:    ; PIPED LOOP EPILOG
    2990                            .dwpsn  file "C:/ti/OMAPL138_StarterWare_1_10_04_01/drivers/edma.c",line 845,column 1,is_stmt,
    2991                    $C$DW$155       .dwtag  DW_TAG_TI_branch
    2992                            .dwattr $C$DW$155, DW_AT_low_pc(0x00)
    2993                            .dwattr $C$DW$155, DW_AT_TI_return
    2994                    
    2995 00000786     a1ef             RETNOP          B3,5              ; [] |845| 
    2996                               ; BRANCH OCCURS {B3}              ; [] |845| 
    2997                            .dwattr $C$DW$147, DW_AT_TI_end_file("C:/ti/OMAPL138_StarterWare_1_10_04_01/drivers/edma.c")
    2998                            .dwattr $C$DW$147, DW_AT_TI_end_line(0x34d)
    2999                            .dwattr $C$DW$147, DW_AT_TI_end_column(0x01)
    3000                            .dwendentry
    3001                            .dwendtag $C$DW$147
    3002                    
    3003 00000788                   .sect   ".text"
    3004                            .clink
    3005                            .global EDMA3GetIntrStatus
    3006                    
    3007                    $C$DW$156       .dwtag  DW_TAG_subprogram
    3008                            .dwattr $C$DW$156, DW_AT_name("EDMA3GetIntrStatus")
    3009                            .dwattr $C$DW$156, DW_AT_low_pc(EDMA3GetIntrStatus)
    3010                            .dwattr $C$DW$156, DW_AT_high_pc(0x00)
    3011                            .dwattr $C$DW$156, DW_AT_TI_symbol_name("EDMA3GetIntrStatus")
    3012                            .dwattr $C$DW$156, DW_AT_external
    3013                            .dwattr $C$DW$156, DW_AT_type(*$C$DW$T$11)
    3014                            .dwattr $C$DW$156, DW_AT_TI_begin_file("C:/ti/OMAPL138_StarterWare_1_10_04_01/drivers/edma.c")
    3015                            .dwattr $C$DW$156, DW_AT_TI_begin_line(0x294)
    3016                            .dwattr $C$DW$156, DW_AT_TI_begin_column(0x0e)
    3017                            .dwattr $C$DW$156, DW_AT_decl_file("C:/ti/OMAPL138_StarterWare_1_10_04_01/drivers/edma.c")
    3018                            .dwattr $C$DW$156, DW_AT_decl_line(0x294)
    3019                            .dwattr $C$DW$156, DW_AT_decl_column(0x0e)
    3020                            .dwattr $C$DW$156, DW_AT_TI_max_frame_size(0x00)
    3021                            .dwpsn  file "C:/ti/OMAPL138_StarterWare_1_10_04_01/drivers/edma.c",line 661,column 1,is_stmt,
    3022                    
    3023                            .dwfde $C$DW$CIE, EDMA3GetIntrStatus
    3024                    $C$DW$157       .dwtag  DW_TAG_formal_parameter
    3025                            .dwattr $C$DW$157, DW_AT_name("baseAdd")
TMS320C6x Assembler PC v8.1.3 Thu Apr 20 04:41:39 2017

Tools Copyright (c) 1996-2015 Texas Instruments Incorporated
edma.asm                                                             PAGE   56

    3026                            .dwattr $C$DW$157, DW_AT_TI_symbol_name("baseAdd")
    3027                            .dwattr $C$DW$157, DW_AT_type(*$C$DW$T$11)
    3028                            .dwattr $C$DW$157, DW_AT_location[DW_OP_reg4]
    3029                    
    3030                    
    3031                    ;******************************************************************************
    3032                    ;* FUNCTION NAME: EDMA3GetIntrStatus                                          *
    3033                    ;*                                                                            *
    3034                    ;*   Regs Modified     : A3,A4,B4                                             *
    3035                    ;*   Regs Used         : A3,A4,B3,B4,DP                                       *
