TMS320C6x Assembler PC v8.1.3 Fri Apr 14 08:40:35 2017

Tools Copyright (c) 1996-2015 Texas Instruments Incorporated
raster.asm                                                           PAGE    1

       1                    ;******************************************************************************
       2                    ;* G3 TMS320C6x C/C++ Codegen                                       PC v8.1.3 *
       3                    ;* Date/Time created: Fri Apr 14 08:40:34 2017                                *
       4                    ;******************************************************************************
       5                            .compiler_opts --abi=eabi --array_alignment=8 --diag_wrap=off --endian=little --hll_source=on 
       6                    
       7                    ;******************************************************************************
       8                    ;* GLOBAL FILE PARAMETERS                                                     *
       9                    ;*                                                                            *
      10                    ;*   Architecture      : TMS320C674x                                          *
      11                    ;*   Optimization      : Enabled at level 3                                   *
      12                    ;*   Optimizing for    : Speed                                                *
      13                    ;*                       Based on options: -o3, no -ms                        *
      14                    ;*   Endian            : Little                                               *
      15                    ;*   Interrupt Thrshld : Disabled                                             *
      16                    ;*   Data Access Model : Far Aggregate Data                                   *
      17                    ;*   Pipelining        : Enabled                                              *
      18                    ;*   Speculate Loads   : Enabled with threshold = 0                           *
      19                    ;*   Memory Aliases    : Presume are aliases (pessimistic)                    *
      20                    ;*   Debug Info        : DWARF Debug                                          *
      21                    ;*                                                                            *
      22                    ;******************************************************************************
      23                    
      24                            .asg    A15, FP
      25                            .asg    B14, DP
      26                            .asg    B15, SP
      27                            .global $bss
      28                    
      29                    
      30                    $C$DW$CU        .dwtag  DW_TAG_compile_unit
      31                            .dwattr $C$DW$CU, DW_AT_name("C:/ti/OMAPL138_StarterWare_1_10_04_01/drivers/raster.c")
      32                            .dwattr $C$DW$CU, DW_AT_producer("TI G3 TMS320C6x C/C++ Codegen PC v8.1.3 Copyright (c) 1996-2
      33                            .dwattr $C$DW$CU, DW_AT_TI_version(0x01)
      34                            .dwattr $C$DW$CU, DW_AT_comp_dir("C:\Users\Raz Aloni\OneDrive\School\EEL4924\DSP\DSP_Workspace
      35                    
      36                    $C$DW$1 .dwtag  DW_TAG_subprogram
      37                            .dwattr $C$DW$1, DW_AT_name("LCDVersionGet")
      38                            .dwattr $C$DW$1, DW_AT_TI_symbol_name("LCDVersionGet")
      39                            .dwattr $C$DW$1, DW_AT_type(*$C$DW$T$11)
      40                            .dwattr $C$DW$1, DW_AT_declaration
      41                            .dwattr $C$DW$1, DW_AT_external
      42                            .dwattr $C$DW$1, DW_AT_decl_file("C:/ti/OMAPL138_StarterWare_1_10_04_01/include/raster.h")
      43                            .dwattr $C$DW$1, DW_AT_decl_line(0x181)
      44                            .dwattr $C$DW$1, DW_AT_decl_column(0x15)
      45                            .dwendtag $C$DW$1
      46                    
      47                    ;       C:\ti\ccsv7\tools\compiler\ti-cgt-c6000_8.1.3\bin\opt6x.exe C:\\Users\\RAZALO~1\\AppData\\Loca
      48 00000000                   .sect   ".text"
      49                            .clink
      50                            .global RasterVparamConfig
      51                    
      52                    $C$DW$2 .dwtag  DW_TAG_subprogram
      53                            .dwattr $C$DW$2, DW_AT_name("RasterVparamConfig")
      54                            .dwattr $C$DW$2, DW_AT_low_pc(RasterVparamConfig)
      55                            .dwattr $C$DW$2, DW_AT_high_pc(0x00)
TMS320C6x Assembler PC v8.1.3 Fri Apr 14 08:40:35 2017

Tools Copyright (c) 1996-2015 Texas Instruments Incorporated
raster.asm                                                           PAGE    2

      56                            .dwattr $C$DW$2, DW_AT_TI_symbol_name("RasterVparamConfig")
      57                            .dwattr $C$DW$2, DW_AT_external
      58                            .dwattr $C$DW$2, DW_AT_TI_begin_file("C:/ti/OMAPL138_StarterWare_1_10_04_01/drivers/raster.c")
      59                            .dwattr $C$DW$2, DW_AT_TI_begin_line(0x1af)
      60                            .dwattr $C$DW$2, DW_AT_TI_begin_column(0x06)
      61                            .dwattr $C$DW$2, DW_AT_decl_file("C:/ti/OMAPL138_StarterWare_1_10_04_01/drivers/raster.c")
      62                            .dwattr $C$DW$2, DW_AT_decl_line(0x1af)
      63                            .dwattr $C$DW$2, DW_AT_decl_column(0x06)
      64                            .dwattr $C$DW$2, DW_AT_TI_max_frame_size(0x20)
      65                            .dwpsn  file "C:/ti/OMAPL138_StarterWare_1_10_04_01/drivers/raster.c",line 434,column 1,is_stm
      66                    
      67                            .dwfde $C$DW$CIE, RasterVparamConfig
      68                    $C$DW$3 .dwtag  DW_TAG_formal_parameter
      69                            .dwattr $C$DW$3, DW_AT_name("baseAddr")
      70                            .dwattr $C$DW$3, DW_AT_TI_symbol_name("baseAddr")
      71                            .dwattr $C$DW$3, DW_AT_type(*$C$DW$T$11)
      72                            .dwattr $C$DW$3, DW_AT_location[DW_OP_reg4]
      73                    
      74                    $C$DW$4 .dwtag  DW_TAG_formal_parameter
      75                            .dwattr $C$DW$4, DW_AT_name("lpp")
      76                            .dwattr $C$DW$4, DW_AT_TI_symbol_name("lpp")
      77                            .dwattr $C$DW$4, DW_AT_type(*$C$DW$T$11)
      78                            .dwattr $C$DW$4, DW_AT_location[DW_OP_reg20]
      79                    
      80                    $C$DW$5 .dwtag  DW_TAG_formal_parameter
      81                            .dwattr $C$DW$5, DW_AT_name("vsw")
      82                            .dwattr $C$DW$5, DW_AT_TI_symbol_name("vsw")
      83                            .dwattr $C$DW$5, DW_AT_type(*$C$DW$T$11)
      84                            .dwattr $C$DW$5, DW_AT_location[DW_OP_reg6]
      85                    
      86                    $C$DW$6 .dwtag  DW_TAG_formal_parameter
      87                            .dwattr $C$DW$6, DW_AT_name("vfp")
      88                            .dwattr $C$DW$6, DW_AT_TI_symbol_name("vfp")
      89                            .dwattr $C$DW$6, DW_AT_type(*$C$DW$T$11)
      90                            .dwattr $C$DW$6, DW_AT_location[DW_OP_reg22]
      91                    
      92                    $C$DW$7 .dwtag  DW_TAG_formal_parameter
      93                            .dwattr $C$DW$7, DW_AT_name("vbp")
      94                            .dwattr $C$DW$7, DW_AT_TI_symbol_name("vbp")
      95                            .dwattr $C$DW$7, DW_AT_type(*$C$DW$T$11)
      96                            .dwattr $C$DW$7, DW_AT_location[DW_OP_reg8]
      97                    
      98                    
      99                    ;******************************************************************************
     100                    ;* FUNCTION NAME: RasterVparamConfig                                          *
     101                    ;*                                                                            *
     102                    ;*   Regs Modified     : A0,A1,A2,A3,A4,A5,A6,A7,A8,A9,A10,A11,A12,A13,A16,   *
     103                    ;*                           A17,A18,A19,A20,A21,A22,A23,A24,A25,A26,A27,A28, *
     104                    ;*                           A29,A30,A31,B0,B1,B2,B3,B4,B5,B6,B7,B8,B9,B10,   *
     105                    ;*                           B11,SP,B16,B17,B18,B19,B20,B21,B22,B23,B24,B25,  *
     106                    ;*                           B26,B27,B28,B29,B30,B31                          *
     107                    ;*   Regs Used         : A0,A1,A2,A3,A4,A5,A6,A7,A8,A9,A10,A11,A12,A13,A16,   *
     108                    ;*                           A17,A18,A19,A20,A21,A22,A23,A24,A25,A26,A27,A28, *
     109                    ;*                           A29,A30,A31,B0,B1,B2,B3,B4,B5,B6,B7,B8,B9,B10,   *
     110                    ;*                           B11,DP,SP,B16,B17,B18,B19,B20,B21,B22,B23,B24,   *
TMS320C6x Assembler PC v8.1.3 Fri Apr 14 08:40:35 2017

Tools Copyright (c) 1996-2015 Texas Instruments Incorporated
raster.asm                                                           PAGE    3

     111                    ;*                           B25,B26,B27,B28,B29,B30,B31                      *
     112                    ;*   Local Frame Size  : 0 Args + 0 Auto + 32 Save = 32 byte                  *
     113                    ;******************************************************************************
     114                    RasterVparamConfig:
     115                    ;** --------------------------------------------------------------------------*
     116                    $C$DW$8 .dwtag  DW_TAG_variable
     117                            .dwattr $C$DW$8, DW_AT_name("version")
     118                            .dwattr $C$DW$8, DW_AT_TI_symbol_name("version")
     119                            .dwattr $C$DW$8, DW_AT_type(*$C$DW$T$11)
     120                            .dwattr $C$DW$8, DW_AT_location[DW_OP_reg4]
     121                    
     122                    $C$DW$9 .dwtag  DW_TAG_variable
     123                            .dwattr $C$DW$9, DW_AT_name("baseAddr")
     124                            .dwattr $C$DW$9, DW_AT_TI_symbol_name("baseAddr")
     125                            .dwattr $C$DW$9, DW_AT_type(*$C$DW$T$30)
     126                            .dwattr $C$DW$9, DW_AT_location[DW_OP_reg3]
     127                    
     128                    $C$DW$10        .dwtag  DW_TAG_variable
     129                            .dwattr $C$DW$10, DW_AT_name("lpp")
     130                            .dwattr $C$DW$10, DW_AT_TI_symbol_name("lpp")
     131                            .dwattr $C$DW$10, DW_AT_type(*$C$DW$T$30)
     132                            .dwattr $C$DW$10, DW_AT_location[DW_OP_reg20]
     133                    
     134                    $C$DW$11        .dwtag  DW_TAG_variable
     135                            .dwattr $C$DW$11, DW_AT_name("vsw")
     136                            .dwattr $C$DW$11, DW_AT_TI_symbol_name("vsw")
     137                            .dwattr $C$DW$11, DW_AT_type(*$C$DW$T$30)
     138                            .dwattr $C$DW$11, DW_AT_location[DW_OP_reg22]
     139                    
     140                    $C$DW$12        .dwtag  DW_TAG_variable
     141                            .dwattr $C$DW$12, DW_AT_name("vfp")
     142                            .dwattr $C$DW$12, DW_AT_TI_symbol_name("vfp")
     143                            .dwattr $C$DW$12, DW_AT_type(*$C$DW$T$30)
     144                            .dwattr $C$DW$12, DW_AT_location[DW_OP_reg21]
     145                    
     146                    $C$DW$13        .dwtag  DW_TAG_variable
     147                            .dwattr $C$DW$13, DW_AT_name("vbp")
     148                            .dwattr $C$DW$13, DW_AT_TI_symbol_name("vbp")
     149                            .dwattr $C$DW$13, DW_AT_type(*$C$DW$T$30)
     150                            .dwattr $C$DW$13, DW_AT_location[DW_OP_reg5]
     151                    
     152                            .dwcfi  cfa_offset, 0
     153 00000000     25f7             STW     .D2T1   A11,*SP++(-8)     ; [B_D64P] |434| 
     154                            .dwcfi  cfa_offset, 8
     155                            .dwcfi  save_reg_to_mem, 11, 0
     156 00000002     9577             STDW    .D2T2   B11:B10,*SP++(-8) ; [B_D64P] |434| 
     157                            .dwcfi  cfa_offset, 16
     158                            .dwcfi  save_reg_to_mem, 27, -4
     159                            .dwcfi  save_reg_to_mem, 26, -8
     160                    
     161 00000004     8677             STDW    .D2T1   A13:A12,*SP++(-8) ; [B_D64P] |434| 
     162 00000006     4647  ||         MV      .L2     B4,B10            ; [B_L674] |434| 
     163 00000008     6646  ||         MV      .L1     A4,A11            ; [A_L674] |434| 
     164                    
     165                            .dwcfi  cfa_offset, 24
TMS320C6x Assembler PC v8.1.3 Fri Apr 14 08:40:35 2017

Tools Copyright (c) 1996-2015 Texas Instruments Incorporated
raster.asm                                                           PAGE    4

     166                            .dwcfi  save_reg_to_mem, 13, -12
     167                            .dwcfi  save_reg_to_mem, 12, -16
     168                    $C$DW$14        .dwtag  DW_TAG_TI_branch
     169                            .dwattr $C$DW$14, DW_AT_low_pc(0x00)
     170                            .dwattr $C$DW$14, DW_AT_name("LCDVersionGet")
     171                            .dwattr $C$DW$14, DW_AT_TI_call
     172                    
     173                    
     174 00000010 10000013!            CALLP   .S2     LCDVersionGet,B3  ; [B_Sb674] |437| 
     175 0000000c 05200fd9  ||         MV      .L1     A8,A10            ; [A_L674] |434| 
     176 0000000a     2577  ||         STW     .D2T1   A10,*SP++(-8)     ; [B_D64P] |434| 
     177 00000014     874e  ||         MV      .S1     A6,A12            ; [A_S674] |434| 
     178 00000016     b5d6  ||         MV      .D1X    B3,A13            ; [A_D64P] |434| 
     179 00000018 05980fda  ||         MV      .L2     B6,B11            ; [B_L674] |434| 
     180                    
     181                            .dwcfi  cfa_offset, 32
     182                            .dwcfi  save_reg_to_mem, 10, -24
     183                            .dwcfi  save_reg_to_reg, 19, 13
     184                            .dwpsn  file "C:/ti/OMAPL138_StarterWare_1_10_04_01/drivers/raster.c",line 437,column 5,is_stm
     185 00000020           $C$RL0:    ; CALLP OCCURS {LCDVersionGet} {0}  ; [] |437| 
     186                    ;** --------------------------------------------------------------------------*
     187                            .dwpsn  file "C:/ti/OMAPL138_StarterWare_1_10_04_01/drivers/raster.c",line 434,column 1,is_stm
     188                    
     189 00000020 00105a5b             CMPEQ   .L2X    A4,2,B0           ; [B_L674] |437| 
     190 00000024     850f  ||         MV      .S2     B10,B4            ; [B_Sb674] |434| 
     191 00000026     1b77  ||         ZERO    .D2     B6                ; [B_D64P] |446| 
     192 00000028     07a6  ||         ZERO    .L1     A7                ; [A_L674] |446| 
     193 0000002a     658e  ||         MV      .S1     A11,A3            ; [A_S674] |434| 
     194 0000002c     a516  ||         MV      .D1     A10,A5            ; [A_D64P] |434| 
     195                    
     196                            .dwpsn  file "C:/ti/OMAPL138_StarterWare_1_10_04_01/drivers/raster.c",line 437,column 5,is_stm
     197                    
     198 00000030 20000c11     [ B0]   B       .S1     $C$L1             ; [A_S674] |437| 
     199 0000002e     065b  ||         SHL     .S2     B4,16,B5          ; [B_Sb674] |446| 
     200 00000034 03abe05b  ||         SUB     .L2     B10,1,B7          ; [B_L674] |442| 
     201 00000038 321029c3  || [!B0]   SUB     .D2     B4,1,B4           ; [B_D64P] |452| 
     202 00000044     2226  ||         CMPEQ   .L1     A4,1,A0           ; [A_L674] |449| 
     203 00000040 020dbd41  ||         ADDAW   .D1     A3,13,A4          ; [A_D64P] |444| 
     204                    
     205                            .dwpsn  file "C:/ti/OMAPL138_StarterWare_1_10_04_01/drivers/raster.c",line 446,column 10,is_st
     206                    
     207 00000048 031a1a8a             SET     .S2     B6,16,26,B6       ; [B_Sb674] |446| 
     208 00000046     5ba2  ||         SET     .S1     A7,26,26,A7       ; [A_S674] |446| 
     209                    
     210                            .dwpsn  file "C:/ti/OMAPL138_StarterWare_1_10_04_01/drivers/raster.c",line 434,column 1,is_stm
     211                    
     212 0000004c 30000c93     [!B0]   B       .S2     $C$L2             ; [B_Sb674] |454| 
     213 00000050 0414c07b  ||         ADD     .L2     B6,B5,B8          ; [B_L674] |446| 
     214 00000054     a597  ||         MV      .D2     B11,B5            ; [B_D64P] |434| 
     215                    
     216 00000056     d607             MV      .L2X    A12,B6            ; [B_L674] |434| 
     217 00000058 039ed60a  ||         EXTU    .S2     B7,22,22,B7       ; [B_Sb674] |442| 
     218                    
     219                            .dwpsn  file "C:/ti/OMAPL138_StarterWare_1_10_04_01/drivers/raster.c",line 442,column 10,is_st
     220                    
TMS320C6x Assembler PC v8.1.3 Fri Apr 14 08:40:35 2017

Tools Copyright (c) 1996-2015 Texas Instruments Incorporated
raster.asm                                                           PAGE    5

     221 00000060 0320ff79             AND     .L1X    A7,B8,A6          ; [A_L674] |446| 
     222 00000064 238d8276  || [ B0]   STW     .D1T2   B7,*A3(48)        ; [A_D64P] |442| 
     223                    
     224                            .dwpsn  file "C:/ti/OMAPL138_StarterWare_1_10_04_01/drivers/raster.c",line 444,column 10,is_st
     225 00000068 23900264     [ B0]   LDW     .D1T1   *A4(0),A7         ; [A_D64P] |444| 
     226                            .dwpsn  file "C:/ti/OMAPL138_StarterWare_1_10_04_01/drivers/raster.c",line 437,column 5,is_stm
     227                               ; BRANCHCC OCCURS {$C$L1}         ; [] |437| 
     228                    ;** --------------------------------------------------------------------------*
     229                            .dwpsn  file "C:/ti/OMAPL138_StarterWare_1_10_04_01/drivers/raster.c",line 460,column 5,is_stm
     230                    
     231 0000006c 030cdec1             ADDAD   .D1     A3,6,A6           ; [A_D64P] |460| 
     232 00000070 01b41fdb  ||         MV      .L2X    A13,B3            ; [B_L674] |468| 
     233 00000074 02170ca0  ||         SHL     .S1     A5,24,A4          ; [A_S674] |466| 
     234                    
     235                            .dwcfi  restore_reg, 19
     236                            .dwpsn  file "C:/ti/OMAPL138_StarterWare_1_10_04_01/drivers/raster.c",line 452,column 10,is_st
     237                    
     238 00000078 c20d8277     [ A0]   STW     .D1T2   B4,*A3(48)        ; [A_D64P] |452| 
     239 0000007c 02194ca2  ||         SHL     .S2     B6,10,B4          ; [B_Sb674] |460| 
     240                    
     241                            .dwpsn  file "C:/ti/OMAPL138_StarterWare_1_10_04_01/drivers/raster.c",line 454,column 5,is_stm
     242                               ; BRANCH OCCURS {$C$L2}           ; [] |454| 
     243                    ;** --------------------------------------------------------------------------*
     244 00000080           $C$L1:    
     245                            .dwpsn  file "C:/ti/OMAPL138_StarterWare_1_10_04_01/drivers/raster.c",line 468,column 1,is_stm
     246 00000080 01b41fda             MV      .L2X    A13,B3            ; [B_L674] |468| 
     247                            .dwcfi  restore_reg, 19
     248                            .dwpsn  file "C:/ti/OMAPL138_StarterWare_1_10_04_01/drivers/raster.c",line 460,column 5,is_stm
     249 00000084 02194ca2             SHL     .S2     B6,10,B4          ; [B_Sb674] |460| 
     250 00000088     2c6e             NOP             2                 ; [A_L674] 
     251                            .dwpsn  file "C:/ti/OMAPL138_StarterWare_1_10_04_01/drivers/raster.c",line 444,column 10,is_st
     252 0000008a     5bc2             CLR     .S1     A7,26,26,A7       ; [A_S674] |444| 
     253 0000008c     0074             STW     .D1T1   A7,*A4(0)         ; [A_D64P] |444| 
     254                            .dwpsn  file "C:/ti/OMAPL138_StarterWare_1_10_04_01/drivers/raster.c",line 446,column 10,is_st
     255 0000008e     007c             LDW     .D1T1   *A4(0),A7         ; [A_D64P] |446| 
     256 00000090 00000000             NOP             4                 ; [A_L674] 
     257 00000090 031ccff8             OR      .L1     A6,A7,A6          ; [A_L674] |446| 
     258                    
     259 00000098 03100274             STW     .D1T1   A6,*A4(0)         ; [A_D64P] |446| 
     260 00000094 02170ca1  ||         SHL     .S1     A5,24,A4          ; [A_S674] |466| 
     261                    
     262                            .dwpsn  file "C:/ti/OMAPL138_StarterWare_1_10_04_01/drivers/raster.c",line 460,column 5,is_stm
     263 000000a0 030cdec0             ADDAD   .D1     A3,6,A6           ; [A_D64P] |460| 
     264                    ;** --------------------------------------------------------------------------*
     265 000000a4           $C$L2:    
     266 000000a4 03980266             LDW     .D1T2   *A6(0),B7         ; [A_D64P] |460| 
     267 000000a8 027e0052             ADDK    .S2     -1024,B4          ; [B_Sb674] |460| 
     268 000000ac 00004000             NOP             3                 ; [A_L674] 
     269 000000b0 021c8ffa             OR      .L2     B4,B7,B4          ; [B_L674] |460| 
     270 000000b4     1144             STW     .D1T2   B4,*A6(0)         ; [A_D64P] |460| 
     271                            .dwpsn  file "C:/ti/OMAPL138_StarterWare_1_10_04_01/drivers/raster.c",line 463,column 5,is_stm
     272 000000b6     013c             LDW     .D1T1   *A6(0),A3         ; [A_D64P] |463| 
     273 000000b8     06cb             SHL     .S2     B5,16,B4          ; [B_Sb674] |463| 
     274 000000ba     4c6e             NOP             3                 ; [A_L674] 
     275 000000c0 01907ff8             OR      .L1X    B4,A3,A3          ; [A_L674] |463| 
TMS320C6x Assembler PC v8.1.3 Fri Apr 14 08:40:35 2017

Tools Copyright (c) 1996-2015 Texas Instruments Incorporated
raster.asm                                                           PAGE    6

     276 000000c4     0134             STW     .D1T1   A3,*A6(0)         ; [A_D64P] |463| 
     277                            .dwpsn  file "C:/ti/OMAPL138_StarterWare_1_10_04_01/drivers/raster.c",line 466,column 5,is_stm
     278 000000c6     013c             LDW     .D1T1   *A6(0),A3         ; [A_D64P] |466| 
     279                            .dwpsn  file "C:/ti/OMAPL138_StarterWare_1_10_04_01/drivers/raster.c",line 468,column 1,is_stm
     280 000000c8     6577             LDW     .D2T1   *++SP(8),A10      ; [B_D64P] |468| 
     281                            .dwcfi  cfa_offset, 24
     282                            .dwcfi  restore_reg, 10
     283 000000ca     c677             LDDW    .D2T1   *++SP(8),A13:A12  ; [B_D64P] |468| 
     284                            .dwcfi  cfa_offset, 16
     285                            .dwcfi  restore_reg, 13
     286                            .dwcfi  restore_reg, 12
     287                    $C$DW$15        .dwtag  DW_TAG_TI_branch
     288                            .dwattr $C$DW$15, DW_AT_low_pc(0x04)
     289                            .dwattr $C$DW$15, DW_AT_TI_return
     290                    
     291                    
     292 000000cc     d577             LDDW    .D2T2   *++SP(8),B11:B10  ; [B_D64P] |468| 
     293 000000ce     01ef  ||         RET     .S2     B3                ; [B_Sb674] |468| 
     294                    
     295                            .dwcfi  cfa_offset, 8
     296                            .dwcfi  restore_reg, 27
     297                            .dwcfi  restore_reg, 26
     298 000000d0 05bc52e4             LDW     .D2T1   *++SP(8),A11      ; [B_D64P] |468| 
     299                            .dwcfi  cfa_offset, 0
     300                            .dwcfi  restore_reg, 11
     301                            .dwpsn  file "C:/ti/OMAPL138_StarterWare_1_10_04_01/drivers/raster.c",line 466,column 5,is_stm
     302 000000d4 018c8ff8             OR      .L1     A4,A3,A3          ; [A_L674] |466| 
     303 000000d8     0134             STW     .D1T1   A3,*A6(0)         ; [A_D64P] |466| 
     304 000000da     2c6e             NOP             2                 ; [A_L674] 
     305                            .dwpsn  file "C:/ti/OMAPL138_StarterWare_1_10_04_01/drivers/raster.c",line 468,column 1,is_stm
     306                               ; BRANCH OCCURS {B3}              ; [] |468| 
     307                            .dwattr $C$DW$2, DW_AT_TI_end_file("C:/ti/OMAPL138_StarterWare_1_10_04_01/drivers/raster.c")
     308                            .dwattr $C$DW$2, DW_AT_TI_end_line(0x1d4)
     309                            .dwattr $C$DW$2, DW_AT_TI_end_column(0x01)
     310                            .dwendentry
     311                            .dwendtag $C$DW$2
     312                    
     313 000000e0                   .sect   ".text"
     314                            .clink
     315                            .global RasterTiming2Configure
     316                    
     317                    $C$DW$16        .dwtag  DW_TAG_subprogram
     318                            .dwattr $C$DW$16, DW_AT_name("RasterTiming2Configure")
     319                            .dwattr $C$DW$16, DW_AT_low_pc(RasterTiming2Configure)
     320                            .dwattr $C$DW$16, DW_AT_high_pc(0x00)
     321                            .dwattr $C$DW$16, DW_AT_TI_symbol_name("RasterTiming2Configure")
     322                            .dwattr $C$DW$16, DW_AT_external
     323                            .dwattr $C$DW$16, DW_AT_TI_begin_file("C:/ti/OMAPL138_StarterWare_1_10_04_01/drivers/raster.c"
     324                            .dwattr $C$DW$16, DW_AT_TI_begin_line(0x1f8)
     325                            .dwattr $C$DW$16, DW_AT_TI_begin_column(0x06)
     326                            .dwattr $C$DW$16, DW_AT_decl_file("C:/ti/OMAPL138_StarterWare_1_10_04_01/drivers/raster.c")
     327                            .dwattr $C$DW$16, DW_AT_decl_line(0x1f8)
     328                            .dwattr $C$DW$16, DW_AT_decl_column(0x06)
     329                            .dwattr $C$DW$16, DW_AT_TI_max_frame_size(0x00)
     330                            .dwpsn  file "C:/ti/OMAPL138_StarterWare_1_10_04_01/drivers/raster.c",line 506,column 1,is_stm
TMS320C6x Assembler PC v8.1.3 Fri Apr 14 08:40:35 2017

Tools Copyright (c) 1996-2015 Texas Instruments Incorporated
raster.asm                                                           PAGE    7

     331                    
     332                            .dwfde $C$DW$CIE, RasterTiming2Configure
     333                    $C$DW$17        .dwtag  DW_TAG_formal_parameter
     334                            .dwattr $C$DW$17, DW_AT_name("baseAddr")
     335                            .dwattr $C$DW$17, DW_AT_TI_symbol_name("baseAddr")
     336                            .dwattr $C$DW$17, DW_AT_type(*$C$DW$T$11)
     337                            .dwattr $C$DW$17, DW_AT_location[DW_OP_reg4]
     338                    
     339                    $C$DW$18        .dwtag  DW_TAG_formal_parameter
     340                            .dwattr $C$DW$18, DW_AT_name("flag")
     341                            .dwattr $C$DW$18, DW_AT_TI_symbol_name("flag")
     342                            .dwattr $C$DW$18, DW_AT_type(*$C$DW$T$11)
     343                            .dwattr $C$DW$18, DW_AT_location[DW_OP_reg20]
     344                    
     345                    $C$DW$19        .dwtag  DW_TAG_formal_parameter
     346                            .dwattr $C$DW$19, DW_AT_name("acb_i")
     347                            .dwattr $C$DW$19, DW_AT_TI_symbol_name("acb_i")
     348                            .dwattr $C$DW$19, DW_AT_type(*$C$DW$T$11)
     349                            .dwattr $C$DW$19, DW_AT_location[DW_OP_reg6]
     350                    
     351                    $C$DW$20        .dwtag  DW_TAG_formal_parameter
     352                            .dwattr $C$DW$20, DW_AT_name("acb")
     353                            .dwattr $C$DW$20, DW_AT_TI_symbol_name("acb")
     354                            .dwattr $C$DW$20, DW_AT_type(*$C$DW$T$11)
     355                            .dwattr $C$DW$20, DW_AT_location[DW_OP_reg22]
     356                    
     357                    
     358                    ;******************************************************************************
     359                    ;* FUNCTION NAME: RasterTiming2Configure                                      *
     360                    ;*                                                                            *
     361                    ;*   Regs Modified     : A3,A4,A5,B4                                          *
     362                    ;*   Regs Used         : A3,A4,A5,A6,B3,B4,B6                                 *
     363                    ;*   Local Frame Size  : 0 Args + 0 Auto + 0 Save = 0 byte                    *
     364                    ;******************************************************************************
     365                    RasterTiming2Configure:
     366                    ;** --------------------------------------------------------------------------*
     367                    $C$DW$21        .dwtag  DW_TAG_variable
     368                            .dwattr $C$DW$21, DW_AT_name("acb")
     369                            .dwattr $C$DW$21, DW_AT_TI_symbol_name("acb")
     370                            .dwattr $C$DW$21, DW_AT_type(*$C$DW$T$30)
     371                            .dwattr $C$DW$21, DW_AT_location[DW_OP_reg22]
     372                    
     373                    $C$DW$22        .dwtag  DW_TAG_variable
     374                            .dwattr $C$DW$22, DW_AT_name("acb_i")
     375                            .dwattr $C$DW$22, DW_AT_TI_symbol_name("acb_i")
     376                            .dwattr $C$DW$22, DW_AT_type(*$C$DW$T$30)
     377                            .dwattr $C$DW$22, DW_AT_location[DW_OP_reg6]
     378                    
     379                    $C$DW$23        .dwtag  DW_TAG_variable
     380                            .dwattr $C$DW$23, DW_AT_name("flag")
     381                            .dwattr $C$DW$23, DW_AT_TI_symbol_name("flag")
     382                            .dwattr $C$DW$23, DW_AT_type(*$C$DW$T$30)
     383                            .dwattr $C$DW$23, DW_AT_location[DW_OP_reg20]
     384                    
     385                    $C$DW$24        .dwtag  DW_TAG_variable
TMS320C6x Assembler PC v8.1.3 Fri Apr 14 08:40:35 2017

Tools Copyright (c) 1996-2015 Texas Instruments Incorporated
raster.asm                                                           PAGE    8

     386                            .dwattr $C$DW$24, DW_AT_name("baseAddr")
     387                            .dwattr $C$DW$24, DW_AT_TI_symbol_name("baseAddr")
     388                            .dwattr $C$DW$24, DW_AT_type(*$C$DW$T$30)
     389                            .dwattr $C$DW$24, DW_AT_location[DW_OP_reg4]
     390                    
     391                            .dwcfi  cfa_offset, 0
     392                            .dwpsn  file "C:/ti/OMAPL138_StarterWare_1_10_04_01/drivers/raster.c",line 507,column 5,is_stm
     393 000000e0 0191bd40             ADDAW   .D1     A4,13,A3          ; [A_D64P] |507| 
     394 000000e4 020c0264             LDW     .D1T1   *A3(0),A4         ; [A_D64P] |507| 
     395 000000e8 00006000             NOP             4                 ; [A_L674] 
     396 000000ec 02109ff8             OR      .L1X    B4,A4,A4          ; [A_L674] |507| 
     397 000000f0 020c0274             STW     .D1T1   A4,*A3(0)         ; [A_D64P] |507| 
     398                            .dwpsn  file "C:/ti/OMAPL138_StarterWare_1_10_04_01/drivers/raster.c",line 509,column 5,is_stm
     399 000000f4 028c0264             LDW     .D1T1   *A3(0),A5         ; [A_D64P] |509| 
     400 000000f8     074a             SHL     .S1     A6,16,A4          ; [A_S674] |509| 
     401                            .dwpsn  file "C:/ti/OMAPL138_StarterWare_1_10_04_01/drivers/raster.c",line 512,column 5,is_stm
     402 000000fa     e74b             SHL     .S2     B6,8,B4           ; [B_Sb674] |512| 
     403 00000100 00002000             NOP             2                 ; [A_L674] 
     404                            .dwpsn  file "C:/ti/OMAPL138_StarterWare_1_10_04_01/drivers/raster.c",line 509,column 5,is_stm
     405 00000104 02148ff8             OR      .L1     A4,A5,A4          ; [A_L674] |509| 
     406 00000108 020c0274             STW     .D1T1   A4,*A3(0)         ; [A_D64P] |509| 
     407                            .dwpsn  file "C:/ti/OMAPL138_StarterWare_1_10_04_01/drivers/raster.c",line 512,column 5,is_stm
     408 0000010c 020c0264             LDW     .D1T1   *A3(0),A4         ; [A_D64P] |512| 
     409                            .dwpsn  file "C:/ti/OMAPL138_StarterWare_1_10_04_01/drivers/raster.c",line 515,column 1,is_stm
     410                    $C$DW$25        .dwtag  DW_TAG_TI_branch
     411                            .dwattr $C$DW$25, DW_AT_low_pc(0x00)
     412                            .dwattr $C$DW$25, DW_AT_TI_return
     413                    
     414 00000110 008c6362             RETNOP          B3,3              ; [] |515| 
     415                            .dwpsn  file "C:/ti/OMAPL138_StarterWare_1_10_04_01/drivers/raster.c",line 512,column 5,is_stm
     416 00000114 02109ffa             OR      .L2X    B4,A4,B4          ; [B_L674] |512| 
     417 00000118 020c0276             STW     .D1T2   B4,*A3(0)         ; [A_D64P] |512| 
     418                            .dwpsn  file "C:/ti/OMAPL138_StarterWare_1_10_04_01/drivers/raster.c",line 515,column 1,is_stm
     419                               ; BRANCH OCCURS {B3}              ; [] |515| 
     420                            .dwattr $C$DW$16, DW_AT_TI_end_file("C:/ti/OMAPL138_StarterWare_1_10_04_01/drivers/raster.c")
     421                            .dwattr $C$DW$16, DW_AT_TI_end_line(0x203)
     422                            .dwattr $C$DW$16, DW_AT_TI_end_column(0x01)
     423                            .dwendentry
     424                            .dwendtag $C$DW$16
     425                    
     426 0000011c                   .sect   ".text"
     427                            .clink
     428                            .global RasterSubPanelEnable
     429                    
     430                    $C$DW$26        .dwtag  DW_TAG_subprogram
     431                            .dwattr $C$DW$26, DW_AT_name("RasterSubPanelEnable")
     432                            .dwattr $C$DW$26, DW_AT_low_pc(RasterSubPanelEnable)
     433                            .dwattr $C$DW$26, DW_AT_high_pc(0x00)
     434                            .dwattr $C$DW$26, DW_AT_TI_symbol_name("RasterSubPanelEnable")
     435                            .dwattr $C$DW$26, DW_AT_external
     436                            .dwattr $C$DW$26, DW_AT_TI_begin_file("C:/ti/OMAPL138_StarterWare_1_10_04_01/drivers/raster.c"
     437                            .dwattr $C$DW$26, DW_AT_TI_begin_line(0x34f)
     438                            .dwattr $C$DW$26, DW_AT_TI_begin_column(0x06)
     439                            .dwattr $C$DW$26, DW_AT_decl_file("C:/ti/OMAPL138_StarterWare_1_10_04_01/drivers/raster.c")
     440                            .dwattr $C$DW$26, DW_AT_decl_line(0x34f)
TMS320C6x Assembler PC v8.1.3 Fri Apr 14 08:40:35 2017

Tools Copyright (c) 1996-2015 Texas Instruments Incorporated
raster.asm                                                           PAGE    9

     441                            .dwattr $C$DW$26, DW_AT_decl_column(0x06)
     442                            .dwattr $C$DW$26, DW_AT_TI_max_frame_size(0x00)
     443                            .dwpsn  file "C:/ti/OMAPL138_StarterWare_1_10_04_01/drivers/raster.c",line 848,column 1,is_stm
     444                    
     445                            .dwfde $C$DW$CIE, RasterSubPanelEnable
     446                    $C$DW$27        .dwtag  DW_TAG_formal_parameter
     447                            .dwattr $C$DW$27, DW_AT_name("baseAddr")
     448                            .dwattr $C$DW$27, DW_AT_TI_symbol_name("baseAddr")
     449                            .dwattr $C$DW$27, DW_AT_type(*$C$DW$T$11)
     450                            .dwattr $C$DW$27, DW_AT_location[DW_OP_reg4]
     451                    
     452                    
     453                    ;******************************************************************************
     454                    ;* FUNCTION NAME: RasterSubPanelEnable                                        *
     455                    ;*                                                                            *
     456                    ;*   Regs Modified     : A3,A4                                                *
     457                    ;*   Regs Used         : A3,A4,B3                                             *
     458                    ;*   Local Frame Size  : 0 Args + 0 Auto + 0 Save = 0 byte                    *
     459                    ;******************************************************************************
     460                    RasterSubPanelEnable:
     461                    ;** --------------------------------------------------------------------------*
     462                    $C$DW$28        .dwtag  DW_TAG_variable
     463                            .dwattr $C$DW$28, DW_AT_name("baseAddr")
     464                            .dwattr $C$DW$28, DW_AT_TI_symbol_name("baseAddr")
     465                            .dwattr $C$DW$28, DW_AT_type(*$C$DW$T$30)
     466                            .dwattr $C$DW$28, DW_AT_location[DW_OP_reg4]
     467                    
     468                            .dwcfi  cfa_offset, 0
     469                            .dwpsn  file "C:/ti/OMAPL138_StarterWare_1_10_04_01/drivers/raster.c",line 849,column 5,is_stm
     470 0000011c 0190fec0             ADDAD   .D1     A4,7,A3           ; [A_D64P] |849| 
     471 00000120 020c0264             LDW     .D1T1   *A3(0),A4         ; [A_D64P] |849| 
     472                            .dwpsn  file "C:/ti/OMAPL138_StarterWare_1_10_04_01/drivers/raster.c",line 850,column 1,is_stm
     473                    $C$DW$29        .dwtag  DW_TAG_TI_branch
     474                            .dwattr $C$DW$29, DW_AT_low_pc(0x00)
     475                            .dwattr $C$DW$29, DW_AT_TI_return
     476                    
     477 00000124     61ef             RETNOP          B3,3              ; [] |850| 
     478                            .dwpsn  file "C:/ti/OMAPL138_StarterWare_1_10_04_01/drivers/raster.c",line 849,column 5,is_stm
     479 00000126     fa22             SET     .S1     A4,31,31,A4       ; [A_S674] |849| 
     480 00000128 020c0274             STW     .D1T1   A4,*A3(0)         ; [A_D64P] |849| 
     481                            .dwpsn  file "C:/ti/OMAPL138_StarterWare_1_10_04_01/drivers/raster.c",line 850,column 1,is_stm
     482                               ; BRANCH OCCURS {B3}              ; [] |850| 
     483                            .dwattr $C$DW$26, DW_AT_TI_end_file("C:/ti/OMAPL138_StarterWare_1_10_04_01/drivers/raster.c")
     484                            .dwattr $C$DW$26, DW_AT_TI_end_line(0x352)
     485                            .dwattr $C$DW$26, DW_AT_TI_end_column(0x01)
     486                            .dwendentry
     487                            .dwendtag $C$DW$26
     488                    
     489 0000012c                   .sect   ".text"
     490                            .clink
     491                            .global RasterSubPanelDisable
     492                    
     493                    $C$DW$30        .dwtag  DW_TAG_subprogram
     494                            .dwattr $C$DW$30, DW_AT_name("RasterSubPanelDisable")
     495                            .dwattr $C$DW$30, DW_AT_low_pc(RasterSubPanelDisable)
TMS320C6x Assembler PC v8.1.3 Fri Apr 14 08:40:35 2017

Tools Copyright (c) 1996-2015 Texas Instruments Incorporated
raster.asm                                                           PAGE   10

     496                            .dwattr $C$DW$30, DW_AT_high_pc(0x00)
     497                            .dwattr $C$DW$30, DW_AT_TI_symbol_name("RasterSubPanelDisable")
     498                            .dwattr $C$DW$30, DW_AT_external
     499                            .dwattr $C$DW$30, DW_AT_TI_begin_file("C:/ti/OMAPL138_StarterWare_1_10_04_01/drivers/raster.c"
     500                            .dwattr $C$DW$30, DW_AT_TI_begin_line(0x35c)
     501                            .dwattr $C$DW$30, DW_AT_TI_begin_column(0x06)
     502                            .dwattr $C$DW$30, DW_AT_decl_file("C:/ti/OMAPL138_StarterWare_1_10_04_01/drivers/raster.c")
     503                            .dwattr $C$DW$30, DW_AT_decl_line(0x35c)
     504                            .dwattr $C$DW$30, DW_AT_decl_column(0x06)
     505                            .dwattr $C$DW$30, DW_AT_TI_max_frame_size(0x00)
     506                            .dwpsn  file "C:/ti/OMAPL138_StarterWare_1_10_04_01/drivers/raster.c",line 861,column 1,is_stm
     507                    
     508                            .dwfde $C$DW$CIE, RasterSubPanelDisable
     509                    $C$DW$31        .dwtag  DW_TAG_formal_parameter
     510                            .dwattr $C$DW$31, DW_AT_name("baseAddr")
     511                            .dwattr $C$DW$31, DW_AT_TI_symbol_name("baseAddr")
     512                            .dwattr $C$DW$31, DW_AT_type(*$C$DW$T$11)
     513                            .dwattr $C$DW$31, DW_AT_location[DW_OP_reg4]
     514                    
     515                    
     516                    ;******************************************************************************
     517                    ;* FUNCTION NAME: RasterSubPanelDisable                                       *
     518                    ;*                                                                            *
     519                    ;*   Regs Modified     : A3,A4                                                *
     520                    ;*   Regs Used         : A3,A4,B3                                             *
     521                    ;*   Local Frame Size  : 0 Args + 0 Auto + 0 Save = 0 byte                    *
     522                    ;******************************************************************************
     523                    RasterSubPanelDisable:
     524                    ;** --------------------------------------------------------------------------*
     525                    $C$DW$32        .dwtag  DW_TAG_variable
     526                            .dwattr $C$DW$32, DW_AT_name("baseAddr")
     527                            .dwattr $C$DW$32, DW_AT_TI_symbol_name("baseAddr")
     528                            .dwattr $C$DW$32, DW_AT_type(*$C$DW$T$30)
     529                            .dwattr $C$DW$32, DW_AT_location[DW_OP_reg4]
     530                    
     531                            .dwcfi  cfa_offset, 0
     532                            .dwpsn  file "C:/ti/OMAPL138_StarterWare_1_10_04_01/drivers/raster.c",line 862,column 5,is_stm
     533 0000012c 0190fec0             ADDAD   .D1     A4,7,A3           ; [A_D64P] |862| 
     534 00000130 020c0264             LDW     .D1T1   *A3(0),A4         ; [A_D64P] |862| 
     535                            .dwpsn  file "C:/ti/OMAPL138_StarterWare_1_10_04_01/drivers/raster.c",line 863,column 1,is_stm
     536                    $C$DW$33        .dwtag  DW_TAG_TI_branch
     537                            .dwattr $C$DW$33, DW_AT_low_pc(0x00)
     538                            .dwattr $C$DW$33, DW_AT_TI_return
     539                    
     540 00000134 008c6362             RETNOP          B3,3              ; [] |863| 
     541                            .dwpsn  file "C:/ti/OMAPL138_StarterWare_1_10_04_01/drivers/raster.c",line 862,column 5,is_stm
     542 00000138 02102108             EXTU    .S1     A4,1,1,A4         ; [A_S674] |862| 
     543 00000140 020c0274             STW     .D1T1   A4,*A3(0)         ; [A_D64P] |862| 
     544                            .dwpsn  file "C:/ti/OMAPL138_StarterWare_1_10_04_01/drivers/raster.c",line 863,column 1,is_stm
     545                               ; BRANCH OCCURS {B3}              ; [] |863| 
     546                            .dwattr $C$DW$30, DW_AT_TI_end_file("C:/ti/OMAPL138_StarterWare_1_10_04_01/drivers/raster.c")
     547                            .dwattr $C$DW$30, DW_AT_TI_end_line(0x35f)
     548                            .dwattr $C$DW$30, DW_AT_TI_end_column(0x01)
     549                            .dwendentry
     550                            .dwendtag $C$DW$30
TMS320C6x Assembler PC v8.1.3 Fri Apr 14 08:40:35 2017

Tools Copyright (c) 1996-2015 Texas Instruments Incorporated
raster.asm                                                           PAGE   11

     551                    
     552 00000144                   .sect   ".text"
     553                            .clink
     554                            .global RasterSubPanelConfig
     555                    
     556                    $C$DW$34        .dwtag  DW_TAG_subprogram
     557                            .dwattr $C$DW$34, DW_AT_name("RasterSubPanelConfig")
     558                            .dwattr $C$DW$34, DW_AT_low_pc(RasterSubPanelConfig)
     559                            .dwattr $C$DW$34, DW_AT_high_pc(0x00)
     560                            .dwattr $C$DW$34, DW_AT_TI_symbol_name("RasterSubPanelConfig")
     561                            .dwattr $C$DW$34, DW_AT_external
     562                            .dwattr $C$DW$34, DW_AT_TI_begin_file("C:/ti/OMAPL138_StarterWare_1_10_04_01/drivers/raster.c"
     563                            .dwattr $C$DW$34, DW_AT_TI_begin_line(0x373)
     564                            .dwattr $C$DW$34, DW_AT_TI_begin_column(0x06)
     565                            .dwattr $C$DW$34, DW_AT_decl_file("C:/ti/OMAPL138_StarterWare_1_10_04_01/drivers/raster.c")
     566                            .dwattr $C$DW$34, DW_AT_decl_line(0x373)
     567                            .dwattr $C$DW$34, DW_AT_decl_column(0x06)
     568                            .dwattr $C$DW$34, DW_AT_TI_max_frame_size(0x20)
     569                            .dwpsn  file "C:/ti/OMAPL138_StarterWare_1_10_04_01/drivers/raster.c",line 885,column 1,is_stm
     570                    
     571                            .dwfde $C$DW$CIE, RasterSubPanelConfig
     572                    $C$DW$35        .dwtag  DW_TAG_formal_parameter
     573                            .dwattr $C$DW$35, DW_AT_name("baseAddr")
     574                            .dwattr $C$DW$35, DW_AT_TI_symbol_name("baseAddr")
     575                            .dwattr $C$DW$35, DW_AT_type(*$C$DW$T$11)
     576                            .dwattr $C$DW$35, DW_AT_location[DW_OP_reg4]
     577                    
     578                    $C$DW$36        .dwtag  DW_TAG_formal_parameter
     579                            .dwattr $C$DW$36, DW_AT_name("hols")
     580                            .dwattr $C$DW$36, DW_AT_TI_symbol_name("hols")
     581                            .dwattr $C$DW$36, DW_AT_type(*$C$DW$T$11)
     582                            .dwattr $C$DW$36, DW_AT_location[DW_OP_reg20]
     583                    
     584                    $C$DW$37        .dwtag  DW_TAG_formal_parameter
     585                            .dwattr $C$DW$37, DW_AT_name("lppt")
     586                            .dwattr $C$DW$37, DW_AT_TI_symbol_name("lppt")
     587                            .dwattr $C$DW$37, DW_AT_type(*$C$DW$T$11)
     588                            .dwattr $C$DW$37, DW_AT_location[DW_OP_reg6]
     589                    
     590                    $C$DW$38        .dwtag  DW_TAG_formal_parameter
     591                            .dwattr $C$DW$38, DW_AT_name("dpd")
     592                            .dwattr $C$DW$38, DW_AT_TI_symbol_name("dpd")
     593                            .dwattr $C$DW$38, DW_AT_type(*$C$DW$T$11)
     594                            .dwattr $C$DW$38, DW_AT_location[DW_OP_reg22]
     595                    
     596                    
     597                    ;******************************************************************************
     598                    ;* FUNCTION NAME: RasterSubPanelConfig                                        *
     599                    ;*                                                                            *
     600                    ;*   Regs Modified     : A0,A1,A2,A3,A4,A5,A6,A7,A8,A9,A10,A11,A16,A17,A18,   *
     601                    ;*                           A19,A20,A21,A22,A23,A24,A25,A26,A27,A28,A29,A30, *
     602                    ;*                           A31,B0,B1,B2,B3,B4,B5,B6,B7,B8,B9,B10,B11,B13,SP,*
     603                    ;*                           B16,B17,B18,B19,B20,B21,B22,B23,B24,B25,B26,B27, *
     604                    ;*                           B28,B29,B30,B31                                  *
     605                    ;*   Regs Used         : A0,A1,A2,A3,A4,A5,A6,A7,A8,A9,A10,A11,A16,A17,A18,   *
TMS320C6x Assembler PC v8.1.3 Fri Apr 14 08:40:35 2017

Tools Copyright (c) 1996-2015 Texas Instruments Incorporated
raster.asm                                                           PAGE   12

     606                    ;*                           A19,A20,A21,A22,A23,A24,A25,A26,A27,A28,A29,A30, *
     607                    ;*                           A31,B0,B1,B2,B3,B4,B5,B6,B7,B8,B9,B10,B11,B13,DP,*
     608                    ;*                           SP,B16,B17,B18,B19,B20,B21,B22,B23,B24,B25,B26,  *
     609                    ;*                           B27,B28,B29,B30,B31                              *
     610                    ;*   Local Frame Size  : 0 Args + 0 Auto + 32 Save = 32 byte                  *
     611                    ;******************************************************************************
     612                    RasterSubPanelConfig:
     613                    ;** --------------------------------------------------------------------------*
     614                    $C$DW$39        .dwtag  DW_TAG_variable
     615                            .dwattr $C$DW$39, DW_AT_name("version")
     616                            .dwattr $C$DW$39, DW_AT_TI_symbol_name("version")
     617                            .dwattr $C$DW$39, DW_AT_type(*$C$DW$T$11)
     618                            .dwattr $C$DW$39, DW_AT_location[DW_OP_reg4]
     619                    
     620                    $C$DW$40        .dwtag  DW_TAG_variable
     621                            .dwattr $C$DW$40, DW_AT_name("baseAddr")
     622                            .dwattr $C$DW$40, DW_AT_TI_symbol_name("baseAddr")
     623                            .dwattr $C$DW$40, DW_AT_type(*$C$DW$T$30)
     624                            .dwattr $C$DW$40, DW_AT_location[DW_OP_reg3]
     625                    
     626                    $C$DW$41        .dwtag  DW_TAG_variable
     627                            .dwattr $C$DW$41, DW_AT_name("hols")
     628                            .dwattr $C$DW$41, DW_AT_TI_symbol_name("hols")
     629                            .dwattr $C$DW$41, DW_AT_type(*$C$DW$T$30)
     630                            .dwattr $C$DW$41, DW_AT_location[DW_OP_reg5]
     631                    
     632                    $C$DW$42        .dwtag  DW_TAG_variable
     633                            .dwattr $C$DW$42, DW_AT_name("lppt")
     634                            .dwattr $C$DW$42, DW_AT_TI_symbol_name("lppt")
     635                            .dwattr $C$DW$42, DW_AT_type(*$C$DW$T$30)
     636                            .dwattr $C$DW$42, DW_AT_location[DW_OP_reg6]
     637                    
     638                    $C$DW$43        .dwtag  DW_TAG_variable
     639                            .dwattr $C$DW$43, DW_AT_name("dpd")
     640                            .dwattr $C$DW$43, DW_AT_TI_symbol_name("dpd")
     641                            .dwattr $C$DW$43, DW_AT_type(*$C$DW$T$30)
     642                            .dwattr $C$DW$43, DW_AT_location[DW_OP_reg20]
     643                    
     644                            .dwcfi  cfa_offset, 0
     645 00000144     36f7             STW     .D2T2   B13,*SP++(-8)     ; [B_D64P] |885| 
     646                            .dwcfi  cfa_offset, 8
     647                            .dwcfi  save_reg_to_mem, 29, 0
     648                    
     649 00000146     4647             MV      .L2     B4,B10            ; [B_L674] |885| 
     650 00000148     9577  ||         STDW    .D2T2   B11:B10,*SP++(-8) ; [B_D64P] |885| 
     651 0000014a     a5cf  ||         MV      .S2     B3,B13            ; [B_Sb674] |885| 
     652                    
     653                            .dwcfi  cfa_offset, 16
     654                            .dwcfi  save_reg_to_mem, 27, -4
     655                            .dwcfi  save_reg_to_mem, 26, -8
     656                            .dwcfi  save_reg_to_reg, 19, 29
     657                    $C$DW$44        .dwtag  DW_TAG_TI_branch
     658                            .dwattr $C$DW$44, DW_AT_low_pc(0x00)
     659                            .dwattr $C$DW$44, DW_AT_name("LCDVersionGet")
     660                            .dwattr $C$DW$44, DW_AT_TI_call
TMS320C6x Assembler PC v8.1.3 Fri Apr 14 08:40:35 2017

Tools Copyright (c) 1996-2015 Texas Instruments Incorporated
raster.asm                                                           PAGE   13

     661                    
     662                    
     663 0000014c 10000013!            CALLP   .S2     LCDVersionGet,B3  ; [B_Sb674] |888| 
     664 00000150     6646  ||         MV      .L1     A4,A11            ; [A_L674] |885| 
     665 00000152     474e  ||         MV      .S1     A6,A10            ; [A_S674] |885| 
     666 00000154     8577  ||         STDW    .D2T1   A11:A10,*SP++(-8) ; [B_D64P] |885| 
     667 00000156     6747  ||         MV      .L2     B6,B11            ; [B_L674] |885| 
     668                    
     669                            .dwcfi  cfa_offset, 24
     670                            .dwcfi  save_reg_to_mem, 11, -12
     671                            .dwcfi  save_reg_to_mem, 10, -16
     672                            .dwpsn  file "C:/ti/OMAPL138_StarterWare_1_10_04_01/drivers/raster.c",line 888,column 5,is_stm
     673 00000160           $C$RL2:    ; CALLP OCCURS {LCDVersionGet} {0}  ; [] |888| 
     674                    ;** --------------------------------------------------------------------------*
     675                            .dwpsn  file "C:/ti/OMAPL138_StarterWare_1_10_04_01/drivers/raster.c",line 885,column 1,is_stm
     676                    
     677 00000160     658e             MV      .S1     A11,A3            ; [A_S674] |885| 
     678 00000164 00105a5b  ||         CMPEQ   .L2X    A4,2,B0           ; [B_L674] |888| 
     679 00000162     2226  ||         CMPEQ   .L1     A4,1,A0           ; [A_L674] |911| 
     680 00000168     c516  ||         MV      .D1     A10,A6            ; [A_D64P] |885| 
     681 0000016a     858f  ||         MV      .S2     B11,B4            ; [B_Sb674] |885| 
     682                    
     683                            .dwpsn  file "C:/ti/OMAPL138_StarterWare_1_10_04_01/drivers/raster.c",line 888,column 5,is_stm
     684                    
     685 0000016c 020cfec1             ADDAD   .D1     A3,7,A4           ; [A_D64P] |892| 
     686 00000178     a866  || [ B0]   MVK     .L1     1,A0              ; [A_L674] |914| nullify predicate
     687 00000174 20001091  || [ B0]   B       .S1     $C$L3             ; [A_S674] |888| 
     688 00000170 0291180b  ||         EXTU    .S2     B4,8,24,B5        ; [B_Sb674] |898| 
     689                    
     690                            .dwpsn  file "C:/ti/OMAPL138_StarterWare_1_10_04_01/drivers/raster.c",line 885,column 1,is_stm
     691                    
     692 00000188 d0001593     [!A0]   B       .S2     $C$L4             ; [B_Sb674] |911| 
     693 00000180 039ac609  ||         EXTU    .S1     A6,22,6,A7        ; [A_S674] |902| 
     694 00000184 23100265  || [ B0]   LDW     .D1T1   *A4(0),A6         ; [A_D64P] |892| 
     695 0000017a     a2d1  ||         ADD     .L2     B5,B5,B5          ; [B_L674] |898| 
     696 0000018c     b506  ||         MV      .L1X    B10,A5            ; [A_L674] |885| 
     697                    
     698                            .dwpsn  file "C:/ti/OMAPL138_StarterWare_1_10_04_01/drivers/raster.c",line 894,column 10,is_st
     699 0000018e     d263             EXTU    .S2     B4,16,16,B6       ; [B_Sb674] |894| 
     700                            .dwpsn  file "C:/ti/OMAPL138_StarterWare_1_10_04_01/drivers/raster.c",line 916,column 10,is_st
     701 00000190 331a0ca0     [!B0]   SHL     .S1     A6,16,A6          ; [A_S674] |916| 
     702                            .dwpsn  file "C:/ti/OMAPL138_StarterWare_1_10_04_01/drivers/raster.c",line 896,column 10,is_st
     703 00000194 040dfd40             ADDAW   .D1     A3,15,A8          ; [A_D64P] |896| 
     704                            .dwpsn  file "C:/ti/OMAPL138_StarterWare_1_10_04_01/drivers/raster.c",line 914,column 10,is_st
     705 00000198 320cfec0     [!B0]   ADDAD   .D1     A3,7,A4           ; [A_D64P] |914| 
     706                            .dwpsn  file "C:/ti/OMAPL138_StarterWare_1_10_04_01/drivers/raster.c",line 888,column 5,is_stm
     707                               ; BRANCHCC OCCURS {$C$L3}         ; [] |888| 
     708                    ;** --------------------------------------------------------------------------*
     709                            .dwpsn  file "C:/ti/OMAPL138_StarterWare_1_10_04_01/drivers/raster.c",line 914,column 10,is_st
     710 000001a0 c3900264     [ A0]   LDW     .D1T1   *A4(0),A7         ; [A_D64P] |914| 
     711                            .dwpsn  file "C:/ti/OMAPL138_StarterWare_1_10_04_01/drivers/raster.c",line 911,column 10,is_st
     712                               ; BRANCHCC OCCURS {$C$L4}         ; [] |911| 
     713                    ;** --------------------------------------------------------------------------*
     714                            .dwpsn  file "C:/ti/OMAPL138_StarterWare_1_10_04_01/drivers/raster.c",line 932,column 1,is_stm
     715 000001a4     6687             MV      .L2     B13,B3            ; [B_L674] |932| 
TMS320C6x Assembler PC v8.1.3 Fri Apr 14 08:40:35 2017

Tools Copyright (c) 1996-2015 Texas Instruments Incorporated
raster.asm                                                           PAGE   14

     716                            .dwcfi  restore_reg, 19
     717 000001a6     4c6e             NOP             3                 ; [A_L674] 
     718                            .dwpsn  file "C:/ti/OMAPL138_StarterWare_1_10_04_01/drivers/raster.c",line 914,column 10,is_st
     719 000001a8 039e19c8             CLR     .S1     A7,16,25,A7       ; [A_S674] |914| 
     720 000001ac     0074             STW     .D1T1   A7,*A4(0)         ; [A_D64P] |914| 
     721                            .dwpsn  file "C:/ti/OMAPL138_StarterWare_1_10_04_01/drivers/raster.c",line 916,column 10,is_st
     722 000001ae     007c             LDW     .D1T1   *A4(0),A7         ; [A_D64P] |916| 
     723 000001b0 00006000             NOP             4                 ; [A_L674] 
     724 000001b4 031ccff8             OR      .L1     A6,A7,A6          ; [A_L674] |916| 
     725 000001b8     0064             STW     .D1T1   A6,*A4(0)         ; [A_D64P] |916| 
     726                            .dwpsn  file "C:/ti/OMAPL138_StarterWare_1_10_04_01/drivers/raster.c",line 919,column 10,is_st
     727 000001ba     006c             LDW     .D1T1   *A4(0),A6         ; [A_D64P] |919| 
     728 000001c0 00006000             NOP             4                 ; [A_L674] 
     729 000001c4 03188fc8             CLR     .S1     A6,4,15,A6        ; [A_S674] |919| 
     730 000001c8     0064             STW     .D1T1   A6,*A4(0)         ; [A_D64P] |919| 
     731                            .dwpsn  file "C:/ti/OMAPL138_StarterWare_1_10_04_01/drivers/raster.c",line 920,column 10,is_st
     732 000001ca     105c             LDW     .D1T2   *A4(0),B5         ; [A_D64P] |920| 
     733                            .dwpsn  file "C:/ti/OMAPL138_StarterWare_1_10_04_01/drivers/raster.c",line 922,column 5,is_stm
     734                    
     735 000001cc 003b6121             BNOP            $C$L5,3           ; [] |922| 
     736 000001d0 030cfec0  ||         ADDAD   .D1     A3,7,A6           ; [A_D64P] |928| 
     737                    
     738                            .dwpsn  file "C:/ti/OMAPL138_StarterWare_1_10_04_01/drivers/raster.c",line 920,column 10,is_st
     739 000001d4 02148ffa             OR      .L2     B4,B5,B4          ; [B_L674] |920| 
     740                    
     741 000001e0 02100276             STW     .D1T2   B4,*A4(0)         ; [A_D64P] |920| 
     742 000001d8 0217aca1  ||         SHL     .S1     A5,29,A4          ; [A_S674] |929| 
     743                    
     744                            .dwpsn  file "C:/ti/OMAPL138_StarterWare_1_10_04_01/drivers/raster.c",line 922,column 5,is_stm
     745                               ; BRANCH OCCURS {$C$L5}           ; [] |922| 
     746                    ;** --------------------------------------------------------------------------*
     747 000001e4           $C$L3:    
     748                            .dwpsn  file "C:/ti/OMAPL138_StarterWare_1_10_04_01/drivers/raster.c",line 892,column 10,is_st
     749 000001e4 03180fc8             CLR     .S1     A6,0,15,A6        ; [A_S674] |892| 
     750 000001e8     0064             STW     .D1T1   A6,*A4(0)         ; [A_D64P] |892| 
     751                            .dwpsn  file "C:/ti/OMAPL138_StarterWare_1_10_04_01/drivers/raster.c",line 894,column 10,is_st
     752 000001ea     1064             STW     .D1T2   B6,*A4(0)         ; [A_D64P] |894| 
     753                            .dwpsn  file "C:/ti/OMAPL138_StarterWare_1_10_04_01/drivers/raster.c",line 896,column 10,is_st
     754 000001ec 03200264             LDW     .D1T1   *A8(0),A6         ; [A_D64P] |896| 
     755 000001f0 00000000             NOP             4                 ; [A_L674] 
     756 000001f0 031a17c8             CLR     .S1     A6,16,23,A6       ; [A_S674] |896| 
     757 000001f4 03200274             STW     .D1T1   A6,*A8(0)         ; [A_D64P] |896| 
     758                            .dwpsn  file "C:/ti/OMAPL138_StarterWare_1_10_04_01/drivers/raster.c",line 898,column 10,is_st
     759 000001f8 02a00276             STW     .D1T2   B5,*A8(0)         ; [A_D64P] |898| 
     760                            .dwpsn  file "C:/ti/OMAPL138_StarterWare_1_10_04_01/drivers/raster.c",line 900,column 10,is_st
     761 00000200 03100264             LDW     .D1T1   *A4(0),A6         ; [A_D64P] |900| 
     762 00000204 00000000             NOP             4                 ; [A_L674] 
     763 00000204 031a19c8             CLR     .S1     A6,16,25,A6       ; [A_S674] |900| 
     764 00000208     0064             STW     .D1T1   A6,*A4(0)         ; [A_D64P] |900| 
     765                            .dwpsn  file "C:/ti/OMAPL138_StarterWare_1_10_04_01/drivers/raster.c",line 902,column 10,is_st
     766 0000020a     006c             LDW     .D1T1   *A4(0),A6         ; [A_D64P] |902| 
     767 0000020c 00000000             NOP             4                 ; [A_L674] 
     768 0000020c 0318eff8             OR      .L1     A7,A6,A6          ; [A_L674] |902| 
     769 00000210 03100274             STW     .D1T1   A6,*A4(0)         ; [A_D64P] |902| 
     770                            .dwpsn  file "C:/ti/OMAPL138_StarterWare_1_10_04_01/drivers/raster.c",line 905,column 10,is_st
TMS320C6x Assembler PC v8.1.3 Fri Apr 14 08:40:35 2017

Tools Copyright (c) 1996-2015 Texas Instruments Incorporated
raster.asm                                                           PAGE   15

     771 00000214 02200264             LDW     .D1T1   *A8(0),A4         ; [A_D64P] |905| 
     772 00000218 00000000             NOP             4                 ; [A_L674] 
     773 00000218 021108c8             CLR     .S1     A4,8,8,A4         ; [A_S674] |905| 
     774 00000220 02200274             STW     .D1T1   A4,*A8(0)         ; [A_D64P] |905| 
     775                            .dwpsn  file "C:/ti/OMAPL138_StarterWare_1_10_04_01/drivers/raster.c",line 907,column 10,is_st
     776 00000224 02200264             LDW     .D1T1   *A8(0),A4         ; [A_D64P] |907| 
     777 00000228 00000000             NOP             4                 ; [A_L674] 
     778 00000228 02200274             STW     .D1T1   A4,*A8(0)         ; [A_D64P] |907| 
     779                    ;** --------------------------------------------------------------------------*
     780 0000022c           $C$L4:    
     781                            .dwpsn  file "C:/ti/OMAPL138_StarterWare_1_10_04_01/drivers/raster.c",line 928,column 5,is_stm
     782                    
     783 0000022c 0217aca1             SHL     .S1     A5,29,A4          ; [A_S674] |929| 
     784 00000234     6687  ||         MV      .L2     B13,B3            ; [B_L674] |932| 
     785 00000230 030cfec1  ||         ADDAD   .D1     A3,7,A6           ; [A_D64P] |928| 
     786                    
     787                            .dwcfi  restore_reg, 19
     788                    ;** --------------------------------------------------------------------------*
     789 00000236           $C$L5:    
     790 00000236     013c             LDW     .D1T1   *A6(0),A3         ; [A_D64P] |928| 
     791 00000238 00000000             NOP             4                 ; [A_L674] 
     792 00000238     b9c2             CLR     .S1     A3,29,29,A3       ; [A_S674] |928| 
     793 0000023a     0134             STW     .D1T1   A3,*A6(0)         ; [A_D64P] |928| 
     794                            .dwpsn  file "C:/ti/OMAPL138_StarterWare_1_10_04_01/drivers/raster.c",line 929,column 5,is_stm
     795 00000240     013c             LDW     .D1T1   *A6(0),A3         ; [A_D64P] |929| 
     796                            .dwpsn  file "C:/ti/OMAPL138_StarterWare_1_10_04_01/drivers/raster.c",line 932,column 1,is_stm
     797 00000242     c577             LDDW    .D2T1   *++SP(8),A11:A10  ; [B_D64P] |932| 
     798                            .dwcfi  cfa_offset, 16
     799                            .dwcfi  restore_reg, 11
     800                            .dwcfi  restore_reg, 10
     801                    $C$DW$45        .dwtag  DW_TAG_TI_branch
     802                            .dwattr $C$DW$45, DW_AT_low_pc(0x04)
     803                            .dwattr $C$DW$45, DW_AT_TI_return
     804                    
     805                    
     806 00000244     d577             LDDW    .D2T2   *++SP(8),B11:B10  ; [B_D64P] |932| 
     807 00000246     01ef  ||         RET     .S2     B3                ; [B_Sb674] |932| 
     808                    
     809                            .dwcfi  cfa_offset, 8
     810                            .dwcfi  restore_reg, 27
     811                            .dwcfi  restore_reg, 26
     812 00000248     76f7             LDW     .D2T2   *++SP(8),B13      ; [B_D64P] |932| 
     813                            .dwcfi  cfa_offset, 0
     814                            .dwcfi  restore_reg, 29
     815 0000024a     2c6e             NOP             2                 ; [A_L674] 
     816                            .dwpsn  file "C:/ti/OMAPL138_StarterWare_1_10_04_01/drivers/raster.c",line 929,column 5,is_stm
     817 0000024c 018c8ff8             OR      .L1     A4,A3,A3          ; [A_L674] |929| 
     818 00000250 01980274             STW     .D1T1   A3,*A6(0)         ; [A_D64P] |929| 
     819                            .dwpsn  file "C:/ti/OMAPL138_StarterWare_1_10_04_01/drivers/raster.c",line 932,column 1,is_stm
     820                               ; BRANCH OCCURS {B3}              ; [] |932| 
     821                            .dwattr $C$DW$34, DW_AT_TI_end_file("C:/ti/OMAPL138_StarterWare_1_10_04_01/drivers/raster.c")
     822                            .dwattr $C$DW$34, DW_AT_TI_end_line(0x3a4)
     823                            .dwattr $C$DW$34, DW_AT_TI_end_column(0x01)
     824                            .dwendentry
     825                            .dwendtag $C$DW$34
TMS320C6x Assembler PC v8.1.3 Fri Apr 14 08:40:35 2017

Tools Copyright (c) 1996-2015 Texas Instruments Incorporated
raster.asm                                                           PAGE   16

     826                    
     827 00000254                   .sect   ".text"
     828                            .clink
     829                            .global RasterStandbyModeConfig
     830                    
     831                    $C$DW$46        .dwtag  DW_TAG_subprogram
     832                            .dwattr $C$DW$46, DW_AT_name("RasterStandbyModeConfig")
     833                            .dwattr $C$DW$46, DW_AT_low_pc(RasterStandbyModeConfig)
     834                            .dwattr $C$DW$46, DW_AT_high_pc(0x00)
     835                            .dwattr $C$DW$46, DW_AT_TI_symbol_name("RasterStandbyModeConfig")
     836                            .dwattr $C$DW$46, DW_AT_external
     837                            .dwattr $C$DW$46, DW_AT_TI_begin_file("C:/ti/OMAPL138_StarterWare_1_10_04_01/drivers/raster.c"
     838                            .dwattr $C$DW$46, DW_AT_TI_begin_line(0x462)
     839                            .dwattr $C$DW$46, DW_AT_TI_begin_column(0x06)
     840                            .dwattr $C$DW$46, DW_AT_decl_file("C:/ti/OMAPL138_StarterWare_1_10_04_01/drivers/raster.c")
     841                            .dwattr $C$DW$46, DW_AT_decl_line(0x462)
     842                            .dwattr $C$DW$46, DW_AT_decl_column(0x06)
     843                            .dwattr $C$DW$46, DW_AT_TI_max_frame_size(0x00)
     844                            .dwpsn  file "C:/ti/OMAPL138_StarterWare_1_10_04_01/drivers/raster.c",line 1123,column 1,is_st
     845                    
     846                            .dwfde $C$DW$CIE, RasterStandbyModeConfig
     847                    $C$DW$47        .dwtag  DW_TAG_formal_parameter
     848                            .dwattr $C$DW$47, DW_AT_name("baseAddr")
     849                            .dwattr $C$DW$47, DW_AT_TI_symbol_name("baseAddr")
     850                            .dwattr $C$DW$47, DW_AT_type(*$C$DW$T$11)
     851                            .dwattr $C$DW$47, DW_AT_location[DW_OP_reg4]
     852                    
     853                    $C$DW$48        .dwtag  DW_TAG_formal_parameter
     854                            .dwattr $C$DW$48, DW_AT_name("flag")
     855                            .dwattr $C$DW$48, DW_AT_TI_symbol_name("flag")
     856                            .dwattr $C$DW$48, DW_AT_type(*$C$DW$T$11)
     857                            .dwattr $C$DW$48, DW_AT_location[DW_OP_reg20]
     858                    
     859                    
     860                    ;******************************************************************************
     861                    ;* FUNCTION NAME: RasterStandbyModeConfig                                     *
     862                    ;*                                                                            *
     863                    ;*   Regs Modified     : A3,A4,B4                                             *
     864                    ;*   Regs Used         : A3,A4,B3,B4                                          *
     865                    ;*   Local Frame Size  : 0 Args + 0 Auto + 0 Save = 0 byte                    *
     866                    ;******************************************************************************
     867                    RasterStandbyModeConfig:
     868                    ;** --------------------------------------------------------------------------*
     869                    $C$DW$49        .dwtag  DW_TAG_variable
     870                            .dwattr $C$DW$49, DW_AT_name("flag")
     871                            .dwattr $C$DW$49, DW_AT_TI_symbol_name("flag")
     872                            .dwattr $C$DW$49, DW_AT_type(*$C$DW$T$30)
     873                            .dwattr $C$DW$49, DW_AT_location[DW_OP_reg20]
     874                    
     875                    $C$DW$50        .dwtag  DW_TAG_variable
     876                            .dwattr $C$DW$50, DW_AT_name("baseAddr")
     877                            .dwattr $C$DW$50, DW_AT_TI_symbol_name("baseAddr")
     878                            .dwattr $C$DW$50, DW_AT_type(*$C$DW$T$30)
     879                            .dwattr $C$DW$50, DW_AT_location[DW_OP_reg4]
     880                    
TMS320C6x Assembler PC v8.1.3 Fri Apr 14 08:40:35 2017

Tools Copyright (c) 1996-2015 Texas Instruments Incorporated
raster.asm                                                           PAGE   17

     881                            .dwcfi  cfa_offset, 0
     882                            .dwpsn  file "C:/ti/OMAPL138_StarterWare_1_10_04_01/drivers/raster.c",line 1124,column 5,is_st
     883 00000254 0192bd40             ADDAW   .D1     A4,21,A3          ; [A_D64P] |1124| 
     884 00000258 020c0264             LDW     .D1T1   *A3(0),A4         ; [A_D64P] |1124| 
     885 00000260 00006000             NOP             4                 ; [A_L674] 
     886 00000264 021085c8             CLR     .S1     A4,4,5,A4         ; [A_S674] |1124| 
     887 00000268 020c0274             STW     .D1T1   A4,*A3(0)         ; [A_D64P] |1124| 
     888                            .dwpsn  file "C:/ti/OMAPL138_StarterWare_1_10_04_01/drivers/raster.c",line 1125,column 5,is_st
     889 0000026c 020c0264             LDW     .D1T1   *A3(0),A4         ; [A_D64P] |1125| 
     890                            .dwpsn  file "C:/ti/OMAPL138_StarterWare_1_10_04_01/drivers/raster.c",line 1126,column 1,is_st
     891                    $C$DW$51        .dwtag  DW_TAG_TI_branch
     892                            .dwattr $C$DW$51, DW_AT_low_pc(0x00)
     893                            .dwattr $C$DW$51, DW_AT_TI_return
     894                    
     895 00000270 008c6362             RETNOP          B3,3              ; [] |1126| 
     896                            .dwpsn  file "C:/ti/OMAPL138_StarterWare_1_10_04_01/drivers/raster.c",line 1125,column 5,is_st
     897 00000274 02109ffa             OR      .L2X    B4,A4,B4          ; [B_L674] |1125| 
     898 00000278 020c0277             STW     .D1T2   B4,*A3(0)         ; [A_D64P] |1125| 
     899                            .dwpsn  file "C:/ti/OMAPL138_StarterWare_1_10_04_01/drivers/raster.c",line 1126,column 1,is_st
     900                               ; BRANCH OCCURS {B3}              ; [] |1126| 
     901                            .dwattr $C$DW$46, DW_AT_TI_end_file("C:/ti/OMAPL138_StarterWare_1_10_04_01/drivers/raster.c")
     902                            .dwattr $C$DW$46, DW_AT_TI_end_line(0x466)
     903                            .dwattr $C$DW$46, DW_AT_TI_end_column(0x01)
     904                            .dwendentry
     905                            .dwendtag $C$DW$46
     906                    
     907 00000280                   .sect   ".text"
     908                            .clink
     909                            .global RasterSoftWareResetControlEnable
     910                    
     911                    $C$DW$52        .dwtag  DW_TAG_subprogram
     912                            .dwattr $C$DW$52, DW_AT_name("RasterSoftWareResetControlEnable")
     913                            .dwattr $C$DW$52, DW_AT_low_pc(RasterSoftWareResetControlEnable)
     914                            .dwattr $C$DW$52, DW_AT_high_pc(0x00)
     915                            .dwattr $C$DW$52, DW_AT_TI_symbol_name("RasterSoftWareResetControlEnable")
     916                            .dwattr $C$DW$52, DW_AT_external
     917                            .dwattr $C$DW$52, DW_AT_TI_begin_file("C:/ti/OMAPL138_StarterWare_1_10_04_01/drivers/raster.c"
     918                            .dwattr $C$DW$52, DW_AT_TI_begin_line(0x404)
     919                            .dwattr $C$DW$52, DW_AT_TI_begin_column(0x06)
     920                            .dwattr $C$DW$52, DW_AT_decl_file("C:/ti/OMAPL138_StarterWare_1_10_04_01/drivers/raster.c")
     921                            .dwattr $C$DW$52, DW_AT_decl_line(0x404)
     922                            .dwattr $C$DW$52, DW_AT_decl_column(0x06)
     923                            .dwattr $C$DW$52, DW_AT_TI_max_frame_size(0x00)
     924                            .dwpsn  file "C:/ti/OMAPL138_StarterWare_1_10_04_01/drivers/raster.c",line 1029,column 1,is_st
     925                    
     926                            .dwfde $C$DW$CIE, RasterSoftWareResetControlEnable
     927                    $C$DW$53        .dwtag  DW_TAG_formal_parameter
     928                            .dwattr $C$DW$53, DW_AT_name("baseAddr")
     929                            .dwattr $C$DW$53, DW_AT_TI_symbol_name("baseAddr")
     930                            .dwattr $C$DW$53, DW_AT_type(*$C$DW$T$11)
     931                            .dwattr $C$DW$53, DW_AT_location[DW_OP_reg4]
     932                    
     933                    $C$DW$54        .dwtag  DW_TAG_formal_parameter
     934                            .dwattr $C$DW$54, DW_AT_name("flag")
     935                            .dwattr $C$DW$54, DW_AT_TI_symbol_name("flag")
TMS320C6x Assembler PC v8.1.3 Fri Apr 14 08:40:35 2017

Tools Copyright (c) 1996-2015 Texas Instruments Incorporated
raster.asm                                                           PAGE   18

     936                            .dwattr $C$DW$54, DW_AT_type(*$C$DW$T$11)
     937                            .dwattr $C$DW$54, DW_AT_location[DW_OP_reg20]
     938                    
     939                    
     940                    ;******************************************************************************
     941                    ;* FUNCTION NAME: RasterSoftWareResetControlEnable                            *
     942                    ;*                                                                            *
     943                    ;*   Regs Modified     : A0,A3,A4,A5,B0,B1                                    *
     944                    ;*   Regs Used         : A0,A3,A4,A5,B0,B1,B3,B4                              *
     945                    ;*   Local Frame Size  : 0 Args + 0 Auto + 0 Save = 0 byte                    *
     946                    ;******************************************************************************
     947                    RasterSoftWareResetControlEnable:
     948                    ;** --------------------------------------------------------------------------*
     949                    $C$DW$55        .dwtag  DW_TAG_variable
     950                            .dwattr $C$DW$55, DW_AT_name("baseAddr")
     951                            .dwattr $C$DW$55, DW_AT_TI_symbol_name("baseAddr")
     952                            .dwattr $C$DW$55, DW_AT_type(*$C$DW$T$30)
     953                            .dwattr $C$DW$55, DW_AT_location[DW_OP_reg4]
     954                    
     955                    $C$DW$56        .dwtag  DW_TAG_variable
     956                            .dwattr $C$DW$56, DW_AT_name("flag")
     957                            .dwattr $C$DW$56, DW_AT_TI_symbol_name("flag")
     958                            .dwattr $C$DW$56, DW_AT_type(*$C$DW$T$30)
     959                            .dwattr $C$DW$56, DW_AT_location[DW_OP_reg20]
     960                    
     961                            .dwcfi  cfa_offset, 0
     962                            .dwpsn  file "C:/ti/OMAPL138_StarterWare_1_10_04_01/drivers/raster.c",line 1030,column 5,is_st
     963                    
     964 00000280 0191dec1             ADDAD   .D1     A4,14,A3          ; [A_D64P] |1032| 
     965 00000284 00103a59  ||         CMPEQ   .L1X    B4,1,A0           ; [A_L674] |1030| 
     966 00000288     8227  ||         CMPEQ   .L2     B4,4,B0           ; [B_L674] |1034| 
     967                    
     968 0000028a     49aa     [ A0]   BNOP            $C$L6,2           ; [] |1030| 
     969 0000028c c20c0265  || [ A0]   LDW     .D1T1   *A3(0),A4         ; [A_D64P] |1032| 
     970 00000290 00910a5a  ||         CMPEQ   .L2     B4,8,B1           ; [B_L674] |1038| 
     971                    
     972                            .dwpsn  file "C:/ti/OMAPL138_StarterWare_1_10_04_01/drivers/raster.c",line 1040,column 10,is_s
     973 00000294 2080a35a     [ B0]   ZERO    .L2     B1                ; [B_L674] |1040| 
     974                            .dwpsn  file "C:/ti/OMAPL138_StarterWare_1_10_04_01/drivers/raster.c",line 1036,column 10,is_s
     975 00000298 d191dec0     [!A0]   ADDAD   .D1     A4,14,A3          ; [A_D64P] |1036| 
     976                            .dwpsn  file "C:/ti/OMAPL138_StarterWare_1_10_04_01/drivers/raster.c",line 1032,column 10,is_s
     977 000002a0 c2102fd8     [ A0]   OR      .L1     1,A4,A4           ; [A_L674] |1032| 
     978                            .dwpsn  file "C:/ti/OMAPL138_StarterWare_1_10_04_01/drivers/raster.c",line 1030,column 5,is_st
     979                               ; BRANCHCC OCCURS {$C$L6}         ; [] |1030| 
     980                    ;** --------------------------------------------------------------------------*
     981                            .dwpsn  file "C:/ti/OMAPL138_StarterWare_1_10_04_01/drivers/raster.c",line 1036,column 10,is_s
     982 000002a4 228c0264     [ B0]   LDW     .D1T1   *A3(0),A5         ; [A_D64P] |1036| 
     983                            .dwpsn  file "C:/ti/OMAPL138_StarterWare_1_10_04_01/drivers/raster.c",line 1038,column 10,is_s
     984                    
     985 000002a8 50000693     [!B1]   B       .S2     $C$L7             ; [B_Sb674] |1038| 
     986 000002ac 3211dec0  || [!B0]   ADDAD   .D1     A4,14,A4          ; [A_D64P] |1040| 
     987                    
     988                            .dwpsn  file "C:/ti/OMAPL138_StarterWare_1_10_04_01/drivers/raster.c",line 1046,column 1,is_st
     989                    $C$DW$57        .dwtag  DW_TAG_TI_branch
     990                            .dwattr $C$DW$57, DW_AT_low_pc(0x00)
TMS320C6x Assembler PC v8.1.3 Fri Apr 14 08:40:35 2017

Tools Copyright (c) 1996-2015 Texas Instruments Incorporated
raster.asm                                                           PAGE   19

     991                            .dwattr $C$DW$57, DW_AT_TI_return
     992                    
     993 000002b0 508c4362     [!B1]   RETNOP          B3,2              ; [] |1046| 
     994                            .dwpsn  file "C:/ti/OMAPL138_StarterWare_1_10_04_01/drivers/raster.c",line 1036,column 10,is_s
     995 000002b4 22948fd8     [ B0]   OR      .L1     4,A5,A5           ; [A_L674] |1036| 
     996 000002b8 228c0274     [ B0]   STW     .D1T1   A5,*A3(0)         ; [A_D64P] |1036| 
     997                            .dwpsn  file "C:/ti/OMAPL138_StarterWare_1_10_04_01/drivers/raster.c",line 1038,column 10,is_s
     998                               ; BRANCHCC OCCURS {$C$L7}         ; [] |1038| 
     999                    ;** --------------------------------------------------------------------------*
    1000                            .dwcfi  remember_state
    1001                            .dwpsn  file "C:/ti/OMAPL138_StarterWare_1_10_04_01/drivers/raster.c",line 1040,column 10,is_s
    1002 000002bc 01900264             LDW     .D1T1   *A4(0),A3         ; [A_D64P] |1040| 
    1003                            .dwpsn  file "C:/ti/OMAPL138_StarterWare_1_10_04_01/drivers/raster.c",line 1046,column 1,is_st
    1004                    $C$DW$58        .dwtag  DW_TAG_TI_branch
    1005                            .dwattr $C$DW$58, DW_AT_low_pc(0x00)
    1006                            .dwattr $C$DW$58, DW_AT_TI_return
    1007                    
    1008 000002c0 008c6362             RETNOP          B3,3              ; [] |1046| 
    1009                            .dwpsn  file "C:/ti/OMAPL138_StarterWare_1_10_04_01/drivers/raster.c",line 1040,column 10,is_s
    1010 000002c4 018d0fd8             OR      .L1     8,A3,A3           ; [A_L674] |1040| 
    1011 000002c8 01900274             STW     .D1T1   A3,*A4(0)         ; [A_D64P] |1040| 
    1012                            .dwpsn  file "C:/ti/OMAPL138_StarterWare_1_10_04_01/drivers/raster.c",line 1046,column 1,is_st
    1013                               ; BRANCH OCCURS {B3}              ; [] |1046| 
    1014                            .dwcfi  restore_state
    1015                    ;** --------------------------------------------------------------------------*
    1016 000002cc           $C$L6:    
    1017                            .dwpsn  file "C:/ti/OMAPL138_StarterWare_1_10_04_01/drivers/raster.c",line 1032,column 10,is_s
    1018                    $C$DW$59        .dwtag  DW_TAG_TI_branch
    1019                            .dwattr $C$DW$59, DW_AT_low_pc(0x00)
    1020                            .dwattr $C$DW$59, DW_AT_TI_return
    1021                    
    1022                    
    1023 000002cc 008c8363             RETNOP          B3,4              ; [] |1046| 
    1024 000002d0 020c0274  ||         STW     .D1T1   A4,*A3(0)         ; [A_D64P] |1032| 
    1025                    
    1026                    ;** --------------------------------------------------------------------------*
    1027 000002d4           $C$L7:    
    1028 000002d4 00000001             NOP             1                 ; [A_L674] 
    1029                            .dwpsn  file "C:/ti/OMAPL138_StarterWare_1_10_04_01/drivers/raster.c",line 1046,column 1,is_st
    1030                               ; BRANCH OCCURS {B3}              ; [] |1046| 
    1031                            .dwattr $C$DW$52, DW_AT_TI_end_file("C:/ti/OMAPL138_StarterWare_1_10_04_01/drivers/raster.c")
    1032                            .dwattr $C$DW$52, DW_AT_TI_end_line(0x416)
    1033                            .dwattr $C$DW$52, DW_AT_TI_end_column(0x01)
    1034                            .dwendentry
    1035                            .dwendtag $C$DW$52
    1036                    
    1037 000002e0                   .sect   ".text"
    1038                            .clink
    1039                            .global RasterSoftWareResetControlDisable
    1040                    
    1041                    $C$DW$60        .dwtag  DW_TAG_subprogram
    1042                            .dwattr $C$DW$60, DW_AT_name("RasterSoftWareResetControlDisable")
    1043                            .dwattr $C$DW$60, DW_AT_low_pc(RasterSoftWareResetControlDisable)
    1044                            .dwattr $C$DW$60, DW_AT_high_pc(0x00)
    1045                            .dwattr $C$DW$60, DW_AT_TI_symbol_name("RasterSoftWareResetControlDisable")
TMS320C6x Assembler PC v8.1.3 Fri Apr 14 08:40:35 2017

Tools Copyright (c) 1996-2015 Texas Instruments Incorporated
raster.asm                                                           PAGE   20

    1046                            .dwattr $C$DW$60, DW_AT_external
    1047                            .dwattr $C$DW$60, DW_AT_TI_begin_file("C:/ti/OMAPL138_StarterWare_1_10_04_01/drivers/raster.c"
    1048                            .dwattr $C$DW$60, DW_AT_TI_begin_line(0x42b)
    1049                            .dwattr $C$DW$60, DW_AT_TI_begin_column(0x06)
    1050                            .dwattr $C$DW$60, DW_AT_decl_file("C:/ti/OMAPL138_StarterWare_1_10_04_01/drivers/raster.c")
    1051                            .dwattr $C$DW$60, DW_AT_decl_line(0x42b)
    1052                            .dwattr $C$DW$60, DW_AT_decl_column(0x06)
    1053                            .dwattr $C$DW$60, DW_AT_TI_max_frame_size(0x00)
    1054                            .dwpsn  file "C:/ti/OMAPL138_StarterWare_1_10_04_01/drivers/raster.c",line 1068,column 1,is_st
    1055                    
    1056                            .dwfde $C$DW$CIE, RasterSoftWareResetControlDisable
    1057                    $C$DW$61        .dwtag  DW_TAG_formal_parameter
    1058                            .dwattr $C$DW$61, DW_AT_name("baseAddr")
    1059                            .dwattr $C$DW$61, DW_AT_TI_symbol_name("baseAddr")
    1060                            .dwattr $C$DW$61, DW_AT_type(*$C$DW$T$11)
    1061                            .dwattr $C$DW$61, DW_AT_location[DW_OP_reg4]
    1062                    
    1063                    $C$DW$62        .dwtag  DW_TAG_formal_parameter
    1064                            .dwattr $C$DW$62, DW_AT_name("flag")
    1065                            .dwattr $C$DW$62, DW_AT_TI_symbol_name("flag")
    1066                            .dwattr $C$DW$62, DW_AT_type(*$C$DW$T$11)
    1067                            .dwattr $C$DW$62, DW_AT_location[DW_OP_reg20]
    1068                    
    1069                    
    1070                    ;******************************************************************************
    1071                    ;* FUNCTION NAME: RasterSoftWareResetControlDisable                           *
    1072                    ;*                                                                            *
    1073                    ;*   Regs Modified     : A0,A3,A4,A5,B0,B1                                    *
    1074                    ;*   Regs Used         : A0,A3,A4,A5,B0,B1,B3,B4                              *
    1075                    ;*   Local Frame Size  : 0 Args + 0 Auto + 0 Save = 0 byte                    *
    1076                    ;******************************************************************************
    1077                    RasterSoftWareResetControlDisable:
    1078                    ;** --------------------------------------------------------------------------*
    1079                    $C$DW$63        .dwtag  DW_TAG_variable
    1080                            .dwattr $C$DW$63, DW_AT_name("baseAddr")
    1081                            .dwattr $C$DW$63, DW_AT_TI_symbol_name("baseAddr")
    1082                            .dwattr $C$DW$63, DW_AT_type(*$C$DW$T$30)
    1083                            .dwattr $C$DW$63, DW_AT_location[DW_OP_reg4]
    1084                    
    1085                    $C$DW$64        .dwtag  DW_TAG_variable
    1086                            .dwattr $C$DW$64, DW_AT_name("flag")
    1087                            .dwattr $C$DW$64, DW_AT_TI_symbol_name("flag")
    1088                            .dwattr $C$DW$64, DW_AT_type(*$C$DW$T$30)
    1089                            .dwattr $C$DW$64, DW_AT_location[DW_OP_reg20]
    1090                    
    1091                            .dwcfi  cfa_offset, 0
    1092                            .dwpsn  file "C:/ti/OMAPL138_StarterWare_1_10_04_01/drivers/raster.c",line 1069,column 5,is_st
    1093                    
    1094 000002e0 0191dec1             ADDAD   .D1     A4,14,A3          ; [A_D64P] |1071| 
    1095 000002e4 00103a59  ||         CMPEQ   .L1X    B4,1,A0           ; [A_L674] |1069| 
    1096 000002e8     8227  ||         CMPEQ   .L2     B4,4,B0           ; [B_L674] |1073| 
    1097                    
    1098 000002ea     496a     [ A0]   BNOP            $C$L8,2           ; [] |1069| 
    1099 000002ec c20c0265  || [ A0]   LDW     .D1T1   *A3(0),A4         ; [A_D64P] |1071| 
    1100 000002f0 00910a5a  ||         CMPEQ   .L2     B4,8,B1           ; [B_L674] |1077| 
TMS320C6x Assembler PC v8.1.3 Fri Apr 14 08:40:35 2017

Tools Copyright (c) 1996-2015 Texas Instruments Incorporated
raster.asm                                                           PAGE   21

    1101                    
    1102                            .dwpsn  file "C:/ti/OMAPL138_StarterWare_1_10_04_01/drivers/raster.c",line 1079,column 10,is_s
    1103 000002f4 2080a35a     [ B0]   ZERO    .L2     B1                ; [B_L674] |1079| 
    1104                            .dwpsn  file "C:/ti/OMAPL138_StarterWare_1_10_04_01/drivers/raster.c",line 1075,column 10,is_s
    1105 000002f8 d191dec0     [!A0]   ADDAD   .D1     A4,14,A3          ; [A_D64P] |1075| 
    1106                            .dwpsn  file "C:/ti/OMAPL138_StarterWare_1_10_04_01/drivers/raster.c",line 1071,column 10,is_s
    1107 00000300 c213cf58     [ A0]   AND     .L1     -2,A4,A4          ; [A_L674] |1071| 
    1108                            .dwpsn  file "C:/ti/OMAPL138_StarterWare_1_10_04_01/drivers/raster.c",line 1069,column 5,is_st
    1109                               ; BRANCHCC OCCURS {$C$L8}         ; [] |1069| 
    1110                    ;** --------------------------------------------------------------------------*
    1111                            .dwpsn  file "C:/ti/OMAPL138_StarterWare_1_10_04_01/drivers/raster.c",line 1075,column 10,is_s
    1112 00000304 228c0264     [ B0]   LDW     .D1T1   *A3(0),A5         ; [A_D64P] |1075| 
    1113                            .dwpsn  file "C:/ti/OMAPL138_StarterWare_1_10_04_01/drivers/raster.c",line 1077,column 10,is_s
    1114                    
    1115 00000308 50000613     [!B1]   B       .S2     $C$L9             ; [B_Sb674] |1077| 
    1116 0000030c 3211dec0  || [!B0]   ADDAD   .D1     A4,14,A4          ; [A_D64P] |1079| 
    1117                    
    1118                            .dwpsn  file "C:/ti/OMAPL138_StarterWare_1_10_04_01/drivers/raster.c",line 1085,column 1,is_st
    1119                    $C$DW$65        .dwtag  DW_TAG_TI_branch
    1120                            .dwattr $C$DW$65, DW_AT_low_pc(0x00)
    1121                            .dwattr $C$DW$65, DW_AT_TI_return
    1122                    
    1123 00000310 508c4362     [!B1]   RETNOP          B3,2              ; [] |1085| 
    1124                            .dwpsn  file "C:/ti/OMAPL138_StarterWare_1_10_04_01/drivers/raster.c",line 1075,column 10,is_s
    1125 00000314 22976f58     [ B0]   AND     .L1     -5,A5,A5          ; [A_L674] |1075| 
    1126 00000318 228c0274     [ B0]   STW     .D1T1   A5,*A3(0)         ; [A_D64P] |1075| 
    1127                            .dwpsn  file "C:/ti/OMAPL138_StarterWare_1_10_04_01/drivers/raster.c",line 1077,column 10,is_s
    1128                               ; BRANCHCC OCCURS {$C$L9}         ; [] |1077| 
    1129                    ;** --------------------------------------------------------------------------*
    1130                            .dwcfi  remember_state
    1131                            .dwpsn  file "C:/ti/OMAPL138_StarterWare_1_10_04_01/drivers/raster.c",line 1079,column 10,is_s
    1132 0000031c 01900264             LDW     .D1T1   *A4(0),A3         ; [A_D64P] |1079| 
    1133                            .dwpsn  file "C:/ti/OMAPL138_StarterWare_1_10_04_01/drivers/raster.c",line 1085,column 1,is_st
    1134                    $C$DW$66        .dwtag  DW_TAG_TI_branch
    1135                            .dwattr $C$DW$66, DW_AT_low_pc(0x00)
    1136                            .dwattr $C$DW$66, DW_AT_TI_return
    1137                    
    1138 00000320 008c6362             RETNOP          B3,3              ; [] |1085| 
    1139                            .dwpsn  file "C:/ti/OMAPL138_StarterWare_1_10_04_01/drivers/raster.c",line 1079,column 10,is_s
    1140 00000324 018eef58             AND     .L1     -9,A3,A3          ; [A_L674] |1079| 
    1141 00000328     0034             STW     .D1T1   A3,*A4(0)         ; [A_D64P] |1079| 
    1142                            .dwpsn  file "C:/ti/OMAPL138_StarterWare_1_10_04_01/drivers/raster.c",line 1085,column 1,is_st
    1143                               ; BRANCH OCCURS {B3}              ; [] |1085| 
    1144                            .dwcfi  restore_state
    1145                    ;** --------------------------------------------------------------------------*
    1146 0000032a           $C$L8:    
    1147                            .dwpsn  file "C:/ti/OMAPL138_StarterWare_1_10_04_01/drivers/raster.c",line 1071,column 10,is_s
    1148                    $C$DW$67        .dwtag  DW_TAG_TI_branch
    1149                            .dwattr $C$DW$67, DW_AT_low_pc(0x00)
    1150                            .dwattr $C$DW$67, DW_AT_TI_return
    1151                    
    1152                    
    1153 0000032a     81ef             RETNOP          B3,4              ; [] |1085| 
    1154 0000032c 020c0274  ||         STW     .D1T1   A4,*A3(0)         ; [A_D64P] |1071| 
    1155                    
TMS320C6x Assembler PC v8.1.3 Fri Apr 14 08:40:35 2017

Tools Copyright (c) 1996-2015 Texas Instruments Incorporated
raster.asm                                                           PAGE   22

    1156                    ;** --------------------------------------------------------------------------*
    1157 00000330           $C$L9:    
    1158 00000330 00000000             NOP             1                 ; [A_L674] 
    1159                            .dwpsn  file "C:/ti/OMAPL138_StarterWare_1_10_04_01/drivers/raster.c",line 1085,column 1,is_st
    1160                               ; BRANCH OCCURS {B3}              ; [] |1085| 
    1161                            .dwattr $C$DW$60, DW_AT_TI_end_file("C:/ti/OMAPL138_StarterWare_1_10_04_01/drivers/raster.c")
    1162                            .dwattr $C$DW$60, DW_AT_TI_end_line(0x43d)
    1163                            .dwattr $C$DW$60, DW_AT_TI_end_column(0x01)
    1164                            .dwendentry
    1165                            .dwendtag $C$DW$60
    1166                    
    1167 00000334                   .sect   ".text"
    1168                            .clink
    1169                            .global RasterSoftWareClkEnable
    1170                    
    1171                    $C$DW$68        .dwtag  DW_TAG_subprogram
    1172                            .dwattr $C$DW$68, DW_AT_name("RasterSoftWareClkEnable")
    1173                            .dwattr $C$DW$68, DW_AT_low_pc(RasterSoftWareClkEnable)
    1174                            .dwattr $C$DW$68, DW_AT_high_pc(0x00)
    1175                            .dwattr $C$DW$68, DW_AT_TI_symbol_name("RasterSoftWareClkEnable")
    1176                            .dwattr $C$DW$68, DW_AT_external
    1177                            .dwattr $C$DW$68, DW_AT_TI_begin_file("C:/ti/OMAPL138_StarterWare_1_10_04_01/drivers/raster.c"
    1178                            .dwattr $C$DW$68, DW_AT_TI_begin_line(0x3c1)
    1179                            .dwattr $C$DW$68, DW_AT_TI_begin_column(0x06)
    1180                            .dwattr $C$DW$68, DW_AT_decl_file("C:/ti/OMAPL138_StarterWare_1_10_04_01/drivers/raster.c")
    1181                            .dwattr $C$DW$68, DW_AT_decl_line(0x3c1)
    1182                            .dwattr $C$DW$68, DW_AT_decl_column(0x06)
    1183                            .dwattr $C$DW$68, DW_AT_TI_max_frame_size(0x00)
    1184                            .dwpsn  file "C:/ti/OMAPL138_StarterWare_1_10_04_01/drivers/raster.c",line 962,column 1,is_stm
    1185                    
    1186                            .dwfde $C$DW$CIE, RasterSoftWareClkEnable
    1187                    $C$DW$69        .dwtag  DW_TAG_formal_parameter
    1188                            .dwattr $C$DW$69, DW_AT_name("baseAddr")
    1189                            .dwattr $C$DW$69, DW_AT_TI_symbol_name("baseAddr")
    1190                            .dwattr $C$DW$69, DW_AT_type(*$C$DW$T$11)
    1191                            .dwattr $C$DW$69, DW_AT_location[DW_OP_reg4]
    1192                    
    1193                    
    1194                    ;******************************************************************************
    1195                    ;* FUNCTION NAME: RasterSoftWareClkEnable                                     *
    1196                    ;*                                                                            *
    1197                    ;*   Regs Modified     : A3,A4                                                *
    1198                    ;*   Regs Used         : A3,A4,B3                                             *
    1199                    ;*   Local Frame Size  : 0 Args + 0 Auto + 0 Save = 0 byte                    *
    1200                    ;******************************************************************************
    1201                    RasterSoftWareClkEnable:
    1202                    ;** --------------------------------------------------------------------------*
    1203                    $C$DW$70        .dwtag  DW_TAG_variable
    1204                            .dwattr $C$DW$70, DW_AT_name("baseAddr")
    1205                            .dwattr $C$DW$70, DW_AT_TI_symbol_name("baseAddr")
    1206                            .dwattr $C$DW$70, DW_AT_type(*$C$DW$T$30)
    1207                            .dwattr $C$DW$70, DW_AT_location[DW_OP_reg4]
    1208                    
    1209                            .dwcfi  cfa_offset, 0
    1210                            .dwpsn  file "C:/ti/OMAPL138_StarterWare_1_10_04_01/drivers/raster.c",line 963,column 5,is_stm
TMS320C6x Assembler PC v8.1.3 Fri Apr 14 08:40:35 2017

Tools Copyright (c) 1996-2015 Texas Instruments Incorporated
raster.asm                                                           PAGE   23

    1211 00000334 01937d40             ADDAW   .D1     A4,27,A3          ; [A_D64P] |963| 
    1212 00000338 020c0264             LDW     .D1T1   *A3(0),A4         ; [A_D64P] |963| 
    1213                            .dwpsn  file "C:/ti/OMAPL138_StarterWare_1_10_04_01/drivers/raster.c",line 964,column 1,is_stm
    1214                    $C$DW$71        .dwtag  DW_TAG_TI_branch
    1215                            .dwattr $C$DW$71, DW_AT_low_pc(0x00)
    1216                            .dwattr $C$DW$71, DW_AT_TI_return
    1217                    
    1218 00000340 008c6362             RETNOP          B3,3              ; [] |964| 
    1219                            .dwpsn  file "C:/ti/OMAPL138_StarterWare_1_10_04_01/drivers/raster.c",line 963,column 5,is_stm
    1220 00000344 02102fd8             OR      .L1     1,A4,A4           ; [A_L674] |963| 
    1221 00000348 020c0274             STW     .D1T1   A4,*A3(0)         ; [A_D64P] |963| 
    1222                            .dwpsn  file "C:/ti/OMAPL138_StarterWare_1_10_04_01/drivers/raster.c",line 964,column 1,is_stm
    1223                               ; BRANCH OCCURS {B3}              ; [] |964| 
    1224                            .dwattr $C$DW$68, DW_AT_TI_end_file("C:/ti/OMAPL138_StarterWare_1_10_04_01/drivers/raster.c")
    1225                            .dwattr $C$DW$68, DW_AT_TI_end_line(0x3c4)
    1226                            .dwattr $C$DW$68, DW_AT_TI_end_column(0x01)
    1227                            .dwendentry
    1228                            .dwendtag $C$DW$68
    1229                    
    1230 0000034c                   .sect   ".text"
    1231                            .clink
    1232                            .global RasterSoftWareClkDisable
    1233                    
    1234                    $C$DW$72        .dwtag  DW_TAG_subprogram
    1235                            .dwattr $C$DW$72, DW_AT_name("RasterSoftWareClkDisable")
    1236                            .dwattr $C$DW$72, DW_AT_low_pc(RasterSoftWareClkDisable)
    1237                            .dwattr $C$DW$72, DW_AT_high_pc(0x00)
    1238                            .dwattr $C$DW$72, DW_AT_TI_symbol_name("RasterSoftWareClkDisable")
    1239                            .dwattr $C$DW$72, DW_AT_external
    1240                            .dwattr $C$DW$72, DW_AT_TI_begin_file("C:/ti/OMAPL138_StarterWare_1_10_04_01/drivers/raster.c"
    1241                            .dwattr $C$DW$72, DW_AT_TI_begin_line(0x3d0)
    1242                            .dwattr $C$DW$72, DW_AT_TI_begin_column(0x06)
    1243                            .dwattr $C$DW$72, DW_AT_decl_file("C:/ti/OMAPL138_StarterWare_1_10_04_01/drivers/raster.c")
    1244                            .dwattr $C$DW$72, DW_AT_decl_line(0x3d0)
    1245                            .dwattr $C$DW$72, DW_AT_decl_column(0x06)
    1246                            .dwattr $C$DW$72, DW_AT_TI_max_frame_size(0x00)
    1247                            .dwpsn  file "C:/ti/OMAPL138_StarterWare_1_10_04_01/drivers/raster.c",line 977,column 1,is_stm
    1248                    
    1249                            .dwfde $C$DW$CIE, RasterSoftWareClkDisable
    1250                    $C$DW$73        .dwtag  DW_TAG_formal_parameter
    1251                            .dwattr $C$DW$73, DW_AT_name("baseAddr")
    1252                            .dwattr $C$DW$73, DW_AT_TI_symbol_name("baseAddr")
    1253                            .dwattr $C$DW$73, DW_AT_type(*$C$DW$T$11)
    1254                            .dwattr $C$DW$73, DW_AT_location[DW_OP_reg4]
    1255                    
    1256                    
    1257                    ;******************************************************************************
    1258                    ;* FUNCTION NAME: RasterSoftWareClkDisable                                    *
    1259                    ;*                                                                            *
    1260                    ;*   Regs Modified     : A3,A4                                                *
    1261                    ;*   Regs Used         : A3,A4,B3                                             *
    1262                    ;*   Local Frame Size  : 0 Args + 0 Auto + 0 Save = 0 byte                    *
    1263                    ;******************************************************************************
    1264                    RasterSoftWareClkDisable:
    1265                    ;** --------------------------------------------------------------------------*
TMS320C6x Assembler PC v8.1.3 Fri Apr 14 08:40:35 2017

Tools Copyright (c) 1996-2015 Texas Instruments Incorporated
raster.asm                                                           PAGE   24

    1266                    $C$DW$74        .dwtag  DW_TAG_variable
    1267                            .dwattr $C$DW$74, DW_AT_name("baseAddr")
    1268                            .dwattr $C$DW$74, DW_AT_TI_symbol_name("baseAddr")
    1269                            .dwattr $C$DW$74, DW_AT_type(*$C$DW$T$30)
    1270                            .dwattr $C$DW$74, DW_AT_location[DW_OP_reg4]
    1271                    
    1272                            .dwcfi  cfa_offset, 0
    1273                            .dwpsn  file "C:/ti/OMAPL138_StarterWare_1_10_04_01/drivers/raster.c",line 978,column 5,is_stm
    1274 0000034c 01937d40             ADDAW   .D1     A4,27,A3          ; [A_D64P] |978| 
    1275 00000350 020c0264             LDW     .D1T1   *A3(0),A4         ; [A_D64P] |978| 
    1276                            .dwpsn  file "C:/ti/OMAPL138_StarterWare_1_10_04_01/drivers/raster.c",line 979,column 1,is_stm
    1277                    $C$DW$75        .dwtag  DW_TAG_TI_branch
    1278                            .dwattr $C$DW$75, DW_AT_low_pc(0x00)
    1279                            .dwattr $C$DW$75, DW_AT_TI_return
    1280                    
    1281 00000354 008c6362             RETNOP          B3,3              ; [] |979| 
    1282                            .dwpsn  file "C:/ti/OMAPL138_StarterWare_1_10_04_01/drivers/raster.c",line 978,column 5,is_stm
    1283 00000358 0213cf58             AND     .L1     -2,A4,A4          ; [A_L674] |978| 
    1284 0000035c 020c0274             STW     .D1T1   A4,*A3(0)         ; [A_D64P] |978| 
    1285                            .dwpsn  file "C:/ti/OMAPL138_StarterWare_1_10_04_01/drivers/raster.c",line 979,column 1,is_stm
    1286                               ; BRANCH OCCURS {B3}              ; [] |979| 
    1287                            .dwattr $C$DW$72, DW_AT_TI_end_file("C:/ti/OMAPL138_StarterWare_1_10_04_01/drivers/raster.c")
    1288                            .dwattr $C$DW$72, DW_AT_TI_end_line(0x3d3)
    1289                            .dwattr $C$DW$72, DW_AT_TI_end_column(0x01)
    1290                            .dwendentry
    1291                            .dwendtag $C$DW$72
    1292                    
    1293 00000360                   .sect   ".text"
    1294                            .clink
    1295                            .global RasterNibbleModeEnable
    1296                    
    1297                    $C$DW$76        .dwtag  DW_TAG_subprogram
    1298                            .dwattr $C$DW$76, DW_AT_name("RasterNibbleModeEnable")
    1299                            .dwattr $C$DW$76, DW_AT_low_pc(RasterNibbleModeEnable)
    1300                            .dwattr $C$DW$76, DW_AT_high_pc(0x00)
    1301                            .dwattr $C$DW$76, DW_AT_TI_symbol_name("RasterNibbleModeEnable")
    1302                            .dwattr $C$DW$76, DW_AT_external
    1303                            .dwattr $C$DW$76, DW_AT_TI_begin_file("C:/ti/OMAPL138_StarterWare_1_10_04_01/drivers/raster.c"
    1304                            .dwattr $C$DW$76, DW_AT_TI_begin_line(0x14c)
    1305                            .dwattr $C$DW$76, DW_AT_TI_begin_column(0x06)
    1306                            .dwattr $C$DW$76, DW_AT_decl_file("C:/ti/OMAPL138_StarterWare_1_10_04_01/drivers/raster.c")
    1307                            .dwattr $C$DW$76, DW_AT_decl_line(0x14c)
    1308                            .dwattr $C$DW$76, DW_AT_decl_column(0x06)
    1309                            .dwattr $C$DW$76, DW_AT_TI_max_frame_size(0x00)
    1310                            .dwpsn  file "C:/ti/OMAPL138_StarterWare_1_10_04_01/drivers/raster.c",line 333,column 1,is_stm
    1311                    
    1312                            .dwfde $C$DW$CIE, RasterNibbleModeEnable
    1313                    $C$DW$77        .dwtag  DW_TAG_formal_parameter
    1314                            .dwattr $C$DW$77, DW_AT_name("baseAddr")
    1315                            .dwattr $C$DW$77, DW_AT_TI_symbol_name("baseAddr")
    1316                            .dwattr $C$DW$77, DW_AT_type(*$C$DW$T$11)
    1317                            .dwattr $C$DW$77, DW_AT_location[DW_OP_reg4]
    1318                    
    1319                    
    1320                    ;******************************************************************************
TMS320C6x Assembler PC v8.1.3 Fri Apr 14 08:40:35 2017

Tools Copyright (c) 1996-2015 Texas Instruments Incorporated
raster.asm                                                           PAGE   25

    1321                    ;* FUNCTION NAME: RasterNibbleModeEnable                                      *
    1322                    ;*                                                                            *
    1323                    ;*   Regs Modified     : A3,A4                                                *
    1324                    ;*   Regs Used         : A3,A4,B3                                             *
    1325                    ;*   Local Frame Size  : 0 Args + 0 Auto + 0 Save = 0 byte                    *
    1326                    ;******************************************************************************
    1327                    RasterNibbleModeEnable:
    1328                    ;** --------------------------------------------------------------------------*
    1329                    $C$DW$78        .dwtag  DW_TAG_variable
    1330                            .dwattr $C$DW$78, DW_AT_name("baseAddr")
    1331                            .dwattr $C$DW$78, DW_AT_TI_symbol_name("baseAddr")
    1332                            .dwattr $C$DW$78, DW_AT_type(*$C$DW$T$30)
    1333                            .dwattr $C$DW$78, DW_AT_location[DW_OP_reg4]
    1334                    
    1335                            .dwcfi  cfa_offset, 0
    1336                            .dwpsn  file "C:/ti/OMAPL138_StarterWare_1_10_04_01/drivers/raster.c",line 334,column 5,is_stm
    1337 00000360 0190bec0             ADDAD   .D1     A4,5,A3           ; [A_D64P] |334| 
    1338 00000364 020c0264             LDW     .D1T1   *A3(0),A4         ; [A_D64P] |334| 
    1339                            .dwpsn  file "C:/ti/OMAPL138_StarterWare_1_10_04_01/drivers/raster.c",line 335,column 1,is_stm
    1340                    $C$DW$79        .dwtag  DW_TAG_TI_branch
    1341                            .dwattr $C$DW$79, DW_AT_low_pc(0x00)
    1342                            .dwattr $C$DW$79, DW_AT_TI_return
    1343                    
    1344 00000368     61ef             RETNOP          B3,3              ; [] |335| 
    1345                            .dwpsn  file "C:/ti/OMAPL138_StarterWare_1_10_04_01/drivers/raster.c",line 334,column 5,is_stm
    1346 0000036a     d222             SET     .S1     A4,22,22,A4       ; [A_S674] |334| 
    1347 0000036c 020c0274             STW     .D1T1   A4,*A3(0)         ; [A_D64P] |334| 
    1348                            .dwpsn  file "C:/ti/OMAPL138_StarterWare_1_10_04_01/drivers/raster.c",line 335,column 1,is_stm
    1349                               ; BRANCH OCCURS {B3}              ; [] |335| 
    1350                            .dwattr $C$DW$76, DW_AT_TI_end_file("C:/ti/OMAPL138_StarterWare_1_10_04_01/drivers/raster.c")
    1351                            .dwattr $C$DW$76, DW_AT_TI_end_line(0x14f)
    1352                            .dwattr $C$DW$76, DW_AT_TI_end_column(0x01)
    1353                            .dwendentry
    1354                            .dwendtag $C$DW$76
    1355                    
    1356 00000370                   .sect   ".text"
    1357                            .clink
    1358                            .global RasterNibbleModeDisable
    1359                    
    1360                    $C$DW$80        .dwtag  DW_TAG_subprogram
    1361                            .dwattr $C$DW$80, DW_AT_name("RasterNibbleModeDisable")
    1362                            .dwattr $C$DW$80, DW_AT_low_pc(RasterNibbleModeDisable)
    1363                            .dwattr $C$DW$80, DW_AT_high_pc(0x00)
    1364                            .dwattr $C$DW$80, DW_AT_TI_symbol_name("RasterNibbleModeDisable")
    1365                            .dwattr $C$DW$80, DW_AT_external
    1366                            .dwattr $C$DW$80, DW_AT_TI_begin_file("C:/ti/OMAPL138_StarterWare_1_10_04_01/drivers/raster.c"
    1367                            .dwattr $C$DW$80, DW_AT_TI_begin_line(0x158)
    1368                            .dwattr $C$DW$80, DW_AT_TI_begin_column(0x06)
    1369                            .dwattr $C$DW$80, DW_AT_decl_file("C:/ti/OMAPL138_StarterWare_1_10_04_01/drivers/raster.c")
    1370                            .dwattr $C$DW$80, DW_AT_decl_line(0x158)
    1371                            .dwattr $C$DW$80, DW_AT_decl_column(0x06)
    1372                            .dwattr $C$DW$80, DW_AT_TI_max_frame_size(0x00)
    1373                            .dwpsn  file "C:/ti/OMAPL138_StarterWare_1_10_04_01/drivers/raster.c",line 345,column 1,is_stm
    1374                    
    1375                            .dwfde $C$DW$CIE, RasterNibbleModeDisable
TMS320C6x Assembler PC v8.1.3 Fri Apr 14 08:40:35 2017

Tools Copyright (c) 1996-2015 Texas Instruments Incorporated
raster.asm                                                           PAGE   26

    1376                    $C$DW$81        .dwtag  DW_TAG_formal_parameter
    1377                            .dwattr $C$DW$81, DW_AT_name("baseAddr")
    1378                            .dwattr $C$DW$81, DW_AT_TI_symbol_name("baseAddr")
    1379                            .dwattr $C$DW$81, DW_AT_type(*$C$DW$T$11)
    1380                            .dwattr $C$DW$81, DW_AT_location[DW_OP_reg4]
    1381                    
    1382                    
    1383                    ;******************************************************************************
    1384                    ;* FUNCTION NAME: RasterNibbleModeDisable                                     *
    1385                    ;*                                                                            *
    1386                    ;*   Regs Modified     : A3,A4                                                *
    1387                    ;*   Regs Used         : A3,A4,B3                                             *
    1388                    ;*   Local Frame Size  : 0 Args + 0 Auto + 0 Save = 0 byte                    *
    1389                    ;******************************************************************************
    1390                    RasterNibbleModeDisable:
    1391                    ;** --------------------------------------------------------------------------*
    1392                    $C$DW$82        .dwtag  DW_TAG_variable
    1393                            .dwattr $C$DW$82, DW_AT_name("baseAddr")
    1394                            .dwattr $C$DW$82, DW_AT_TI_symbol_name("baseAddr")
    1395                            .dwattr $C$DW$82, DW_AT_type(*$C$DW$T$30)
    1396                            .dwattr $C$DW$82, DW_AT_location[DW_OP_reg4]
    1397                    
    1398                            .dwcfi  cfa_offset, 0
    1399                            .dwpsn  file "C:/ti/OMAPL138_StarterWare_1_10_04_01/drivers/raster.c",line 346,column 5,is_stm
    1400 00000370 0190bec0             ADDAD   .D1     A4,5,A3           ; [A_D64P] |346| 
    1401 00000374 020c0264             LDW     .D1T1   *A3(0),A4         ; [A_D64P] |346| 
    1402                            .dwpsn  file "C:/ti/OMAPL138_StarterWare_1_10_04_01/drivers/raster.c",line 347,column 1,is_stm
    1403                    $C$DW$83        .dwtag  DW_TAG_TI_branch
    1404                            .dwattr $C$DW$83, DW_AT_low_pc(0x00)
    1405                            .dwattr $C$DW$83, DW_AT_TI_return
    1406                    
    1407 00000378     61ef             RETNOP          B3,3              ; [] |347| 
    1408                            .dwpsn  file "C:/ti/OMAPL138_StarterWare_1_10_04_01/drivers/raster.c",line 346,column 5,is_stm
    1409 0000037a     d242             CLR     .S1     A4,22,22,A4       ; [A_S674] |346| 
    1410 00000380 020c0274             STW     .D1T1   A4,*A3(0)         ; [A_D64P] |346| 
    1411                            .dwpsn  file "C:/ti/OMAPL138_StarterWare_1_10_04_01/drivers/raster.c",line 347,column 1,is_stm
    1412                               ; BRANCH OCCURS {B3}              ; [] |347| 
    1413                            .dwattr $C$DW$80, DW_AT_TI_end_file("C:/ti/OMAPL138_StarterWare_1_10_04_01/drivers/raster.c")
    1414                            .dwattr $C$DW$80, DW_AT_TI_end_line(0x15b)
    1415                            .dwattr $C$DW$80, DW_AT_TI_end_column(0x01)
    1416                            .dwendentry
    1417                            .dwendtag $C$DW$80
    1418                    
    1419 00000384                   .sect   ".text"
    1420                            .clink
    1421                            .global RasterModeConfig
    1422                    
    1423                    $C$DW$84        .dwtag  DW_TAG_subprogram
    1424                            .dwattr $C$DW$84, DW_AT_name("RasterModeConfig")
    1425                            .dwattr $C$DW$84, DW_AT_low_pc(RasterModeConfig)
    1426                            .dwattr $C$DW$84, DW_AT_high_pc(0x00)
    1427                            .dwattr $C$DW$84, DW_AT_TI_symbol_name("RasterModeConfig")
    1428                            .dwattr $C$DW$84, DW_AT_external
    1429                            .dwattr $C$DW$84, DW_AT_TI_begin_file("C:/ti/OMAPL138_StarterWare_1_10_04_01/drivers/raster.c"
    1430                            .dwattr $C$DW$84, DW_AT_TI_begin_line(0xb0)
TMS320C6x Assembler PC v8.1.3 Fri Apr 14 08:40:35 2017

Tools Copyright (c) 1996-2015 Texas Instruments Incorporated
raster.asm                                                           PAGE   27

    1431                            .dwattr $C$DW$84, DW_AT_TI_begin_column(0x06)
    1432                            .dwattr $C$DW$84, DW_AT_decl_file("C:/ti/OMAPL138_StarterWare_1_10_04_01/drivers/raster.c")
    1433                            .dwattr $C$DW$84, DW_AT_decl_line(0xb0)
    1434                            .dwattr $C$DW$84, DW_AT_decl_column(0x06)
    1435                            .dwattr $C$DW$84, DW_AT_TI_max_frame_size(0x00)
    1436                            .dwpsn  file "C:/ti/OMAPL138_StarterWare_1_10_04_01/drivers/raster.c",line 179,column 1,is_stm
    1437                    
    1438                            .dwfde $C$DW$CIE, RasterModeConfig
    1439                    $C$DW$85        .dwtag  DW_TAG_formal_parameter
    1440                            .dwattr $C$DW$85, DW_AT_name("baseAddr")
    1441                            .dwattr $C$DW$85, DW_AT_TI_symbol_name("baseAddr")
    1442                            .dwattr $C$DW$85, DW_AT_type(*$C$DW$T$11)
    1443                            .dwattr $C$DW$85, DW_AT_location[DW_OP_reg4]
    1444                    
    1445                    $C$DW$86        .dwtag  DW_TAG_formal_parameter
    1446                            .dwattr $C$DW$86, DW_AT_name("displayMode")
    1447                            .dwattr $C$DW$86, DW_AT_TI_symbol_name("displayMode")
    1448                            .dwattr $C$DW$86, DW_AT_type(*$C$DW$T$11)
    1449                            .dwattr $C$DW$86, DW_AT_location[DW_OP_reg20]
    1450                    
    1451                    $C$DW$87        .dwtag  DW_TAG_formal_parameter
    1452                            .dwattr $C$DW$87, DW_AT_name("paletteMode")
    1453                            .dwattr $C$DW$87, DW_AT_TI_symbol_name("paletteMode")
    1454                            .dwattr $C$DW$87, DW_AT_type(*$C$DW$T$11)
    1455                            .dwattr $C$DW$87, DW_AT_location[DW_OP_reg6]
    1456                    
    1457                    $C$DW$88        .dwtag  DW_TAG_formal_parameter
    1458                            .dwattr $C$DW$88, DW_AT_name("displayType")
    1459                            .dwattr $C$DW$88, DW_AT_TI_symbol_name("displayType")
    1460                            .dwattr $C$DW$88, DW_AT_type(*$C$DW$T$11)
    1461                            .dwattr $C$DW$88, DW_AT_location[DW_OP_reg22]
    1462                    
    1463                    $C$DW$89        .dwtag  DW_TAG_formal_parameter
    1464                            .dwattr $C$DW$89, DW_AT_name("flag")
    1465                            .dwattr $C$DW$89, DW_AT_TI_symbol_name("flag")
    1466                            .dwattr $C$DW$89, DW_AT_type(*$C$DW$T$11)
    1467                            .dwattr $C$DW$89, DW_AT_location[DW_OP_reg8]
    1468                    
    1469                    
    1470                    ;******************************************************************************
    1471                    ;* FUNCTION NAME: RasterModeConfig                                            *
    1472                    ;*                                                                            *
    1473                    ;*   Regs Modified     : A0,A3,A4,A5,A6,A7,A8,A9,B0,B1,B4,B5,B6,B7            *
    1474                    ;*   Regs Used         : A0,A3,A4,A5,A6,A7,A8,A9,B0,B1,B3,B4,B5,B6,B7         *
    1475                    ;*   Local Frame Size  : 0 Args + 0 Auto + 0 Save = 0 byte                    *
    1476                    ;******************************************************************************
    1477                    RasterModeConfig:
    1478                    ;** --------------------------------------------------------------------------*
    1479                    $C$DW$90        .dwtag  DW_TAG_variable
    1480                            .dwattr $C$DW$90, DW_AT_name("baseAddr")
    1481                            .dwattr $C$DW$90, DW_AT_TI_symbol_name("baseAddr")
    1482                            .dwattr $C$DW$90, DW_AT_type(*$C$DW$T$30)
    1483                            .dwattr $C$DW$90, DW_AT_location[DW_OP_reg4]
    1484                    
    1485                    $C$DW$91        .dwtag  DW_TAG_variable
TMS320C6x Assembler PC v8.1.3 Fri Apr 14 08:40:35 2017

Tools Copyright (c) 1996-2015 Texas Instruments Incorporated
raster.asm                                                           PAGE   28

    1486                            .dwattr $C$DW$91, DW_AT_name("displayMode")
    1487                            .dwattr $C$DW$91, DW_AT_TI_symbol_name("displayMode")
    1488                            .dwattr $C$DW$91, DW_AT_type(*$C$DW$T$30)
    1489                            .dwattr $C$DW$91, DW_AT_location[DW_OP_reg20]
    1490                    
    1491                    $C$DW$92        .dwtag  DW_TAG_variable
    1492                            .dwattr $C$DW$92, DW_AT_name("paletteMode")
    1493                            .dwattr $C$DW$92, DW_AT_TI_symbol_name("paletteMode")
    1494                            .dwattr $C$DW$92, DW_AT_type(*$C$DW$T$30)
    1495                            .dwattr $C$DW$92, DW_AT_location[DW_OP_reg6]
    1496                    
    1497                    $C$DW$93        .dwtag  DW_TAG_variable
    1498                            .dwattr $C$DW$93, DW_AT_name("displayType")
    1499                            .dwattr $C$DW$93, DW_AT_TI_symbol_name("displayType")
    1500                            .dwattr $C$DW$93, DW_AT_type(*$C$DW$T$30)
    1501                            .dwattr $C$DW$93, DW_AT_location[DW_OP_reg5]
    1502                    
    1503                    $C$DW$94        .dwtag  DW_TAG_variable
    1504                            .dwattr $C$DW$94, DW_AT_name("flag")
    1505                            .dwattr $C$DW$94, DW_AT_TI_symbol_name("flag")
    1506                            .dwattr $C$DW$94, DW_AT_type(*$C$DW$T$30)
    1507                            .dwattr $C$DW$94, DW_AT_location[DW_OP_reg16]
    1508                    
    1509                            .dwcfi  cfa_offset, 0
    1510                    
    1511 00000384     1407             MV      .L2X    A8,B0             ; [B_L674] |179| 
    1512 00000388 04010028  ||         MVK     .S1     512,A8            ; [A_S674] |198| 
    1513 00000386     b346  ||         MV      .L1X    B6,A5             ; [A_L674] |179| 
    1514                    
    1515 00000394 03101fda             MV      .L2X    A4,B6             ; [B_L674] |179| Define a twin register
    1516 00000390 04804029  ||         MVK     .S1     128,A9            ; [A_S674] |183| 
    1517 0000038c 0310dff9  ||         OR      .L1X    A6,B4,A6          ; [A_L674] |181| 
    1518                    
    1519                            .dwpsn  file "C:/ti/OMAPL138_StarterWare_1_10_04_01/drivers/raster.c",line 181,column 5,is_stm
    1520                    
    1521 00000398 00a01a7b             CMPEQ   .L2X    B0,A8,B1          ; [B_L674] |198| 
    1522 000003a0 0298a6e1  ||         OR      .S1     A5,A6,A5          ; [A_S674] |181| 
    1523 000003a4 00113a79  ||         CMPEQ   .L1X    B4,A9,A0          ; [A_L674] |183| 
    1524 000003a8 0218bec2  ||         ADDAD   .D2     B6,5,B4           ; [B_D64P] |181| 
    1525                    
    1526 000003ac     28e7     [ A0]   MVK     .L2     1,B1              ; [B_L674] |200| 
    1527 000003ae     0055  ||         STW     .D2T1   A5,*B4(0)         ; [B_D64P] |181| 
    1528                    
    1529                            .dwpsn  file "C:/ti/OMAPL138_StarterWare_1_10_04_01/drivers/raster.c",line 204,column 15,is_st
    1530 000003b0 539002e6     [!B1]   LDW     .D2T2   *B4(0),B7         ; [B_D64P] |204| 
    1531                            .dwpsn  file "C:/ti/OMAPL138_StarterWare_1_10_04_01/drivers/raster.c",line 200,column 15,is_st
    1532 000003b4 d298bec2     [!A0]   ADDAD   .D2     B6,5,B5           ; [B_D64P] |200| 
    1533                            .dwpsn  file "C:/ti/OMAPL138_StarterWare_1_10_04_01/drivers/raster.c",line 193,column 14,is_st
    1534 000003b8 d004a35a     [!A0]   MVK     .L2     1,B0              ; [B_L674] |193| 
    1535                            .dwpsn  file "C:/ti/OMAPL138_StarterWare_1_10_04_01/drivers/raster.c",line 188,column 15,is_st
    1536 000003c0 c190bec0     [ A0]   ADDAD   .D1     A4,5,A3           ; [A_D64P] |188| 
    1537                            .dwpsn  file "C:/ti/OMAPL138_StarterWare_1_10_04_01/drivers/raster.c",line 193,column 14,is_st
    1538 000003c4 c390bec0     [ A0]   ADDAD   .D1     A4,5,A7           ; [A_D64P] |193| 
    1539                            .dwpsn  file "C:/ti/OMAPL138_StarterWare_1_10_04_01/drivers/raster.c",line 204,column 15,is_st
    1540 000003c8 531d29ca     [!B1]   CLR     .S2     B7,9,9,B6         ; [B_Sb674] |204| 
TMS320C6x Assembler PC v8.1.3 Fri Apr 14 08:40:35 2017

Tools Copyright (c) 1996-2015 Texas Instruments Incorporated
raster.asm                                                           PAGE   29

    1541                    
    1542 000003cc 531002f7     [!B1]   STW     .D2T2   B6,*B4(0)         ; [B_D64P] |204| 
    1543 000003d0 c080a35a  || [ A0]   ZERO    .L2     B1                ; [B_L674] |204| 
    1544                    
    1545                            .dwpsn  file "C:/ti/OMAPL138_StarterWare_1_10_04_01/drivers/raster.c",line 200,column 15,is_st
    1546 000003d4 421402e6     [ B1]   LDW     .D2T2   *B5(0),B4         ; [B_D64P] |200| 
    1547 000003d8 00000000             NOP             4                 ; [A_L674] 
    1548 000003d8 4211298a     [ B1]   SET     .S2     B4,9,9,B4         ; [B_Sb674] |200| 
    1549 000003e0 421402f6     [ B1]   STW     .D2T2   B4,*B5(0)         ; [B_D64P] |200| 
    1550                            .dwpsn  file "C:/ti/OMAPL138_StarterWare_1_10_04_01/drivers/raster.c",line 188,column 15,is_st
    1551 000003e4 328c0264     [!B0]   LDW     .D1T1   *A3(0),A5         ; [A_D64P] |188| 
    1552 000003e8 00006000             NOP             4                 ; [A_L674] 
    1553 000003ec 3216f7c8     [!B0]   CLR     .S1     A5,23,23,A4       ; [A_S674] |188| 
    1554                    
    1555 000003f0 320c0275     [!B0]   STW     .D1T1   A4,*A3(0)         ; [A_D64P] |188| 
    1556 000003f4 d000a35a  || [!A0]   ZERO    .L2     B0                ; [B_L674] |188| 
    1557                    
    1558                            .dwpsn  file "C:/ti/OMAPL138_StarterWare_1_10_04_01/drivers/raster.c",line 193,column 14,is_st
    1559 000003f8 219c0264     [ B0]   LDW     .D1T1   *A7(0),A3         ; [A_D64P] |193| 
    1560                            .dwpsn  file "C:/ti/OMAPL138_StarterWare_1_10_04_01/drivers/raster.c",line 207,column 1,is_stm
    1561                    $C$DW$95        .dwtag  DW_TAG_TI_branch
    1562                            .dwattr $C$DW$95, DW_AT_low_pc(0x00)
    1563                            .dwattr $C$DW$95, DW_AT_TI_return
    1564                    
    1565 000003fc 008c6362             RETNOP          B3,3              ; [] |207| 
    1566                            .dwpsn  file "C:/ti/OMAPL138_StarterWare_1_10_04_01/drivers/raster.c",line 193,column 14,is_st
    1567 00000400 218ef788     [ B0]   SET     .S1     A3,23,23,A3       ; [A_S674] |193| 
    1568 00000404 219c0274     [ B0]   STW     .D1T1   A3,*A7(0)         ; [A_D64P] |193| 
    1569                            .dwpsn  file "C:/ti/OMAPL138_StarterWare_1_10_04_01/drivers/raster.c",line 207,column 1,is_stm
    1570                               ; BRANCH OCCURS {B3}              ; [] |207| 
    1571                            .dwattr $C$DW$84, DW_AT_TI_end_file("C:/ti/OMAPL138_StarterWare_1_10_04_01/drivers/raster.c")
    1572                            .dwattr $C$DW$84, DW_AT_TI_end_line(0xcf)
    1573                            .dwattr $C$DW$84, DW_AT_TI_end_column(0x01)
    1574                            .dwendentry
    1575                            .dwendtag $C$DW$84
    1576                    
    1577 00000408                   .sect   ".text"
    1578                            .clink
    1579                            .global RasterMSBDataOrderSelect
    1580                    
    1581                    $C$DW$96        .dwtag  DW_TAG_subprogram
    1582                            .dwattr $C$DW$96, DW_AT_name("RasterMSBDataOrderSelect")
    1583                            .dwattr $C$DW$96, DW_AT_low_pc(RasterMSBDataOrderSelect)
    1584                            .dwattr $C$DW$96, DW_AT_high_pc(0x00)
    1585                            .dwattr $C$DW$96, DW_AT_TI_symbol_name("RasterMSBDataOrderSelect")
    1586                            .dwattr $C$DW$96, DW_AT_external
    1587                            .dwattr $C$DW$96, DW_AT_TI_begin_file("C:/ti/OMAPL138_StarterWare_1_10_04_01/drivers/raster.c"
    1588                            .dwattr $C$DW$96, DW_AT_TI_begin_line(0xe6)
    1589                            .dwattr $C$DW$96, DW_AT_TI_begin_column(0x06)
    1590                            .dwattr $C$DW$96, DW_AT_decl_file("C:/ti/OMAPL138_StarterWare_1_10_04_01/drivers/raster.c")
    1591                            .dwattr $C$DW$96, DW_AT_decl_line(0xe6)
    1592                            .dwattr $C$DW$96, DW_AT_decl_column(0x06)
    1593                            .dwattr $C$DW$96, DW_AT_TI_max_frame_size(0x00)
    1594                            .dwpsn  file "C:/ti/OMAPL138_StarterWare_1_10_04_01/drivers/raster.c",line 231,column 1,is_stm
    1595                    
TMS320C6x Assembler PC v8.1.3 Fri Apr 14 08:40:35 2017

Tools Copyright (c) 1996-2015 Texas Instruments Incorporated
raster.asm                                                           PAGE   30

    1596                            .dwfde $C$DW$CIE, RasterMSBDataOrderSelect
    1597                    $C$DW$97        .dwtag  DW_TAG_formal_parameter
    1598                            .dwattr $C$DW$97, DW_AT_name("baseAddr")
    1599                            .dwattr $C$DW$97, DW_AT_TI_symbol_name("baseAddr")
    1600                            .dwattr $C$DW$97, DW_AT_type(*$C$DW$T$11)
    1601                            .dwattr $C$DW$97, DW_AT_location[DW_OP_reg4]
    1602                    
    1603                    
    1604                    ;******************************************************************************
    1605                    ;* FUNCTION NAME: RasterMSBDataOrderSelect                                    *
    1606                    ;*                                                                            *
    1607                    ;*   Regs Modified     : A3,A4                                                *
    1608                    ;*   Regs Used         : A3,A4,B3                                             *
    1609                    ;*   Local Frame Size  : 0 Args + 0 Auto + 0 Save = 0 byte                    *
    1610                    ;******************************************************************************
    1611                    RasterMSBDataOrderSelect:
    1612                    ;** --------------------------------------------------------------------------*
    1613                    $C$DW$98        .dwtag  DW_TAG_variable
    1614                            .dwattr $C$DW$98, DW_AT_name("baseAddr")
    1615                            .dwattr $C$DW$98, DW_AT_TI_symbol_name("baseAddr")
    1616                            .dwattr $C$DW$98, DW_AT_type(*$C$DW$T$30)
    1617                            .dwattr $C$DW$98, DW_AT_location[DW_OP_reg4]
    1618                    
    1619                            .dwcfi  cfa_offset, 0
    1620                            .dwpsn  file "C:/ti/OMAPL138_StarterWare_1_10_04_01/drivers/raster.c",line 232,column 5,is_stm
    1621 00000408 0190bec0             ADDAD   .D1     A4,5,A3           ; [A_D64P] |232| 
    1622 0000040c 020c0264             LDW     .D1T1   *A3(0),A4         ; [A_D64P] |232| 
    1623                            .dwpsn  file "C:/ti/OMAPL138_StarterWare_1_10_04_01/drivers/raster.c",line 233,column 1,is_stm
    1624                    $C$DW$99        .dwtag  DW_TAG_TI_branch
    1625                            .dwattr $C$DW$99, DW_AT_low_pc(0x00)
    1626                            .dwattr $C$DW$99, DW_AT_TI_return
    1627                    
    1628 00000410     61ef             RETNOP          B3,3              ; [] |233| 
    1629                            .dwpsn  file "C:/ti/OMAPL138_StarterWare_1_10_04_01/drivers/raster.c",line 232,column 5,is_stm
    1630 00000412     0a22             SET     .S1     A4,8,8,A4         ; [A_S674] |232| 
    1631 00000414 020c0274             STW     .D1T1   A4,*A3(0)         ; [A_D64P] |232| 
    1632                            .dwpsn  file "C:/ti/OMAPL138_StarterWare_1_10_04_01/drivers/raster.c",line 233,column 1,is_stm
    1633                               ; BRANCH OCCURS {B3}              ; [] |233| 
    1634                            .dwattr $C$DW$96, DW_AT_TI_end_file("C:/ti/OMAPL138_StarterWare_1_10_04_01/drivers/raster.c")
    1635                            .dwattr $C$DW$96, DW_AT_TI_end_line(0xe9)
    1636                            .dwattr $C$DW$96, DW_AT_TI_end_column(0x01)
    1637                            .dwendentry
    1638                            .dwendtag $C$DW$96
    1639                    
    1640 00000418                   .sect   ".text"
    1641                            .clink
    1642                            .global RasterLSBDataOrderSelect
    1643                    
    1644                    $C$DW$100       .dwtag  DW_TAG_subprogram
    1645                            .dwattr $C$DW$100, DW_AT_name("RasterLSBDataOrderSelect")
    1646                            .dwattr $C$DW$100, DW_AT_low_pc(RasterLSBDataOrderSelect)
    1647                            .dwattr $C$DW$100, DW_AT_high_pc(0x00)
    1648                            .dwattr $C$DW$100, DW_AT_TI_symbol_name("RasterLSBDataOrderSelect")
    1649                            .dwattr $C$DW$100, DW_AT_external
    1650                            .dwattr $C$DW$100, DW_AT_TI_begin_file("C:/ti/OMAPL138_StarterWare_1_10_04_01/drivers/raster.c
TMS320C6x Assembler PC v8.1.3 Fri Apr 14 08:40:35 2017

Tools Copyright (c) 1996-2015 Texas Instruments Incorporated
raster.asm                                                           PAGE   31

    1651                            .dwattr $C$DW$100, DW_AT_TI_begin_line(0xd9)
    1652                            .dwattr $C$DW$100, DW_AT_TI_begin_column(0x06)
    1653                            .dwattr $C$DW$100, DW_AT_decl_file("C:/ti/OMAPL138_StarterWare_1_10_04_01/drivers/raster.c")
    1654                            .dwattr $C$DW$100, DW_AT_decl_line(0xd9)
    1655                            .dwattr $C$DW$100, DW_AT_decl_column(0x06)
    1656                            .dwattr $C$DW$100, DW_AT_TI_max_frame_size(0x00)
    1657                            .dwpsn  file "C:/ti/OMAPL138_StarterWare_1_10_04_01/drivers/raster.c",line 218,column 1,is_stm
    1658                    
    1659                            .dwfde $C$DW$CIE, RasterLSBDataOrderSelect
    1660                    $C$DW$101       .dwtag  DW_TAG_formal_parameter
    1661                            .dwattr $C$DW$101, DW_AT_name("baseAddr")
    1662                            .dwattr $C$DW$101, DW_AT_TI_symbol_name("baseAddr")
    1663                            .dwattr $C$DW$101, DW_AT_type(*$C$DW$T$11)
    1664                            .dwattr $C$DW$101, DW_AT_location[DW_OP_reg4]
    1665                    
    1666                    
    1667                    ;******************************************************************************
    1668                    ;* FUNCTION NAME: RasterLSBDataOrderSelect                                    *
    1669                    ;*                                                                            *
    1670                    ;*   Regs Modified     : A3,A4                                                *
    1671                    ;*   Regs Used         : A3,A4,B3                                             *
    1672                    ;*   Local Frame Size  : 0 Args + 0 Auto + 0 Save = 0 byte                    *
    1673                    ;******************************************************************************
    1674                    RasterLSBDataOrderSelect:
    1675                    ;** --------------------------------------------------------------------------*
    1676                    $C$DW$102       .dwtag  DW_TAG_variable
    1677                            .dwattr $C$DW$102, DW_AT_name("baseAddr")
    1678                            .dwattr $C$DW$102, DW_AT_TI_symbol_name("baseAddr")
    1679                            .dwattr $C$DW$102, DW_AT_type(*$C$DW$T$30)
    1680                            .dwattr $C$DW$102, DW_AT_location[DW_OP_reg4]
    1681                    
    1682                            .dwcfi  cfa_offset, 0
    1683                            .dwpsn  file "C:/ti/OMAPL138_StarterWare_1_10_04_01/drivers/raster.c",line 219,column 5,is_stm
    1684 00000418 0190bec0             ADDAD   .D1     A4,5,A3           ; [A_D64P] |219| 
    1685 00000420 020c0264             LDW     .D1T1   *A3(0),A4         ; [A_D64P] |219| 
    1686                            .dwpsn  file "C:/ti/OMAPL138_StarterWare_1_10_04_01/drivers/raster.c",line 220,column 1,is_stm
    1687                    $C$DW$103       .dwtag  DW_TAG_TI_branch
    1688                            .dwattr $C$DW$103, DW_AT_low_pc(0x00)
    1689                            .dwattr $C$DW$103, DW_AT_TI_return
    1690                    
    1691 00000424     61ef             RETNOP          B3,3              ; [] |220| 
    1692                            .dwpsn  file "C:/ti/OMAPL138_StarterWare_1_10_04_01/drivers/raster.c",line 219,column 5,is_stm
    1693 00000426     0a42             CLR     .S1     A4,8,8,A4         ; [A_S674] |219| 
    1694 00000428 020c0274             STW     .D1T1   A4,*A3(0)         ; [A_D64P] |219| 
    1695                            .dwpsn  file "C:/ti/OMAPL138_StarterWare_1_10_04_01/drivers/raster.c",line 220,column 1,is_stm
    1696                               ; BRANCH OCCURS {B3}              ; [] |220| 
    1697                            .dwattr $C$DW$100, DW_AT_TI_end_file("C:/ti/OMAPL138_StarterWare_1_10_04_01/drivers/raster.c")
    1698                            .dwattr $C$DW$100, DW_AT_TI_end_line(0xdc)
    1699                            .dwattr $C$DW$100, DW_AT_TI_end_column(0x01)
    1700                            .dwendentry
    1701                            .dwendtag $C$DW$100
    1702                    
    1703 0000042c                   .sect   ".text"
    1704                            .clink
    1705                            .global RasterIntStatus
TMS320C6x Assembler PC v8.1.3 Fri Apr 14 08:40:35 2017

Tools Copyright (c) 1996-2015 Texas Instruments Incorporated
raster.asm                                                           PAGE   32

    1706                    
    1707                    $C$DW$104       .dwtag  DW_TAG_subprogram
    1708                            .dwattr $C$DW$104, DW_AT_name("RasterIntStatus")
    1709                            .dwattr $C$DW$104, DW_AT_low_pc(RasterIntStatus)
    1710                            .dwattr $C$DW$104, DW_AT_high_pc(0x00)
    1711                            .dwattr $C$DW$104, DW_AT_TI_symbol_name("RasterIntStatus")
    1712                            .dwattr $C$DW$104, DW_AT_external
    1713                            .dwattr $C$DW$104, DW_AT_type(*$C$DW$T$11)
    1714                            .dwattr $C$DW$104, DW_AT_TI_begin_file("C:/ti/OMAPL138_StarterWare_1_10_04_01/drivers/raster.c
    1715                            .dwattr $C$DW$104, DW_AT_TI_begin_line(0x290)
    1716                            .dwattr $C$DW$104, DW_AT_TI_begin_column(0x0e)
    1717                            .dwattr $C$DW$104, DW_AT_decl_file("C:/ti/OMAPL138_StarterWare_1_10_04_01/drivers/raster.c")
    1718                            .dwattr $C$DW$104, DW_AT_decl_line(0x290)
    1719                            .dwattr $C$DW$104, DW_AT_decl_column(0x0e)
    1720                            .dwattr $C$DW$104, DW_AT_TI_max_frame_size(0x18)
    1721                            .dwpsn  file "C:/ti/OMAPL138_StarterWare_1_10_04_01/drivers/raster.c",line 657,column 1,is_stm
    1722                    
    1723                            .dwfde $C$DW$CIE, RasterIntStatus
    1724                    $C$DW$105       .dwtag  DW_TAG_formal_parameter
    1725                            .dwattr $C$DW$105, DW_AT_name("baseAddr")
    1726                            .dwattr $C$DW$105, DW_AT_TI_symbol_name("baseAddr")
    1727                            .dwattr $C$DW$105, DW_AT_type(*$C$DW$T$11)
    1728                            .dwattr $C$DW$105, DW_AT_location[DW_OP_reg4]
    1729                    
    1730                    $C$DW$106       .dwtag  DW_TAG_formal_parameter
    1731                            .dwattr $C$DW$106, DW_AT_name("flag")
    1732                            .dwattr $C$DW$106, DW_AT_TI_symbol_name("flag")
    1733                            .dwattr $C$DW$106, DW_AT_type(*$C$DW$T$11)
    1734                            .dwattr $C$DW$106, DW_AT_location[DW_OP_reg20]
    1735                    
    1736                    
    1737                    ;******************************************************************************
    1738                    ;* FUNCTION NAME: RasterIntStatus                                             *
    1739                    ;*                                                                            *
    1740                    ;*   Regs Modified     : A0,A1,A2,A3,A4,A5,A6,A7,A8,A9,A10,A11,A16,A17,A18,   *
    1741                    ;*                           A19,A20,A21,A22,A23,A24,A25,A26,A27,A28,A29,A30, *
    1742                    ;*                           A31,B0,B1,B2,B3,B4,B5,B6,B7,B8,B9,B10,B11,SP,B16,*
    1743                    ;*                           B17,B18,B19,B20,B21,B22,B23,B24,B25,B26,B27,B28, *
    1744                    ;*                           B29,B30,B31                                      *
    1745                    ;*   Regs Used         : A0,A1,A2,A3,A4,A5,A6,A7,A8,A9,A10,A11,A16,A17,A18,   *
    1746                    ;*                           A19,A20,A21,A22,A23,A24,A25,A26,A27,A28,A29,A30, *
    1747                    ;*                           A31,B0,B1,B2,B3,B4,B5,B6,B7,B8,B9,B10,B11,DP,SP, *
    1748                    ;*                           B16,B17,B18,B19,B20,B21,B22,B23,B24,B25,B26,B27, *
    1749                    ;*                           B28,B29,B30,B31                                  *
    1750                    ;*   Local Frame Size  : 0 Args + 0 Auto + 24 Save = 24 byte                  *
    1751                    ;******************************************************************************
    1752                    RasterIntStatus:
    1753                    ;** --------------------------------------------------------------------------*
    1754                    $C$DW$107       .dwtag  DW_TAG_variable
    1755                            .dwattr $C$DW$107, DW_AT_name("baseAddr")
    1756                            .dwattr $C$DW$107, DW_AT_TI_symbol_name("baseAddr")
    1757                            .dwattr $C$DW$107, DW_AT_type(*$C$DW$T$30)
    1758                            .dwattr $C$DW$107, DW_AT_location[DW_OP_reg3]
    1759                    
    1760                    $C$DW$108       .dwtag  DW_TAG_variable
TMS320C6x Assembler PC v8.1.3 Fri Apr 14 08:40:35 2017

Tools Copyright (c) 1996-2015 Texas Instruments Incorporated
raster.asm                                                           PAGE   33

    1761                            .dwattr $C$DW$108, DW_AT_name("flag")
    1762                            .dwattr $C$DW$108, DW_AT_TI_symbol_name("flag")
    1763                            .dwattr $C$DW$108, DW_AT_type(*$C$DW$T$30)
    1764                            .dwattr $C$DW$108, DW_AT_location[DW_OP_reg20]
    1765                    
    1766                    $C$DW$109       .dwtag  DW_TAG_variable
    1767                            .dwattr $C$DW$109, DW_AT_name("status")
    1768                            .dwattr $C$DW$109, DW_AT_TI_symbol_name("status")
    1769                            .dwattr $C$DW$109, DW_AT_type(*$C$DW$T$11)
    1770                            .dwattr $C$DW$109, DW_AT_location[DW_OP_reg3]
    1771                    
    1772                    $C$DW$110       .dwtag  DW_TAG_variable
    1773                            .dwattr $C$DW$110, DW_AT_name("status")
    1774                            .dwattr $C$DW$110, DW_AT_TI_symbol_name("status")
    1775                            .dwattr $C$DW$110, DW_AT_type(*$C$DW$T$11)
    1776                            .dwattr $C$DW$110, DW_AT_location[DW_OP_reg21]
    1777                    
    1778                            .dwcfi  cfa_offset, 0
    1779 0000042c     25f7             STW     .D2T1   A11,*SP++(-8)     ; [B_D64P] |657| 
    1780                            .dwcfi  cfa_offset, 8
    1781                            .dwcfi  save_reg_to_mem, 11, 0
    1782                    
    1783 0000042e     9577             STDW    .D2T2   B11:B10,*SP++(-8) ; [B_D64P] |657| 
    1784 00000430     65c7  ||         MV      .L2     B3,B11            ; [B_L674] |657| 
    1785                    
    1786                            .dwcfi  cfa_offset, 16
    1787                            .dwcfi  save_reg_to_mem, 27, -4
    1788                            .dwcfi  save_reg_to_mem, 26, -8
    1789                            .dwcfi  save_reg_to_reg, 19, 27
    1790                    $C$DW$111       .dwtag  DW_TAG_TI_branch
    1791                            .dwattr $C$DW$111, DW_AT_low_pc(0x04)
    1792                            .dwattr $C$DW$111, DW_AT_name("LCDVersionGet")
    1793                            .dwattr $C$DW$111, DW_AT_TI_call
    1794                    
    1795                    
    1796 00000432     2577             STW     .D2T1   A10,*SP++(-8)     ; [B_D64P] |657| 
    1797 00000434 10000013! ||         CALLP   .S2     LCDVersionGet,B3  ; [B_Sb674] |661| 
    1798 00000438     4647  ||         MV      .L2     B4,B10            ; [B_L674] |657| 
    1799 0000043a     6646  ||         MV      .L1     A4,A11            ; [A_L674] |657| 
    1800                    
    1801                            .dwcfi  cfa_offset, 24
    1802                            .dwcfi  save_reg_to_mem, 10, -16
    1803                            .dwpsn  file "C:/ti/OMAPL138_StarterWare_1_10_04_01/drivers/raster.c",line 661,column 5,is_stm
    1804 00000440           $C$RL4:    ; CALLP OCCURS {LCDVersionGet} {0}  ; [] |661| 
    1805                            .dwpsn  file "C:/ti/OMAPL138_StarterWare_1_10_04_01/drivers/raster.c",line 657,column 1,is_stm
    1806                    
    1807 00000440     658e             MV      .S1     A11,A3            ; [A_S674] |657| 
    1808 00000442     4226  ||         CMPEQ   .L1     A4,2,A0           ; [A_L674] |661| 
    1809                    
    1810                            .dwpsn  file "C:/ti/OMAPL138_StarterWare_1_10_04_01/drivers/raster.c",line 665,column 10,is_st
    1811 00000444 c28ee266     [ A0]   LDW     .D1T2   *A3(92),B5        ; [A_D64P] |665| 
    1812                            .dwpsn  file "C:/ti/OMAPL138_StarterWare_1_10_04_01/drivers/raster.c",line 667,column 10,is_st
    1813 00000448 00103a5a             CMPEQ   .L2X    A4,1,B0           ; [B_L674] |667| 
    1814                            .dwpsn  file "C:/ti/OMAPL138_StarterWare_1_10_04_01/drivers/raster.c",line 676,column 5,is_stm
    1815 0000044c c000a35a     [ A0]   ZERO    .L2     B0                ; [B_L674] |676| 
TMS320C6x Assembler PC v8.1.3 Fri Apr 14 08:40:35 2017

Tools Copyright (c) 1996-2015 Texas Instruments Incorporated
raster.asm                                                           PAGE   34

    1816                            .dwpsn  file "C:/ti/OMAPL138_StarterWare_1_10_04_01/drivers/raster.c",line 669,column 10,is_st
    1817 00000450 218c4264     [ B0]   LDW     .D1T1   *A3(8),A3         ; [A_D64P] |669| 
    1818                            .dwpsn  file "C:/ti/OMAPL138_StarterWare_1_10_04_01/drivers/raster.c",line 657,column 1,is_stm
    1819 00000454 02280fda             MV      .L2     B10,B4            ; [B_L674] |657| 
    1820                            .dwpsn  file "C:/ti/OMAPL138_StarterWare_1_10_04_01/drivers/raster.c",line 665,column 10,is_st
    1821 00000458 c2948f7a     [ A0]   AND     .L2     B4,B5,B5          ; [B_L674] |665| 
    1822                            .dwpsn  file "C:/ti/OMAPL138_StarterWare_1_10_04_01/drivers/raster.c",line 676,column 5,is_stm
    1823 00000460 d500a358     [!A0]   ZERO    .L1     A10               ; [A_L674] |676| 
    1824 00000464 c5141fd8     [ A0]   MV      .L1X    B5,A10            ; [A_L674] |676| 
    1825                            .dwpsn  file "C:/ti/OMAPL138_StarterWare_1_10_04_01/drivers/raster.c",line 669,column 10,is_st
    1826 00000468 21907f78     [ B0]   AND     .L1X    B4,A3,A3          ; [A_L674] |669| 
    1827                            .dwpsn  file "C:/ti/OMAPL138_StarterWare_1_10_04_01/drivers/raster.c",line 676,column 5,is_stm
    1828 0000046c 250c0fd8     [ B0]   MV      .L1     A3,A10            ; [A_L674] |676| 
    1829                    
    1830 00000470     8506             MV      .L1     A10,A4            ; [A_L674] |676| 
    1831 00000472     6577  ||         LDW     .D2T1   *++SP(8),A10      ; [B_D64P] |677| 
    1832 00000474     6587  ||         MV      .L2     B11,B3            ; [B_L674] |677| 
    1833                    
    1834                            .dwcfi  cfa_offset, 16
    1835                            .dwcfi  restore_reg, 10
    1836                            .dwcfi  restore_reg, 19
    1837                            .dwpsn  file "C:/ti/OMAPL138_StarterWare_1_10_04_01/drivers/raster.c",line 677,column 1,is_stm
    1838                    $C$DW$112       .dwtag  DW_TAG_TI_branch
    1839                            .dwattr $C$DW$112, DW_AT_low_pc(0x04)
    1840                            .dwattr $C$DW$112, DW_AT_TI_return
    1841                    
    1842                    
    1843 00000476     d577             LDDW    .D2T2   *++SP(8),B11:B10  ; [B_D64P] |677| 
    1844 00000478     01ef  ||         RET     .S2     B3                ; [B_Sb674] |677| 
    1845                    
    1846                            .dwcfi  cfa_offset, 8
    1847                            .dwcfi  restore_reg, 27
    1848                            .dwcfi  restore_reg, 26
    1849 0000047a     65f7             LDW     .D2T1   *++SP(8),A11      ; [B_D64P] |677| 
    1850                            .dwcfi  cfa_offset, 0
    1851                            .dwcfi  restore_reg, 11
    1852 00000480 00006000             NOP             4                 ; [A_L674] 
    1853                               ; BRANCH OCCURS {B3}              ; [] |677| 
    1854                            .dwattr $C$DW$104, DW_AT_TI_end_file("C:/ti/OMAPL138_StarterWare_1_10_04_01/drivers/raster.c")
    1855                            .dwattr $C$DW$104, DW_AT_TI_end_line(0x2a5)
    1856                            .dwattr $C$DW$104, DW_AT_TI_end_column(0x01)
    1857                            .dwendentry
    1858                            .dwendtag $C$DW$104
    1859                    
    1860 00000484                   .sect   ".text"
    1861                            .clink
    1862                            .global RasterIntRawStatusSet
    1863                    
    1864                    $C$DW$113       .dwtag  DW_TAG_subprogram
    1865                            .dwattr $C$DW$113, DW_AT_name("RasterIntRawStatusSet")
    1866                            .dwattr $C$DW$113, DW_AT_low_pc(RasterIntRawStatusSet)
    1867                            .dwattr $C$DW$113, DW_AT_high_pc(0x00)
    1868                            .dwattr $C$DW$113, DW_AT_TI_symbol_name("RasterIntRawStatusSet")
    1869                            .dwattr $C$DW$113, DW_AT_external
    1870                            .dwattr $C$DW$113, DW_AT_TI_begin_file("C:/ti/OMAPL138_StarterWare_1_10_04_01/drivers/raster.c
TMS320C6x Assembler PC v8.1.3 Fri Apr 14 08:40:35 2017

Tools Copyright (c) 1996-2015 Texas Instruments Incorporated
raster.asm                                                           PAGE   35

    1871                            .dwattr $C$DW$113, DW_AT_TI_begin_line(0x2eb)
    1872                            .dwattr $C$DW$113, DW_AT_TI_begin_column(0x06)
    1873                            .dwattr $C$DW$113, DW_AT_decl_file("C:/ti/OMAPL138_StarterWare_1_10_04_01/drivers/raster.c")
    1874                            .dwattr $C$DW$113, DW_AT_decl_line(0x2eb)
    1875                            .dwattr $C$DW$113, DW_AT_decl_column(0x06)
    1876                            .dwattr $C$DW$113, DW_AT_TI_max_frame_size(0x00)
    1877                            .dwpsn  file "C:/ti/OMAPL138_StarterWare_1_10_04_01/drivers/raster.c",line 748,column 1,is_stm
    1878                    
    1879                            .dwfde $C$DW$CIE, RasterIntRawStatusSet
    1880                    $C$DW$114       .dwtag  DW_TAG_formal_parameter
    1881                            .dwattr $C$DW$114, DW_AT_name("baseAddr")
    1882                            .dwattr $C$DW$114, DW_AT_TI_symbol_name("baseAddr")
    1883                            .dwattr $C$DW$114, DW_AT_type(*$C$DW$T$11)
    1884                            .dwattr $C$DW$114, DW_AT_location[DW_OP_reg4]
    1885                    
    1886                    $C$DW$115       .dwtag  DW_TAG_formal_parameter
    1887                            .dwattr $C$DW$115, DW_AT_name("flag")
    1888                            .dwattr $C$DW$115, DW_AT_TI_symbol_name("flag")
    1889                            .dwattr $C$DW$115, DW_AT_type(*$C$DW$T$11)
    1890                            .dwattr $C$DW$115, DW_AT_location[DW_OP_reg20]
    1891                    
    1892                    
    1893                    ;******************************************************************************
    1894                    ;* FUNCTION NAME: RasterIntRawStatusSet                                       *
    1895                    ;*                                                                            *
    1896                    ;*   Regs Modified     : A3,A4,B4                                             *
    1897                    ;*   Regs Used         : A3,A4,B3,B4                                          *
    1898                    ;*   Local Frame Size  : 0 Args + 0 Auto + 0 Save = 0 byte                    *
    1899                    ;******************************************************************************
    1900                    RasterIntRawStatusSet:
    1901                    ;** --------------------------------------------------------------------------*
    1902                    $C$DW$116       .dwtag  DW_TAG_variable
    1903                            .dwattr $C$DW$116, DW_AT_name("flag")
    1904                            .dwattr $C$DW$116, DW_AT_TI_symbol_name("flag")
    1905                            .dwattr $C$DW$116, DW_AT_type(*$C$DW$T$30)
    1906                            .dwattr $C$DW$116, DW_AT_location[DW_OP_reg20]
    1907                    
    1908                    $C$DW$117       .dwtag  DW_TAG_variable
    1909                            .dwattr $C$DW$117, DW_AT_name("baseAddr")
    1910                            .dwattr $C$DW$117, DW_AT_TI_symbol_name("baseAddr")
    1911                            .dwattr $C$DW$117, DW_AT_type(*$C$DW$T$30)
    1912                            .dwattr $C$DW$117, DW_AT_location[DW_OP_reg4]
    1913                    
    1914                            .dwcfi  cfa_offset, 0
    1915                            .dwpsn  file "C:/ti/OMAPL138_StarterWare_1_10_04_01/drivers/raster.c",line 749,column 5,is_stm
    1916 00000484 01917ec0             ADDAD   .D1     A4,11,A3          ; [A_D64P] |749| 
    1917 00000488 020c0264             LDW     .D1T1   *A3(0),A4         ; [A_D64P] |749| 
    1918                            .dwpsn  file "C:/ti/OMAPL138_StarterWare_1_10_04_01/drivers/raster.c",line 750,column 1,is_stm
    1919                    $C$DW$118       .dwtag  DW_TAG_TI_branch
    1920                            .dwattr $C$DW$118, DW_AT_low_pc(0x00)
    1921                            .dwattr $C$DW$118, DW_AT_TI_return
    1922                    
    1923 0000048c 008c6362             RETNOP          B3,3              ; [] |750| 
    1924                            .dwpsn  file "C:/ti/OMAPL138_StarterWare_1_10_04_01/drivers/raster.c",line 749,column 5,is_stm
    1925 00000490 02109ffa             OR      .L2X    B4,A4,B4          ; [B_L674] |749| 
TMS320C6x Assembler PC v8.1.3 Fri Apr 14 08:40:35 2017

Tools Copyright (c) 1996-2015 Texas Instruments Incorporated
raster.asm                                                           PAGE   36

    1926 00000494 020c0276             STW     .D1T2   B4,*A3(0)         ; [A_D64P] |749| 
    1927                            .dwpsn  file "C:/ti/OMAPL138_StarterWare_1_10_04_01/drivers/raster.c",line 750,column 1,is_stm
    1928                               ; BRANCH OCCURS {B3}              ; [] |750| 
    1929                            .dwattr $C$DW$113, DW_AT_TI_end_file("C:/ti/OMAPL138_StarterWare_1_10_04_01/drivers/raster.c")
    1930                            .dwattr $C$DW$113, DW_AT_TI_end_line(0x2ee)
    1931                            .dwattr $C$DW$113, DW_AT_TI_end_column(0x01)
    1932                            .dwendentry
    1933                            .dwendtag $C$DW$113
    1934                    
    1935 00000498                   .sect   ".text"
    1936                            .clink
    1937                            .global RasterIntRawStatus
    1938                    
    1939                    $C$DW$119       .dwtag  DW_TAG_subprogram
    1940                            .dwattr $C$DW$119, DW_AT_name("RasterIntRawStatus")
    1941                            .dwattr $C$DW$119, DW_AT_low_pc(RasterIntRawStatus)
    1942                            .dwattr $C$DW$119, DW_AT_high_pc(0x00)
    1943                            .dwattr $C$DW$119, DW_AT_TI_symbol_name("RasterIntRawStatus")
    1944                            .dwattr $C$DW$119, DW_AT_external
    1945                            .dwattr $C$DW$119, DW_AT_type(*$C$DW$T$10)
    1946                            .dwattr $C$DW$119, DW_AT_TI_begin_file("C:/ti/OMAPL138_StarterWare_1_10_04_01/drivers/raster.c
    1947                            .dwattr $C$DW$119, DW_AT_TI_begin_line(0x2c4)
    1948                            .dwattr $C$DW$119, DW_AT_TI_begin_column(0x05)
    1949                            .dwattr $C$DW$119, DW_AT_decl_file("C:/ti/OMAPL138_StarterWare_1_10_04_01/drivers/raster.c")
    1950                            .dwattr $C$DW$119, DW_AT_decl_line(0x2c4)
    1951                            .dwattr $C$DW$119, DW_AT_decl_column(0x05)
    1952                            .dwattr $C$DW$119, DW_AT_TI_max_frame_size(0x18)
    1953                            .dwpsn  file "C:/ti/OMAPL138_StarterWare_1_10_04_01/drivers/raster.c",line 709,column 1,is_stm
    1954                    
    1955                            .dwfde $C$DW$CIE, RasterIntRawStatus
    1956                    $C$DW$120       .dwtag  DW_TAG_formal_parameter
    1957                            .dwattr $C$DW$120, DW_AT_name("baseAddr")
    1958                            .dwattr $C$DW$120, DW_AT_TI_symbol_name("baseAddr")
    1959                            .dwattr $C$DW$120, DW_AT_type(*$C$DW$T$11)
    1960                            .dwattr $C$DW$120, DW_AT_location[DW_OP_reg4]
    1961                    
    1962                    $C$DW$121       .dwtag  DW_TAG_formal_parameter
    1963                            .dwattr $C$DW$121, DW_AT_name("flag")
    1964                            .dwattr $C$DW$121, DW_AT_TI_symbol_name("flag")
    1965                            .dwattr $C$DW$121, DW_AT_type(*$C$DW$T$11)
    1966                            .dwattr $C$DW$121, DW_AT_location[DW_OP_reg20]
    1967                    
    1968                    
    1969                    ;******************************************************************************
    1970                    ;* FUNCTION NAME: RasterIntRawStatus                                          *
    1971                    ;*                                                                            *
    1972                    ;*   Regs Modified     : A0,A1,A2,A3,A4,A5,A6,A7,A8,A9,A10,A11,A16,A17,A18,   *
    1973                    ;*                           A19,A20,A21,A22,A23,A24,A25,A26,A27,A28,A29,A30, *
    1974                    ;*                           A31,B0,B1,B2,B3,B4,B5,B6,B7,B8,B9,B10,SP,B16,B17,*
    1975                    ;*                           B18,B19,B20,B21,B22,B23,B24,B25,B26,B27,B28,B29, *
    1976                    ;*                           B30,B31                                          *
    1977                    ;*   Regs Used         : A0,A1,A2,A3,A4,A5,A6,A7,A8,A9,A10,A11,A16,A17,A18,   *
    1978                    ;*                           A19,A20,A21,A22,A23,A24,A25,A26,A27,A28,A29,A30, *
    1979                    ;*                           A31,B0,B1,B2,B3,B4,B5,B6,B7,B8,B9,B10,DP,SP,B16, *
    1980                    ;*                           B17,B18,B19,B20,B21,B22,B23,B24,B25,B26,B27,B28, *
TMS320C6x Assembler PC v8.1.3 Fri Apr 14 08:40:35 2017

Tools Copyright (c) 1996-2015 Texas Instruments Incorporated
raster.asm                                                           PAGE   37

    1981                    ;*                           B29,B30,B31                                      *
    1982                    ;*   Local Frame Size  : 0 Args + 0 Auto + 24 Save = 24 byte                  *
    1983                    ;******************************************************************************
    1984                    RasterIntRawStatus:
    1985                    ;** --------------------------------------------------------------------------*
    1986                    $C$DW$122       .dwtag  DW_TAG_variable
    1987                            .dwattr $C$DW$122, DW_AT_name("status")
    1988                            .dwattr $C$DW$122, DW_AT_TI_symbol_name("status")
    1989                            .dwattr $C$DW$122, DW_AT_type(*$C$DW$T$10)
    1990                            .dwattr $C$DW$122, DW_AT_location[DW_OP_reg4]
    1991                    
    1992                    $C$DW$123       .dwtag  DW_TAG_variable
    1993                            .dwattr $C$DW$123, DW_AT_name("baseAddr")
    1994                            .dwattr $C$DW$123, DW_AT_TI_symbol_name("baseAddr")
    1995                            .dwattr $C$DW$123, DW_AT_type(*$C$DW$T$30)
    1996                            .dwattr $C$DW$123, DW_AT_location[DW_OP_reg3]
    1997                    
    1998                    $C$DW$124       .dwtag  DW_TAG_variable
    1999                            .dwattr $C$DW$124, DW_AT_name("flag")
    2000                            .dwattr $C$DW$124, DW_AT_TI_symbol_name("flag")
    2001                            .dwattr $C$DW$124, DW_AT_type(*$C$DW$T$30)
    2002                            .dwattr $C$DW$124, DW_AT_location[DW_OP_reg20]
    2003                    
    2004                            .dwcfi  cfa_offset, 0
    2005 00000498     3577             STW     .D2T2   B10,*SP++(-8)     ; [B_D64P] |709| 
    2006                            .dwcfi  cfa_offset, 8
    2007                            .dwcfi  save_reg_to_mem, 26, 0
    2008                    $C$DW$125       .dwtag  DW_TAG_TI_branch
    2009                            .dwattr $C$DW$125, DW_AT_low_pc(0x08)
    2010                            .dwattr $C$DW$125, DW_AT_name("LCDVersionGet")
    2011                            .dwattr $C$DW$125, DW_AT_TI_call
    2012                    
    2013                    
    2014 0000049a     8577             STDW    .D2T1   A11:A10,*SP++(-8) ; [B_D64P] |709| 
    2015 000004a0     75c6  ||         MV      .L1X    B3,A11            ; [A_L674] |709| 
    2016 000004a4 10000013! ||         CALLP   .S2     LCDVersionGet,B3  ; [B_Sb674] |713| 
    2017 000004a2     464e  ||         MV      .S1     A4,A10            ; [A_S674] |709| 
    2018 000004a8     4647  ||         MV      .L2     B4,B10            ; [B_L674] |709| 
    2019                    
    2020                            .dwcfi  cfa_offset, 16
    2021                            .dwcfi  save_reg_to_mem, 11, -4
    2022                            .dwcfi  save_reg_to_mem, 10, -8
    2023                            .dwcfi  save_reg_to_reg, 19, 11
    2024                            .dwpsn  file "C:/ti/OMAPL138_StarterWare_1_10_04_01/drivers/raster.c",line 713,column 5,is_stm
    2025 000004aa           $C$RL6:    ; CALLP OCCURS {LCDVersionGet} {0}  ; [] |713| 
    2026                            .dwpsn  file "C:/ti/OMAPL138_StarterWare_1_10_04_01/drivers/raster.c",line 709,column 1,is_stm
    2027                    
    2028 000004aa     650e             MV      .S1     A10,A3            ; [A_S674] |709| 
    2029 000004ac     4226  ||         CMPEQ   .L1     A4,2,A0           ; [A_L674] |713| 
    2030                    
    2031                            .dwpsn  file "C:/ti/OMAPL138_StarterWare_1_10_04_01/drivers/raster.c",line 717,column 10,is_st
    2032                    
    2033 000004ae     7587             MV      .L2X    A11,B3            ; [B_L674] |724| 
    2034 000004b0 c18ec264  || [ A0]   LDW     .D1T1   *A3(88),A3        ; [A_D64P] |717| 
    2035                    
TMS320C6x Assembler PC v8.1.3 Fri Apr 14 08:40:35 2017

Tools Copyright (c) 1996-2015 Texas Instruments Incorporated
raster.asm                                                           PAGE   38

    2036                            .dwcfi  restore_reg, 19
    2037                            .dwpsn  file "C:/ti/OMAPL138_StarterWare_1_10_04_01/drivers/raster.c",line 724,column 1,is_stm
    2038                    $C$DW$126       .dwtag  DW_TAG_TI_branch
    2039                            .dwattr $C$DW$126, DW_AT_low_pc(0x04)
    2040                            .dwattr $C$DW$126, DW_AT_TI_return
    2041                    
    2042                    
    2043 000004b4     c577             LDDW    .D2T1   *++SP(8),A11:A10  ; [B_D64P] |724| 
    2044 000004b6     01ef  ||         RET     .S2     B3                ; [B_Sb674] |724| 
    2045                    
    2046                            .dwcfi  cfa_offset, 8
    2047                            .dwcfi  restore_reg, 11
    2048                            .dwcfi  restore_reg, 10
    2049                            .dwpsn  file "C:/ti/OMAPL138_StarterWare_1_10_04_01/drivers/raster.c",line 709,column 1,is_stm
    2050                    
    2051 000004b8     8507             MV      .L2     B10,B4            ; [B_L674] |709| 
    2052 000004ba     7577  ||         LDW     .D2T2   *++SP(8),B10      ; [B_D64P] |724| 
    2053                    
    2054                            .dwcfi  cfa_offset, 0
    2055                            .dwcfi  restore_reg, 26
    2056                            .dwpsn  file "C:/ti/OMAPL138_StarterWare_1_10_04_01/drivers/raster.c",line 721,column 10,is_st
    2057 000004c0     fe26             MVK     .L1     -1,A4             ; [A_L674] |721| 
    2058 000004c2     2c6e             NOP             2                 ; [A_L674] 
    2059                            .dwpsn  file "C:/ti/OMAPL138_StarterWare_1_10_04_01/drivers/raster.c",line 717,column 10,is_st
    2060 000004c4 c2107f78     [ A0]   AND     .L1X    B4,A3,A4          ; [A_L674] |717| 
    2061                            .dwpsn  file "C:/ti/OMAPL138_StarterWare_1_10_04_01/drivers/raster.c",line 724,column 1,is_stm
    2062                               ; BRANCH OCCURS {B3}              ; [] |724| 
    2063                            .dwattr $C$DW$119, DW_AT_TI_end_file("C:/ti/OMAPL138_StarterWare_1_10_04_01/drivers/raster.c")
    2064                            .dwattr $C$DW$119, DW_AT_TI_end_line(0x2d4)
    2065                            .dwattr $C$DW$119, DW_AT_TI_end_column(0x01)
    2066                            .dwendentry
    2067                            .dwendtag $C$DW$119
    2068                    
    2069 000004c8                   .sect   ".text"
    2070                            .clink
    2071                            .global RasterIntEnable
    2072                    
    2073                    $C$DW$127       .dwtag  DW_TAG_subprogram
    2074                            .dwattr $C$DW$127, DW_AT_name("RasterIntEnable")
    2075                            .dwattr $C$DW$127, DW_AT_low_pc(RasterIntEnable)
    2076                            .dwattr $C$DW$127, DW_AT_high_pc(0x00)
    2077                            .dwattr $C$DW$127, DW_AT_TI_symbol_name("RasterIntEnable")
    2078                            .dwattr $C$DW$127, DW_AT_external
    2079                            .dwattr $C$DW$127, DW_AT_TI_begin_file("C:/ti/OMAPL138_StarterWare_1_10_04_01/drivers/raster.c
    2080                            .dwattr $C$DW$127, DW_AT_TI_begin_line(0x105)
    2081                            .dwattr $C$DW$127, DW_AT_TI_begin_column(0x06)
    2082                            .dwattr $C$DW$127, DW_AT_decl_file("C:/ti/OMAPL138_StarterWare_1_10_04_01/drivers/raster.c")
    2083                            .dwattr $C$DW$127, DW_AT_decl_line(0x105)
    2084                            .dwattr $C$DW$127, DW_AT_decl_column(0x06)
    2085                            .dwattr $C$DW$127, DW_AT_TI_max_frame_size(0x18)
    2086                            .dwpsn  file "C:/ti/OMAPL138_StarterWare_1_10_04_01/drivers/raster.c",line 262,column 1,is_stm
    2087                    
    2088                            .dwfde $C$DW$CIE, RasterIntEnable
    2089                    $C$DW$128       .dwtag  DW_TAG_formal_parameter
    2090                            .dwattr $C$DW$128, DW_AT_name("baseAddr")
TMS320C6x Assembler PC v8.1.3 Fri Apr 14 08:40:35 2017

Tools Copyright (c) 1996-2015 Texas Instruments Incorporated
raster.asm                                                           PAGE   39

    2091                            .dwattr $C$DW$128, DW_AT_TI_symbol_name("baseAddr")
    2092                            .dwattr $C$DW$128, DW_AT_type(*$C$DW$T$11)
    2093                            .dwattr $C$DW$128, DW_AT_location[DW_OP_reg4]
    2094                    
    2095                    $C$DW$129       .dwtag  DW_TAG_formal_parameter
    2096                            .dwattr $C$DW$129, DW_AT_name("flag")
    2097                            .dwattr $C$DW$129, DW_AT_TI_symbol_name("flag")
    2098                            .dwattr $C$DW$129, DW_AT_type(*$C$DW$T$11)
    2099                            .dwattr $C$DW$129, DW_AT_location[DW_OP_reg20]
    2100                    
    2101                    
    2102                    ;******************************************************************************
    2103                    ;* FUNCTION NAME: RasterIntEnable                                             *
    2104                    ;*                                                                            *
    2105                    ;*   Regs Modified     : A0,A1,A2,A3,A4,A5,A6,A7,A8,A9,A10,A11,A16,A17,A18,   *
    2106                    ;*                           A19,A20,A21,A22,A23,A24,A25,A26,A27,A28,A29,A30, *
    2107                    ;*                           A31,B0,B1,B2,B3,B4,B5,B6,B7,B8,B9,B10,B11,SP,B16,*
    2108                    ;*                           B17,B18,B19,B20,B21,B22,B23,B24,B25,B26,B27,B28, *
    2109                    ;*                           B29,B30,B31                                      *
    2110                    ;*   Regs Used         : A0,A1,A2,A3,A4,A5,A6,A7,A8,A9,A10,A11,A16,A17,A18,   *
    2111                    ;*                           A19,A20,A21,A22,A23,A24,A25,A26,A27,A28,A29,A30, *
    2112                    ;*                           A31,B0,B1,B2,B3,B4,B5,B6,B7,B8,B9,B10,B11,DP,SP, *
    2113                    ;*                           B16,B17,B18,B19,B20,B21,B22,B23,B24,B25,B26,B27, *
    2114                    ;*                           B28,B29,B30,B31                                  *
    2115                    ;*   Local Frame Size  : 0 Args + 0 Auto + 24 Save = 24 byte                  *
    2116                    ;******************************************************************************
    2117                    RasterIntEnable:
    2118                    ;** --------------------------------------------------------------------------*
    2119                    $C$DW$130       .dwtag  DW_TAG_variable
    2120                            .dwattr $C$DW$130, DW_AT_name("flag")
    2121                            .dwattr $C$DW$130, DW_AT_TI_symbol_name("flag")
    2122                            .dwattr $C$DW$130, DW_AT_type(*$C$DW$T$30)
    2123                            .dwattr $C$DW$130, DW_AT_location[DW_OP_reg20]
    2124                    
    2125                    $C$DW$131       .dwtag  DW_TAG_variable
    2126                            .dwattr $C$DW$131, DW_AT_name("baseAddr")
    2127                            .dwattr $C$DW$131, DW_AT_TI_symbol_name("baseAddr")
    2128                            .dwattr $C$DW$131, DW_AT_type(*$C$DW$T$30)
    2129                            .dwattr $C$DW$131, DW_AT_location[DW_OP_reg5]
    2130                    
    2131                            .dwcfi  cfa_offset, 0
    2132 000004c8     25f7             STW     .D2T1   A11,*SP++(-8)     ; [B_D64P] |262| 
    2133                            .dwcfi  cfa_offset, 8
    2134                            .dwcfi  save_reg_to_mem, 11, 0
    2135                    
    2136 000004ca     9577             STDW    .D2T2   B11:B10,*SP++(-8) ; [B_D64P] |262| 
    2137 000004cc     65c7  ||         MV      .L2     B3,B11            ; [B_L674] |262| 
    2138                    
    2139                            .dwcfi  cfa_offset, 16
    2140                            .dwcfi  save_reg_to_mem, 27, -4
    2141                            .dwcfi  save_reg_to_mem, 26, -8
    2142                            .dwcfi  save_reg_to_reg, 19, 27
    2143                    $C$DW$132       .dwtag  DW_TAG_TI_branch
    2144                            .dwattr $C$DW$132, DW_AT_low_pc(0x04)
    2145                            .dwattr $C$DW$132, DW_AT_name("LCDVersionGet")
TMS320C6x Assembler PC v8.1.3 Fri Apr 14 08:40:35 2017

Tools Copyright (c) 1996-2015 Texas Instruments Incorporated
raster.asm                                                           PAGE   40

    2146                            .dwattr $C$DW$132, DW_AT_TI_call
    2147                    
    2148                    
    2149 000004ce     2577             STW     .D2T1   A10,*SP++(-8)     ; [B_D64P] |262| 
    2150 000004d0 10000013! ||         CALLP   .S2     LCDVersionGet,B3  ; [B_Sb674] |265| 
    2151 000004d4     4646  ||         MV      .L1     A4,A10            ; [A_L674] |262| 
    2152 000004d6     4647  ||         MV      .L2     B4,B10            ; [B_L674] |262| 
    2153                    
    2154                            .dwcfi  cfa_offset, 24
    2155                            .dwcfi  save_reg_to_mem, 10, -16
    2156                            .dwpsn  file "C:/ti/OMAPL138_StarterWare_1_10_04_01/drivers/raster.c",line 265,column 5,is_stm
    2157 000004d8           $C$RL8:    ; CALLP OCCURS {LCDVersionGet} {0}  ; [] |265| 
    2158                            .dwpsn  file "C:/ti/OMAPL138_StarterWare_1_10_04_01/drivers/raster.c",line 262,column 1,is_stm
    2159 000004d8     a506             MV      .L1     A10,A5            ; [A_L674] |262| 
    2160                            .dwpsn  file "C:/ti/OMAPL138_StarterWare_1_10_04_01/drivers/raster.c",line 265,column 5,is_stm
    2161                    
    2162 000004e0 01959ec0             ADDAD   .D1     A5,12,A3          ; [A_D64P] |269| 
    2163 000004da     4226  ||         CMPEQ   .L1     A4,2,A0           ; [A_L674] |265| 
    2164                    
    2165                            .dwpsn  file "C:/ti/OMAPL138_StarterWare_1_10_04_01/drivers/raster.c",line 269,column 10,is_st
    2166                    
    2167 000004e4 00103a5b             CMPEQ   .L2X    A4,1,B0           ; [B_L674] |271| 
    2168 000004e8 c20c0264  || [ A0]   LDW     .D1T1   *A3(0),A4         ; [A_D64P] |269| 
    2169                    
    2170                            .dwpsn  file "C:/ti/OMAPL138_StarterWare_1_10_04_01/drivers/raster.c",line 262,column 1,is_stm
    2171 000004ec 02280fda             MV      .L2     B10,B4            ; [B_L674] |262| 
    2172                            .dwpsn  file "C:/ti/OMAPL138_StarterWare_1_10_04_01/drivers/raster.c",line 273,column 10,is_st
    2173 000004f0 d594bec0     [!A0]   ADDAD   .D1     A5,5,A11          ; [A_D64P] |273| 
    2174 000004f4     0867     [ A0]   ZERO    .L2     B0                ; [B_L674] |273| 
    2175                            .dwpsn  file "C:/ti/OMAPL138_StarterWare_1_10_04_01/drivers/raster.c",line 279,column 1,is_stm
    2176 000004f6     6587             MV      .L2     B11,B3            ; [B_L674] |279| 
    2177                            .dwcfi  restore_reg, 19
    2178                            .dwpsn  file "C:/ti/OMAPL138_StarterWare_1_10_04_01/drivers/raster.c",line 269,column 10,is_st
    2179 000004f8 c2909ffa     [ A0]   OR      .L2X    B4,A4,B5          ; [B_L674] |269| 
    2180 00000500 c28c0276     [ A0]   STW     .D1T2   B5,*A3(0)         ; [A_D64P] |269| 
    2181                            .dwpsn  file "C:/ti/OMAPL138_StarterWare_1_10_04_01/drivers/raster.c",line 273,column 10,is_st
    2182 00000504 22ac0266     [ B0]   LDW     .D1T2   *A11(0),B5        ; [A_D64P] |273| 
    2183                            .dwpsn  file "C:/ti/OMAPL138_StarterWare_1_10_04_01/drivers/raster.c",line 279,column 1,is_stm
    2184 00000508     6577             LDW     .D2T1   *++SP(8),A10      ; [B_D64P] |279| 
    2185                            .dwcfi  cfa_offset, 16
    2186                            .dwcfi  restore_reg, 10
    2187 0000050a     d577             LDDW    .D2T2   *++SP(8),B11:B10  ; [B_D64P] |279| 
    2188                            .dwcfi  cfa_offset, 8
    2189                            .dwcfi  restore_reg, 27
    2190                            .dwcfi  restore_reg, 26
    2191 0000050c     2c6e             NOP             2                 ; [A_L674] 
    2192                            .dwpsn  file "C:/ti/OMAPL138_StarterWare_1_10_04_01/drivers/raster.c",line 273,column 10,is_st
    2193                    $C$DW$133       .dwtag  DW_TAG_TI_branch
    2194                            .dwattr $C$DW$133, DW_AT_low_pc(0x00)
    2195                            .dwattr $C$DW$133, DW_AT_TI_return
    2196                    
    2197                    
    2198 0000050e     01ef             RET     .S2     B3                ; [B_Sb674] |279| 
    2199 00000510 22148ffa  || [ B0]   OR      .L2     B4,B5,B4          ; [B_L674] |273| 
    2200                    
TMS320C6x Assembler PC v8.1.3 Fri Apr 14 08:40:35 2017

Tools Copyright (c) 1996-2015 Texas Instruments Incorporated
raster.asm                                                           PAGE   41

    2201 00000514 222c0277     [ B0]   STW     .D1T2   B4,*A11(0)        ; [A_D64P] |273| 
    2202 00000518     65f7  ||         LDW     .D2T1   *++SP(8),A11      ; [B_D64P] |279| 
    2203                    
    2204                            .dwcfi  cfa_offset, 0
    2205                            .dwcfi  restore_reg, 11
    2206 0000051a     6c6e             NOP             4                 ; [A_L674] 
    2207                            .dwpsn  file "C:/ti/OMAPL138_StarterWare_1_10_04_01/drivers/raster.c",line 279,column 1,is_stm
    2208                               ; BRANCH OCCURS {B3}              ; [] |279| 
    2209                            .dwattr $C$DW$127, DW_AT_TI_end_file("C:/ti/OMAPL138_StarterWare_1_10_04_01/drivers/raster.c")
    2210                            .dwattr $C$DW$127, DW_AT_TI_end_line(0x117)
    2211                            .dwattr $C$DW$127, DW_AT_TI_end_column(0x01)
    2212                            .dwendentry
    2213                            .dwendtag $C$DW$127
    2214                    
    2215 00000520                   .sect   ".text"
    2216                            .clink
    2217                            .global RasterIntDisable
    2218                    
    2219                    $C$DW$134       .dwtag  DW_TAG_subprogram
    2220                            .dwattr $C$DW$134, DW_AT_name("RasterIntDisable")
    2221                            .dwattr $C$DW$134, DW_AT_low_pc(RasterIntDisable)
    2222                            .dwattr $C$DW$134, DW_AT_high_pc(0x00)
    2223                            .dwattr $C$DW$134, DW_AT_TI_symbol_name("RasterIntDisable")
    2224                            .dwattr $C$DW$134, DW_AT_external
    2225                            .dwattr $C$DW$134, DW_AT_TI_begin_file("C:/ti/OMAPL138_StarterWare_1_10_04_01/drivers/raster.c
    2226                            .dwattr $C$DW$134, DW_AT_TI_begin_line(0x131)
    2227                            .dwattr $C$DW$134, DW_AT_TI_begin_column(0x06)
    2228                            .dwattr $C$DW$134, DW_AT_decl_file("C:/ti/OMAPL138_StarterWare_1_10_04_01/drivers/raster.c")
    2229                            .dwattr $C$DW$134, DW_AT_decl_line(0x131)
    2230                            .dwattr $C$DW$134, DW_AT_decl_column(0x06)
    2231                            .dwattr $C$DW$134, DW_AT_TI_max_frame_size(0x18)
    2232                            .dwpsn  file "C:/ti/OMAPL138_StarterWare_1_10_04_01/drivers/raster.c",line 306,column 1,is_stm
    2233                    
    2234                            .dwfde $C$DW$CIE, RasterIntDisable
    2235                    $C$DW$135       .dwtag  DW_TAG_formal_parameter
    2236                            .dwattr $C$DW$135, DW_AT_name("baseAddr")
    2237                            .dwattr $C$DW$135, DW_AT_TI_symbol_name("baseAddr")
    2238                            .dwattr $C$DW$135, DW_AT_type(*$C$DW$T$11)
    2239                            .dwattr $C$DW$135, DW_AT_location[DW_OP_reg4]
    2240                    
    2241                    $C$DW$136       .dwtag  DW_TAG_formal_parameter
    2242                            .dwattr $C$DW$136, DW_AT_name("flag")
    2243                            .dwattr $C$DW$136, DW_AT_TI_symbol_name("flag")
    2244                            .dwattr $C$DW$136, DW_AT_type(*$C$DW$T$11)
    2245                            .dwattr $C$DW$136, DW_AT_location[DW_OP_reg20]
    2246                    
    2247                    
    2248                    ;******************************************************************************
    2249                    ;* FUNCTION NAME: RasterIntDisable                                            *
    2250                    ;*                                                                            *
    2251                    ;*   Regs Modified     : A0,A1,A2,A3,A4,A5,A6,A7,A8,A9,A10,A11,A16,A17,A18,   *
    2252                    ;*                           A19,A20,A21,A22,A23,A24,A25,A26,A27,A28,A29,A30, *
    2253                    ;*                           A31,B0,B1,B2,B3,B4,B5,B6,B7,B8,B9,B10,B11,SP,B16,*
    2254                    ;*                           B17,B18,B19,B20,B21,B22,B23,B24,B25,B26,B27,B28, *
    2255                    ;*                           B29,B30,B31                                      *
TMS320C6x Assembler PC v8.1.3 Fri Apr 14 08:40:35 2017

Tools Copyright (c) 1996-2015 Texas Instruments Incorporated
raster.asm                                                           PAGE   42

    2256                    ;*   Regs Used         : A0,A1,A2,A3,A4,A5,A6,A7,A8,A9,A10,A11,A16,A17,A18,   *
    2257                    ;*                           A19,A20,A21,A22,A23,A24,A25,A26,A27,A28,A29,A30, *
    2258                    ;*                           A31,B0,B1,B2,B3,B4,B5,B6,B7,B8,B9,B10,B11,DP,SP, *
    2259                    ;*                           B16,B17,B18,B19,B20,B21,B22,B23,B24,B25,B26,B27, *
    2260                    ;*                           B28,B29,B30,B31                                  *
    2261                    ;*   Local Frame Size  : 0 Args + 0 Auto + 24 Save = 24 byte                  *
    2262                    ;******************************************************************************
    2263                    RasterIntDisable:
    2264                    ;** --------------------------------------------------------------------------*
    2265                    $C$DW$137       .dwtag  DW_TAG_variable
    2266                            .dwattr $C$DW$137, DW_AT_name("baseAddr")
    2267                            .dwattr $C$DW$137, DW_AT_TI_symbol_name("baseAddr")
    2268                            .dwattr $C$DW$137, DW_AT_type(*$C$DW$T$30)
    2269                            .dwattr $C$DW$137, DW_AT_location[DW_OP_reg3]
    2270                    
    2271                    $C$DW$138       .dwtag  DW_TAG_variable
    2272                            .dwattr $C$DW$138, DW_AT_name("flag")
    2273                            .dwattr $C$DW$138, DW_AT_TI_symbol_name("flag")
    2274                            .dwattr $C$DW$138, DW_AT_type(*$C$DW$T$30)
    2275                            .dwattr $C$DW$138, DW_AT_location[DW_OP_reg20]
    2276                    
    2277                            .dwcfi  cfa_offset, 0
    2278 00000520     25f7             STW     .D2T1   A11,*SP++(-8)     ; [B_D64P] |306| 
    2279                            .dwcfi  cfa_offset, 8
    2280                            .dwcfi  save_reg_to_mem, 11, 0
    2281                    
    2282 00000522     9577             STDW    .D2T2   B11:B10,*SP++(-8) ; [B_D64P] |306| 
    2283 00000524     65c7  ||         MV      .L2     B3,B11            ; [B_L674] |306| 
    2284                    
    2285                            .dwcfi  cfa_offset, 16
    2286                            .dwcfi  save_reg_to_mem, 27, -4
    2287                            .dwcfi  save_reg_to_mem, 26, -8
    2288                            .dwcfi  save_reg_to_reg, 19, 27
    2289                    $C$DW$139       .dwtag  DW_TAG_TI_branch
    2290                            .dwattr $C$DW$139, DW_AT_low_pc(0x04)
    2291                            .dwattr $C$DW$139, DW_AT_name("LCDVersionGet")
    2292                            .dwattr $C$DW$139, DW_AT_TI_call
    2293                    
    2294                    
    2295 00000526     2577             STW     .D2T1   A10,*SP++(-8)     ; [B_D64P] |306| 
    2296 00000528 10000013! ||         CALLP   .S2     LCDVersionGet,B3  ; [B_Sb674] |309| 
    2297 0000052c     4646  ||         MV      .L1     A4,A10            ; [A_L674] |306| 
    2298 0000052e     4647  ||         MV      .L2     B4,B10            ; [B_L674] |306| 
    2299                    
    2300                            .dwcfi  cfa_offset, 24
    2301                            .dwcfi  save_reg_to_mem, 10, -16
    2302                            .dwpsn  file "C:/ti/OMAPL138_StarterWare_1_10_04_01/drivers/raster.c",line 309,column 5,is_stm
    2303 00000530           $C$RL10:   ; CALLP OCCURS {LCDVersionGet} {0}  ; [] |309| 
    2304                            .dwpsn  file "C:/ti/OMAPL138_StarterWare_1_10_04_01/drivers/raster.c",line 306,column 1,is_stm
    2305                    
    2306 00000530     650e             MV      .S1     A10,A3            ; [A_S674] |306| 
    2307 00000532     4226  ||         CMPEQ   .L1     A4,2,A0           ; [A_L674] |309| 
    2308                    
    2309 00000540     850f             MV      .S2     B10,B4            ; [B_Sb674] |306| 
    2310 00000538 00103a5b  ||         CMPEQ   .L2X    A4,1,B0           ; [B_L674] |315| 
TMS320C6x Assembler PC v8.1.3 Fri Apr 14 08:40:35 2017

Tools Copyright (c) 1996-2015 Texas Instruments Incorporated
raster.asm                                                           PAGE   43

    2311 00000534 d58cbec1  || [!A0]   ADDAD   .D1     A3,5,A11          ; [A_D64P] |317| 
    2312                    
    2313                            .dwpsn  file "C:/ti/OMAPL138_StarterWare_1_10_04_01/drivers/raster.c",line 313,column 10,is_st
    2314                    
    2315 00000544 c20f2276     [ A0]   STW     .D1T2   B4,*A3(100)       ; [A_D64P] |313| 
    2316 00000542     0867  || [ A0]   ZERO    .L2     B0                ; [B_L674] |317| 
    2317                    
    2318                            .dwpsn  file "C:/ti/OMAPL138_StarterWare_1_10_04_01/drivers/raster.c",line 317,column 10,is_st
    2319 00000548 22ac0266     [ B0]   LDW     .D1T2   *A11(0),B5        ; [A_D64P] |317| 
    2320                            .dwpsn  file "C:/ti/OMAPL138_StarterWare_1_10_04_01/drivers/raster.c",line 323,column 1,is_stm
    2321 0000054c     6577             LDW     .D2T1   *++SP(8),A10      ; [B_D64P] |323| 
    2322                            .dwcfi  cfa_offset, 16
    2323                            .dwcfi  restore_reg, 10
    2324 0000054e     6587             MV      .L2     B11,B3            ; [B_L674] |323| 
    2325                            .dwcfi  restore_reg, 19
    2326 00000550     d577             LDDW    .D2T2   *++SP(8),B11:B10  ; [B_D64P] |323| 
    2327                            .dwcfi  cfa_offset, 8
    2328                            .dwcfi  restore_reg, 27
    2329                            .dwcfi  restore_reg, 26
    2330 00000552     0c6e             NOP             1                 ; [A_L674] 
    2331                            .dwpsn  file "C:/ti/OMAPL138_StarterWare_1_10_04_01/drivers/raster.c",line 317,column 10,is_st
    2332                    $C$DW$140       .dwtag  DW_TAG_TI_branch
    2333                            .dwattr $C$DW$140, DW_AT_low_pc(0x00)
    2334                            .dwattr $C$DW$140, DW_AT_TI_return
    2335                    
    2336                    
    2337 00000558     01ef             RET     .S2     B3                ; [B_Sb674] |323| 
    2338 00000554 2210af9b  || [ B0]   ANDN    .L2     B5,B4,B4          ; [B_L674] |317| 
    2339                    
    2340 00000560 222c0276     [ B0]   STW     .D1T2   B4,*A11(0)        ; [A_D64P] |317| 
    2341 0000055a     65f7  ||         LDW     .D2T1   *++SP(8),A11      ; [B_D64P] |323| 
    2342                    
    2343                            .dwcfi  cfa_offset, 0
    2344                            .dwcfi  restore_reg, 11
    2345 00000564 00006000             NOP             4                 ; [A_L674] 
    2346                            .dwpsn  file "C:/ti/OMAPL138_StarterWare_1_10_04_01/drivers/raster.c",line 323,column 1,is_stm
    2347                               ; BRANCH OCCURS {B3}              ; [] |323| 
    2348                            .dwattr $C$DW$134, DW_AT_TI_end_file("C:/ti/OMAPL138_StarterWare_1_10_04_01/drivers/raster.c")
    2349                            .dwattr $C$DW$134, DW_AT_TI_end_line(0x143)
    2350                            .dwattr $C$DW$134, DW_AT_TI_end_column(0x01)
    2351                            .dwendentry
    2352                            .dwendtag $C$DW$134
    2353                    
    2354 00000568                   .sect   ".text"
    2355                            .clink
    2356                            .global RasterIdleModeConfig
    2357                    
    2358                    $C$DW$141       .dwtag  DW_TAG_subprogram
    2359                            .dwattr $C$DW$141, DW_AT_name("RasterIdleModeConfig")
    2360                            .dwattr $C$DW$141, DW_AT_low_pc(RasterIdleModeConfig)
    2361                            .dwattr $C$DW$141, DW_AT_high_pc(0x00)
    2362                            .dwattr $C$DW$141, DW_AT_TI_symbol_name("RasterIdleModeConfig")
    2363                            .dwattr $C$DW$141, DW_AT_external
    2364                            .dwattr $C$DW$141, DW_AT_TI_begin_file("C:/ti/OMAPL138_StarterWare_1_10_04_01/drivers/raster.c
    2365                            .dwattr $C$DW$141, DW_AT_TI_begin_line(0x47b)
TMS320C6x Assembler PC v8.1.3 Fri Apr 14 08:40:35 2017

Tools Copyright (c) 1996-2015 Texas Instruments Incorporated
raster.asm                                                           PAGE   44

    2366                            .dwattr $C$DW$141, DW_AT_TI_begin_column(0x06)
    2367                            .dwattr $C$DW$141, DW_AT_decl_file("C:/ti/OMAPL138_StarterWare_1_10_04_01/drivers/raster.c")
    2368                            .dwattr $C$DW$141, DW_AT_decl_line(0x47b)
    2369                            .dwattr $C$DW$141, DW_AT_decl_column(0x06)
    2370                            .dwattr $C$DW$141, DW_AT_TI_max_frame_size(0x00)
    2371                            .dwpsn  file "C:/ti/OMAPL138_StarterWare_1_10_04_01/drivers/raster.c",line 1148,column 1,is_st
    2372                    
    2373                            .dwfde $C$DW$CIE, RasterIdleModeConfig
    2374                    $C$DW$142       .dwtag  DW_TAG_formal_parameter
    2375                            .dwattr $C$DW$142, DW_AT_name("baseAddr")
    2376                            .dwattr $C$DW$142, DW_AT_TI_symbol_name("baseAddr")
    2377                            .dwattr $C$DW$142, DW_AT_type(*$C$DW$T$11)
    2378                            .dwattr $C$DW$142, DW_AT_location[DW_OP_reg4]
    2379                    
    2380                    $C$DW$143       .dwtag  DW_TAG_formal_parameter
    2381                            .dwattr $C$DW$143, DW_AT_name("flag")
    2382                            .dwattr $C$DW$143, DW_AT_TI_symbol_name("flag")
    2383                            .dwattr $C$DW$143, DW_AT_type(*$C$DW$T$11)
    2384                            .dwattr $C$DW$143, DW_AT_location[DW_OP_reg20]
    2385                    
    2386                    
    2387                    ;******************************************************************************
    2388                    ;* FUNCTION NAME: RasterIdleModeConfig                                        *
    2389                    ;*                                                                            *
    2390                    ;*   Regs Modified     : A3,A4,B4                                             *
    2391                    ;*   Regs Used         : A3,A4,B3,B4                                          *
    2392                    ;*   Local Frame Size  : 0 Args + 0 Auto + 0 Save = 0 byte                    *
    2393                    ;******************************************************************************
    2394                    RasterIdleModeConfig:
    2395                    ;** --------------------------------------------------------------------------*
    2396                    $C$DW$144       .dwtag  DW_TAG_variable
    2397                            .dwattr $C$DW$144, DW_AT_name("flag")
    2398                            .dwattr $C$DW$144, DW_AT_TI_symbol_name("flag")
    2399                            .dwattr $C$DW$144, DW_AT_type(*$C$DW$T$30)
    2400                            .dwattr $C$DW$144, DW_AT_location[DW_OP_reg20]
    2401                    
    2402                    $C$DW$145       .dwtag  DW_TAG_variable
    2403                            .dwattr $C$DW$145, DW_AT_name("baseAddr")
    2404                            .dwattr $C$DW$145, DW_AT_TI_symbol_name("baseAddr")
    2405                            .dwattr $C$DW$145, DW_AT_type(*$C$DW$T$30)
    2406                            .dwattr $C$DW$145, DW_AT_location[DW_OP_reg4]
    2407                    
    2408                            .dwcfi  cfa_offset, 0
    2409                            .dwpsn  file "C:/ti/OMAPL138_StarterWare_1_10_04_01/drivers/raster.c",line 1149,column 5,is_st
    2410 00000568 0192bd40             ADDAW   .D1     A4,21,A3          ; [A_D64P] |1149| 
    2411 0000056c 020c0264             LDW     .D1T1   *A3(0),A4         ; [A_D64P] |1149| 
    2412 00000570 00006000             NOP             4                 ; [A_L674] 
    2413 00000574 02126f58             AND     .L1     -13,A4,A4         ; [A_L674] |1149| 
    2414 00000578 020c0274             STW     .D1T1   A4,*A3(0)         ; [A_D64P] |1149| 
    2415                            .dwpsn  file "C:/ti/OMAPL138_StarterWare_1_10_04_01/drivers/raster.c",line 1150,column 5,is_st
    2416 0000057c 020c0264             LDW     .D1T1   *A3(0),A4         ; [A_D64P] |1150| 
    2417                            .dwpsn  file "C:/ti/OMAPL138_StarterWare_1_10_04_01/drivers/raster.c",line 1151,column 1,is_st
    2418                    $C$DW$146       .dwtag  DW_TAG_TI_branch
    2419                            .dwattr $C$DW$146, DW_AT_low_pc(0x00)
    2420                            .dwattr $C$DW$146, DW_AT_TI_return
TMS320C6x Assembler PC v8.1.3 Fri Apr 14 08:40:35 2017

Tools Copyright (c) 1996-2015 Texas Instruments Incorporated
raster.asm                                                           PAGE   45

    2421                    
    2422 00000580 008c6362             RETNOP          B3,3              ; [] |1151| 
    2423                            .dwpsn  file "C:/ti/OMAPL138_StarterWare_1_10_04_01/drivers/raster.c",line 1150,column 5,is_st
    2424 00000584 02109ffa             OR      .L2X    B4,A4,B4          ; [B_L674] |1150| 
    2425 00000588 020c0276             STW     .D1T2   B4,*A3(0)         ; [A_D64P] |1150| 
    2426                            .dwpsn  file "C:/ti/OMAPL138_StarterWare_1_10_04_01/drivers/raster.c",line 1151,column 1,is_st
    2427                               ; BRANCH OCCURS {B3}              ; [] |1151| 
    2428                            .dwattr $C$DW$141, DW_AT_TI_end_file("C:/ti/OMAPL138_StarterWare_1_10_04_01/drivers/raster.c")
    2429                            .dwattr $C$DW$141, DW_AT_TI_end_line(0x47f)
    2430                            .dwattr $C$DW$141, DW_AT_TI_end_column(0x01)
    2431                            .dwendentry
    2432                            .dwendtag $C$DW$141
    2433                    
    2434 0000058c                   .sect   ".text"
    2435                            .clink
    2436                            .global RasterIdGet
    2437                    
    2438                    $C$DW$147       .dwtag  DW_TAG_subprogram
    2439                            .dwattr $C$DW$147, DW_AT_name("RasterIdGet")
    2440                            .dwattr $C$DW$147, DW_AT_low_pc(RasterIdGet)
    2441                            .dwattr $C$DW$147, DW_AT_high_pc(0x00)
    2442                            .dwattr $C$DW$147, DW_AT_TI_symbol_name("RasterIdGet")
    2443                            .dwattr $C$DW$147, DW_AT_external
    2444                            .dwattr $C$DW$147, DW_AT_type(*$C$DW$T$11)
    2445                            .dwattr $C$DW$147, DW_AT_TI_begin_file("C:/ti/OMAPL138_StarterWare_1_10_04_01/drivers/raster.c
    2446                            .dwattr $C$DW$147, DW_AT_TI_begin_line(0x4e)
    2447                            .dwattr $C$DW$147, DW_AT_TI_begin_column(0x0e)
    2448                            .dwattr $C$DW$147, DW_AT_decl_file("C:/ti/OMAPL138_StarterWare_1_10_04_01/drivers/raster.c")
    2449                            .dwattr $C$DW$147, DW_AT_decl_line(0x4e)
    2450                            .dwattr $C$DW$147, DW_AT_decl_column(0x0e)
    2451                            .dwattr $C$DW$147, DW_AT_TI_max_frame_size(0x00)
    2452                            .dwpsn  file "C:/ti/OMAPL138_StarterWare_1_10_04_01/drivers/raster.c",line 79,column 1,is_stmt
    2453                    
    2454                            .dwfde $C$DW$CIE, RasterIdGet
    2455                    $C$DW$148       .dwtag  DW_TAG_formal_parameter
    2456                            .dwattr $C$DW$148, DW_AT_name("baseAddr")
    2457                            .dwattr $C$DW$148, DW_AT_TI_symbol_name("baseAddr")
    2458                            .dwattr $C$DW$148, DW_AT_type(*$C$DW$T$11)
    2459                            .dwattr $C$DW$148, DW_AT_location[DW_OP_reg4]
    2460                    
    2461                    
    2462                    ;******************************************************************************
    2463                    ;* FUNCTION NAME: RasterIdGet                                                 *
    2464                    ;*                                                                            *
    2465                    ;*   Regs Modified     : A4                                                   *
    2466                    ;*   Regs Used         : A4,B3                                                *
    2467                    ;*   Local Frame Size  : 0 Args + 0 Auto + 0 Save = 0 byte                    *
    2468                    ;******************************************************************************
    2469                    RasterIdGet:
    2470                    ;** --------------------------------------------------------------------------*
    2471                    $C$DW$149       .dwtag  DW_TAG_variable
    2472                            .dwattr $C$DW$149, DW_AT_name("baseAddr")
    2473                            .dwattr $C$DW$149, DW_AT_TI_symbol_name("baseAddr")
    2474                            .dwattr $C$DW$149, DW_AT_type(*$C$DW$T$30)
    2475                            .dwattr $C$DW$149, DW_AT_location[DW_OP_reg4]
TMS320C6x Assembler PC v8.1.3 Fri Apr 14 08:40:35 2017

Tools Copyright (c) 1996-2015 Texas Instruments Incorporated
raster.asm                                                           PAGE   46

    2476                    
    2477                            .dwcfi  cfa_offset, 0
    2478                            .dwpsn  file "C:/ti/OMAPL138_StarterWare_1_10_04_01/drivers/raster.c",line 81,column 1,is_stmt
    2479                    $C$DW$150       .dwtag  DW_TAG_TI_branch
    2480                            .dwattr $C$DW$150, DW_AT_low_pc(0x00)
    2481                            .dwattr $C$DW$150, DW_AT_TI_return
    2482                    
    2483 0000058c     01ef             RET     .S2     B3                ; [B_Sb674] |81| 
    2484                            .dwpsn  file "C:/ti/OMAPL138_StarterWare_1_10_04_01/drivers/raster.c",line 80,column 5,is_stmt
    2485 0000058e     004c             LDW     .D1T1   *A4(0),A4         ; [A_D64P] |80| 
    2486 00000590 00000000             NOP             4                 ; [A_L674] 
    2487                            .dwpsn  file "C:/ti/OMAPL138_StarterWare_1_10_04_01/drivers/raster.c",line 81,column 1,is_stmt
    2488                               ; BRANCH OCCURS {B3}              ; [] |81| 
    2489                            .dwattr $C$DW$147, DW_AT_TI_end_file("C:/ti/OMAPL138_StarterWare_1_10_04_01/drivers/raster.c")
    2490                            .dwattr $C$DW$147, DW_AT_TI_end_line(0x51)
    2491                            .dwattr $C$DW$147, DW_AT_TI_end_column(0x01)
    2492                            .dwendentry
    2493                            .dwendtag $C$DW$147
    2494                    
    2495 00000590                   .sect   ".text"
    2496                            .clink
    2497                            .global RasterHparamConfig
    2498                    
    2499                    $C$DW$151       .dwtag  DW_TAG_subprogram
    2500                            .dwattr $C$DW$151, DW_AT_name("RasterHparamConfig")
    2501                            .dwattr $C$DW$151, DW_AT_low_pc(RasterHparamConfig)
    2502                            .dwattr $C$DW$151, DW_AT_high_pc(0x00)
    2503                            .dwattr $C$DW$151, DW_AT_TI_symbol_name("RasterHparamConfig")
    2504                            .dwattr $C$DW$151, DW_AT_external
    2505                            .dwattr $C$DW$151, DW_AT_TI_begin_file("C:/ti/OMAPL138_StarterWare_1_10_04_01/drivers/raster.c
    2506                            .dwattr $C$DW$151, DW_AT_TI_begin_line(0x179)
    2507                            .dwattr $C$DW$151, DW_AT_TI_begin_column(0x06)
    2508                            .dwattr $C$DW$151, DW_AT_decl_file("C:/ti/OMAPL138_StarterWare_1_10_04_01/drivers/raster.c")
    2509                            .dwattr $C$DW$151, DW_AT_decl_line(0x179)
    2510                            .dwattr $C$DW$151, DW_AT_decl_column(0x06)
    2511                            .dwattr $C$DW$151, DW_AT_TI_max_frame_size(0x28)
    2512                            .dwpsn  file "C:/ti/OMAPL138_StarterWare_1_10_04_01/drivers/raster.c",line 380,column 1,is_stm
    2513                    
    2514                            .dwfde $C$DW$CIE, RasterHparamConfig
    2515                    $C$DW$152       .dwtag  DW_TAG_formal_parameter
    2516                            .dwattr $C$DW$152, DW_AT_name("baseAddr")
    2517                            .dwattr $C$DW$152, DW_AT_TI_symbol_name("baseAddr")
    2518                            .dwattr $C$DW$152, DW_AT_type(*$C$DW$T$11)
    2519                            .dwattr $C$DW$152, DW_AT_location[DW_OP_reg4]
    2520                    
    2521                    $C$DW$153       .dwtag  DW_TAG_formal_parameter
    2522                            .dwattr $C$DW$153, DW_AT_name("numOfppl")
    2523                            .dwattr $C$DW$153, DW_AT_TI_symbol_name("numOfppl")
    2524                            .dwattr $C$DW$153, DW_AT_type(*$C$DW$T$11)
    2525                            .dwattr $C$DW$153, DW_AT_location[DW_OP_reg20]
    2526                    
    2527                    $C$DW$154       .dwtag  DW_TAG_formal_parameter
    2528                            .dwattr $C$DW$154, DW_AT_name("hsw")
    2529                            .dwattr $C$DW$154, DW_AT_TI_symbol_name("hsw")
    2530                            .dwattr $C$DW$154, DW_AT_type(*$C$DW$T$11)
TMS320C6x Assembler PC v8.1.3 Fri Apr 14 08:40:35 2017

Tools Copyright (c) 1996-2015 Texas Instruments Incorporated
raster.asm                                                           PAGE   47

    2531                            .dwattr $C$DW$154, DW_AT_location[DW_OP_reg6]
    2532                    
    2533                    $C$DW$155       .dwtag  DW_TAG_formal_parameter
    2534                            .dwattr $C$DW$155, DW_AT_name("hfp")
    2535                            .dwattr $C$DW$155, DW_AT_TI_symbol_name("hfp")
    2536                            .dwattr $C$DW$155, DW_AT_type(*$C$DW$T$11)
    2537                            .dwattr $C$DW$155, DW_AT_location[DW_OP_reg22]
    2538                    
    2539                    $C$DW$156       .dwtag  DW_TAG_formal_parameter
    2540                            .dwattr $C$DW$156, DW_AT_name("hbp")
    2541                            .dwattr $C$DW$156, DW_AT_TI_symbol_name("hbp")
    2542                            .dwattr $C$DW$156, DW_AT_type(*$C$DW$T$11)
    2543                            .dwattr $C$DW$156, DW_AT_location[DW_OP_reg8]
    2544                    
    2545                    
    2546                    ;******************************************************************************
    2547                    ;* FUNCTION NAME: RasterHparamConfig                                          *
    2548                    ;*                                                                            *
    2549                    ;*   Regs Modified     : A0,A1,A2,A3,A4,A5,A6,A7,A8,A9,A10,A11,A12,A13,A16,   *
    2550                    ;*                           A17,A18,A19,A20,A21,A22,A23,A24,A25,A26,A27,A28, *
    2551                    ;*                           A29,A30,A31,B0,B1,B2,B3,B4,B5,B6,B7,B8,B9,B10,   *
    2552                    ;*                           B11,B12,SP,B16,B17,B18,B19,B20,B21,B22,B23,B24,  *
    2553                    ;*                           B25,B26,B27,B28,B29,B30,B31                      *
    2554                    ;*   Regs Used         : A0,A1,A2,A3,A4,A5,A6,A7,A8,A9,A10,A11,A12,A13,A16,   *
    2555                    ;*                           A17,A18,A19,A20,A21,A22,A23,A24,A25,A26,A27,A28, *
    2556                    ;*                           A29,A30,A31,B0,B1,B2,B3,B4,B5,B6,B7,B8,B9,B10,   *
    2557                    ;*                           B11,B12,DP,SP,B16,B17,B18,B19,B20,B21,B22,B23,   *
    2558                    ;*                           B24,B25,B26,B27,B28,B29,B30,B31                  *
    2559                    ;*   Local Frame Size  : 0 Args + 0 Auto + 40 Save = 40 byte                  *
    2560                    ;******************************************************************************
    2561                    RasterHparamConfig:
    2562                    ;** --------------------------------------------------------------------------*
    2563                    $C$DW$157       .dwtag  DW_TAG_variable
    2564                            .dwattr $C$DW$157, DW_AT_name("hbp")
    2565                            .dwattr $C$DW$157, DW_AT_TI_symbol_name("hbp")
    2566                            .dwattr $C$DW$157, DW_AT_type(*$C$DW$T$30)
    2567                            .dwattr $C$DW$157, DW_AT_location[DW_OP_reg22]
    2568                    
    2569                    $C$DW$158       .dwtag  DW_TAG_variable
    2570                            .dwattr $C$DW$158, DW_AT_name("hfp")
    2571                            .dwattr $C$DW$158, DW_AT_TI_symbol_name("hfp")
    2572                            .dwattr $C$DW$158, DW_AT_type(*$C$DW$T$30)
    2573                            .dwattr $C$DW$158, DW_AT_location[DW_OP_reg21]
    2574                    
    2575                    $C$DW$159       .dwtag  DW_TAG_variable
    2576                            .dwattr $C$DW$159, DW_AT_name("hsw")
    2577                            .dwattr $C$DW$159, DW_AT_TI_symbol_name("hsw")
    2578                            .dwattr $C$DW$159, DW_AT_type(*$C$DW$T$30)
    2579                            .dwattr $C$DW$159, DW_AT_location[DW_OP_reg20]
    2580                    
    2581                    $C$DW$160       .dwtag  DW_TAG_variable
    2582                            .dwattr $C$DW$160, DW_AT_name("numOfppl")
    2583                            .dwattr $C$DW$160, DW_AT_TI_symbol_name("numOfppl")
    2584                            .dwattr $C$DW$160, DW_AT_type(*$C$DW$T$30)
    2585                            .dwattr $C$DW$160, DW_AT_location[DW_OP_reg20]
TMS320C6x Assembler PC v8.1.3 Fri Apr 14 08:40:35 2017

Tools Copyright (c) 1996-2015 Texas Instruments Incorporated
raster.asm                                                           PAGE   48

    2586                    
    2587                    $C$DW$161       .dwtag  DW_TAG_variable
    2588                            .dwattr $C$DW$161, DW_AT_name("baseAddr")
    2589                            .dwattr $C$DW$161, DW_AT_TI_symbol_name("baseAddr")
    2590                            .dwattr $C$DW$161, DW_AT_type(*$C$DW$T$30)
    2591                            .dwattr $C$DW$161, DW_AT_location[DW_OP_reg3]
    2592                    
    2593                    $C$DW$162       .dwtag  DW_TAG_variable
    2594                            .dwattr $C$DW$162, DW_AT_name("version")
    2595                            .dwattr $C$DW$162, DW_AT_TI_symbol_name("version")
    2596                            .dwattr $C$DW$162, DW_AT_type(*$C$DW$T$11)
    2597                            .dwattr $C$DW$162, DW_AT_location[DW_OP_reg4]
    2598                    
    2599                            .dwcfi  cfa_offset, 0
    2600 00000590     3677             STW     .D2T2   B12,*SP++(-8)     ; [B_D64P] |380| 
    2601                            .dwcfi  cfa_offset, 8
    2602                            .dwcfi  save_reg_to_mem, 28, 0
    2603 00000592     9577             STDW    .D2T2   B11:B10,*SP++(-8) ; [B_D64P] |380| 
    2604                            .dwcfi  cfa_offset, 16
    2605                            .dwcfi  save_reg_to_mem, 27, -4
    2606                            .dwcfi  save_reg_to_mem, 26, -8
    2607                    
    2608 00000594     8677             STDW    .D2T1   A13:A12,*SP++(-8) ; [B_D64P] |380| 
    2609 00000596     b5c6  ||         MV      .L1X    B3,A13            ; [A_L674] |380| 
    2610 00000598     9747  ||         MV      .L2X    A6,B12            ; [B_L674] |380| 
    2611                    
    2612                            .dwcfi  cfa_offset, 24
    2613                            .dwcfi  save_reg_to_mem, 13, -12
    2614                            .dwcfi  save_reg_to_mem, 12, -16
    2615                            .dwcfi  save_reg_to_reg, 19, 13
    2616                    $C$DW$163       .dwtag  DW_TAG_TI_branch
    2617                            .dwattr $C$DW$163, DW_AT_low_pc(0x04)
    2618                            .dwattr $C$DW$163, DW_AT_name("LCDVersionGet")
    2619                            .dwattr $C$DW$163, DW_AT_TI_call
    2620                    
    2621                    
    2622 0000059a     8577             STDW    .D2T1   A11:A10,*SP++(-8) ; [B_D64P] |380| 
    2623 000005a0 10000013! ||         CALLP   .S2     LCDVersionGet,B3  ; [B_Sb674] |384| 
    2624 000005a4     7746  ||         MV      .L1X    B6,A11            ; [A_L674] |380| 
    2625 000005a6     464e  ||         MV      .S1     A4,A10            ; [A_S674] |380| 
    2626 000005a8 062008f1  ||         MV      .D1     A8,A12            ; [A_D64P] |380| 
    2627 000005ac 05900fda  ||         MV      .L2     B4,B11            ; [B_L674] |380| 
    2628                    
    2629                            .dwcfi  cfa_offset, 32
    2630                            .dwcfi  save_reg_to_mem, 11, -20
    2631                            .dwcfi  save_reg_to_mem, 10, -24
    2632                            .dwpsn  file "C:/ti/OMAPL138_StarterWare_1_10_04_01/drivers/raster.c",line 384,column 5,is_stm
    2633 000005b0           $C$RL12:   ; CALLP OCCURS {LCDVersionGet} {0}  ; [] |384| 
    2634                            .dwpsn  file "C:/ti/OMAPL138_StarterWare_1_10_04_01/drivers/raster.c",line 392,column 10,is_st
    2635 000005b0 02afe05a             SUB     .L2     B11,1,B5          ; [B_L674] |392| 
    2636 000005b4 0316da0a             EXTU    .S2     B5,22,26,B6       ; [B_Sb674] |392| 
    2637                    
    2638 000005b8 0314f9a1             SHRU    .S1X    B5,7,A6           ; [A_S674] |392| 
    2639 000005c0     875b  ||         SHL     .S2     B6,4,B5           ; [B_Sb674] |392| 
    2640                    
TMS320C6x Assembler PC v8.1.3 Fri Apr 14 08:40:35 2017

Tools Copyright (c) 1996-2015 Texas Instruments Incorporated
raster.asm                                                           PAGE   49

    2641                            .dwpsn  file "C:/ti/OMAPL138_StarterWare_1_10_04_01/drivers/raster.c",line 380,column 1,is_stm
    2642                    
    2643 000005c2     858f             MV      .S2     B11,B4            ; [B_Sb674] |380| 
    2644 000005c4 00105a5b  ||         CMPEQ   .L2X    A4,2,B0           ; [B_L674] |384| 
    2645 000005c8 02990f59  ||         AND     .L1     8,A6,A5           ; [A_L674] |392| 
    2646 000005cc     650e  ||         MV      .S1     A10,A3            ; [A_S674] |380| 
    2647                    
    2648                            .dwpsn  file "C:/ti/OMAPL138_StarterWare_1_10_04_01/drivers/raster.c",line 392,column 10,is_st
    2649                    
    2650 000005d0 33920f5b     [!B0]   AND     .L2     -16,B4,B7         ; [B_L674] |399| 
    2651 000005ce     2226  ||         CMPEQ   .L1     A4,1,A0           ; [A_L674] |394| 
    2652 000005d4 0214b6e1  ||         OR      .S1X    A5,B5,A4          ; [A_S674] |392| 
    2653 000005d8 028d7d40  ||         ADDAW   .D1     A3,11,A5          ; [A_D64P] |407| 
    2654                    
    2655 000005e0 351e09c3     [!B0]   SUB     .D2     B7,16,B10         ; [B_D64P] |399| 
    2656 000005e8 2000a358  || [ B0]   ZERO    .L1     A0                ; [A_L674] |399| 
    2657 000005e4 220d6275  || [ B0]   STW     .D1T1   A4,*A3(44)        ; [A_D64P] |392| 
    2658                    
    2659                            .dwpsn  file "C:/ti/OMAPL138_StarterWare_1_10_04_01/drivers/raster.c",line 399,column 10,is_st
    2660 000005ec c50d6276     [ A0]   STW     .D1T2   B10,*A3(44)       ; [A_D64P] |399| 
    2661                            .dwpsn  file "C:/ti/OMAPL138_StarterWare_1_10_04_01/drivers/raster.c",line 407,column 5,is_stm
    2662 000005f0     10fc             LDW     .D1T2   *A5(0),B7         ; [A_D64P] |407| 
    2663                            .dwpsn  file "C:/ti/OMAPL138_StarterWare_1_10_04_01/drivers/raster.c",line 380,column 1,is_stm
    2664 000005f2     8607             MV      .L2     B12,B4            ; [B_L674] |380| 
    2665                            .dwpsn  file "C:/ti/OMAPL138_StarterWare_1_10_04_01/drivers/raster.c",line 407,column 5,is_stm
    2666 000005f4 02114ca2             SHL     .S2     B4,10,B4          ; [B_Sb674] |407| 
    2667 000005f8 027e0052             ADDK    .S2     -1024,B4          ; [B_Sb674] |407| 
    2668                            .dwpsn  file "C:/ti/OMAPL138_StarterWare_1_10_04_01/drivers/raster.c",line 410,column 5,is_stm
    2669 00000600 0200a358             ZERO    .L1     A4                ; [A_L674] |410| 
    2670                            .dwpsn  file "C:/ti/OMAPL138_StarterWare_1_10_04_01/drivers/raster.c",line 407,column 5,is_stm
    2671 00000604 021c8ffa             OR      .L2     B4,B7,B4          ; [B_L674] |407| 
    2672 00000608     10c4             STW     .D1T2   B4,*A5(0)         ; [A_D64P] |407| 
    2673                            .dwpsn  file "C:/ti/OMAPL138_StarterWare_1_10_04_01/drivers/raster.c",line 410,column 5,is_stm
    2674 0000060a     00bc             LDW     .D1T1   *A5(0),A3         ; [A_D64P] |410| 
    2675                            .dwpsn  file "C:/ti/OMAPL138_StarterWare_1_10_04_01/drivers/raster.c",line 380,column 1,is_stm
    2676                    
    2677 0000060c     1222             SET     .S1     A4,16,16,A4       ; [A_S674] |410| 
    2678 0000060e     b587  ||         MV      .L2X    A11,B5            ; [B_L674] |380| 
    2679                    
    2680                            .dwpsn  file "C:/ti/OMAPL138_StarterWare_1_10_04_01/drivers/raster.c",line 410,column 5,is_stm
    2681 00000610     06cb             SHL     .S2     B5,16,B4          ; [B_Sb674] |410| 
    2682 00000612     9a41             SUB     .L2X    B4,A4,B4          ; [B_L674] |410| 
    2683                            .dwpsn  file "C:/ti/OMAPL138_StarterWare_1_10_04_01/drivers/raster.c",line 415,column 1,is_stm
    2684 00000614 01b41fda             MV      .L2X    A13,B3            ; [B_L674] |415| 
    2685                            .dwcfi  restore_reg, 19
    2686                            .dwpsn  file "C:/ti/OMAPL138_StarterWare_1_10_04_01/drivers/raster.c",line 410,column 5,is_stm
    2687 00000618 01907ff8             OR      .L1X    B4,A3,A3          ; [A_L674] |410| 
    2688 00000620     00b4             STW     .D1T1   A3,*A5(0)         ; [A_D64P] |410| 
    2689                            .dwpsn  file "C:/ti/OMAPL138_StarterWare_1_10_04_01/drivers/raster.c",line 413,column 5,is_stm
    2690 00000622     00bc             LDW     .D1T1   *A5(0),A3         ; [A_D64P] |413| 
    2691                            .dwpsn  file "C:/ti/OMAPL138_StarterWare_1_10_04_01/drivers/raster.c",line 415,column 1,is_stm
    2692 00000624     c577             LDDW    .D2T1   *++SP(8),A11:A10  ; [B_D64P] |415| 
    2693                            .dwcfi  cfa_offset, 24
    2694                            .dwcfi  restore_reg, 11
    2695                            .dwcfi  restore_reg, 10
TMS320C6x Assembler PC v8.1.3 Fri Apr 14 08:40:35 2017

Tools Copyright (c) 1996-2015 Texas Instruments Incorporated
raster.asm                                                           PAGE   50

    2696                            .dwpsn  file "C:/ti/OMAPL138_StarterWare_1_10_04_01/drivers/raster.c",line 380,column 1,is_stm
    2697                    
    2698 00000626     d607             MV      .L2X    A12,B6            ; [B_L674] |380| 
    2699 00000628     c677  ||         LDDW    .D2T1   *++SP(8),A13:A12  ; [B_D64P] |415| 
    2700                    
    2701                            .dwcfi  cfa_offset, 16
    2702                            .dwcfi  restore_reg, 13
    2703                            .dwcfi  restore_reg, 12
    2704                            .dwpsn  file "C:/ti/OMAPL138_StarterWare_1_10_04_01/drivers/raster.c",line 415,column 1,is_stm
    2705                    $C$DW$164       .dwtag  DW_TAG_TI_branch
    2706                            .dwattr $C$DW$164, DW_AT_low_pc(0x04)
    2707                            .dwattr $C$DW$164, DW_AT_TI_return
    2708                    
    2709                    
    2710 0000062a     d577             LDDW    .D2T2   *++SP(8),B11:B10  ; [B_D64P] |415| 
    2711 0000062c     01ef  ||         RET     .S2     B3                ; [B_Sb674] |415| 
    2712                    
    2713                            .dwcfi  cfa_offset, 8
    2714                            .dwcfi  restore_reg, 27
    2715                            .dwcfi  restore_reg, 26
    2716                            .dwpsn  file "C:/ti/OMAPL138_StarterWare_1_10_04_01/drivers/raster.c",line 413,column 5,is_stm
    2717                    
    2718 0000062e     7677             LDW     .D2T2   *++SP(8),B12      ; [B_D64P] |415| 
    2719 00000630 021b0ca3  ||         SHL     .S2     B6,24,B4          ; [B_Sb674] |413| 
    2720 00000634     0626  ||         ZERO    .L1     A4                ; [A_L674] |413| 
    2721                    
    2722                            .dwcfi  cfa_offset, 0
    2723                            .dwcfi  restore_reg, 28
    2724 00000636     1a22             SET     .S1     A4,24,24,A4       ; [A_S674] |413| 
    2725 00000638 021092f8             SUB     .L1X    B4,A4,A4          ; [A_L674] |413| 
    2726 00000640 018c8ff8             OR      .L1     A4,A3,A3          ; [A_L674] |413| 
    2727 00000644 01940274             STW     .D1T1   A3,*A5(0)         ; [A_D64P] |413| 
    2728                            .dwpsn  file "C:/ti/OMAPL138_StarterWare_1_10_04_01/drivers/raster.c",line 415,column 1,is_stm
    2729                               ; BRANCH OCCURS {B3}              ; [] |415| 
    2730                            .dwattr $C$DW$151, DW_AT_TI_end_file("C:/ti/OMAPL138_StarterWare_1_10_04_01/drivers/raster.c")
    2731                            .dwattr $C$DW$151, DW_AT_TI_end_line(0x19f)
    2732                            .dwattr $C$DW$151, DW_AT_TI_end_column(0x01)
    2733                            .dwendentry
    2734                            .dwendtag $C$DW$151
    2735                    
    2736 00000648                   .sect   ".text"
    2737                            .clink
    2738                            .global RasterFIFODMADelayConfig
    2739                    
    2740                    $C$DW$165       .dwtag  DW_TAG_subprogram
    2741                            .dwattr $C$DW$165, DW_AT_name("RasterFIFODMADelayConfig")
    2742                            .dwattr $C$DW$165, DW_AT_low_pc(RasterFIFODMADelayConfig)
    2743                            .dwattr $C$DW$165, DW_AT_high_pc(0x00)
    2744                            .dwattr $C$DW$165, DW_AT_TI_symbol_name("RasterFIFODMADelayConfig")
    2745                            .dwattr $C$DW$165, DW_AT_external
    2746                            .dwattr $C$DW$165, DW_AT_TI_begin_file("C:/ti/OMAPL138_StarterWare_1_10_04_01/drivers/raster.c
    2747                            .dwattr $C$DW$165, DW_AT_TI_begin_line(0x164)
    2748                            .dwattr $C$DW$165, DW_AT_TI_begin_column(0x06)
    2749                            .dwattr $C$DW$165, DW_AT_decl_file("C:/ti/OMAPL138_StarterWare_1_10_04_01/drivers/raster.c")
    2750                            .dwattr $C$DW$165, DW_AT_decl_line(0x164)
TMS320C6x Assembler PC v8.1.3 Fri Apr 14 08:40:35 2017

Tools Copyright (c) 1996-2015 Texas Instruments Incorporated
raster.asm                                                           PAGE   51

    2751                            .dwattr $C$DW$165, DW_AT_decl_column(0x06)
    2752                            .dwattr $C$DW$165, DW_AT_TI_max_frame_size(0x00)
    2753                            .dwpsn  file "C:/ti/OMAPL138_StarterWare_1_10_04_01/drivers/raster.c",line 357,column 1,is_stm
    2754                    
    2755                            .dwfde $C$DW$CIE, RasterFIFODMADelayConfig
    2756                    $C$DW$166       .dwtag  DW_TAG_formal_parameter
    2757                            .dwattr $C$DW$166, DW_AT_name("baseAddr")
    2758                            .dwattr $C$DW$166, DW_AT_TI_symbol_name("baseAddr")
    2759                            .dwattr $C$DW$166, DW_AT_type(*$C$DW$T$11)
    2760                            .dwattr $C$DW$166, DW_AT_location[DW_OP_reg4]
    2761                    
    2762                    $C$DW$167       .dwtag  DW_TAG_formal_parameter
    2763                            .dwattr $C$DW$167, DW_AT_name("delay")
    2764                            .dwattr $C$DW$167, DW_AT_TI_symbol_name("delay")
    2765                            .dwattr $C$DW$167, DW_AT_type(*$C$DW$T$11)
    2766                            .dwattr $C$DW$167, DW_AT_location[DW_OP_reg20]
    2767                    
    2768                    
    2769                    ;******************************************************************************
    2770                    ;* FUNCTION NAME: RasterFIFODMADelayConfig                                    *
    2771                    ;*                                                                            *
    2772                    ;*   Regs Modified     : A3,A4,B4                                             *
    2773                    ;*   Regs Used         : A3,A4,B3,B4                                          *
    2774                    ;*   Local Frame Size  : 0 Args + 0 Auto + 0 Save = 0 byte                    *
    2775                    ;******************************************************************************
    2776                    RasterFIFODMADelayConfig:
    2777                    ;** --------------------------------------------------------------------------*
    2778                    $C$DW$168       .dwtag  DW_TAG_variable
    2779                            .dwattr $C$DW$168, DW_AT_name("delay")
    2780                            .dwattr $C$DW$168, DW_AT_TI_symbol_name("delay")
    2781                            .dwattr $C$DW$168, DW_AT_type(*$C$DW$T$30)
    2782                            .dwattr $C$DW$168, DW_AT_location[DW_OP_reg20]
    2783                    
    2784                    $C$DW$169       .dwtag  DW_TAG_variable
    2785                            .dwattr $C$DW$169, DW_AT_name("baseAddr")
    2786                            .dwattr $C$DW$169, DW_AT_TI_symbol_name("baseAddr")
    2787                            .dwattr $C$DW$169, DW_AT_type(*$C$DW$T$30)
    2788                            .dwattr $C$DW$169, DW_AT_location[DW_OP_reg4]
    2789                    
    2790                            .dwcfi  cfa_offset, 0
    2791                            .dwpsn  file "C:/ti/OMAPL138_StarterWare_1_10_04_01/drivers/raster.c",line 359,column 5,is_stm
    2792 00000648 0210bec0             ADDAD   .D1     A4,5,A4           ; [A_D64P] |359| 
    2793 0000064c     003c             LDW     .D1T1   *A4(0),A3         ; [A_D64P] |359| 
    2794                            .dwpsn  file "C:/ti/OMAPL138_StarterWare_1_10_04_01/drivers/raster.c",line 360,column 5,is_stm
    2795 0000064e     8e03             SHL     .S2     B4,12,B4          ; [B_Sb674] |360| 
    2796 00000650 00004000             NOP             3                 ; [A_L674] 
    2797                            .dwpsn  file "C:/ti/OMAPL138_StarterWare_1_10_04_01/drivers/raster.c",line 359,column 5,is_stm
    2798 00000654 018d93c8             CLR     .S1     A3,12,19,A3       ; [A_S674] |359| 
    2799 00000658     0034             STW     .D1T1   A3,*A4(0)         ; [A_D64P] |359| 
    2800                            .dwpsn  file "C:/ti/OMAPL138_StarterWare_1_10_04_01/drivers/raster.c",line 360,column 5,is_stm
    2801 0000065a     003c             LDW     .D1T1   *A4(0),A3         ; [A_D64P] |360| 
    2802                            .dwpsn  file "C:/ti/OMAPL138_StarterWare_1_10_04_01/drivers/raster.c",line 362,column 1,is_stm
    2803                    $C$DW$170       .dwtag  DW_TAG_TI_branch
    2804                            .dwattr $C$DW$170, DW_AT_low_pc(0x00)
    2805                            .dwattr $C$DW$170, DW_AT_TI_return
TMS320C6x Assembler PC v8.1.3 Fri Apr 14 08:40:35 2017

Tools Copyright (c) 1996-2015 Texas Instruments Incorporated
raster.asm                                                           PAGE   52

    2806                    
    2807 00000660 008c6362             RETNOP          B3,3              ; [] |362| 
    2808                            .dwpsn  file "C:/ti/OMAPL138_StarterWare_1_10_04_01/drivers/raster.c",line 360,column 5,is_stm
    2809 00000664 020c9ffa             OR      .L2X    B4,A3,B4          ; [B_L674] |360| 
    2810 00000668 02100276             STW     .D1T2   B4,*A4(0)         ; [A_D64P] |360| 
    2811                            .dwpsn  file "C:/ti/OMAPL138_StarterWare_1_10_04_01/drivers/raster.c",line 362,column 1,is_stm
    2812                               ; BRANCH OCCURS {B3}              ; [] |362| 
    2813                            .dwattr $C$DW$165, DW_AT_TI_end_file("C:/ti/OMAPL138_StarterWare_1_10_04_01/drivers/raster.c")
    2814                            .dwattr $C$DW$165, DW_AT_TI_end_line(0x16a)
    2815                            .dwattr $C$DW$165, DW_AT_TI_end_column(0x01)
    2816                            .dwendentry
    2817                            .dwendtag $C$DW$165
    2818                    
    2819 0000066c                   .sect   ".text"
    2820                            .clink
    2821                            .global RasterEndOfFrameIntEnable
    2822                    
    2823                    $C$DW$171       .dwtag  DW_TAG_subprogram
    2824                            .dwattr $C$DW$171, DW_AT_name("RasterEndOfFrameIntEnable")
    2825                            .dwattr $C$DW$171, DW_AT_low_pc(RasterEndOfFrameIntEnable)
    2826                            .dwattr $C$DW$171, DW_AT_high_pc(0x00)
    2827                            .dwattr $C$DW$171, DW_AT_TI_symbol_name("RasterEndOfFrameIntEnable")
    2828                            .dwattr $C$DW$171, DW_AT_external
    2829                            .dwattr $C$DW$171, DW_AT_TI_begin_file("C:/ti/OMAPL138_StarterWare_1_10_04_01/drivers/raster.c
    2830                            .dwattr $C$DW$171, DW_AT_TI_begin_line(0x263)
    2831                            .dwattr $C$DW$171, DW_AT_TI_begin_column(0x06)
    2832                            .dwattr $C$DW$171, DW_AT_decl_file("C:/ti/OMAPL138_StarterWare_1_10_04_01/drivers/raster.c")
    2833                            .dwattr $C$DW$171, DW_AT_decl_line(0x263)
    2834                            .dwattr $C$DW$171, DW_AT_decl_column(0x06)
    2835                            .dwattr $C$DW$171, DW_AT_TI_max_frame_size(0x00)
    2836                            .dwpsn  file "C:/ti/OMAPL138_StarterWare_1_10_04_01/drivers/raster.c",line 612,column 1,is_stm
    2837                    
    2838                            .dwfde $C$DW$CIE, RasterEndOfFrameIntEnable
    2839                    $C$DW$172       .dwtag  DW_TAG_formal_parameter
    2840                            .dwattr $C$DW$172, DW_AT_name("baseAddr")
    2841                            .dwattr $C$DW$172, DW_AT_TI_symbol_name("baseAddr")
    2842                            .dwattr $C$DW$172, DW_AT_type(*$C$DW$T$11)
    2843                            .dwattr $C$DW$172, DW_AT_location[DW_OP_reg4]
    2844                    
    2845                    
    2846                    ;******************************************************************************
    2847                    ;* FUNCTION NAME: RasterEndOfFrameIntEnable                                   *
    2848                    ;*                                                                            *
    2849                    ;*   Regs Modified     : A3,A4                                                *
    2850                    ;*   Regs Used         : A3,A4,B3                                             *
    2851                    ;*   Local Frame Size  : 0 Args + 0 Auto + 0 Save = 0 byte                    *
    2852                    ;******************************************************************************
    2853                    RasterEndOfFrameIntEnable:
    2854                    ;** --------------------------------------------------------------------------*
    2855                    $C$DW$173       .dwtag  DW_TAG_variable
    2856                            .dwattr $C$DW$173, DW_AT_name("baseAddr")
    2857                            .dwattr $C$DW$173, DW_AT_TI_symbol_name("baseAddr")
    2858                            .dwattr $C$DW$173, DW_AT_type(*$C$DW$T$30)
    2859                            .dwattr $C$DW$173, DW_AT_location[DW_OP_reg4]
    2860                    
TMS320C6x Assembler PC v8.1.3 Fri Apr 14 08:40:35 2017

Tools Copyright (c) 1996-2015 Texas Instruments Incorporated
raster.asm                                                           PAGE   53

    2861                            .dwcfi  cfa_offset, 0
    2862                            .dwpsn  file "C:/ti/OMAPL138_StarterWare_1_10_04_01/drivers/raster.c",line 613,column 5,is_stm
    2863 0000066c 01911ec0             ADDAD   .D1     A4,8,A3           ; [A_D64P] |613| 
    2864 00000670 020c0264             LDW     .D1T1   *A3(0),A4         ; [A_D64P] |613| 
    2865                            .dwpsn  file "C:/ti/OMAPL138_StarterWare_1_10_04_01/drivers/raster.c",line 614,column 1,is_stm
    2866                    $C$DW$174       .dwtag  DW_TAG_TI_branch
    2867                            .dwattr $C$DW$174, DW_AT_low_pc(0x00)
    2868                            .dwattr $C$DW$174, DW_AT_TI_return
    2869                    
    2870 00000674 008c6362             RETNOP          B3,3              ; [] |614| 
    2871                            .dwpsn  file "C:/ti/OMAPL138_StarterWare_1_10_04_01/drivers/raster.c",line 613,column 5,is_stm
    2872 00000678 02108fd8             OR      .L1     4,A4,A4           ; [A_L674] |613| 
    2873 0000067c 020c0274             STW     .D1T1   A4,*A3(0)         ; [A_D64P] |613| 
    2874                            .dwpsn  file "C:/ti/OMAPL138_StarterWare_1_10_04_01/drivers/raster.c",line 614,column 1,is_stm
    2875                               ; BRANCH OCCURS {B3}              ; [] |614| 
    2876                            .dwattr $C$DW$171, DW_AT_TI_end_file("C:/ti/OMAPL138_StarterWare_1_10_04_01/drivers/raster.c")
    2877                            .dwattr $C$DW$171, DW_AT_TI_end_line(0x266)
    2878                            .dwattr $C$DW$171, DW_AT_TI_end_column(0x01)
    2879                            .dwendentry
    2880                            .dwendtag $C$DW$171
    2881                    
    2882 00000680                   .sect   ".text"
    2883                            .clink
    2884                            .global RasterEndOfFrameIntDisable
    2885                    
    2886                    $C$DW$175       .dwtag  DW_TAG_subprogram
    2887                            .dwattr $C$DW$175, DW_AT_name("RasterEndOfFrameIntDisable")
    2888                            .dwattr $C$DW$175, DW_AT_low_pc(RasterEndOfFrameIntDisable)
    2889                            .dwattr $C$DW$175, DW_AT_high_pc(0x00)
    2890                            .dwattr $C$DW$175, DW_AT_TI_symbol_name("RasterEndOfFrameIntDisable")
    2891                            .dwattr $C$DW$175, DW_AT_external
    2892                            .dwattr $C$DW$175, DW_AT_TI_begin_file("C:/ti/OMAPL138_StarterWare_1_10_04_01/drivers/raster.c
    2893                            .dwattr $C$DW$175, DW_AT_TI_begin_line(0x273)
    2894                            .dwattr $C$DW$175, DW_AT_TI_begin_column(0x06)
    2895                            .dwattr $C$DW$175, DW_AT_decl_file("C:/ti/OMAPL138_StarterWare_1_10_04_01/drivers/raster.c")
    2896                            .dwattr $C$DW$175, DW_AT_decl_line(0x273)
    2897                            .dwattr $C$DW$175, DW_AT_decl_column(0x06)
    2898                            .dwattr $C$DW$175, DW_AT_TI_max_frame_size(0x00)
    2899                            .dwpsn  file "C:/ti/OMAPL138_StarterWare_1_10_04_01/drivers/raster.c",line 628,column 1,is_stm
    2900                    
    2901                            .dwfde $C$DW$CIE, RasterEndOfFrameIntDisable
    2902                    $C$DW$176       .dwtag  DW_TAG_formal_parameter
    2903                            .dwattr $C$DW$176, DW_AT_name("baseAddr")
    2904                            .dwattr $C$DW$176, DW_AT_TI_symbol_name("baseAddr")
    2905                            .dwattr $C$DW$176, DW_AT_type(*$C$DW$T$11)
    2906                            .dwattr $C$DW$176, DW_AT_location[DW_OP_reg4]
    2907                    
    2908                    
    2909                    ;******************************************************************************
    2910                    ;* FUNCTION NAME: RasterEndOfFrameIntDisable                                  *
    2911                    ;*                                                                            *
    2912                    ;*   Regs Modified     : A3,A4                                                *
    2913                    ;*   Regs Used         : A3,A4,B3                                             *
    2914                    ;*   Local Frame Size  : 0 Args + 0 Auto + 0 Save = 0 byte                    *
    2915                    ;******************************************************************************
TMS320C6x Assembler PC v8.1.3 Fri Apr 14 08:40:35 2017

Tools Copyright (c) 1996-2015 Texas Instruments Incorporated
raster.asm                                                           PAGE   54

    2916                    RasterEndOfFrameIntDisable:
    2917                    ;** --------------------------------------------------------------------------*
    2918                    $C$DW$177       .dwtag  DW_TAG_variable
    2919                            .dwattr $C$DW$177, DW_AT_name("baseAddr")
    2920                            .dwattr $C$DW$177, DW_AT_TI_symbol_name("baseAddr")
    2921                            .dwattr $C$DW$177, DW_AT_type(*$C$DW$T$30)
    2922                            .dwattr $C$DW$177, DW_AT_location[DW_OP_reg4]
    2923                    
    2924                            .dwcfi  cfa_offset, 0
    2925                            .dwpsn  file "C:/ti/OMAPL138_StarterWare_1_10_04_01/drivers/raster.c",line 629,column 5,is_stm
    2926 00000680 01911ec0             ADDAD   .D1     A4,8,A3           ; [A_D64P] |629| 
    2927 00000684 020c0264             LDW     .D1T1   *A3(0),A4         ; [A_D64P] |629| 
    2928                            .dwpsn  file "C:/ti/OMAPL138_StarterWare_1_10_04_01/drivers/raster.c",line 630,column 1,is_stm
    2929                    $C$DW$178       .dwtag  DW_TAG_TI_branch
    2930                            .dwattr $C$DW$178, DW_AT_low_pc(0x00)
    2931                            .dwattr $C$DW$178, DW_AT_TI_return
    2932                    
    2933 00000688 008c6362             RETNOP          B3,3              ; [] |630| 
    2934                            .dwpsn  file "C:/ti/OMAPL138_StarterWare_1_10_04_01/drivers/raster.c",line 629,column 5,is_stm
    2935 0000068c 02136f58             AND     .L1     -5,A4,A4          ; [A_L674] |629| 
    2936 00000690 020c0274             STW     .D1T1   A4,*A3(0)         ; [A_D64P] |629| 
    2937                            .dwpsn  file "C:/ti/OMAPL138_StarterWare_1_10_04_01/drivers/raster.c",line 630,column 1,is_stm
    2938                               ; BRANCH OCCURS {B3}              ; [] |630| 
    2939                            .dwattr $C$DW$175, DW_AT_TI_end_file("C:/ti/OMAPL138_StarterWare_1_10_04_01/drivers/raster.c")
    2940                            .dwattr $C$DW$175, DW_AT_TI_end_line(0x276)
    2941                            .dwattr $C$DW$175, DW_AT_TI_end_column(0x01)
    2942                            .dwendentry
    2943                            .dwendtag $C$DW$175
    2944                    
    2945 00000694                   .sect   ".text"
    2946                            .clink
    2947                            .global RasterEnable
    2948                    
    2949                    $C$DW$179       .dwtag  DW_TAG_subprogram
    2950                            .dwattr $C$DW$179, DW_AT_name("RasterEnable")
    2951                            .dwattr $C$DW$179, DW_AT_low_pc(RasterEnable)
    2952                            .dwattr $C$DW$179, DW_AT_high_pc(0x00)
    2953                            .dwattr $C$DW$179, DW_AT_TI_symbol_name("RasterEnable")
    2954                            .dwattr $C$DW$179, DW_AT_external
    2955                            .dwattr $C$DW$179, DW_AT_TI_begin_file("C:/ti/OMAPL138_StarterWare_1_10_04_01/drivers/raster.c
    2956                            .dwattr $C$DW$179, DW_AT_TI_begin_line(0x72)
    2957                            .dwattr $C$DW$179, DW_AT_TI_begin_column(0x06)
    2958                            .dwattr $C$DW$179, DW_AT_decl_file("C:/ti/OMAPL138_StarterWare_1_10_04_01/drivers/raster.c")
    2959                            .dwattr $C$DW$179, DW_AT_decl_line(0x72)
    2960                            .dwattr $C$DW$179, DW_AT_decl_column(0x06)
    2961                            .dwattr $C$DW$179, DW_AT_TI_max_frame_size(0x00)
    2962                            .dwpsn  file "C:/ti/OMAPL138_StarterWare_1_10_04_01/drivers/raster.c",line 115,column 1,is_stm
    2963                    
    2964                            .dwfde $C$DW$CIE, RasterEnable
    2965                    $C$DW$180       .dwtag  DW_TAG_formal_parameter
    2966                            .dwattr $C$DW$180, DW_AT_name("baseAddr")
