TMS320C6x Assembler PC v8.1.3 Thu Apr 20 05:51:03 2017

Tools Copyright (c) 1996-2015 Texas Instruments Incorporated
LCD.asm                                                              PAGE    1

       1                    ;******************************************************************************
       2                    ;* G3 TMS320C6x C/C++ Codegen                                       PC v8.1.3 *
       3                    ;* Date/Time created: Thu Apr 20 05:51:02 2017                                *
       4                    ;******************************************************************************
       5                            .compiler_opts --abi=eabi --array_alignment=8 --diag_wrap=off --endian=little --hll_source=on 
       6                    
       7                    ;******************************************************************************
       8                    ;* GLOBAL FILE PARAMETERS                                                     *
       9                    ;*                                                                            *
      10                    ;*   Architecture      : TMS320C674x                                          *
      11                    ;*   Optimization      : Enabled at level 3                                   *
      12                    ;*   Optimizing for    : Speed                                                *
      13                    ;*                       Based on options: -o3, no -ms                        *
      14                    ;*   Endian            : Little                                               *
      15                    ;*   Interrupt Thrshld : Disabled                                             *
      16                    ;*   Data Access Model : Far Aggregate Data                                   *
      17                    ;*   Pipelining        : Enabled                                              *
      18                    ;*   Speculate Loads   : Enabled with threshold = 0                           *
      19                    ;*   Memory Aliases    : Presume are aliases (pessimistic)                    *
      20                    ;*   Debug Info        : DWARF Debug                                          *
      21                    ;*                                                                            *
      22                    ;******************************************************************************
      23                    
      24                            .asg    A15, FP
      25                            .asg    B14, DP
      26                            .asg    B15, SP
      27                            .global $bss
      28                    
      29                    
      30                    $C$DW$CU        .dwtag  DW_TAG_compile_unit
      31                            .dwattr $C$DW$CU, DW_AT_name("C:/Users/Raz Aloni/OneDrive/School/EEL4924/DSP/C_Libs/MicCheckPe
      32                            .dwattr $C$DW$CU, DW_AT_producer("TI G3 TMS320C6x C/C++ Codegen PC v8.1.3 Copyright (c) 1996-2
      33                            .dwattr $C$DW$CU, DW_AT_TI_version(0x01)
      34                            .dwattr $C$DW$CU, DW_AT_comp_dir("C:\Users\Raz Aloni\OneDrive\School\EEL4924\DSP\DSP_Workspace
      35                    
      36                    $C$DW$1 .dwtag  DW_TAG_subprogram
      37                            .dwattr $C$DW$1, DW_AT_name("ti_sysbios_knl_Semaphore_post__E")
      38                            .dwattr $C$DW$1, DW_AT_TI_symbol_name("ti_sysbios_knl_Semaphore_post__E")
      39                            .dwattr $C$DW$1, DW_AT_declaration
      40                            .dwattr $C$DW$1, DW_AT_external
      41                            .dwattr $C$DW$1, DW_AT_decl_file("C:/ti/bios_6_50_00_10/packages/ti/sysbios/knl/Semaphore.h")
      42                            .dwattr $C$DW$1, DW_AT_decl_line(0x1e1)
      43                            .dwattr $C$DW$1, DW_AT_decl_column(0x13)
      44                    $C$DW$2 .dwtag  DW_TAG_formal_parameter
      45                            .dwattr $C$DW$2, DW_AT_type(*$C$DW$T$792)
      46                    
      47                            .dwendtag $C$DW$1
      48                    
      49                    
      50                    $C$DW$3 .dwtag  DW_TAG_subprogram
      51                            .dwattr $C$DW$3, DW_AT_name("PSCModuleControl")
      52                            .dwattr $C$DW$3, DW_AT_TI_symbol_name("PSCModuleControl")
      53                            .dwattr $C$DW$3, DW_AT_type(*$C$DW$T$10)
      54                            .dwattr $C$DW$3, DW_AT_declaration
      55                            .dwattr $C$DW$3, DW_AT_external
TMS320C6x Assembler PC v8.1.3 Thu Apr 20 05:51:03 2017

Tools Copyright (c) 1996-2015 Texas Instruments Incorporated
LCD.asm                                                              PAGE    2

      56                            .dwattr $C$DW$3, DW_AT_decl_file("C:/ti/OMAPL138_StarterWare_1_10_04_01/include/psc.h")
      57                            .dwattr $C$DW$3, DW_AT_decl_line(0x3a)
      58                            .dwattr $C$DW$3, DW_AT_decl_column(0x05)
      59                    $C$DW$4 .dwtag  DW_TAG_formal_parameter
      60                            .dwattr $C$DW$4, DW_AT_type(*$C$DW$T$11)
      61                    
      62                    $C$DW$5 .dwtag  DW_TAG_formal_parameter
      63                            .dwattr $C$DW$5, DW_AT_type(*$C$DW$T$11)
      64                    
      65                    $C$DW$6 .dwtag  DW_TAG_formal_parameter
      66                            .dwattr $C$DW$6, DW_AT_type(*$C$DW$T$11)
      67                    
      68                    $C$DW$7 .dwtag  DW_TAG_formal_parameter
      69                            .dwattr $C$DW$7, DW_AT_type(*$C$DW$T$11)
      70                    
      71                            .dwendtag $C$DW$3
      72                    
      73                    
      74                    $C$DW$8 .dwtag  DW_TAG_subprogram
      75                            .dwattr $C$DW$8, DW_AT_name("RasterEnable")
      76                            .dwattr $C$DW$8, DW_AT_TI_symbol_name("RasterEnable")
      77                            .dwattr $C$DW$8, DW_AT_declaration
      78                            .dwattr $C$DW$8, DW_AT_external
      79                            .dwattr $C$DW$8, DW_AT_decl_file("C:/ti/OMAPL138_StarterWare_1_10_04_01/include/raster.h")
      80                            .dwattr $C$DW$8, DW_AT_decl_line(0x152)
      81                            .dwattr $C$DW$8, DW_AT_decl_column(0x0d)
      82                    $C$DW$9 .dwtag  DW_TAG_formal_parameter
      83                            .dwattr $C$DW$9, DW_AT_type(*$C$DW$T$11)
      84                    
      85                            .dwendtag $C$DW$8
      86                    
      87                    
      88                    $C$DW$10        .dwtag  DW_TAG_subprogram
      89                            .dwattr $C$DW$10, DW_AT_name("RasterDisable")
      90                            .dwattr $C$DW$10, DW_AT_TI_symbol_name("RasterDisable")
      91                            .dwattr $C$DW$10, DW_AT_declaration
      92                            .dwattr $C$DW$10, DW_AT_external
      93                            .dwattr $C$DW$10, DW_AT_decl_file("C:/ti/OMAPL138_StarterWare_1_10_04_01/include/raster.h")
      94                            .dwattr $C$DW$10, DW_AT_decl_line(0x153)
      95                            .dwattr $C$DW$10, DW_AT_decl_column(0x0d)
      96                    $C$DW$11        .dwtag  DW_TAG_formal_parameter
      97                            .dwattr $C$DW$11, DW_AT_type(*$C$DW$T$11)
      98                    
      99                            .dwendtag $C$DW$10
     100                    
     101                    
     102                    $C$DW$12        .dwtag  DW_TAG_subprogram
     103                            .dwattr $C$DW$12, DW_AT_name("RasterNibbleModeDisable")
     104                            .dwattr $C$DW$12, DW_AT_TI_symbol_name("RasterNibbleModeDisable")
     105                            .dwattr $C$DW$12, DW_AT_declaration
     106                            .dwattr $C$DW$12, DW_AT_external
     107                            .dwattr $C$DW$12, DW_AT_decl_file("C:/ti/OMAPL138_StarterWare_1_10_04_01/include/raster.h")
     108                            .dwattr $C$DW$12, DW_AT_decl_line(0x155)
     109                            .dwattr $C$DW$12, DW_AT_decl_column(0x0d)
     110                    $C$DW$13        .dwtag  DW_TAG_formal_parameter
TMS320C6x Assembler PC v8.1.3 Thu Apr 20 05:51:03 2017

Tools Copyright (c) 1996-2015 Texas Instruments Incorporated
LCD.asm                                                              PAGE    3

     111                            .dwattr $C$DW$13, DW_AT_type(*$C$DW$T$11)
     112                    
     113                            .dwendtag $C$DW$12
     114                    
     115                    
     116                    $C$DW$14        .dwtag  DW_TAG_subprogram
     117                            .dwattr $C$DW$14, DW_AT_name("RasterLSBDataOrderSelect")
     118                            .dwattr $C$DW$14, DW_AT_TI_symbol_name("RasterLSBDataOrderSelect")
     119                            .dwattr $C$DW$14, DW_AT_declaration
     120                            .dwattr $C$DW$14, DW_AT_external
     121                            .dwattr $C$DW$14, DW_AT_decl_file("C:/ti/OMAPL138_StarterWare_1_10_04_01/include/raster.h")
     122                            .dwattr $C$DW$14, DW_AT_decl_line(0x157)
     123                            .dwattr $C$DW$14, DW_AT_decl_column(0x0d)
     124                    $C$DW$15        .dwtag  DW_TAG_formal_parameter
     125                            .dwattr $C$DW$15, DW_AT_type(*$C$DW$T$11)
     126                    
     127                            .dwendtag $C$DW$14
     128                    
     129                    
     130                    $C$DW$16        .dwtag  DW_TAG_subprogram
     131                            .dwattr $C$DW$16, DW_AT_name("RasterIntEnable")
     132                            .dwattr $C$DW$16, DW_AT_TI_symbol_name("RasterIntEnable")
     133                            .dwattr $C$DW$16, DW_AT_declaration
     134                            .dwattr $C$DW$16, DW_AT_external
     135                            .dwattr $C$DW$16, DW_AT_decl_file("C:/ti/OMAPL138_StarterWare_1_10_04_01/include/raster.h")
     136                            .dwattr $C$DW$16, DW_AT_decl_line(0x15a)
     137                            .dwattr $C$DW$16, DW_AT_decl_column(0x0d)
     138                    $C$DW$17        .dwtag  DW_TAG_formal_parameter
     139                            .dwattr $C$DW$17, DW_AT_type(*$C$DW$T$11)
     140                    
     141                    $C$DW$18        .dwtag  DW_TAG_formal_parameter
     142                            .dwattr $C$DW$18, DW_AT_type(*$C$DW$T$11)
     143                    
     144                            .dwendtag $C$DW$16
     145                    
     146                    
     147                    $C$DW$19        .dwtag  DW_TAG_subprogram
     148                            .dwattr $C$DW$19, DW_AT_name("RasterDMAFBConfig")
     149                            .dwattr $C$DW$19, DW_AT_TI_symbol_name("RasterDMAFBConfig")
     150                            .dwattr $C$DW$19, DW_AT_declaration
     151                            .dwattr $C$DW$19, DW_AT_external
     152                            .dwattr $C$DW$19, DW_AT_decl_file("C:/ti/OMAPL138_StarterWare_1_10_04_01/include/raster.h")
     153                            .dwattr $C$DW$19, DW_AT_decl_line(0x15b)
     154                            .dwattr $C$DW$19, DW_AT_decl_column(0x0d)
     155                    $C$DW$20        .dwtag  DW_TAG_formal_parameter
     156                            .dwattr $C$DW$20, DW_AT_type(*$C$DW$T$11)
     157                    
     158                    $C$DW$21        .dwtag  DW_TAG_formal_parameter
     159                            .dwattr $C$DW$21, DW_AT_type(*$C$DW$T$11)
     160                    
     161                    $C$DW$22        .dwtag  DW_TAG_formal_parameter
     162                            .dwattr $C$DW$22, DW_AT_type(*$C$DW$T$11)
     163                    
     164                    $C$DW$23        .dwtag  DW_TAG_formal_parameter
     165                            .dwattr $C$DW$23, DW_AT_type(*$C$DW$T$11)
TMS320C6x Assembler PC v8.1.3 Thu Apr 20 05:51:03 2017

Tools Copyright (c) 1996-2015 Texas Instruments Incorporated
LCD.asm                                                              PAGE    4

     166                    
     167                            .dwendtag $C$DW$19
     168                    
     169                    
     170                    $C$DW$24        .dwtag  DW_TAG_subprogram
     171                            .dwattr $C$DW$24, DW_AT_name("RasterDMAConfig")
     172                            .dwattr $C$DW$24, DW_AT_TI_symbol_name("RasterDMAConfig")
     173                            .dwattr $C$DW$24, DW_AT_declaration
     174                            .dwattr $C$DW$24, DW_AT_external
     175                            .dwattr $C$DW$24, DW_AT_decl_file("C:/ti/OMAPL138_StarterWare_1_10_04_01/include/raster.h")
     176                            .dwattr $C$DW$24, DW_AT_decl_line(0x15d)
     177                            .dwattr $C$DW$24, DW_AT_decl_column(0x0d)
     178                    $C$DW$25        .dwtag  DW_TAG_formal_parameter
     179                            .dwattr $C$DW$25, DW_AT_type(*$C$DW$T$11)
     180                    
     181                    $C$DW$26        .dwtag  DW_TAG_formal_parameter
     182                            .dwattr $C$DW$26, DW_AT_type(*$C$DW$T$11)
     183                    
     184                    $C$DW$27        .dwtag  DW_TAG_formal_parameter
     185                            .dwattr $C$DW$27, DW_AT_type(*$C$DW$T$11)
     186                    
     187                    $C$DW$28        .dwtag  DW_TAG_formal_parameter
     188                            .dwattr $C$DW$28, DW_AT_type(*$C$DW$T$11)
     189                    
     190                    $C$DW$29        .dwtag  DW_TAG_formal_parameter
     191                            .dwattr $C$DW$29, DW_AT_type(*$C$DW$T$11)
     192                    
     193                            .dwendtag $C$DW$24
     194                    
     195                    
     196                    $C$DW$30        .dwtag  DW_TAG_subprogram
     197                            .dwattr $C$DW$30, DW_AT_name("RasterClkConfig")
     198                            .dwattr $C$DW$30, DW_AT_TI_symbol_name("RasterClkConfig")
     199                            .dwattr $C$DW$30, DW_AT_declaration
     200                            .dwattr $C$DW$30, DW_AT_external
     201                            .dwattr $C$DW$30, DW_AT_decl_file("C:/ti/OMAPL138_StarterWare_1_10_04_01/include/raster.h")
     202                            .dwattr $C$DW$30, DW_AT_decl_line(0x161)
     203                            .dwattr $C$DW$30, DW_AT_decl_column(0x0d)
     204                    $C$DW$31        .dwtag  DW_TAG_formal_parameter
     205                            .dwattr $C$DW$31, DW_AT_type(*$C$DW$T$11)
     206                    
     207                    $C$DW$32        .dwtag  DW_TAG_formal_parameter
     208                            .dwattr $C$DW$32, DW_AT_type(*$C$DW$T$11)
     209                    
     210                    $C$DW$33        .dwtag  DW_TAG_formal_parameter
     211                            .dwattr $C$DW$33, DW_AT_type(*$C$DW$T$11)
     212                    
     213                            .dwendtag $C$DW$30
     214                    
     215                    
     216                    $C$DW$34        .dwtag  DW_TAG_subprogram
     217                            .dwattr $C$DW$34, DW_AT_name("RasterModeConfig")
     218                            .dwattr $C$DW$34, DW_AT_TI_symbol_name("RasterModeConfig")
     219                            .dwattr $C$DW$34, DW_AT_declaration
     220                            .dwattr $C$DW$34, DW_AT_external
TMS320C6x Assembler PC v8.1.3 Thu Apr 20 05:51:03 2017

Tools Copyright (c) 1996-2015 Texas Instruments Incorporated
LCD.asm                                                              PAGE    5

     221                            .dwattr $C$DW$34, DW_AT_decl_file("C:/ti/OMAPL138_StarterWare_1_10_04_01/include/raster.h")
     222                            .dwattr $C$DW$34, DW_AT_decl_line(0x163)
     223                            .dwattr $C$DW$34, DW_AT_decl_column(0x0d)
     224                    $C$DW$35        .dwtag  DW_TAG_formal_parameter
     225                            .dwattr $C$DW$35, DW_AT_type(*$C$DW$T$11)
     226                    
     227                    $C$DW$36        .dwtag  DW_TAG_formal_parameter
     228                            .dwattr $C$DW$36, DW_AT_type(*$C$DW$T$11)
     229                    
     230                    $C$DW$37        .dwtag  DW_TAG_formal_parameter
     231                            .dwattr $C$DW$37, DW_AT_type(*$C$DW$T$11)
     232                    
     233                    $C$DW$38        .dwtag  DW_TAG_formal_parameter
     234                            .dwattr $C$DW$38, DW_AT_type(*$C$DW$T$11)
     235                    
     236                    $C$DW$39        .dwtag  DW_TAG_formal_parameter
     237                            .dwattr $C$DW$39, DW_AT_type(*$C$DW$T$11)
     238                    
     239                            .dwendtag $C$DW$34
     240                    
     241                    
     242                    $C$DW$40        .dwtag  DW_TAG_subprogram
     243                            .dwattr $C$DW$40, DW_AT_name("RasterVparamConfig")
     244                            .dwattr $C$DW$40, DW_AT_TI_symbol_name("RasterVparamConfig")
     245                            .dwattr $C$DW$40, DW_AT_declaration
     246                            .dwattr $C$DW$40, DW_AT_external
     247                            .dwattr $C$DW$40, DW_AT_decl_file("C:/ti/OMAPL138_StarterWare_1_10_04_01/include/raster.h")
     248                            .dwattr $C$DW$40, DW_AT_decl_line(0x168)
     249                            .dwattr $C$DW$40, DW_AT_decl_column(0x0d)
     250                    $C$DW$41        .dwtag  DW_TAG_formal_parameter
     251                            .dwattr $C$DW$41, DW_AT_type(*$C$DW$T$11)
     252                    
     253                    $C$DW$42        .dwtag  DW_TAG_formal_parameter
     254                            .dwattr $C$DW$42, DW_AT_type(*$C$DW$T$11)
     255                    
     256                    $C$DW$43        .dwtag  DW_TAG_formal_parameter
     257                            .dwattr $C$DW$43, DW_AT_type(*$C$DW$T$11)
     258                    
     259                    $C$DW$44        .dwtag  DW_TAG_formal_parameter
     260                            .dwattr $C$DW$44, DW_AT_type(*$C$DW$T$11)
     261                    
     262                    $C$DW$45        .dwtag  DW_TAG_formal_parameter
     263                            .dwattr $C$DW$45, DW_AT_type(*$C$DW$T$11)
     264                    
     265                            .dwendtag $C$DW$40
     266                    
     267                    
     268                    $C$DW$46        .dwtag  DW_TAG_subprogram
     269                            .dwattr $C$DW$46, DW_AT_name("RasterHparamConfig")
     270                            .dwattr $C$DW$46, DW_AT_TI_symbol_name("RasterHparamConfig")
     271                            .dwattr $C$DW$46, DW_AT_declaration
     272                            .dwattr $C$DW$46, DW_AT_external
     273                            .dwattr $C$DW$46, DW_AT_decl_file("C:/ti/OMAPL138_StarterWare_1_10_04_01/include/raster.h")
     274                            .dwattr $C$DW$46, DW_AT_decl_line(0x16c)
     275                            .dwattr $C$DW$46, DW_AT_decl_column(0x0d)
TMS320C6x Assembler PC v8.1.3 Thu Apr 20 05:51:03 2017

Tools Copyright (c) 1996-2015 Texas Instruments Incorporated
LCD.asm                                                              PAGE    6

     276                    $C$DW$47        .dwtag  DW_TAG_formal_parameter
     277                            .dwattr $C$DW$47, DW_AT_type(*$C$DW$T$11)
     278                    
     279                    $C$DW$48        .dwtag  DW_TAG_formal_parameter
     280                            .dwattr $C$DW$48, DW_AT_type(*$C$DW$T$11)
     281                    
     282                    $C$DW$49        .dwtag  DW_TAG_formal_parameter
     283                            .dwattr $C$DW$49, DW_AT_type(*$C$DW$T$11)
     284                    
     285                    $C$DW$50        .dwtag  DW_TAG_formal_parameter
     286                            .dwattr $C$DW$50, DW_AT_type(*$C$DW$T$11)
     287                    
     288                    $C$DW$51        .dwtag  DW_TAG_formal_parameter
     289                            .dwattr $C$DW$51, DW_AT_type(*$C$DW$T$11)
     290                    
     291                            .dwendtag $C$DW$46
     292                    
     293                    
     294                    $C$DW$52        .dwtag  DW_TAG_subprogram
     295                            .dwattr $C$DW$52, DW_AT_name("RasterTiming2Configure")
     296                            .dwattr $C$DW$52, DW_AT_TI_symbol_name("RasterTiming2Configure")
     297                            .dwattr $C$DW$52, DW_AT_declaration
     298                            .dwattr $C$DW$52, DW_AT_external
     299                            .dwattr $C$DW$52, DW_AT_decl_file("C:/ti/OMAPL138_StarterWare_1_10_04_01/include/raster.h")
     300                            .dwattr $C$DW$52, DW_AT_decl_line(0x170)
     301                            .dwattr $C$DW$52, DW_AT_decl_column(0x0d)
     302                    $C$DW$53        .dwtag  DW_TAG_formal_parameter
     303                            .dwattr $C$DW$53, DW_AT_type(*$C$DW$T$11)
     304                    
     305                    $C$DW$54        .dwtag  DW_TAG_formal_parameter
     306                            .dwattr $C$DW$54, DW_AT_type(*$C$DW$T$11)
     307                    
     308                    $C$DW$55        .dwtag  DW_TAG_formal_parameter
     309                            .dwattr $C$DW$55, DW_AT_type(*$C$DW$T$11)
     310                    
     311                    $C$DW$56        .dwtag  DW_TAG_formal_parameter
     312                            .dwattr $C$DW$56, DW_AT_type(*$C$DW$T$11)
     313                    
     314                            .dwendtag $C$DW$52
     315                    
     316                    
     317                    $C$DW$57        .dwtag  DW_TAG_subprogram
     318                            .dwattr $C$DW$57, DW_AT_name("RasterFIFODMADelayConfig")
     319                            .dwattr $C$DW$57, DW_AT_TI_symbol_name("RasterFIFODMADelayConfig")
     320                            .dwattr $C$DW$57, DW_AT_declaration
     321                            .dwattr $C$DW$57, DW_AT_external
     322                            .dwattr $C$DW$57, DW_AT_decl_file("C:/ti/OMAPL138_StarterWare_1_10_04_01/include/raster.h")
     323                            .dwattr $C$DW$57, DW_AT_decl_line(0x173)
     324                            .dwattr $C$DW$57, DW_AT_decl_column(0x0d)
     325                    $C$DW$58        .dwtag  DW_TAG_formal_parameter
     326                            .dwattr $C$DW$58, DW_AT_type(*$C$DW$T$11)
     327                    
     328                    $C$DW$59        .dwtag  DW_TAG_formal_parameter
     329                            .dwattr $C$DW$59, DW_AT_type(*$C$DW$T$11)
     330                    
TMS320C6x Assembler PC v8.1.3 Thu Apr 20 05:51:03 2017

Tools Copyright (c) 1996-2015 Texas Instruments Incorporated
LCD.asm                                                              PAGE    7

     331                            .dwendtag $C$DW$57
     332                    
     333                    
     334                    $C$DW$60        .dwtag  DW_TAG_subprogram
     335                            .dwattr $C$DW$60, DW_AT_name("GPIODirModeSet")
     336                            .dwattr $C$DW$60, DW_AT_TI_symbol_name("GPIODirModeSet")
     337                            .dwattr $C$DW$60, DW_AT_declaration
     338                            .dwattr $C$DW$60, DW_AT_external
     339                            .dwattr $C$DW$60, DW_AT_decl_file("C:/ti/OMAPL138_StarterWare_1_10_04_01/include/gpio.h")
     340                            .dwattr $C$DW$60, DW_AT_decl_line(0x77)
     341                            .dwattr $C$DW$60, DW_AT_decl_column(0x06)
     342                    $C$DW$61        .dwtag  DW_TAG_formal_parameter
     343                            .dwattr $C$DW$61, DW_AT_type(*$C$DW$T$11)
     344                    
     345                    $C$DW$62        .dwtag  DW_TAG_formal_parameter
     346                            .dwattr $C$DW$62, DW_AT_type(*$C$DW$T$11)
     347                    
     348                    $C$DW$63        .dwtag  DW_TAG_formal_parameter
     349                            .dwattr $C$DW$63, DW_AT_type(*$C$DW$T$11)
     350                    
     351                            .dwendtag $C$DW$60
     352                    
     353                    
     354                    $C$DW$64        .dwtag  DW_TAG_subprogram
     355                            .dwattr $C$DW$64, DW_AT_name("GPIOPinWrite")
     356                            .dwattr $C$DW$64, DW_AT_TI_symbol_name("GPIOPinWrite")
     357                            .dwattr $C$DW$64, DW_AT_declaration
     358                            .dwattr $C$DW$64, DW_AT_external
     359                            .dwattr $C$DW$64, DW_AT_decl_file("C:/ti/OMAPL138_StarterWare_1_10_04_01/include/gpio.h")
     360                            .dwattr $C$DW$64, DW_AT_decl_line(0x7a)
     361                            .dwattr $C$DW$64, DW_AT_decl_column(0x06)
     362                    $C$DW$65        .dwtag  DW_TAG_formal_parameter
     363                            .dwattr $C$DW$65, DW_AT_type(*$C$DW$T$11)
     364                    
     365                    $C$DW$66        .dwtag  DW_TAG_formal_parameter
     366                            .dwattr $C$DW$66, DW_AT_type(*$C$DW$T$11)
     367                    
     368                    $C$DW$67        .dwtag  DW_TAG_formal_parameter
     369                            .dwattr $C$DW$67, DW_AT_type(*$C$DW$T$11)
     370                    
     371                            .dwendtag $C$DW$64
     372                    
     373                    
     374                    $C$DW$68        .dwtag  DW_TAG_subprogram
     375                            .dwattr $C$DW$68, DW_AT_name("GPIOPinRead")
     376                            .dwattr $C$DW$68, DW_AT_TI_symbol_name("GPIOPinRead")
     377                            .dwattr $C$DW$68, DW_AT_type(*$C$DW$T$10)
     378                            .dwattr $C$DW$68, DW_AT_declaration
     379                            .dwattr $C$DW$68, DW_AT_external
     380                            .dwattr $C$DW$68, DW_AT_decl_file("C:/ti/OMAPL138_StarterWare_1_10_04_01/include/gpio.h")
     381                            .dwattr $C$DW$68, DW_AT_decl_line(0x7c)
     382                            .dwattr $C$DW$68, DW_AT_decl_column(0x05)
     383                    $C$DW$69        .dwtag  DW_TAG_formal_parameter
     384                            .dwattr $C$DW$69, DW_AT_type(*$C$DW$T$11)
     385                    
TMS320C6x Assembler PC v8.1.3 Thu Apr 20 05:51:03 2017

Tools Copyright (c) 1996-2015 Texas Instruments Incorporated
LCD.asm                                                              PAGE    8

     386                    $C$DW$70        .dwtag  DW_TAG_formal_parameter
     387                            .dwattr $C$DW$70, DW_AT_type(*$C$DW$T$11)
     388                    
     389                            .dwendtag $C$DW$68
     390                    
     391                    
     392                    $C$DW$71        .dwtag  DW_TAG_subprogram
     393                            .dwattr $C$DW$71, DW_AT_name("GPIOIntTypeSet")
     394                            .dwattr $C$DW$71, DW_AT_TI_symbol_name("GPIOIntTypeSet")
     395                            .dwattr $C$DW$71, DW_AT_declaration
     396                            .dwattr $C$DW$71, DW_AT_external
     397                            .dwattr $C$DW$71, DW_AT_decl_file("C:/ti/OMAPL138_StarterWare_1_10_04_01/include/gpio.h")
     398                            .dwattr $C$DW$71, DW_AT_decl_line(0x7d)
     399                            .dwattr $C$DW$71, DW_AT_decl_column(0x06)
     400                    $C$DW$72        .dwtag  DW_TAG_formal_parameter
     401                            .dwattr $C$DW$72, DW_AT_type(*$C$DW$T$11)
     402                    
     403                    $C$DW$73        .dwtag  DW_TAG_formal_parameter
     404                            .dwattr $C$DW$73, DW_AT_type(*$C$DW$T$11)
     405                    
     406                    $C$DW$74        .dwtag  DW_TAG_formal_parameter
     407                            .dwattr $C$DW$74, DW_AT_type(*$C$DW$T$11)
     408                    
     409                            .dwendtag $C$DW$71
     410                    
     411                    
     412                    $C$DW$75        .dwtag  DW_TAG_subprogram
     413                            .dwattr $C$DW$75, DW_AT_name("GPIOBankIntEnable")
     414                            .dwattr $C$DW$75, DW_AT_TI_symbol_name("GPIOBankIntEnable")
     415                            .dwattr $C$DW$75, DW_AT_declaration
     416                            .dwattr $C$DW$75, DW_AT_external
     417                            .dwattr $C$DW$75, DW_AT_decl_file("C:/ti/OMAPL138_StarterWare_1_10_04_01/include/gpio.h")
     418                            .dwattr $C$DW$75, DW_AT_decl_line(0x82)
     419                            .dwattr $C$DW$75, DW_AT_decl_column(0x06)
     420                    $C$DW$76        .dwtag  DW_TAG_formal_parameter
     421                            .dwattr $C$DW$76, DW_AT_type(*$C$DW$T$11)
     422                    
     423                    $C$DW$77        .dwtag  DW_TAG_formal_parameter
     424                            .dwattr $C$DW$77, DW_AT_type(*$C$DW$T$11)
     425                    
     426                            .dwendtag $C$DW$75
     427                    
     428                    $C$DW$78        .dwtag  DW_TAG_variable
     429                            .dwattr $C$DW$78, DW_AT_name("LCDCommandSemaphore")
     430                            .dwattr $C$DW$78, DW_AT_TI_symbol_name("LCDCommandSemaphore")
     431                            .dwattr $C$DW$78, DW_AT_type(*$C$DW$T$1656)
     432                            .dwattr $C$DW$78, DW_AT_declaration
     433                            .dwattr $C$DW$78, DW_AT_external
     434                            .dwattr $C$DW$78, DW_AT_decl_file("C:/Users/Raz Aloni/OneDrive/School/EEL4924/DSP/DSP_Workspac
     435                            .dwattr $C$DW$78, DW_AT_decl_line(0x11)
     436                            .dwattr $C$DW$78, DW_AT_decl_column(0x2e)
     437                    
     438                            .global Pallete
     439 00000000                   .sect   ".lcdFrames:init"
     440                            .align  8
TMS320C6x Assembler PC v8.1.3 Thu Apr 20 05:51:03 2017

Tools Copyright (c) 1996-2015 Texas Instruments Incorporated
LCD.asm                                                              PAGE    9

     441                            .elfsym Pallete,SYM_SIZE(32)
     442 00000000           Pallete:
     443 00000000 00004000          .bits   16384,16                        ; Pallete[0] @ 0
     444 00000000 00004000          .bits   0,16                    ; Pallete[1] @ 16
     445 00000004 00000000          .bits   0,16                    ; Pallete[2] @ 32
     446 00000004 00000000          .bits   0,16                    ; Pallete[3] @ 48
     447 00000008 00000000          .bits   0,16                    ; Pallete[4] @ 64
     448 00000008 00000000          .bits   0,16                    ; Pallete[5] @ 80
     449 0000000c 00000000          .bits   0,16                    ; Pallete[6] @ 96
     450 0000000c 00000000          .bits   0,16                    ; Pallete[7] @ 112
     451 00000010 00000000          .bits   0,16                    ; Pallete[8] @ 128
     452 00000010 00000000          .bits   0,16                    ; Pallete[9] @ 144
     453 00000014 00000000          .bits   0,16                    ; Pallete[10] @ 160
     454 00000014 00000000          .bits   0,16                    ; Pallete[11] @ 176
     455 00000018 00000000          .bits   0,16                    ; Pallete[12] @ 192
     456 00000018 00000000          .bits   0,16                    ; Pallete[13] @ 208
     457 0000001c 00000000          .bits   0,16                    ; Pallete[14] @ 224
     458 0000001c 00000000          .bits   0,16                    ; Pallete[15] @ 240
     459                    
     460                    $C$DW$79        .dwtag  DW_TAG_variable
     461                            .dwattr $C$DW$79, DW_AT_name("Pallete")
     462                            .dwattr $C$DW$79, DW_AT_TI_symbol_name("Pallete")
     463                            .dwattr $C$DW$79, DW_AT_location[DW_OP_addr Pallete]
     464                            .dwattr $C$DW$79, DW_AT_type(*$C$DW$T$1002)
     465                            .dwattr $C$DW$79, DW_AT_external
     466                            .dwattr $C$DW$79, DW_AT_decl_file("C:/Users/Raz Aloni/OneDrive/School/EEL4924/DSP/C_Libs/MicCh
     467                            .dwattr $C$DW$79, DW_AT_decl_line(0x7b)
     468                            .dwattr $C$DW$79, DW_AT_decl_column(0x0d)
     469                    
     470                            .global FrameBuffer
     471 00000000           FrameBuffer:    .usect  ".lcdFrames:uninit",261152,8
     472                    $C$DW$80        .dwtag  DW_TAG_variable
     473                            .dwattr $C$DW$80, DW_AT_name("FrameBuffer")
     474                            .dwattr $C$DW$80, DW_AT_TI_symbol_name("FrameBuffer")
     475                            .dwattr $C$DW$80, DW_AT_location[DW_OP_addr FrameBuffer]
     476                            .dwattr $C$DW$80, DW_AT_type(*$C$DW$T$1004)
     477                            .dwattr $C$DW$80, DW_AT_external
     478                            .dwattr $C$DW$80, DW_AT_decl_file("C:/Users/Raz Aloni/OneDrive/School/EEL4924/DSP/C_Libs/MicCh
     479                            .dwattr $C$DW$80, DW_AT_decl_line(0x83)
     480                            .dwattr $C$DW$80, DW_AT_decl_column(0x07)
     481                    
     482                            .global FrameBufferData
     483 00000000                   .sect   ".neardata", RW
     484                            .align  4
     485                            .elfsym FrameBufferData,SYM_SIZE(4)
     486 00000000           FrameBufferData:
     487 00000000 00000020!         .bits   FrameBuffer + 32,32             ; FrameBufferData @ 0
     488                    
     489                    $C$DW$81        .dwtag  DW_TAG_variable
     490                            .dwattr $C$DW$81, DW_AT_name("FrameBufferData")
     491                            .dwattr $C$DW$81, DW_AT_TI_symbol_name("FrameBufferData")
     492                            .dwattr $C$DW$81, DW_AT_location[DW_OP_addr FrameBufferData]
     493                            .dwattr $C$DW$81, DW_AT_type(*$C$DW$T$809)
     494                            .dwattr $C$DW$81, DW_AT_external
     495                            .dwattr $C$DW$81, DW_AT_decl_file("C:/Users/Raz Aloni/OneDrive/School/EEL4924/DSP/C_Libs/MicCh
TMS320C6x Assembler PC v8.1.3 Thu Apr 20 05:51:03 2017

Tools Copyright (c) 1996-2015 Texas Instruments Incorporated
LCD.asm                                                              PAGE   10

     496                            .dwattr $C$DW$81, DW_AT_decl_line(0x85)
     497                            .dwattr $C$DW$81, DW_AT_decl_column(0x09)
     498                    
     499 00000000                   .sect   ".rodata"
     500                            .align  4
     501                            .elfsym sysConfigRegs,SYM_SIZE(4)
     502 00000000           sysConfigRegs:
     503 00000000 01C14000          .bits   29442048,32                     ; sysConfigRegs @ 0
     504                    
     505                    $C$DW$82        .dwtag  DW_TAG_variable
     506                            .dwattr $C$DW$82, DW_AT_name("sysConfigRegs")
     507                            .dwattr $C$DW$82, DW_AT_TI_symbol_name("sysConfigRegs")
     508                            .dwattr $C$DW$82, DW_AT_type(*$C$DW$T$641)
     509                            .dwattr $C$DW$82, DW_AT_location[DW_OP_addr sysConfigRegs]
     510                            .dwattr $C$DW$82, DW_AT_decl_file("C:/Users/Raz Aloni/OneDrive/School/EEL4924/DSP/C_Libs/MicCh
     511                            .dwattr $C$DW$82, DW_AT_decl_line(0x8b)
     512                            .dwattr $C$DW$82, DW_AT_decl_column(0x1b)
     513                    
     514                    ;       C:\ti\ccsv7\tools\compiler\ti-cgt-c6000_8.1.3\bin\opt6x.exe C:\\Users\\RAZALO~1\\AppData\\Loca
     515 00000000                   .sect   ".text"
     516                            .clink
     517                            .global LCD_RasterInit
     518                    
     519                    $C$DW$83        .dwtag  DW_TAG_subprogram
     520                            .dwattr $C$DW$83, DW_AT_name("LCD_RasterInit")
     521                            .dwattr $C$DW$83, DW_AT_low_pc(LCD_RasterInit)
     522                            .dwattr $C$DW$83, DW_AT_high_pc(0x00)
     523                            .dwattr $C$DW$83, DW_AT_TI_symbol_name("LCD_RasterInit")
     524                            .dwattr $C$DW$83, DW_AT_external
     525                            .dwattr $C$DW$83, DW_AT_TI_begin_file("C:/Users/Raz Aloni/OneDrive/School/EEL4924/DSP/C_Libs/M
     526                            .dwattr $C$DW$83, DW_AT_TI_begin_line(0x137)
     527                            .dwattr $C$DW$83, DW_AT_TI_begin_column(0x06)
     528                            .dwattr $C$DW$83, DW_AT_decl_file("C:/Users/Raz Aloni/OneDrive/School/EEL4924/DSP/C_Libs/MicCh
     529                            .dwattr $C$DW$83, DW_AT_decl_line(0x137)
     530                            .dwattr $C$DW$83, DW_AT_decl_column(0x06)
     531                            .dwattr $C$DW$83, DW_AT_TI_max_frame_size(0x18)
     532                            .dwpsn  file "C:/Users/Raz Aloni/OneDrive/School/EEL4924/DSP/C_Libs/MicCheckPeripherals/src/LC
     533                    
     534                            .dwfde $C$DW$CIE, LCD_RasterInit
     535                    $C$DW$84        .dwtag  DW_TAG_formal_parameter
     536                            .dwattr $C$DW$84, DW_AT_name("LCDCClock")
     537                            .dwattr $C$DW$84, DW_AT_TI_symbol_name("LCDCClock")
     538                            .dwattr $C$DW$84, DW_AT_type(*$C$DW$T$150)
     539                            .dwattr $C$DW$84, DW_AT_location[DW_OP_reg4]
     540                    
     541                    
     542                    ;******************************************************************************
     543                    ;* FUNCTION NAME: LCD_RasterInit                                              *
     544                    ;*                                                                            *
     545                    ;*   Regs Modified     : A0,A1,A2,A3,A4,A5,A6,A7,A8,A9,A10,A11,A16,A17,A18,   *
     546                    ;*                           A19,A20,A21,A22,A23,A24,A25,A26,A27,A28,A29,A30, *
     547                    ;*                           A31,B0,B1,B2,B3,B4,B5,B6,B7,B8,B9,B10,SP,B16,B17,*
     548                    ;*                           B18,B19,B20,B21,B22,B23,B24,B25,B26,B27,B28,B29, *
     549                    ;*                           B30,B31                                          *
     550                    ;*   Regs Used         : A0,A1,A2,A3,A4,A5,A6,A7,A8,A9,A10,A11,A16,A17,A18,   *
TMS320C6x Assembler PC v8.1.3 Thu Apr 20 05:51:03 2017

Tools Copyright (c) 1996-2015 Texas Instruments Incorporated
LCD.asm                                                              PAGE   11

     551                    ;*                           A19,A20,A21,A22,A23,A24,A25,A26,A27,A28,A29,A30, *
     552                    ;*                           A31,B0,B1,B2,B3,B4,B5,B6,B7,B8,B9,B10,DP,SP,B16, *
     553                    ;*                           B17,B18,B19,B20,B21,B22,B23,B24,B25,B26,B27,B28, *
     554                    ;*                           B29,B30,B31                                      *
     555                    ;*   Local Frame Size  : 0 Args + 0 Auto + 24 Save = 24 byte                  *
     556                    ;******************************************************************************
     557                    LCD_RasterInit:
     558                    ;** --------------------------------------------------------------------------*
     559                    $C$DW$85        .dwtag  DW_TAG_variable
     560                            .dwattr $C$DW$85, DW_AT_name("savePinMux")
     561                            .dwattr $C$DW$85, DW_AT_TI_symbol_name("savePinMux")
     562                            .dwattr $C$DW$85, DW_AT_type(*$C$DW$T$150)
     563                            .dwattr $C$DW$85, DW_AT_location[DW_OP_reg22]
     564                    
     565                    $C$DW$86        .dwtag  DW_TAG_variable
     566                            .dwattr $C$DW$86, DW_AT_name("savePinMux")
     567                            .dwattr $C$DW$86, DW_AT_TI_symbol_name("savePinMux")
     568                            .dwattr $C$DW$86, DW_AT_type(*$C$DW$T$150)
     569                            .dwattr $C$DW$86, DW_AT_location[DW_OP_reg3]
     570                    
     571                    $C$DW$87        .dwtag  DW_TAG_variable
     572                            .dwattr $C$DW$87, DW_AT_name("savePinMux")
     573                            .dwattr $C$DW$87, DW_AT_TI_symbol_name("savePinMux")
     574                            .dwattr $C$DW$87, DW_AT_type(*$C$DW$T$150)
     575                            .dwattr $C$DW$87, DW_AT_location[DW_OP_reg3]
     576                    
     577                    $C$DW$88        .dwtag  DW_TAG_variable
     578                            .dwattr $C$DW$88, DW_AT_name("LCDCClock")
     579                            .dwattr $C$DW$88, DW_AT_TI_symbol_name("LCDCClock")
     580                            .dwattr $C$DW$88, DW_AT_type(*$C$DW$T$1206)
     581                            .dwattr $C$DW$88, DW_AT_location[DW_OP_reg10]
     582                    
     583                            .dwcfi  cfa_offset, 0
     584                    ;** --------------------------------------------------------------------------*
     585                    
     586 00000000 053c54f7             STW     .D2T2   B10,*SP++(-8)     ; [B_D64P] |312| 
     587 00000004 05208c2a  ||         MVKL    .S2     0x1c14118,B10     ; [B_Sb674] |314| 
     588                    
     589                            .dwcfi  cfa_offset, 8
     590                            .dwcfi  save_reg_to_mem, 26, 0
     591                            .dwpsn  file "C:/Users/Raz Aloni/OneDrive/School/EEL4924/DSP/C_Libs/MicCheckPeripherals/src/LC
     592 00000008 0500e0ea             MVKH    .S2     0x1c14118,B10     ; [B_Sb674] |314| 
     593 0000000c 01a802e4             LDW     .D2T1   *B10(0),A3        ; [B_D64P] |314| 
     594                            .dwpsn  file "C:/Users/Raz Aloni/OneDrive/School/EEL4924/DSP/C_Libs/MicCheckPeripherals/src/LC
     595 00000010     8577             STDW    .D2T1   A11:A10,*SP++(-8) ; [B_D64P] |312| 
     596                            .dwcfi  cfa_offset, 16
     597                            .dwcfi  save_reg_to_mem, 11, -4
     598                            .dwcfi  save_reg_to_mem, 10, -8
     599 00000012     4646             MV      .L1     A4,A10            ; [A_L674] |312| 
     600                            .dwpsn  file "C:/Users/Raz Aloni/OneDrive/School/EEL4924/DSP/C_Libs/MicCheckPeripherals/src/LC
     601 00000014 02380028             MVKL    .S1     0x1e27000,A4      ; [A_S674] |317| 
     602 00000018 0200082a             MVK     .S2     0x10,B4           ; [B_Sb674] |317| 
     603                            .dwpsn  file "C:/Users/Raz Aloni/OneDrive/School/EEL4924/DSP/C_Libs/MicCheckPeripherals/src/LC
     604 00000020 018c8408             EXTU    .S1     A3,4,4,A3         ; [A_S674] |314| 
     605                            .dwpsn  file "C:/Users/Raz Aloni/OneDrive/School/EEL4924/DSP/C_Libs/MicCheckPeripherals/src/LC
TMS320C6x Assembler PC v8.1.3 Thu Apr 20 05:51:03 2017

Tools Copyright (c) 1996-2015 Texas Instruments Incorporated
LCD.asm                                                              PAGE   12

     606                    $C$DW$89        .dwtag  DW_TAG_TI_branch
     607                            .dwattr $C$DW$89, DW_AT_low_pc(0x0c)
     608                            .dwattr $C$DW$89, DW_AT_name("PSCModuleControl")
     609                            .dwattr $C$DW$89, DW_AT_TI_call
     610                    
     611                    
     612 00000024 01a802f5             STW     .D2T1   A3,*B10(0)        ; [B_D64P] |314| 
     613 00000028 0200f169  ||         MVKH    .S1     0x1e27000,A4      ; [A_S674] |317| 
     614 0000002c     75c6  ||         MV      .L1X    B3,A11            ; [A_L674] |312| 
     615 00000030 10000013! ||         CALLP   .S2     PSCModuleControl,B3 ; [B_Sb674] |317| 
     616 0000002e     1b76  ||         ZERO    .D1     A6                ; [A_D64P] |317| 
     617 00000034 030ca35a  ||         MVK     .L2     3,B6              ; [B_L674] |317| 
     618                    
     619                            .dwcfi  save_reg_to_reg, 19, 11
     620                            .dwpsn  file "C:/Users/Raz Aloni/OneDrive/School/EEL4924/DSP/C_Libs/MicCheckPeripherals/src/LC
     621 00000038           $C$RL0:    ; CALLP OCCURS {PSCModuleControl} {0}  ; [] |317| 
     622 00000038 02a93ec2             ADDAD   .D2     B10,9,B5          ; [B_D64P] 
     623                            .dwpsn  file "C:/Users/Raz Aloni/OneDrive/School/EEL4924/DSP/C_Libs/MicCheckPeripherals/src/LC
     624 00000040 019402e4             LDW     .D2T1   *B5(0),A3         ; [B_D64P] |169| 
     625                            .dwpsn  file "C:/Users/Raz Aloni/OneDrive/School/EEL4924/DSP/C_Libs/MicCheckPeripherals/src/LC
     626 00000044 02910028             MVKL    .S1     0x22222200,A5     ; [A_S674] |182| 
     627 00000048 02911168             MVKH    .S1     0x22222200,A5     ; [A_S674] |182| 
     628 0000004c     4233             MVK     .S2     34,B4             ; [B_Sb674] 
     629 0000004e     96c0             ADD     .L1X    4,B5,A4           ; [A_L674] 
     630                            .dwpsn  file "C:/Users/Raz Aloni/OneDrive/School/EEL4924/DSP/C_Libs/MicCheckPeripherals/src/LC
     631 00000050 018f1808             EXTU    .S1     A3,24,24,A3       ; [A_S674] |169| 
     632                            .dwpsn  file "C:/Users/Raz Aloni/OneDrive/School/EEL4924/DSP/C_Libs/MicCheckPeripherals/src/LC
     633 00000054 018caff8             OR      .L1     A5,A3,A3          ; [A_L674] |182| 
     634 00000058     00b5             STW     .D2T1   A3,*B5(0)         ; [B_D64P] |182| 
     635                            .dwpsn  file "C:/Users/Raz Aloni/OneDrive/School/EEL4924/DSP/C_Libs/MicCheckPeripherals/src/LC
     636                    
     637 0000005a     92c1             ADD     .L2X    B4,A5,B4          ; [B_L674] 
     638 00000060     003c  ||         LDW     .D1T1   *A4(0),A3         ; [A_D64P] |190| 
     639                    
     640                            .dwpsn  file "C:/Users/Raz Aloni/OneDrive/School/EEL4924/DSP/C_Libs/MicCheckPeripherals/src/LC
     641                    
     642 00000062     1044             STW     .D1T2   B4,*A4(0)         ; [A_D64P] |204| 
     643 00000064     06e1  ||         ADD     .L2     8,B5,B6           ; [B_L674] 
     644                    
     645                            .dwpsn  file "C:/Users/Raz Aloni/OneDrive/School/EEL4924/DSP/C_Libs/MicCheckPeripherals/src/LC
     646 00000066     013d             LDW     .D2T1   *B6(0),A3         ; [B_D64P] |212| 
     647                            .dwpsn  file "C:/Users/Raz Aloni/OneDrive/School/EEL4924/DSP/C_Libs/MicCheckPeripherals/src/LC
     648 00000068 0200112a             MVKL    .S2     0x2000022,B4      ; [B_Sb674] |221| 
     649                            .dwpsn  file "C:/Users/Raz Aloni/OneDrive/School/EEL4924/DSP/C_Libs/MicCheckPeripherals/src/LC
     650 0000006c 02ff8028             MVKL    .S1     0xf0ffff00,A5     ; [A_S674] |212| 
     651                            .dwpsn  file "C:/Users/Raz Aloni/OneDrive/School/EEL4924/DSP/C_Libs/MicCheckPeripherals/src/LC
     652 00000070 0201006a             MVKH    .S2     0x2000022,B4      ; [B_Sb674] |221| 
     653                            .dwpsn  file "C:/Users/Raz Aloni/OneDrive/School/EEL4924/DSP/C_Libs/MicCheckPeripherals/src/LC
     654 00000074 02f87fe8             MVKH    .S1     0xf0ffff00,A5     ; [A_S674] |212| 
     655                    
     656 00000078 018ca7e1             AND     .S1     A5,A3,A3          ; [A_S674] |212| 
     657 00000080 02151058  ||         ADD     .L1X    8,B5,A4           ; [A_L674] 
     658                    
     659                            .dwpsn  file "C:/Users/Raz Aloni/OneDrive/School/EEL4924/DSP/C_Libs/MicCheckPeripherals/src/LC
     660 00000084 01907ff8             OR      .L1X    B4,A3,A3          ; [A_L674] |221| 
TMS320C6x Assembler PC v8.1.3 Thu Apr 20 05:51:03 2017

Tools Copyright (c) 1996-2015 Texas Instruments Incorporated
LCD.asm                                                              PAGE   13

     661                    
     662 0000008c     0034             STW     .D1T1   A3,*A4(0)         ; [A_D64P] |221| 
     663 00000088 0295805b  ||         ADD     .L2     12,B5,B5          ; [B_L674] 
     664                    
     665                            .dwpsn  file "C:/Users/Raz Aloni/OneDrive/School/EEL4924/DSP/C_Libs/MicCheckPeripherals/src/LC
     666 0000008e     10fd             LDW     .D2T2   *B5(0),B7         ; [B_D64P] |230| 
     667 00000090 03141fda             MV      .L2X    A5,B6             ; [B_L674] |230| 
     668                            .dwpsn  file "C:/Users/Raz Aloni/OneDrive/School/EEL4924/DSP/C_Libs/MicCheckPeripherals/src/LC
     669 00000094 02180028             MVKL    .S1     0x1e13000,A4      ; [A_S674] |323| 
     670 00000098 0200f0e8             MVKH    .S1     0x1e13000,A4      ; [A_S674] |323| 
     671 000000a0 00000000             NOP             1                 ; [A_L674] 
     672                            .dwpsn  file "C:/Users/Raz Aloni/OneDrive/School/EEL4924/DSP/C_Libs/MicCheckPeripherals/src/LC
     673 000000a4 031ccf7a             AND     .L2     B6,B7,B6          ; [B_L674] |230| 
     674                            .dwpsn  file "C:/Users/Raz Aloni/OneDrive/School/EEL4924/DSP/C_Libs/MicCheckPeripherals/src/LC
     675 000000a8 02188ffa             OR      .L2     B4,B6,B4          ; [B_L674] |239| 
     676                    $C$DW$90        .dwtag  DW_TAG_TI_branch
     677                            .dwattr $C$DW$90, DW_AT_low_pc(0x00)
     678                            .dwattr $C$DW$90, DW_AT_name("RasterDisable")
     679                            .dwattr $C$DW$90, DW_AT_TI_call
     680                    
     681                    
     682 000000ac 10000013!            CALLP   .S2     RasterDisable,B3  ; [B_Sb674] |323| 
     683 000000b0 021402f6  ||         STW     .D2T2   B4,*B5(0)         ; [B_D64P] |239| 
     684                    
     685                            .dwpsn  file "C:/Users/Raz Aloni/OneDrive/School/EEL4924/DSP/C_Libs/MicCheckPeripherals/src/LC
     686 000000b4           $C$RL2:    ; CALLP OCCURS {RasterDisable} {0}  ; [] |323| 
     687                            .dwpsn  file "C:/Users/Raz Aloni/OneDrive/School/EEL4924/DSP/C_Libs/MicCheckPeripherals/src/LC
     688 000000b4 022a202a             MVKL    .S2     0x895440,B4       ; [B_Sb674] |326| 
     689                    
     690 000000b8 02180029             MVKL    .S1     0x1e13000,A4      ; [A_S674] |326| 
     691 000000bc 020044ea  ||         MVKH    .S2     0x895440,B4       ; [B_Sb674] |326| 
     692                    
     693                    $C$DW$91        .dwtag  DW_TAG_TI_branch
     694                            .dwattr $C$DW$91, DW_AT_low_pc(0x08)
     695                            .dwattr $C$DW$91, DW_AT_name("RasterClkConfig")
     696                            .dwattr $C$DW$91, DW_AT_TI_call
     697                    
     698                    
     699 000000c0 0200f0e9             MVKH    .S1     0x1e13000,A4      ; [A_S674] |326| 
     700 000000c8 03280fd8  ||         MV      .L1     A10,A6            ; [A_L674] |326| 
     701 000000c4 10000013! ||         CALLP   .S2     RasterClkConfig,B3 ; [B_Sb674] |326| 
     702                    
     703 000000cc           $C$RL4:    ; CALLP OCCURS {RasterClkConfig} {0}  ; [] |326| 
     704                            .dwpsn  file "C:/Users/Raz Aloni/OneDrive/School/EEL4924/DSP/C_Libs/MicCheckPeripherals/src/LC
     705 000000cc 02180028             MVKL    .S1     0x1e13000,A4      ; [A_S674] |329| 
     706 000000d0     0352             MVK     .S1     0x40,A6           ; [A_S674] |329| 
     707                    $C$DW$92        .dwtag  DW_TAG_TI_branch
     708                            .dwattr $C$DW$92, DW_AT_low_pc(0x04)
     709                            .dwattr $C$DW$92, DW_AT_name("RasterDMAConfig")
     710                            .dwattr $C$DW$92, DW_AT_TI_call
     711                    
     712                    
     713 000000d8 0200f0e9             MVKH    .S1     0x1e13000,A4      ; [A_S674] |329| 
     714 000000d4 10000013! ||         CALLP   .S2     RasterDMAConfig,B3 ; [B_Sb674] |329| 
     715 000000d2     0727  ||         ZERO    .L2     B6                ; [B_L674] |329| 
TMS320C6x Assembler PC v8.1.3 Thu Apr 20 05:51:03 2017

Tools Copyright (c) 1996-2015 Texas Instruments Incorporated
LCD.asm                                                              PAGE   14

     716 000000e4 02000042  ||         ZERO    .D2     B4                ; [B_D64P] |329| 
     717 000000e0 0400a359  ||         ZERO    .L1     A8                ; [A_L674] |329| 
     718                    
     719 000000e8           $C$RL6:    ; CALLP OCCURS {RasterDMAConfig} {0}  ; [] |329| 
     720                            .dwpsn  file "C:/Users/Raz Aloni/OneDrive/School/EEL4924/DSP/C_Libs/MicCheckPeripherals/src/LC
     721                    
     722 000000e8 02180029             MVKL    .S1     0x1e13000,A4      ; [A_S674] |332| 
     723 000000ec     0613  ||         MVK     .S2     0x80,B4           ; [B_Sb674] |332| 
     724                    
     725                    $C$DW$93        .dwtag  DW_TAG_TI_branch
     726                            .dwattr $C$DW$93, DW_AT_low_pc(0x04)
     727                            .dwattr $C$DW$93, DW_AT_name("RasterModeConfig")
     728                            .dwattr $C$DW$93, DW_AT_TI_call
     729                    
     730                    
     731 000000f4 0200f0e9             MVKH    .S1     0x1e13000,A4      ; [A_S674] |332| 
     732 000000f0 10000013! ||         CALLP   .S2     RasterModeConfig,B3 ; [B_Sb674] |332| 
     733 000000ee     0727  ||         ZERO    .L2     B6                ; [B_L674] |332| 
     734 000000f8 0400a359  ||         ZERO    .L1     A8                ; [A_L674] |332| 
     735 00000100 03000040  ||         ZERO    .D1     A6                ; [A_D64P] |332| 
     736                    
     737 00000104           $C$RL8:    ; CALLP OCCURS {RasterModeConfig} {0}  ; [] |332| 
     738                            .dwpsn  file "C:/Users/Raz Aloni/OneDrive/School/EEL4924/DSP/C_Libs/MicCheckPeripherals/src/LC
     739 00000104 02180028             MVKL    .S1     0x1e13000,A4      ; [A_S674] |335| 
     740                    $C$DW$94        .dwtag  DW_TAG_TI_branch
     741                            .dwattr $C$DW$94, DW_AT_low_pc(0x04)
     742                            .dwattr $C$DW$94, DW_AT_name("RasterLSBDataOrderSelect")
     743                            .dwattr $C$DW$94, DW_AT_TI_call
     744                    
     745                    
     746 00000108 0200f0e9             MVKH    .S1     0x1e13000,A4      ; [A_S674] |335| 
     747 0000010c 10000012! ||         CALLP   .S2     RasterLSBDataOrderSelect,B3 ; [B_Sb674] |335| 
     748                    
     749 00000110           $C$RL10:   ; CALLP OCCURS {RasterLSBDataOrderSelect} {0}  ; [] |335| 
     750                            .dwpsn  file "C:/Users/Raz Aloni/OneDrive/School/EEL4924/DSP/C_Libs/MicCheckPeripherals/src/LC
     751 00000110 02180028             MVKL    .S1     0x1e13000,A4      ; [A_S674] |338| 
     752                    $C$DW$95        .dwtag  DW_TAG_TI_branch
     753                            .dwattr $C$DW$95, DW_AT_low_pc(0x04)
     754                            .dwattr $C$DW$95, DW_AT_name("RasterNibbleModeDisable")
     755                            .dwattr $C$DW$95, DW_AT_TI_call
     756                    
     757                    
     758 00000114 0200f0e9             MVKH    .S1     0x1e13000,A4      ; [A_S674] |338| 
     759 00000118 10000013! ||         CALLP   .S2     RasterNibbleModeDisable,B3 ; [B_Sb674] |338| 
     760                    
     761 00000120           $C$RL12:   ; CALLP OCCURS {RasterNibbleModeDisable} {0}  ; [] |338| 
     762                            .dwpsn  file "C:/Users/Raz Aloni/OneDrive/School/EEL4924/DSP/C_Libs/MicCheckPeripherals/src/LC
     763                    
     764 00000120     0627             ZERO    .L2     B4                ; [B_L674] |349| 
     765 00000122     ff73  ||         MVK     .S2     0xff,B6           ; [B_Sb674] |349| 
     766                    
     767 00000124 02180029             MVKL    .S1     0x1e13000,A4      ; [A_S674] |349| 
     768 00000128 0201186a  ||         MVKH    .S2     0x2300000,B4      ; [B_Sb674] |349| 
     769                    
     770                    $C$DW$96        .dwtag  DW_TAG_TI_branch
TMS320C6x Assembler PC v8.1.3 Thu Apr 20 05:51:03 2017

Tools Copyright (c) 1996-2015 Texas Instruments Incorporated
LCD.asm                                                              PAGE   15

     771                            .dwattr $C$DW$96, DW_AT_low_pc(0x04)
     772                            .dwattr $C$DW$96, DW_AT_name("RasterTiming2Configure")
     773                            .dwattr $C$DW$96, DW_AT_TI_call
     774                    
     775                    
     776 0000012c 0200f0e9             MVKH    .S1     0x1e13000,A4      ; [A_S674] |349| 
     777 00000130 10000013! ||         CALLP   .S2     RasterTiming2Configure,B3 ; [B_Sb674] |349| 
     778 00000134     0726  ||         ZERO    .L1     A6                ; [A_L674] |349| 
     779                    
     780 00000136           $C$RL14:   ; CALLP OCCURS {RasterTiming2Configure} {0}  ; [] |349| 
     781                            .dwpsn  file "C:/Users/Raz Aloni/OneDrive/School/EEL4924/DSP/C_Libs/MicCheckPeripherals/src/LC
     782                    
     783 00000136     4727             MVK     .L2     2,B6              ; [B_L674] |352| 
     784 00000138 02180028  ||         MVKL    .S1     0x1e13000,A4      ; [A_S674] |352| 
     785                    
     786 00000140 0200f02b             MVK     .S2     0x1e0,B4          ; [B_Sb674] |352| 
     787 00000144     2b32  ||         MVK     .S1     0x29,A6           ; [A_S674] |352| 
     788                    
     789                    $C$DW$97        .dwtag  DW_TAG_TI_branch
     790                            .dwattr $C$DW$97, DW_AT_low_pc(0x08)
     791                            .dwattr $C$DW$97, DW_AT_name("RasterHparamConfig")
     792                            .dwattr $C$DW$97, DW_AT_TI_call
     793                    
     794                    
     795 00000146     1746             MV      .L1X    B6,A8             ; [A_L674] |352| 
     796 00000148 0200f0e9  ||         MVKH    .S1     0x1e13000,A4      ; [A_S674] |352| 
     797 0000014c 10000012! ||         CALLP   .S2     RasterHparamConfig,B3 ; [B_Sb674] |352| 
     798                    
     799 00000150           $C$RL16:   ; CALLP OCCURS {RasterHparamConfig} {0}  ; [] |352| 
     800                            .dwpsn  file "C:/Users/Raz Aloni/OneDrive/School/EEL4924/DSP/C_Libs/MicCheckPeripherals/src/LC
     801 00000150 0308a35a             MVK     .L2     2,B6              ; [B_L674] |355| 
     802                    
     803 00000154 02180029             MVKL    .S1     0x1e13000,A4      ; [A_S674] |355| 
     804 00000158 0200882a  ||         MVK     .S2     0x110,B4          ; [B_Sb674] |355| 
     805                    
     806                    $C$DW$98        .dwtag  DW_TAG_TI_branch
     807                            .dwattr $C$DW$98, DW_AT_low_pc(0x08)
     808                            .dwattr $C$DW$98, DW_AT_name("RasterVparamConfig")
     809                            .dwattr $C$DW$98, DW_AT_TI_call
     810                    
     811                    
     812 00000160 04181fd9             MV      .L1X    B6,A8             ; [A_L674] |355| 
     813 00000164 0200f0e9  ||         MVKH    .S1     0x1e13000,A4      ; [A_S674] |355| 
     814 00000168 10000013! ||         CALLP   .S2     RasterVparamConfig,B3 ; [B_Sb674] |355| 
     815 0000016c 03014040  ||         MVK     .D1     10,A6             ; [A_D64P] |355| 
     816                    
     817 00000170           $C$RL18:   ; CALLP OCCURS {RasterVparamConfig} {0}  ; [] |355| 
     818                            .dwpsn  file "C:/Users/Raz Aloni/OneDrive/School/EEL4924/DSP/C_Libs/MicCheckPeripherals/src/LC
     819 00000170 02180028             MVKL    .S1     0x1e13000,A4      ; [A_S674] |358| 
     820                    $C$DW$99        .dwtag  DW_TAG_TI_branch
     821                            .dwattr $C$DW$99, DW_AT_low_pc(0x04)
     822                            .dwattr $C$DW$99, DW_AT_name("RasterFIFODMADelayConfig")
     823                            .dwattr $C$DW$99, DW_AT_TI_call
     824                    
     825                    
TMS320C6x Assembler PC v8.1.3 Thu Apr 20 05:51:03 2017

Tools Copyright (c) 1996-2015 Texas Instruments Incorporated
LCD.asm                                                              PAGE   16

     826 00000174 0200f0e9             MVKH    .S1     0x1e13000,A4      ; [A_S674] |358| 
     827 00000178 10000013! ||         CALLP   .S2     RasterFIFODMADelayConfig,B3 ; [B_Sb674] |358| 
     828 0000017c 0200a35a  ||         ZERO    .L2     B4                ; [B_L674] |358| 
     829                    
     830 00000180           $C$RL20:   ; CALLP OCCURS {RasterFIFODMADelayConfig} {0}  ; [] |358| 
     831                            .dwpsn  file "C:/Users/Raz Aloni/OneDrive/School/EEL4924/DSP/C_Libs/MicCheckPeripherals/src/LC
     832 00000180 02fe0f2a             MVKL    .S2     0x3fc1e,B5        ; [B_Sb674] |361| 
     833 00000184 028001ea             MVKH    .S2     0x3fc1e,B5        ; [B_Sb674] |361| 
     834 00000188 0500002a!            MVKL    .S2     FrameBuffer,B10   ; [B_Sb674] |361| 
     835 0000018c 0500006a!            MVKH    .S2     FrameBuffer,B10   ; [B_Sb674] |361| 
     836 00000190 02a8a07a             ADD     .L2     B5,B10,B5         ; [B_L674] |361| 
     837 00000194 02180028             MVKL    .S1     0x1e13000,A4      ; [A_S674] |361| 
     838                    $C$DW$100       .dwtag  DW_TAG_TI_branch
     839                            .dwattr $C$DW$100, DW_AT_low_pc(0x0c)
     840                            .dwattr $C$DW$100, DW_AT_name("RasterDMAFBConfig")
     841                            .dwattr $C$DW$100, DW_AT_TI_call
     842                    
     843                    
     844 00000198     d2c6             MV      .L1X    B5,A6             ; [A_L674] |361| 
     845 0000019a     8507  ||         MV      .L2     B10,B4            ; [B_L674] |361| 
     846 000001a0 0200f0e9  ||         MVKH    .S1     0x1e13000,A4      ; [A_S674] |361| 
     847 000001a4 10000013! ||         CALLP   .S2     RasterDMAFBConfig,B3 ; [B_Sb674] |361| 
     848 000001a8 03000042  ||         ZERO    .D2     B6                ; [B_D64P] |361| 
     849                    
     850 000001ac           $C$RL22:   ; CALLP OCCURS {RasterDMAFBConfig} {0}  ; [] |361| 
     851                            .dwpsn  file "C:/Users/Raz Aloni/OneDrive/School/EEL4924/DSP/C_Libs/MicCheckPeripherals/src/LC
     852                    
     853 000001ac 02180029             MVKL    .S1     0x1e13000,A4      ; [A_S674] |364| 
     854 000001b0 0200102a  ||         MVK     .S2     0x20,B4           ; [B_Sb674] |364| 
     855                    
     856                    $C$DW$101       .dwtag  DW_TAG_TI_branch
     857                            .dwattr $C$DW$101, DW_AT_low_pc(0x04)
     858                            .dwattr $C$DW$101, DW_AT_name("RasterIntEnable")
     859                            .dwattr $C$DW$101, DW_AT_TI_call
     860                    
     861                    
     862 000001b4 0200f0e9             MVKH    .S1     0x1e13000,A4      ; [A_S674] |364| 
     863 000001b8 10000012! ||         CALLP   .S2     RasterIntEnable,B3 ; [B_Sb674] |364| 
     864                    
     865 000001bc           $C$RL24:   ; CALLP OCCURS {RasterIntEnable} {0}  ; [] |364| 
     866                            .dwpsn  file "C:/Users/Raz Aloni/OneDrive/School/EEL4924/DSP/C_Libs/MicCheckPeripherals/src/LC
     867 000001bc 02180028             MVKL    .S1     0x1e13000,A4      ; [A_S674] |367| 
     868                    $C$DW$102       .dwtag  DW_TAG_TI_branch
     869                            .dwattr $C$DW$102, DW_AT_low_pc(0x04)
     870                            .dwattr $C$DW$102, DW_AT_name("RasterEnable")
     871                            .dwattr $C$DW$102, DW_AT_TI_call
     872                    
     873                    
     874 000001c0 0200f0e9             MVKH    .S1     0x1e13000,A4      ; [A_S674] |367| 
     875 000001c4 10000012! ||         CALLP   .S2     RasterEnable,B3   ; [B_Sb674] |367| 
     876                    
     877 000001c8           $C$RL26:   ; CALLP OCCURS {RasterEnable} {0}  ; [] |367| 
     878                            .dwpsn  file "C:/Users/Raz Aloni/OneDrive/School/EEL4924/DSP/C_Libs/MicCheckPeripherals/src/LC
     879 000001c8     4627             MVK     .L2     2,B4              ; [B_L674] |370| 
     880                    
TMS320C6x Assembler PC v8.1.3 Thu Apr 20 05:51:03 2017

Tools Copyright (c) 1996-2015 Texas Instruments Incorporated
LCD.asm                                                              PAGE   17

     881 000001ca     da6f             MVC     .S2     B4,ILC            ; [B_Sb674] 
     882 000001cc 01800028! ||         MVKL    .S1     Pallete,A3        ; [A_S674] 
     883                    
     884                    ;*----------------------------------------------------------------------------*
     885                    ;*   SOFTWARE PIPELINE INFORMATION
     886                    ;*
     887                    ;*      Loop found in file               : C:/Users/Raz Aloni/OneDrive/School/EEL4924/DSP/C_Libs/MicCh
     888                    ;*      Loop source line                 : 370
     889                    ;*      Loop opening brace source line   : 371
     890                    ;*      Loop closing brace source line   : 373
     891                    ;*      Loop Unroll Multiple             : 4x
     892                    ;*      Known Minimum Trip Count         : 4                    
     893                    ;*      Known Maximum Trip Count         : 4                    
     894                    ;*      Known Max Trip Count Factor      : 4
     895                    ;*      Loop Carried Dependency Bound(^) : 0
     896                    ;*      Unpartitioned Resource Bound     : 1
     897                    ;*      Partitioned Resource Bound(*)    : 2
     898                    ;*      Resource Partition:
     899                    ;*                                A-side   B-side
     900                    ;*      .L units                     0        0     
     901                    ;*      .S units                     0        0     
     902                    ;*      .D units                     1*       1*    
     903                    ;*      .M units                     0        0     
     904                    ;*      .X cross paths               0        2     
     905                    ;*      .T address paths             1        1     
     906                    ;*      Logical  ops (.LS)           0        0     (.L or .S unit)
     907                    ;*      Addition ops (.LSD)          0        2     (.L or .S or .D unit)
     908                    ;*      Bound(.L .S .LS)             0        0     
     909                    ;*      Bound(.L .S .D .LS .LSD)     1*       1*    
     910                    ;*
     911                    ;*      Searching for software pipeline schedule at ...
     912                    ;*         ii = 2  Schedule found with 4 iterations in parallel
     913                    ;*      Done
     914                    ;*
     915                    ;*      Loop will be splooped
     916                    ;*      Collapsed epilog stages       : 0
     917                    ;*      Collapsed prolog stages       : 0
     918                    ;*      Minimum required memory pad   : 0 bytes
     919                    ;*
     920                    ;*      Minimum safe trip count       : 1 (after unrolling)
     921                    ;*----------------------------------------------------------------------------*
     922 000001d0           $C$L1:    ; PIPED LOOP PROLOG
     923                    
     924 000001d0 0083a001             SPLOOPD         2                 ;8 ; [A_L674] (P) 
     925 000001d4 01800068! ||         MVKH    .S1     Pallete,A3        ; [A_S674] 
     926                    
     927                    ;** --------------------------------------------------------------------------*
     928 000001d8           $C$L2:    ; PIPED LOOP KERNEL
     929                            .dwpsn  file "C:/Users/Raz Aloni/OneDrive/School/EEL4924/DSP/C_Libs/MicCheckPeripherals/src/LC
     930 000001d8 020c3764             LDDW    .D1T1   *A3++(8),A5:A4    ; [A_D64P] |372| (P) <0,0> 
     931 000001dc 00000000             NOP             4                 ; [A_L674] 
     932                            .dwpsn  file "C:/Users/Raz Aloni/OneDrive/School/EEL4924/DSP/C_Libs/MicCheckPeripherals/src/LC
     933                    
     934 000001e0     2e66             SPMASK                            ; [] 
     935 000001e2     c50f  ||^        MV      .S2     B10,B6            ; [B_Sb674] |361| 
TMS320C6x Assembler PC v8.1.3 Thu Apr 20 05:51:03 2017

Tools Copyright (c) 1996-2015 Texas Instruments Incorporated
LCD.asm                                                              PAGE   18

     936 000001e4     b2c7  ||         MV      .L2X    A5,B5             ; [B_L674] |372| (P) <0,5> Define a twin register
     937                    
     938                            .dwpsn  file "C:/Users/Raz Aloni/OneDrive/School/EEL4924/DSP/C_Libs/MicCheckPeripherals/src/LC
     939 000001e6     9247             MV      .L2X    A4,B4             ; [B_L674] |372| <0,6> Define a twin register
     940                    
     941 000001e8     9c66             SPKERNEL        2,0               ; [] NOP possibly not pulled into SPKERNEL due to potenti
     942 000001ea     1d45  ||         STDW    .D2T2   B5:B4,*B6++(8)    ; [B_D64P] |372| <0,7> 
     943                    
     944                    ;** --------------------------------------------------------------------------*
     945 000001ec           $C$L3:    ; PIPED LOOP EPILOG
     946 000001ec     0c6e             NOP             1                 ; [A_L674] 
     947                            .dwpsn  file "C:/Users/Raz Aloni/OneDrive/School/EEL4924/DSP/C_Libs/MicCheckPeripherals/src/LC
     948 000001ee     7587             MV      .L2X    A11,B3            ; [B_L674] |374| 
     949                            .dwcfi  restore_reg, 19
     950                    ;** --------------------------------------------------------------------------*
     951                    $C$DW$103       .dwtag  DW_TAG_TI_branch
     952                            .dwattr $C$DW$103, DW_AT_low_pc(0x04)
     953                            .dwattr $C$DW$103, DW_AT_TI_return
     954                    
     955                    
     956 000001f0     c577             LDDW    .D2T1   *++SP(8),A11:A10  ; [B_D64P] |374| 
     957 000001f2     01ef  ||         RET     .S2     B3                ; [B_Sb674] |374| 
     958                    
     959                            .dwcfi  cfa_offset, 8
     960                            .dwcfi  restore_reg, 11
     961                            .dwcfi  restore_reg, 10
     962 000001f4     7577             LDW     .D2T2   *++SP(8),B10      ; [B_D64P] |374| 
     963                            .dwcfi  cfa_offset, 0
     964                            .dwcfi  restore_reg, 26
     965 000001f6     6c6e             NOP             4                 ; [A_L674] 
     966                               ; BRANCH OCCURS {B3}              ; [] |374| 
     967                            .dwattr $C$DW$83, DW_AT_TI_end_file("C:/Users/Raz Aloni/OneDrive/School/EEL4924/DSP/C_Libs/Mic
     968                            .dwattr $C$DW$83, DW_AT_TI_end_line(0x176)
     969                            .dwattr $C$DW$83, DW_AT_TI_end_column(0x01)
     970                            .dwendentry
     971                            .dwendtag $C$DW$83
     972                    
     973 00000200                   .sect   ".text"
     974                            .clink
     975                            .global LCD_GpioInit
     976                    
     977                    $C$DW$104       .dwtag  DW_TAG_subprogram
     978                            .dwattr $C$DW$104, DW_AT_name("LCD_GpioInit")
     979                            .dwattr $C$DW$104, DW_AT_low_pc(LCD_GpioInit)
     980                            .dwattr $C$DW$104, DW_AT_high_pc(0x00)
     981                            .dwattr $C$DW$104, DW_AT_TI_symbol_name("LCD_GpioInit")
     982                            .dwattr $C$DW$104, DW_AT_external
     983                            .dwattr $C$DW$104, DW_AT_TI_begin_file("C:/Users/Raz Aloni/OneDrive/School/EEL4924/DSP/C_Libs/
     984                            .dwattr $C$DW$104, DW_AT_TI_begin_line(0x223)
     985                            .dwattr $C$DW$104, DW_AT_TI_begin_column(0x06)
     986                            .dwattr $C$DW$104, DW_AT_decl_file("C:/Users/Raz Aloni/OneDrive/School/EEL4924/DSP/C_Libs/MicC
     987                            .dwattr $C$DW$104, DW_AT_decl_line(0x223)
     988                            .dwattr $C$DW$104, DW_AT_decl_column(0x06)
     989                            .dwattr $C$DW$104, DW_AT_TI_max_frame_size(0x30)
     990                            .dwpsn  file "C:/Users/Raz Aloni/OneDrive/School/EEL4924/DSP/C_Libs/MicCheckPeripherals/src/LC
TMS320C6x Assembler PC v8.1.3 Thu Apr 20 05:51:03 2017

Tools Copyright (c) 1996-2015 Texas Instruments Incorporated
LCD.asm                                                              PAGE   19

     991                    
     992                            .dwfde $C$DW$CIE, LCD_GpioInit
     993                    $C$DW$105       .dwtag  DW_TAG_formal_parameter
     994                            .dwattr $C$DW$105, DW_AT_name("masterMode")
     995                            .dwattr $C$DW$105, DW_AT_TI_symbol_name("masterMode")
     996                            .dwattr $C$DW$105, DW_AT_type(*$C$DW$T$812)
     997                            .dwattr $C$DW$105, DW_AT_location[DW_OP_reg4]
     998                    
     999                    
    1000                    ;******************************************************************************
    1001                    ;* FUNCTION NAME: LCD_GpioInit                                                *
    1002                    ;*                                                                            *
    1003                    ;*   Regs Modified     : A0,A1,A2,A3,A4,A5,A6,A7,A8,A9,A10,A11,A12,A13,A14,   *
    1004                    ;*                           A16,A17,A18,A19,A20,A21,A22,A23,A24,A25,A26,A27, *
    1005                    ;*                           A28,A29,A30,A31,B0,B1,B2,B3,B4,B5,B6,B7,B8,B9,   *
    1006                    ;*                           B10,B11,B12,B13,SP,B16,B17,B18,B19,B20,B21,B22,  *
    1007                    ;*                           B23,B24,B25,B26,B27,B28,B29,B30,B31              *
    1008                    ;*   Regs Used         : A0,A1,A2,A3,A4,A5,A6,A7,A8,A9,A10,A11,A12,A13,A14,   *
    1009                    ;*                           A16,A17,A18,A19,A20,A21,A22,A23,A24,A25,A26,A27, *
    1010                    ;*                           A28,A29,A30,A31,B0,B1,B2,B3,B4,B5,B6,B7,B8,B9,   *
    1011                    ;*                           B10,B11,B12,B13,DP,SP,B16,B17,B18,B19,B20,B21,   *
    1012                    ;*                           B22,B23,B24,B25,B26,B27,B28,B29,B30,B31          *
    1013                    ;*   Local Frame Size  : 0 Args + 0 Auto + 48 Save = 48 byte                  *
    1014                    ;******************************************************************************
    1015                    LCD_GpioInit:
    1016                    ;** --------------------------------------------------------------------------*
    1017                    $C$DW$106       .dwtag  DW_TAG_variable
    1018                            .dwattr $C$DW$106, DW_AT_name("masterMode")
    1019                            .dwattr $C$DW$106, DW_AT_TI_symbol_name("masterMode")
    1020                            .dwattr $C$DW$106, DW_AT_type(*$C$DW$T$1054)
    1021                            .dwattr $C$DW$106, DW_AT_location[DW_OP_reg0]
    1022                    
    1023                            .dwcfi  cfa_offset, 0
    1024                    
    1025 00000200     2777             STW     .D2T1   A14,*SP++(-8)     ; [B_D64P] |548| 
    1026 00000202     0246  ||         MV      .L1     A4,A0             ; [A_L674] |548| 
    1027 00000204 02380029  ||         MVKL    .S1     0x1e27000,A4      ; [A_S674] |578| 
    1028 00000208 07000041  ||         ZERO    .D1     A14               ; [A_D64P] |557| 
    1029 0000020c     6727  ||         MVK     .L2     3,B6              ; [B_L674] |578| 
    1030                            .dwcfi  cfa_offset, 8
    1031                            .dwcfi  save_reg_to_mem, 14, 0
    1032                    
    1033 0000020e     9677             STDW    .D2T2   B13:B12,*SP++(-8) ; [B_D64P] |548| 
    1034 00000210 0600442b  ||         MVK     .S2     136,B12           ; [B_Sb674] |558| 
    1035 00000214 0200f169  ||         MVKH    .S1     0x1e27000,A4      ; [A_S674] |578| 
    1036 00000218     8347  ||         MV      .L2     B6,B4             ; [B_L674] |578| 
    1037 0000021a     0726  ||         ZERO    .L1     A6                ; [A_L674] |578| 
    1038                            .dwcfi  cfa_offset, 16
    1039                            .dwcfi  save_reg_to_mem, 29, -4
    1040                            .dwcfi  save_reg_to_mem, 28, -8
    1041                    
    1042 00000228     9577             STDW    .D2T2   B11:B10,*SP++(-8) ; [B_D64P] |548| 
    1043 00000224 05209e2b  ||         MVKL    .S2     0x1c1413c,B10     ; [B_Sb674] |580| 
    1044 00000220 07004469  ||         MVKH    .S1     0x880000,A14      ; [A_S674] |557| 
    1045                            .dwcfi  cfa_offset, 24
TMS320C6x Assembler PC v8.1.3 Thu Apr 20 05:51:03 2017

Tools Copyright (c) 1996-2015 Texas Instruments Incorporated
LCD.asm                                                              PAGE   20

    1046                            .dwcfi  save_reg_to_mem, 27, -12
    1047                            .dwcfi  save_reg_to_mem, 26, -16
    1048                    
    1049 0000022a     8677             STDW    .D2T1   A13:A12,*SP++(-8) ; [B_D64P] |548| 
    1050 0000022c 0500e0ea  ||         MVKH    .S2     0x1c1413c,B10     ; [B_Sb674] |580| 
    1051                            .dwcfi  cfa_offset, 32
    1052                            .dwcfi  save_reg_to_mem, 13, -20
    1053                            .dwcfi  save_reg_to_mem, 12, -24
    1054                    
    1055 00000230 c0002193     [ A0]   B       .S2     $C$L4             ; [B_Sb674] |549| 
    1056 00000240     8577  ||         STDW    .D2T1   A11:A10,*SP++(-8) ; [B_D64P] |548| 
    1057 00000238 05801629  ||         MVK     .S1     44,A11            ; [A_S674] 
    1058 00000234 06a80fdb  ||         MV      .L2     B10,B13           ; [B_L674] |580| 
    1059                    
    1060                            .dwcfi  cfa_offset, 40
    1061                            .dwcfi  save_reg_to_mem, 11, -28
    1062                            .dwcfi  save_reg_to_mem, 10, -32
    1063                    $C$DW$107       .dwtag  DW_TAG_TI_branch
    1064                            .dwattr $C$DW$107, DW_AT_low_pc(0x00)
    1065                            .dwattr $C$DW$107, DW_AT_name("PSCModuleControl")
    1066                            .dwattr $C$DW$107, DW_AT_TI_call
    1067                    
    1068                    
    1069 0000024c d0000010!    [!A0]   CALL    .S1     PSCModuleControl  ; [A_S674] |578| 
    1070 00000244 05a97079  ||         ADD     .L1X    A11,B10,A11       ; [A_L674] 
    1071 00000248 05c4002b  ||         MVKL    .S2     0x88800,B11       ; [B_Sb674] |582| 
    1072 00000242     31f7  ||         STW     .D2T2   B3,*SP++(-8)      ; [B_D64P] |548| 
    1073                    
    1074                            .dwcfi  cfa_offset, 48
    1075                            .dwcfi  save_reg_to_mem, 19, -40
    1076                            .dwpsn  file "C:/Users/Raz Aloni/OneDrive/School/EEL4924/DSP/C_Libs/MicCheckPeripherals/src/LC
    1077                    $C$DW$108       .dwtag  DW_TAG_TI_branch
    1078                            .dwattr $C$DW$108, DW_AT_low_pc(0x04)
    1079                            .dwattr $C$DW$108, DW_AT_name("PSCModuleControl")
    1080                            .dwattr $C$DW$108, DW_AT_TI_call
    1081                    
    1082                    
    1083 00000250 0580046b             MVKH    .S2     0x88800,B11       ; [B_Sb674] |582| 
    1084 00000254 c0000010! || [ A0]   CALL    .S1     PSCModuleControl  ; [A_S674] |554| 
    1085                    
    1086 00000258 062c8058             ADD     .L1     4,A11,A12         ; [A_L674] 
    1087 00000260 0530ddc0             SUBAW   .D1     A12,6,A10         ; [A_D64P] 
    1088 00000264 06a88058             ADD     .L1     4,A10,A13         ; [A_L674] 
    1089                            .dwpsn  file "C:/Users/Raz Aloni/OneDrive/School/EEL4924/DSP/C_Libs/MicCheckPeripherals/src/LC
    1090                               ; BRANCHCC OCCURS {$C$L4}         ; [] |549| 
    1091                    ;** --------------------------------------------------------------------------*
    1092                            .dwcfi  remember_state
    1093                            .dwpsn  file "C:/Users/Raz Aloni/OneDrive/School/EEL4924/DSP/C_Libs/MicCheckPeripherals/src/LC
    1094 00000268 01830162             ADDKPC  .S2     $C$RL28,B3,0      ; [B_Sb674] |578| 
    1095 0000026c           $C$RL28:   ; CALL OCCURS {PSCModuleControl} {0}  ; [] |578| 
    1096                    ;** --------------------------------------------------------------------------*
    1097                            .dwpsn  file "C:/Users/Raz Aloni/OneDrive/School/EEL4924/DSP/C_Libs/MicCheckPeripherals/src/LC
    1098 0000026c 01a802e4             LDW     .D2T1   *B10(0),A3        ; [B_D64P] |580| 
    1099 00000270 02340fda             MV      .L2     B13,B4            ; [B_L674] |580| 
    1100                            .dwpsn  file "C:/Users/Raz Aloni/OneDrive/School/EEL4924/DSP/C_Libs/MicCheckPeripherals/src/LC
TMS320C6x Assembler PC v8.1.3 Thu Apr 20 05:51:03 2017

Tools Copyright (c) 1996-2015 Texas Instruments Incorporated
LCD.asm                                                              PAGE   21

    1101 00000274 02300028             MVKL    .S1     0x1e26000,A4      ; [A_S674] |584| 
    1102 00000278 0200f168             MVKH    .S1     0x1e26000,A4      ; [A_S674] |584| 
    1103 0000027c 0304a358             MVK     .L1     1,A6              ; [A_L674] |584| 
    1104                            .dwpsn  file "C:/Users/Raz Aloni/OneDrive/School/EEL4924/DSP/C_Libs/MicCheckPeripherals/src/LC
    1105 00000280     e9a2             SET     .S1     A3,15,15,A3       ; [A_S674] |580| 
    1106 00000282     0035             STW     .D2T1   A3,*B4(0)         ; [B_D64P] |580| 
    1107                            .dwpsn  file "C:/Users/Raz Aloni/OneDrive/School/EEL4924/DSP/C_Libs/MicCheckPeripherals/src/LC
    1108 00000284 022c0266             LDW     .D1T2   *A11(0),B4        ; [A_D64P] |581| 
    1109 00000288 00000000             NOP             4                 ; [A_L674] 
    1110 00000288 02116b8a             SET     .S2     B4,11,11,B4       ; [B_Sb674] |581| 
    1111 0000028c 022c0276             STW     .D1T2   B4,*A11(0)        ; [A_D64P] |581| 
    1112                            .dwpsn  file "C:/Users/Raz Aloni/OneDrive/School/EEL4924/DSP/C_Libs/MicCheckPeripherals/src/LC
    1113 00000290 02300266             LDW     .D1T2   *A12(0),B4        ; [A_D64P] |582| 
    1114 00000294 00000000             NOP             4                 ; [A_L674] 
    1115 00000294 02116ffa             OR      .L2     B11,B4,B4         ; [B_L674] |582| 
    1116                    
    1117 00000298 02300277             STW     .D1T2   B4,*A12(0)        ; [A_D64P] |582| 
    1118 000002a0 02001eaa  ||         MVK     .S2     0x3d,B4           ; [B_Sb674] |584| 
    1119                    
    1120                            .dwpsn  file "C:/Users/Raz Aloni/OneDrive/School/EEL4924/DSP/C_Libs/MicCheckPeripherals/src/LC
    1121                    $C$DW$109       .dwtag  DW_TAG_TI_branch
    1122                            .dwattr $C$DW$109, DW_AT_low_pc(0x00)
    1123                            .dwattr $C$DW$109, DW_AT_name("GPIODirModeSet")
    1124                            .dwattr $C$DW$109, DW_AT_TI_call
    1125                    
    1126 000002a4 10000012!            CALLP   .S2     GPIODirModeSet,B3 ; [B_Sb674] |584| 
    1127 000002a8           $C$RL30:   ; CALLP OCCURS {GPIODirModeSet} {0}  ; [] |584| 
    1128                            .dwpsn  file "C:/Users/Raz Aloni/OneDrive/School/EEL4924/DSP/C_Libs/MicCheckPeripherals/src/LC
    1129                    
    1130 000002a8 02300029             MVKL    .S1     0x1e26000,A4      ; [A_S674] |585| 
    1131 000002ac     a273  ||         MVK     .S2     0x65,B4           ; [B_Sb674] |585| 
    1132                    
    1133                    $C$DW$110       .dwtag  DW_TAG_TI_branch
    1134                            .dwattr $C$DW$110, DW_AT_low_pc(0x04)
    1135                            .dwattr $C$DW$110, DW_AT_name("GPIODirModeSet")
    1136                            .dwattr $C$DW$110, DW_AT_TI_call
    1137                    
    1138                    
    1139 000002b4 0200f169             MVKH    .S1     0x1e26000,A4      ; [A_S674] |585| 
    1140 000002b0 10000013! ||         CALLP   .S2     GPIODirModeSet,B3 ; [B_Sb674] |585| 
    1141 000002ae     2726  ||         MVK     .L1     1,A6              ; [A_L674] |585| 
    1142                    
    1143 000002c0           $C$RL32:   ; CALLP OCCURS {GPIODirModeSet} {0}  ; [] |585| 
    1144                            .dwpsn  file "C:/Users/Raz Aloni/OneDrive/School/EEL4924/DSP/C_Libs/MicCheckPeripherals/src/LC
    1145                    
    1146 000002c0 02300029             MVKL    .S1     0x1e26000,A4      ; [A_S674] |586| 
    1147 000002c4     8273  ||         MVK     .S2     0x64,B4           ; [B_Sb674] |586| 
    1148                    
    1149                    $C$DW$111       .dwtag  DW_TAG_TI_branch
    1150                            .dwattr $C$DW$111, DW_AT_low_pc(0x04)
    1151                            .dwattr $C$DW$111, DW_AT_name("GPIODirModeSet")
    1152                            .dwattr $C$DW$111, DW_AT_TI_call
    1153                    
    1154                    
    1155 000002cc 0200f168             MVKH    .S1     0x1e26000,A4      ; [A_S674] |586| 
TMS320C6x Assembler PC v8.1.3 Thu Apr 20 05:51:03 2017

Tools Copyright (c) 1996-2015 Texas Instruments Incorporated
LCD.asm                                                              PAGE   22

    1156 000002c8 10000013! ||         CALLP   .S2     GPIODirModeSet,B3 ; [B_Sb674] |586| 
    1157 000002c6     2726  ||         MVK     .L1     1,A6              ; [A_L674] |586| 
    1158                    
    1159 000002d0           $C$RL34:   ; CALLP OCCURS {GPIODirModeSet} {0}  ; [] |586| 
    1160                            .dwpsn  file "C:/Users/Raz Aloni/OneDrive/School/EEL4924/DSP/C_Libs/MicCheckPeripherals/src/LC
    1161                    
    1162 000002d0 02300029             MVKL    .S1     0x1e26000,A4      ; [A_S674] |587| 
    1163 000002d4     6273  ||         MVK     .S2     0x63,B4           ; [B_Sb674] |587| 
    1164                    
    1165                    $C$DW$112       .dwtag  DW_TAG_TI_branch
    1166                            .dwattr $C$DW$112, DW_AT_low_pc(0x04)
    1167                            .dwattr $C$DW$112, DW_AT_name("GPIODirModeSet")
    1168                            .dwattr $C$DW$112, DW_AT_TI_call
    1169                    
    1170                    
    1171 000002e0 0200f168             MVKH    .S1     0x1e26000,A4      ; [A_S674] |587| 
    1172 000002d8 10000013! ||         CALLP   .S2     GPIODirModeSet,B3 ; [B_Sb674] |587| 
    1173 000002d6     2726  ||         MVK     .L1     1,A6              ; [A_L674] |587| 
    1174                    
    1175 000002e4           $C$RL36:   ; CALLP OCCURS {GPIODirModeSet} {0}  ; [] |587| 
    1176                            .dwpsn  file "C:/Users/Raz Aloni/OneDrive/School/EEL4924/DSP/C_Libs/MicCheckPeripherals/src/LC
    1177                    
    1178 000002e4 02300029             MVKL    .S1     0x1e26000,A4      ; [A_S674] |588| 
    1179 000002e8     1613  ||         MVK     .S2     0x90,B4           ; [B_Sb674] |588| 
    1180                    
    1181                    $C$DW$113       .dwtag  DW_TAG_TI_branch
    1182                            .dwattr $C$DW$113, DW_AT_low_pc(0x04)
    1183                            .dwattr $C$DW$113, DW_AT_name("GPIODirModeSet")
    1184                            .dwattr $C$DW$113, DW_AT_TI_call
    1185                    
    1186                    
    1187 000002f0 0200f168             MVKH    .S1     0x1e26000,A4      ; [A_S674] |588| 
    1188 000002ec 10000013! ||         CALLP   .S2     GPIODirModeSet,B3 ; [B_Sb674] |588| 
    1189 000002ea     2726  ||         MVK     .L1     1,A6              ; [A_L674] |588| 
    1190                    
    1191 000002f4           $C$RL38:   ; CALLP OCCURS {GPIODirModeSet} {0}  ; [] |588| 
    1192                            .dwpsn  file "C:/Users/Raz Aloni/OneDrive/School/EEL4924/DSP/C_Libs/MicCheckPeripherals/src/LC
    1193 000002f4 02300028             MVKL    .S1     0x1e26000,A4      ; [A_S674] |591| 
    1194                    $C$DW$114       .dwtag  DW_TAG_TI_branch
    1195                            .dwattr $C$DW$114, DW_AT_low_pc(0x04)
    1196                            .dwattr $C$DW$114, DW_AT_name("GPIOBankIntEnable")
    1197                            .dwattr $C$DW$114, DW_AT_TI_call
    1198                    
    1199                    
    1200 000002f8 0200f169             MVKH    .S1     0x1e26000,A4      ; [A_S674] |591| 
    1201 00000300 10000013! ||         CALLP   .S2     GPIOBankIntEnable,B3 ; [B_Sb674] |591| 
    1202 00000304 020ca35a  ||         MVK     .L2     3,B4              ; [B_L674] |591| 
    1203                    
    1204 00000308           $C$RL40:   ; CALLP OCCURS {GPIOBankIntEnable} {0}  ; [] |591| 
    1205                            .dwpsn  file "C:/Users/Raz Aloni/OneDrive/School/EEL4924/DSP/C_Libs/MicCheckPeripherals/src/LC
    1206                    
    1207 00000308 02300029             MVKL    .S1     0x1e26000,A4      ; [A_S674] |594| 
    1208 0000030c     ba33  ||         MVK     .S2     0x3d,B4           ; [B_Sb674] |594| 
    1209                    
    1210                    $C$DW$115       .dwtag  DW_TAG_TI_branch
TMS320C6x Assembler PC v8.1.3 Thu Apr 20 05:51:03 2017

Tools Copyright (c) 1996-2015 Texas Instruments Incorporated
LCD.asm                                                              PAGE   23

    1211                            .dwattr $C$DW$115, DW_AT_low_pc(0x04)
    1212                            .dwattr $C$DW$115, DW_AT_name("GPIOIntTypeSet")
    1213                            .dwattr $C$DW$115, DW_AT_TI_call
    1214                    
    1215                    
    1216 00000314 0200f168             MVKH    .S1     0x1e26000,A4      ; [A_S674] |594| 
    1217 00000310 10000013! ||         CALLP   .S2     GPIOIntTypeSet,B3 ; [B_Sb674] |594| 
    1218 0000030e     2726  ||         MVK     .L1     1,A6              ; [A_L674] |594| 
    1219                    
    1220 00000318           $C$RL42:   ; CALLP OCCURS {GPIOIntTypeSet} {0}  ; [] |594| 
    1221                            .dwpsn  file "C:/Users/Raz Aloni/OneDrive/School/EEL4924/DSP/C_Libs/MicCheckPeripherals/src/LC
    1222 00000318     71f7             LDW     .D2T2   *++SP(8),B3       ; [B_D64P] |597| 
    1223                            .dwcfi  cfa_offset, 40
    1224                            .dwcfi  restore_reg, 19
    1225 0000031a     c577             LDDW    .D2T1   *++SP(8),A11:A10  ; [B_D64P] |597| 
    1226                            .dwcfi  cfa_offset, 32
    1227                            .dwcfi  restore_reg, 11
    1228                            .dwcfi  restore_reg, 10
    1229 00000320     c677             LDDW    .D2T1   *++SP(8),A13:A12  ; [B_D64P] |597| 
    1230                            .dwcfi  cfa_offset, 24
    1231                            .dwcfi  restore_reg, 13
    1232                            .dwcfi  restore_reg, 12
    1233 00000322     d577             LDDW    .D2T2   *++SP(8),B11:B10  ; [B_D64P] |597| 
    1234                            .dwcfi  cfa_offset, 16
    1235                            .dwcfi  restore_reg, 27
    1236                            .dwcfi  restore_reg, 26
    1237 00000324     d677             LDDW    .D2T2   *++SP(8),B13:B12  ; [B_D64P] |597| 
    1238                            .dwcfi  cfa_offset, 8
    1239                            .dwcfi  restore_reg, 29
    1240                            .dwcfi  restore_reg, 28
    1241                    $C$DW$116       .dwtag  DW_TAG_TI_branch
    1242                            .dwattr $C$DW$116, DW_AT_low_pc(0x00)
    1243                            .dwattr $C$DW$116, DW_AT_TI_return
    1244                    
    1245 00000326     01ef             RET     .S2     B3                ; [B_Sb674] |597| 
    1246 00000328     6777             LDW     .D2T1   *++SP(8),A14      ; [B_D64P] |597| 
    1247                            .dwcfi  cfa_offset, 0
    1248                            .dwcfi  restore_reg, 14
    1249 0000032a     6c6e             NOP             4                 ; [A_L674] 
    1250                               ; BRANCH OCCURS {B3}              ; [] |597| 
    1251                            .dwcfi  restore_state
    1252                    ;** --------------------------------------------------------------------------*
    1253 0000032c           $C$L4:    
    1254                            .dwpsn  file "C:/Users/Raz Aloni/OneDrive/School/EEL4924/DSP/C_Libs/MicCheckPeripherals/src/LC
    1255 0000032c 01842162             ADDKPC  .S2     $C$RL44,B3,1      ; [B_Sb674] |554| 
    1256 00000330           $C$RL44:   ; CALL OCCURS {PSCModuleControl} {0}  ; [] |554| 
    1257                    ;** --------------------------------------------------------------------------*
    1258                            .dwpsn  file "C:/Users/Raz Aloni/OneDrive/School/EEL4924/DSP/C_Libs/MicCheckPeripherals/src/LC
    1259 00000330 022802e6             LDW     .D2T2   *B10(0),B4        ; [B_D64P] |556| 
    1260                            .dwpsn  file "C:/Users/Raz Aloni/OneDrive/School/EEL4924/DSP/C_Libs/MicCheckPeripherals/src/LC
    1261 00000334 02300028             MVKL    .S1     0x1e26000,A4      ; [A_S674] |560| 
    1262 00000338 0200f168             MVKH    .S1     0x1e26000,A4      ; [A_S674] |560| 
    1263 00000340     0726             ZERO    .L1     A6                ; [A_L674] |560| 
    1264 00000342     0c6e             NOP             1                 ; [A_L674] 
    1265                            .dwpsn  file "C:/Users/Raz Aloni/OneDrive/School/EEL4924/DSP/C_Libs/MicCheckPeripherals/src/LC
TMS320C6x Assembler PC v8.1.3 Thu Apr 20 05:51:03 2017

Tools Copyright (c) 1996-2015 Texas Instruments Incorporated
LCD.asm                                                              PAGE   24

    1266 00000344 0211ef8a             SET     .S2     B4,15,15,B4       ; [B_Sb674] |556| 
    1267 00000348 023402f6             STW     .D2T2   B4,*B13(0)        ; [B_D64P] |556| 
    1268                            .dwpsn  file "C:/Users/Raz Aloni/OneDrive/School/EEL4924/DSP/C_Libs/MicCheckPeripherals/src/LC
    1269 0000034c 01a80264             LDW     .D1T1   *A10(0),A3        ; [A_D64P] |557| 
    1270 00000350 00000000             NOP             4                 ; [A_L674] 
    1271 00000350 018dcff8             OR      .L1     A14,A3,A3         ; [A_L674] |557| 
    1272 00000354 01a80274             STW     .D1T1   A3,*A10(0)        ; [A_D64P] |557| 
    1273                            .dwpsn  file "C:/Users/Raz Aloni/OneDrive/School/EEL4924/DSP/C_Libs/MicCheckPeripherals/src/LC
    1274 00000358 02340266             LDW     .D1T2   *A13(0),B4        ; [A_D64P] |558| 
    1275 0000035c 00000000             NOP             4                 ; [A_L674] 
    1276 00000360 02118ffa             OR      .L2     B12,B4,B4         ; [B_L674] |558| 
    1277                    
    1278 00000364 02340277             STW     .D1T2   B4,*A13(0)        ; [A_D64P] |558| 
    1279 00000368 02001eaa  ||         MVK     .S2     0x3d,B4           ; [B_Sb674] |560| 
    1280                    
    1281                            .dwpsn  file "C:/Users/Raz Aloni/OneDrive/School/EEL4924/DSP/C_Libs/MicCheckPeripherals/src/LC
    1282                    $C$DW$117       .dwtag  DW_TAG_TI_branch
    1283                            .dwattr $C$DW$117, DW_AT_low_pc(0x00)
    1284                            .dwattr $C$DW$117, DW_AT_name("GPIODirModeSet")
    1285                            .dwattr $C$DW$117, DW_AT_TI_call
    1286                    
    1287 0000036c 10000012!            CALLP   .S2     GPIODirModeSet,B3 ; [B_Sb674] |560| 
    1288 00000370           $C$RL46:   ; CALLP OCCURS {GPIODirModeSet} {0}  ; [] |560| 
    1289                            .dwpsn  file "C:/Users/Raz Aloni/OneDrive/School/EEL4924/DSP/C_Libs/MicCheckPeripherals/src/LC
    1290                    
    1291 00000370 02300029             MVKL    .S1     0x1e26000,A4      ; [A_S674] |561| 
    1292 00000374     0a73  ||         MVK     .S2     0x68,B4           ; [B_Sb674] |561| 
    1293                    
    1294                    $C$DW$118       .dwtag  DW_TAG_TI_branch
    1295                            .dwattr $C$DW$118, DW_AT_low_pc(0x04)
    1296                            .dwattr $C$DW$118, DW_AT_name("GPIODirModeSet")
    1297                            .dwattr $C$DW$118, DW_AT_TI_call
    1298                    
    1299                    
    1300 00000380 0200f168             MVKH    .S1     0x1e26000,A4      ; [A_S674] |561| 
    1301 00000378 10000013! ||         CALLP   .S2     GPIODirModeSet,B3 ; [B_Sb674] |561| 
    1302 00000376     0726  ||         ZERO    .L1     A6                ; [A_L674] |561| 
    1303                    
    1304 00000384           $C$RL48:   ; CALLP OCCURS {GPIODirModeSet} {0}  ; [] |561| 
    1305                            .dwpsn  file "C:/Users/Raz Aloni/OneDrive/School/EEL4924/DSP/C_Libs/MicCheckPeripherals/src/LC
    1306                    
    1307 00000384 02300029             MVKL    .S1     0x1e26000,A4      ; [A_S674] |562| 
    1308 00000388     6a73  ||         MVK     .S2     0x6b,B4           ; [B_Sb674] |562| 
    1309                    
    1310                    $C$DW$119       .dwtag  DW_TAG_TI_branch
    1311                            .dwattr $C$DW$119, DW_AT_low_pc(0x04)
    1312                            .dwattr $C$DW$119, DW_AT_name("GPIODirModeSet")
    1313                            .dwattr $C$DW$119, DW_AT_TI_call
    1314                    
    1315                    
    1316 00000390 0200f168             MVKH    .S1     0x1e26000,A4      ; [A_S674] |562| 
    1317 0000038c 10000013! ||         CALLP   .S2     GPIODirModeSet,B3 ; [B_Sb674] |562| 
    1318 0000038a     0726  ||         ZERO    .L1     A6                ; [A_L674] |562| 
    1319                    
    1320 00000394           $C$RL50:   ; CALLP OCCURS {GPIODirModeSet} {0}  ; [] |562| 
TMS320C6x Assembler PC v8.1.3 Thu Apr 20 05:51:03 2017

Tools Copyright (c) 1996-2015 Texas Instruments Incorporated
LCD.asm                                                              PAGE   25

    1321                            .dwpsn  file "C:/Users/Raz Aloni/OneDrive/School/EEL4924/DSP/C_Libs/MicCheckPeripherals/src/LC
    1322                    
    1323 00000394 02300029             MVKL    .S1     0x1e26000,A4      ; [A_S674] |563| 
    1324 00000398     e273  ||         MVK     .S2     0x67,B4           ; [B_Sb674] |563| 
    1325                    
    1326                    $C$DW$120       .dwtag  DW_TAG_TI_branch
    1327                            .dwattr $C$DW$120, DW_AT_low_pc(0x04)
    1328                            .dwattr $C$DW$120, DW_AT_name("GPIODirModeSet")
    1329                            .dwattr $C$DW$120, DW_AT_TI_call
    1330                    
    1331                    
    1332 000003a4 0200f168             MVKH    .S1     0x1e26000,A4      ; [A_S674] |563| 
    1333 000003a0 10000013! ||         CALLP   .S2     GPIODirModeSet,B3 ; [B_Sb674] |563| 
    1334 0000039a     0726  ||         ZERO    .L1     A6                ; [A_L674] |563| 
    1335                    
    1336 000003a8           $C$RL52:   ; CALLP OCCURS {GPIODirModeSet} {0}  ; [] |563| 
    1337                            .dwpsn  file "C:/Users/Raz Aloni/OneDrive/School/EEL4924/DSP/C_Libs/MicCheckPeripherals/src/LC
    1338                    
    1339 000003a8 02300029             MVKL    .S1     0x1e26000,A4      ; [A_S674] |564| 
    1340 000003ac     8a73  ||         MVK     .S2     0x6c,B4           ; [B_Sb674] |564| 
    1341                    
    1342                    $C$DW$121       .dwtag  DW_TAG_TI_branch
    1343                            .dwattr $C$DW$121, DW_AT_low_pc(0x04)
    1344                            .dwattr $C$DW$121, DW_AT_name("GPIODirModeSet")
    1345                            .dwattr $C$DW$121, DW_AT_TI_call
    1346                    
    1347                    
    1348 000003b4 0200f169             MVKH    .S1     0x1e26000,A4      ; [A_S674] |564| 
    1349 000003b0 10000013! ||         CALLP   .S2     GPIODirModeSet,B3 ; [B_Sb674] |564| 
    1350 000003ae     0726  ||         ZERO    .L1     A6                ; [A_L674] |564| 
    1351                    
    1352 000003c0           $C$RL54:   ; CALLP OCCURS {GPIODirModeSet} {0}  ; [] |564| 
    1353                    ;** --------------------------------------------------------------------------*
    1354                            .dwpsn  file "C:/Users/Raz Aloni/OneDrive/School/EEL4924/DSP/C_Libs/MicCheckPeripherals/src/LC
    1355                    
    1356 000003c0 02300029             MVKL    .S1     0x1e26000,A4      ; [A_S674] |567| 
    1357 000003c4     0a73  ||         MVK     .S2     0x68,B4           ; [B_Sb674] |567| 
    1358                    
    1359                    $C$DW$122       .dwtag  DW_TAG_TI_branch
    1360                            .dwattr $C$DW$122, DW_AT_low_pc(0x08)
    1361                            .dwattr $C$DW$122, DW_AT_name("GPIOPinWrite")
    1362                            .dwattr $C$DW$122, DW_AT_TI_call
    1363                    
    1364                    
    1365 000003c8 0200f169             MVKH    .S1     0x1e26000,A4      ; [A_S674] |567| 
    1366 000003c6     0726  ||         ZERO    .L1     A6                ; [A_L674] |567| 
    1367 000003cc 10000012! ||         CALLP   .S2     GPIOPinWrite,B3   ; [B_Sb674] |567| 
    1368                    
    1369 000003d0           $C$RL56:   ; CALLP OCCURS {GPIOPinWrite} {0}  ; [] |567| 
    1370                            .dwpsn  file "C:/Users/Raz Aloni/OneDrive/School/EEL4924/DSP/C_Libs/MicCheckPeripherals/src/LC
    1371                    
    1372 000003d0 02300029             MVKL    .S1     0x1e26000,A4      ; [A_S674] |568| 
    1373 000003d4     6a73  ||         MVK     .S2     0x6b,B4           ; [B_Sb674] |568| 
    1374                    
    1375                    $C$DW$123       .dwtag  DW_TAG_TI_branch
TMS320C6x Assembler PC v8.1.3 Thu Apr 20 05:51:03 2017

Tools Copyright (c) 1996-2015 Texas Instruments Incorporated
LCD.asm                                                              PAGE   26

    1376                            .dwattr $C$DW$123, DW_AT_low_pc(0x04)
    1377                            .dwattr $C$DW$123, DW_AT_name("GPIOPinWrite")
    1378                            .dwattr $C$DW$123, DW_AT_TI_call
    1379                    
    1380                    
    1381 000003e0 0200f168             MVKH    .S1     0x1e26000,A4      ; [A_S674] |568| 
    1382 000003d8 10000013! ||         CALLP   .S2     GPIOPinWrite,B3   ; [B_Sb674] |568| 
    1383 000003d6     0726  ||         ZERO    .L1     A6                ; [A_L674] |568| 
    1384                    
    1385 000003e4           $C$RL58:   ; CALLP OCCURS {GPIOPinWrite} {0}  ; [] |568| 
    1386                            .dwpsn  file "C:/Users/Raz Aloni/OneDrive/School/EEL4924/DSP/C_Libs/MicCheckPeripherals/src/LC
    1387                    
    1388 000003e4 02300029             MVKL    .S1     0x1e26000,A4      ; [A_S674] |569| 
    1389 000003e8     e273  ||         MVK     .S2     0x67,B4           ; [B_Sb674] |569| 
    1390                    
    1391                    $C$DW$124       .dwtag  DW_TAG_TI_branch
    1392                            .dwattr $C$DW$124, DW_AT_low_pc(0x04)
    1393                            .dwattr $C$DW$124, DW_AT_name("GPIOPinWrite")
    1394                            .dwattr $C$DW$124, DW_AT_TI_call
    1395                    
    1396                    
    1397 000003f0 0200f168             MVKH    .S1     0x1e26000,A4      ; [A_S674] |569| 
    1398 000003ec 10000013! ||         CALLP   .S2     GPIOPinWrite,B3   ; [B_Sb674] |569| 
    1399 000003ea     0726  ||         ZERO    .L1     A6                ; [A_L674] |569| 
    1400                    
    1401 000003f4           $C$RL60:   ; CALLP OCCURS {GPIOPinWrite} {0}  ; [] |569| 
    1402                            .dwpsn  file "C:/Users/Raz Aloni/OneDrive/School/EEL4924/DSP/C_Libs/MicCheckPeripherals/src/LC
    1403                    
    1404 000003f4 02300029             MVKL    .S1     0x1e26000,A4      ; [A_S674] |570| 
    1405 000003f8     8a73  ||         MVK     .S2     0x6c,B4           ; [B_Sb674] |570| 
    1406                    
    1407                    $C$DW$125       .dwtag  DW_TAG_TI_branch
    1408                            .dwattr $C$DW$125, DW_AT_low_pc(0x04)
    1409                            .dwattr $C$DW$125, DW_AT_name("GPIOPinWrite")
    1410                            .dwattr $C$DW$125, DW_AT_TI_call
    1411                    
    1412                    
    1413 00000404 0200f168             MVKH    .S1     0x1e26000,A4      ; [A_S674] |570| 
    1414 00000400 10000013! ||         CALLP   .S2     GPIOPinWrite,B3   ; [B_Sb674] |570| 
    1415 000003fa     0726  ||         ZERO    .L1     A6                ; [A_L674] |570| 
    1416                    
    1417 00000408           $C$RL62:   ; CALLP OCCURS {GPIOPinWrite} {0}  ; [] |570| 
    1418                            .dwpsn  file "C:/Users/Raz Aloni/OneDrive/School/EEL4924/DSP/C_Libs/MicCheckPeripherals/src/LC
    1419                    
    1420 00000408 02300029             MVKL    .S1     0x1e26000,A4      ; [A_S674] |571| 
    1421 0000040c     ba33  ||         MVK     .S2     0x3d,B4           ; [B_Sb674] |571| 
    1422                    
    1423                    $C$DW$126       .dwtag  DW_TAG_TI_branch
    1424                            .dwattr $C$DW$126, DW_AT_low_pc(0x04)
    1425                            .dwattr $C$DW$126, DW_AT_name("GPIOPinWrite")
    1426                            .dwattr $C$DW$126, DW_AT_TI_call
    1427                    
    1428                    
    1429 00000414 0200f168             MVKH    .S1     0x1e26000,A4      ; [A_S674] |571| 
    1430 00000410 10000013! ||         CALLP   .S2     GPIOPinWrite,B3   ; [B_Sb674] |571| 
TMS320C6x Assembler PC v8.1.3 Thu Apr 20 05:51:03 2017

Tools Copyright (c) 1996-2015 Texas Instruments Incorporated
LCD.asm                                                              PAGE   27

    1431 0000040e     0726  ||         ZERO    .L1     A6                ; [A_L674] |571| 
    1432                    
    1433 00000418           $C$RL64:   ; CALLP OCCURS {GPIOPinWrite} {0}  ; [] |571| 
    1434                            .dwpsn  file "C:/Users/Raz Aloni/OneDrive/School/EEL4924/DSP/C_Libs/MicCheckPeripherals/src/LC
    1435 00000418     71f7             LDW     .D2T2   *++SP(8),B3       ; [B_D64P] |597| 
    1436                            .dwcfi  cfa_offset, 40
    1437                            .dwcfi  restore_reg, 19
    1438 0000041a     c577             LDDW    .D2T1   *++SP(8),A11:A10  ; [B_D64P] |597| 
    1439                            .dwcfi  cfa_offset, 32
    1440                            .dwcfi  restore_reg, 11
    1441                            .dwcfi  restore_reg, 10
    1442 00000420     c677             LDDW    .D2T1   *++SP(8),A13:A12  ; [B_D64P] |597| 
    1443                            .dwcfi  cfa_offset, 24
    1444                            .dwcfi  restore_reg, 13
    1445                            .dwcfi  restore_reg, 12
    1446 00000422     d577             LDDW    .D2T2   *++SP(8),B11:B10  ; [B_D64P] |597| 
    1447                            .dwcfi  cfa_offset, 16
    1448                            .dwcfi  restore_reg, 27
    1449                            .dwcfi  restore_reg, 26
    1450 00000424     d677             LDDW    .D2T2   *++SP(8),B13:B12  ; [B_D64P] |597| 
    1451                            .dwcfi  cfa_offset, 8
    1452                            .dwcfi  restore_reg, 29
    1453                            .dwcfi  restore_reg, 28
    1454                    $C$DW$127       .dwtag  DW_TAG_TI_branch
    1455                            .dwattr $C$DW$127, DW_AT_low_pc(0x00)
    1456                            .dwattr $C$DW$127, DW_AT_TI_return
    1457                    
    1458 00000426     01ef             RET     .S2     B3                ; [B_Sb674] |597| 
    1459 00000428     6777             LDW     .D2T1   *++SP(8),A14      ; [B_D64P] |597| 
    1460                            .dwcfi  cfa_offset, 0
    1461                            .dwcfi  restore_reg, 14
    1462 0000042a     6c6e             NOP             4                 ; [A_L674] 
    1463                               ; BRANCH OCCURS {B3}              ; [] |597| 
    1464                            .dwattr $C$DW$104, DW_AT_TI_end_file("C:/Users/Raz Aloni/OneDrive/School/EEL4924/DSP/C_Libs/Mi
    1465                            .dwattr $C$DW$104, DW_AT_TI_end_line(0x255)
    1466                            .dwattr $C$DW$104, DW_AT_TI_end_column(0x01)
    1467                            .dwendentry
    1468                            .dwendtag $C$DW$104
    1469                    
    1470 0000042c                   .sect   ".text"
    1471                            .clink
    1472                            .global LCD_FrameSyncLostFix
    1473                    
    1474                    $C$DW$128       .dwtag  DW_TAG_subprogram
    1475                            .dwattr $C$DW$128, DW_AT_name("LCD_FrameSyncLostFix")
    1476                            .dwattr $C$DW$128, DW_AT_low_pc(LCD_FrameSyncLostFix)
    1477                            .dwattr $C$DW$128, DW_AT_high_pc(0x00)
    1478                            .dwattr $C$DW$128, DW_AT_TI_symbol_name("LCD_FrameSyncLostFix")
    1479                            .dwattr $C$DW$128, DW_AT_external
    1480                            .dwattr $C$DW$128, DW_AT_TI_begin_file("C:/Users/Raz Aloni/OneDrive/School/EEL4924/DSP/C_Libs/
    1481                            .dwattr $C$DW$128, DW_AT_TI_begin_line(0x27e)
    1482                            .dwattr $C$DW$128, DW_AT_TI_begin_column(0x06)
    1483                            .dwattr $C$DW$128, DW_AT_decl_file("C:/Users/Raz Aloni/OneDrive/School/EEL4924/DSP/C_Libs/MicC
    1484                            .dwattr $C$DW$128, DW_AT_decl_line(0x27e)
    1485                            .dwattr $C$DW$128, DW_AT_decl_column(0x06)
TMS320C6x Assembler PC v8.1.3 Thu Apr 20 05:51:03 2017

Tools Copyright (c) 1996-2015 Texas Instruments Incorporated
LCD.asm                                                              PAGE   28

    1486                            .dwattr $C$DW$128, DW_AT_TI_max_frame_size(0x08)
    1487                            .dwpsn  file "C:/Users/Raz Aloni/OneDrive/School/EEL4924/DSP/C_Libs/MicCheckPeripherals/src/LC
    1488                    
    1489                            .dwfde $C$DW$CIE, LCD_FrameSyncLostFix
    1490                    
    1491                    ;******************************************************************************
    1492                    ;* FUNCTION NAME: LCD_FrameSyncLostFix                                        *
    1493                    ;*                                                                            *
    1494                    ;*   Regs Modified     : A0,A1,A2,A3,A4,A5,A6,A7,A8,A9,A16,A17,A18,A19,A20,   *
    1495                    ;*                           A21,A22,A23,A24,A25,A26,A27,A28,A29,A30,A31,B0,  *
    1496                    ;*                           B1,B2,B3,B4,B5,B6,B7,B8,B9,SP,B16,B17,B18,B19,   *
    1497                    ;*                           B20,B21,B22,B23,B24,B25,B26,B27,B28,B29,B30,B31  *
    1498                    ;*   Regs Used         : A0,A1,A2,A3,A4,A5,A6,A7,A8,A9,A16,A17,A18,A19,A20,   *
    1499                    ;*                           A21,A22,A23,A24,A25,A26,A27,A28,A29,A30,A31,B0,  *
    1500                    ;*                           B1,B2,B3,B4,B5,B6,B7,B8,B9,DP,SP,B16,B17,B18,B19,*
    1501                    ;*                           B20,B21,B22,B23,B24,B25,B26,B27,B28,B29,B30,B31  *
    1502                    ;*   Local Frame Size  : 0 Args + 0 Auto + 4 Save = 4 byte                    *
    1503                    ;******************************************************************************
    1504 0000042c           LCD_FrameSyncLostFix:
    1505                    ;** --------------------------------------------------------------------------*
    1506                            .dwcfi  cfa_offset, 0
    1507                            .dwpsn  file "C:/Users/Raz Aloni/OneDrive/School/EEL4924/DSP/C_Libs/MicCheckPeripherals/src/LC
    1508 0000042c 02180028             MVKL    .S1     0x1e13000,A4      ; [A_S674] |641| 
    1509                            .dwpsn  file "C:/Users/Raz Aloni/OneDrive/School/EEL4924/DSP/C_Libs/MicCheckPeripherals/src/LC
    1510                    $C$DW$129       .dwtag  DW_TAG_TI_branch
    1511                            .dwattr $C$DW$129, DW_AT_low_pc(0x08)
    1512                            .dwattr $C$DW$129, DW_AT_name("RasterDisable")
    1513                            .dwattr $C$DW$129, DW_AT_TI_call
    1514                    
    1515                    
    1516 00000430 0200f0e9             MVKH    .S1     0x1e13000,A4      ; [A_S674] |641| 
    1517 00000438 01bc54f6  ||         STW     .D2T2   B3,*SP++(-8)      ; [B_D64P] |639| 
    1518 00000434 10000013! ||         CALLP   .S2     RasterDisable,B3  ; [B_Sb674] |641| 
    1519                    
    1520                            .dwcfi  cfa_offset, 8
    1521                            .dwcfi  save_reg_to_mem, 19, 0
    1522                            .dwpsn  file "C:/Users/Raz Aloni/OneDrive/School/EEL4924/DSP/C_Libs/MicCheckPeripherals/src/LC
    1523 00000440           $C$RL66:   ; CALLP OCCURS {RasterDisable} {0}  ; [] |641| 
    1524                            .dwpsn  file "C:/Users/Raz Aloni/OneDrive/School/EEL4924/DSP/C_Libs/MicCheckPeripherals/src/LC
    1525                    $C$DW$130       .dwtag  DW_TAG_TI_branch
    1526                            .dwattr $C$DW$130, DW_AT_low_pc(0x00)
    1527                            .dwattr $C$DW$130, DW_AT_name("RasterEnable")
    1528                            .dwattr $C$DW$130, DW_AT_TI_call
    1529                            .dwattr $C$DW$130, DW_AT_TI_return
    1530                    
    1531 00000440 00000010!            CALLRET .S1     RasterEnable      ; [A_S674] |644| 
    1532                            .dwpsn  file "C:/Users/Raz Aloni/OneDrive/School/EEL4924/DSP/C_Libs/MicCheckPeripherals/src/LC
    1533 00000444 01bc52e6             LDW     .D2T2   *++SP(8),B3       ; [B_D64P] |645| 
    1534                            .dwcfi  cfa_offset, 0
    1535                            .dwcfi  restore_reg, 19
    1536                            .dwpsn  file "C:/Users/Raz Aloni/OneDrive/School/EEL4924/DSP/C_Libs/MicCheckPeripherals/src/LC
    1537 00000448 02180028             MVKL    .S1     0x1e13000,A4      ; [A_S674] |644| 
    1538 0000044c 0200f0e8             MVKH    .S1     0x1e13000,A4      ; [A_S674] |644| 
    1539 00000450     2c6e             NOP             2                 ; [A_L674] 
    1540                    $C$RL68:   ; CALL-RETURN OCCURS {RasterEnable} 0  ; [] |644| 
TMS320C6x Assembler PC v8.1.3 Thu Apr 20 05:51:03 2017

Tools Copyright (c) 1996-2015 Texas Instruments Incorporated
LCD.asm                                                              PAGE   29

    1541                            .dwattr $C$DW$128, DW_AT_TI_end_file("C:/Users/Raz Aloni/OneDrive/School/EEL4924/DSP/C_Libs/Mi
    1542                            .dwattr $C$DW$128, DW_AT_TI_end_line(0x285)
    1543                            .dwattr $C$DW$128, DW_AT_TI_end_column(0x01)
    1544                            .dwendentry
    1545                            .dwendtag $C$DW$128
    1546                    
    1547 00000460                   .sect   ".text"
    1548                            .clink
    1549                            .global LCD_DrawRectangle
    1550                    
    1551                    $C$DW$131       .dwtag  DW_TAG_subprogram
    1552                            .dwattr $C$DW$131, DW_AT_name("LCD_DrawRectangle")
    1553                            .dwattr $C$DW$131, DW_AT_low_pc(LCD_DrawRectangle)
    1554                            .dwattr $C$DW$131, DW_AT_high_pc(0x00)
    1555                            .dwattr $C$DW$131, DW_AT_TI_symbol_name("LCD_DrawRectangle")
    1556                            .dwattr $C$DW$131, DW_AT_external
    1557                            .dwattr $C$DW$131, DW_AT_TI_begin_file("C:/Users/Raz Aloni/OneDrive/School/EEL4924/DSP/C_Libs/
    1558                            .dwattr $C$DW$131, DW_AT_TI_begin_line(0x180)
    1559                            .dwattr $C$DW$131, DW_AT_TI_begin_column(0x06)
    1560                            .dwattr $C$DW$131, DW_AT_decl_file("C:/Users/Raz Aloni/OneDrive/School/EEL4924/DSP/C_Libs/MicC
    1561                            .dwattr $C$DW$131, DW_AT_decl_line(0x180)
    1562                            .dwattr $C$DW$131, DW_AT_decl_column(0x06)
    1563                            .dwattr $C$DW$131, DW_AT_TI_max_frame_size(0x00)
    1564                            .dwpsn  file "C:/Users/Raz Aloni/OneDrive/School/EEL4924/DSP/C_Libs/MicCheckPeripherals/src/LC
    1565                    
    1566                            .dwfde $C$DW$CIE, LCD_DrawRectangle
    1567                    $C$DW$132       .dwtag  DW_TAG_formal_parameter
    1568                            .dwattr $C$DW$132, DW_AT_name("color")
    1569                            .dwattr $C$DW$132, DW_AT_TI_symbol_name("color")
    1570                            .dwattr $C$DW$132, DW_AT_type(*$C$DW$T$807)
    1571                            .dwattr $C$DW$132, DW_AT_location[DW_OP_reg4]
    1572                    
    1573                    $C$DW$133       .dwtag  DW_TAG_formal_parameter
    1574                            .dwattr $C$DW$133, DW_AT_name("originX")
    1575                            .dwattr $C$DW$133, DW_AT_TI_symbol_name("originX")
    1576                            .dwattr $C$DW$133, DW_AT_type(*$C$DW$T$184)
    1577                            .dwattr $C$DW$133, DW_AT_location[DW_OP_reg20]
    1578                    
    1579                    $C$DW$134       .dwtag  DW_TAG_formal_parameter
    1580                            .dwattr $C$DW$134, DW_AT_name("originY")
    1581                            .dwattr $C$DW$134, DW_AT_TI_symbol_name("originY")
    1582                            .dwattr $C$DW$134, DW_AT_type(*$C$DW$T$184)
    1583                            .dwattr $C$DW$134, DW_AT_location[DW_OP_reg6]
    1584                    
    1585                    $C$DW$135       .dwtag  DW_TAG_formal_parameter
    1586                            .dwattr $C$DW$135, DW_AT_name("width")
    1587                            .dwattr $C$DW$135, DW_AT_TI_symbol_name("width")
    1588                            .dwattr $C$DW$135, DW_AT_type(*$C$DW$T$184)
    1589                            .dwattr $C$DW$135, DW_AT_location[DW_OP_reg22]
    1590                    
    1591                    $C$DW$136       .dwtag  DW_TAG_formal_parameter
    1592                            .dwattr $C$DW$136, DW_AT_name("height")
    1593                            .dwattr $C$DW$136, DW_AT_TI_symbol_name("height")
    1594                            .dwattr $C$DW$136, DW_AT_type(*$C$DW$T$184)
    1595                            .dwattr $C$DW$136, DW_AT_location[DW_OP_reg8]
TMS320C6x Assembler PC v8.1.3 Thu Apr 20 05:51:03 2017

Tools Copyright (c) 1996-2015 Texas Instruments Incorporated
LCD.asm                                                              PAGE   30

    1596                    
    1597                    
    1598                    ;******************************************************************************
    1599                    ;* FUNCTION NAME: LCD_DrawRectangle                                           *
    1600                    ;*                                                                            *
    1601                    ;*   Regs Modified     : A0,A1,A2,A3,A4,A5,A6,B0,B4,B5,B6,B7,B8,B9,B16,B17,   *
    1602                    ;*                           B31                                              *
    1603                    ;*   Regs Used         : A0,A1,A2,A3,A4,A5,A6,A8,B0,B3,B4,B5,B6,B7,B8,B9,DP,  *
    1604                    ;*                           B16,B17,B31                                      *
    1605                    ;*   Local Frame Size  : 0 Args + 0 Auto + 0 Save = 0 byte                    *
    1606                    ;******************************************************************************
    1607                    LCD_DrawRectangle:
    1608                    ;** --------------------------------------------------------------------------*
    1609                    $C$DW$137       .dwtag  DW_TAG_variable
    1610                            .dwattr $C$DW$137, DW_AT_name("y")
    1611                            .dwattr $C$DW$137, DW_AT_TI_symbol_name("y")
    1612                            .dwattr $C$DW$137, DW_AT_type(*$C$DW$T$10)
    1613                            .dwattr $C$DW$137, DW_AT_location[DW_OP_reg23]
    1614                    
    1615                    $C$DW$138       .dwtag  DW_TAG_variable
    1616                            .dwattr $C$DW$138, DW_AT_name("color")
    1617                            .dwattr $C$DW$138, DW_AT_TI_symbol_name("color")
    1618                            .dwattr $C$DW$138, DW_AT_type(*$C$DW$T$1001)
    1619                            .dwattr $C$DW$138, DW_AT_location[DW_OP_reg21]
    1620                    
    1621                    $C$DW$139       .dwtag  DW_TAG_variable
    1622                            .dwattr $C$DW$139, DW_AT_name("originX")
    1623                            .dwattr $C$DW$139, DW_AT_TI_symbol_name("originX")
    1624                            .dwattr $C$DW$139, DW_AT_type(*$C$DW$T$1005)
    1625                            .dwattr $C$DW$139, DW_AT_location[DW_OP_reg24]
    1626                    
    1627                    $C$DW$140       .dwtag  DW_TAG_variable
    1628                            .dwattr $C$DW$140, DW_AT_name("width")
    1629                            .dwattr $C$DW$140, DW_AT_TI_symbol_name("width")
    1630                            .dwattr $C$DW$140, DW_AT_type(*$C$DW$T$1005)
    1631                            .dwattr $C$DW$140, DW_AT_location[DW_OP_reg0]
    1632                    
    1633                            .dwcfi  cfa_offset, 0
    1634                    
    1635 00000460     c251             ADD     .L2     B6,B4,B5          ; [B_L674] |387| 
    1636 00000468 02990079  ||         ADD     .L1     A8,A6,A5          ; [A_L674] |387| 
    1637 00000464 0180f029  ||         MVK     .S1     480,A3            ; [A_S674] |387| 
    1638 00000462     1356  ||         MV      .D1X    B6,A0             ; [A_D64P] |385| 
    1639 0000046c     064f  ||         MV      .S2     B4,B8             ; [B_Sb674] |385| 
    1640 0000046e     f357  ||         MV      .D2X    A6,B7             ; [B_D64P] |385| 
    1641                    
    1642                            .dwpsn  file "C:/Users/Raz Aloni/OneDrive/School/EEL4924/DSP/C_Libs/MicCheckPeripherals/src/LC
    1643                    
    1644 00000470 c201e02b     [ A0]   MVK     .S2     960,B4            ; [B_Sb674] 
    1645 00000474 01202058  ||         ADD     .L1     1,A8,A2           ; [A_L674] |397| 
    1646                    
    1647                            .dwpsn  file "C:/Users/Raz Aloni/OneDrive/School/EEL4924/DSP/C_Libs/MicCheckPeripherals/src/LC
    1648                    
    1649 00000478 01947bf9             CMPGTU  .L1X    B5,A3,A3          ; [A_L674] |387| 
    1650 00000480 0280882b  ||         MVK     .S2     272,B5            ; [B_Sb674] |387| 
TMS320C6x Assembler PC v8.1.3 Thu Apr 20 05:51:03 2017

Tools Copyright (c) 1996-2015 Texas Instruments Incorporated
LCD.asm                                                              PAGE   31

    1651 00000484 c81c8572  || [ A0]   MPYLI   .M2     B4,B7,B17:B16     ; [B_M674] 
    1652                    
    1653 00000488 0294bbfa             CMPGTU  .L2X    A5,B5,B5          ; [B_L674] |387| 
    1654 0000048c     b5a9             OR      .L2X    A3,B5,B0          ; [B_L674] 
    1655                            .dwpsn  file "C:/Users/Raz Aloni/OneDrive/School/EEL4924/DSP/C_Libs/MicCheckPeripherals/src/LC
    1656                    
    1657 00000490 206da120     [ B0]   BNOP            $C$L18,5          ; [] |387| 
    1658 0000048e     b247  ||         MV      .L2X    A4,B5             ; [B_L674] |385| 
    1659                    
    1660                            .dwpsn  file "C:/Users/Raz Aloni/OneDrive/School/EEL4924/DSP/C_Libs/MicCheckPeripherals/src/LC
    1661                               ; BRANCHCC OCCURS {$C$L18}        ; [] |387| 
    1662                    ;** --------------------------------------------------------------------------*
    1663                            .dwpsn  file "C:/Users/Raz Aloni/OneDrive/School/EEL4924/DSP/C_Libs/MicCheckPeripherals/src/LC
    1664                    
    1665 00000494 d0001511     [!A0]   B       .S1     $C$L17            ; [A_S674] |399| 
    1666 000004a4 c300006f! || [ A0]   LDW     .D2T2   *+DP(FrameBufferData),B6 ; [B_D64P] 
    1667 000004a0 d10be059  || [!A0]   SUB     .L1     A2,1,A2           ; [A_L674] |397| 
    1668 000004a8 d0802040  || [!A0]   MVK     .D1     1,A1              ; [A_D64P] nullify predicate
    1669 00000498 0f8059a3  ||         SHRU    .S2X    A0,2,B31          ; [B_Sb674] 
    1670                    
    1671 000004ac c1800828     [ A0]   MVK     .S1     16,A3             ; [A_S674] 
    1672 000004b0 c08c0bf8     [ A0]   CMPLTU  .L1     A0,A3,A1          ; [A_L674] 
    1673                    ;** --------------------------------------------------------------------------*
    1674                    ;**   BEGIN LOOP $C$L5
    1675                    ;** --------------------------------------------------------------------------*
    1676 000004b4           $C$L5:    
    1677                    
    1678 000004b4 90104121     [!A1]   BNOP            $C$L9,2           ; [] 
    1679 000004b8 c2400fda  || [ A0]   MV      .L2     B16,B4            ; [B_L674] 
    1680                    
    1681                            .dwpsn  file "C:/Users/Raz Aloni/OneDrive/School/EEL4924/DSP/C_Libs/MicCheckPeripherals/src/LC
    1682                               ; BRANCHCC OCCURS {$C$L17}        ; [] |399| 
    1683                    ;** --------------------------------------------------------------------------*
    1684 000004bc 8210c07a     [ A1]   ADD     .L2     B6,B4,B4          ; [B_L674] 
    1685 000004c0 83001fda     [ A1]   MV      .L2X    A0,B6             ; [B_L674] 
    1686 000004c4 00000000             NOP             1                 ; [A_L674] 
    1687                               ; BRANCHCC OCCURS {$C$L9}         ; [] 
    1688                    ;** --------------------------------------------------------------------------*
    1689 000004c8 869803a2     [ A1]   MVC     .S2     B6,ILC            ; [B_Sb674] 
    1690 000004cc     4c6e             NOP             3                 ; [A_L674] 
    1691                    ;*----------------------------------------------------------------------------*
    1692                    ;*   SOFTWARE PIPELINE INFORMATION
    1693                    ;*
    1694                    ;*      Loop found in file               : C:/Users/Raz Aloni/OneDrive/School/EEL4924/DSP/C_Libs/MicCh
    1695                    ;*      Loop source line                 : 399
    1696                    ;*      Loop opening brace source line   : 400
    1697                    ;*      Loop closing brace source line   : 402
    1698                    ;*      Known Minimum Trip Count         : 1                    
    1699                    ;*      Known Maximum Trip Count         : 15                    
    1700                    ;*      Known Max Trip Count Factor      : 1
    1701                    ;*      Loop Carried Dependency Bound(^) : 0
    1702                    ;*      Unpartitioned Resource Bound     : 1
    1703                    ;*      Partitioned Resource Bound(*)    : 1
    1704                    ;*      Resource Partition:
    1705                    ;*                                A-side   B-side
TMS320C6x Assembler PC v8.1.3 Thu Apr 20 05:51:03 2017

Tools Copyright (c) 1996-2015 Texas Instruments Incorporated
LCD.asm                                                              PAGE   32

    1706                    ;*      .L units                     0        0     
    1707                    ;*      .S units                     0        0     
    1708                    ;*      .D units                     0        1*    
    1709                    ;*      .M units                     0        0     
    1710                    ;*      .X cross paths               0        0     
    1711                    ;*      .T address paths             0        1     
    1712                    ;*      Logical  ops (.LS)           0        0     (.L or .S unit)
    1713                    ;*      Addition ops (.LSD)          0        0     (.L or .S or .D unit)
    1714                    ;*      Bound(.L .S .LS)             0        0     
    1715                    ;*      Bound(.L .S .D .LS .LSD)     0        1*    
    1716                    ;*
    1717                    ;*      Searching for software pipeline schedule at ...
    1718                    ;*         ii = 1  Schedule found with 2 iterations in parallel
    1719                    ;*      Done
    1720                    ;*
    1721                    ;*      Loop will be splooped
    1722                    ;*      Collapsed epilog stages       : 0
    1723                    ;*      Collapsed prolog stages       : 0
    1724                    ;*      Minimum required memory pad   : 0 bytes
    1725                    ;*
    1726                    ;*      Minimum safe trip count       : 1
    1727                    ;*
    1728                    ;*      (Performance) If you know that this loop will always execute at a multiple of <2> and at least
    1729                    ;*----------------------------------------------------------------------------*
    1730 000004ce           $C$L6:    ; PIPED LOOP PROLOG
    1731                    
    1732 000004ce     0c66             SPLOOP          1                 ;2 ; [A_L674] (P) 
    1733 000004d0 02111a42  ||         ADDAH   .D2     B4,B8,B4          ; [B_D64P] 
    1734                    
    1735                    ;** --------------------------------------------------------------------------*
    1736 000004d4           $C$L7:    ; PIPED LOOP KERNEL
    1737                            .dwpsn  file "C:/Users/Raz Aloni/OneDrive/School/EEL4924/DSP/C_Libs/MicCheckPeripherals/src/LC
    1738 000004d4     1e55             STH     .D2T2   B5,*B4++(2)       ; [B_D64P] |401| (P) <0,0> 
    1739 000004d6     1c66             SPKERNEL        0,0               ; [] 
    1740                    ;** --------------------------------------------------------------------------*
    1741 000004d8           $C$L8:    ; PIPED LOOP EPILOG
    1742                            .dwpsn  file "C:/Users/Raz Aloni/OneDrive/School/EEL4924/DSP/C_Libs/MicCheckPeripherals/src/LC
    1743 000004d8 0032a120             BNOP            $C$L16,5          ; [] |399| 
    1744                               ; BRANCH OCCURS {$C$L16}          ; [] |399| 
    1745                    ;** --------------------------------------------------------------------------*
    1746 000004e0           $C$L9:    
    1747                    
    1748 000004e0 04ff805b             SUB     .L2     B31,4,B9          ; [B_L674] 
    1749 000004ec     d2c6  ||         MV      .L1X    B5,A6             ; [A_L674] 
    1750 000004e8 008067a1  ||         AND     .S1     3,A0,A1           ; [A_S674] 
    1751 000004e4 02111a43  ||         ADDAH   .D2     B4,B8,B4          ; [B_D64P] 
    1752                    
    1753 000004ee     72c6             MV      .L1X    B5,A3             ; [A_L674] 
    1754 000004f0 06a403a2             MVC     .S2     B9,ILC            ; [B_Sb674] 
    1755                    ;*----------------------------------------------------------------------------*
    1756                    ;*   SOFTWARE PIPELINE INFORMATION
    1757                    ;*
    1758                    ;*      Loop found in file               : C:/Users/Raz Aloni/OneDrive/School/EEL4924/DSP/C_Libs/MicCh
    1759                    ;*      Loop source line                 : 399
    1760                    ;*      Loop opening brace source line   : 400
TMS320C6x Assembler PC v8.1.3 Thu Apr 20 05:51:03 2017

Tools Copyright (c) 1996-2015 Texas Instruments Incorporated
LCD.asm                                                              PAGE   33

    1761                    ;*      Loop closing brace source line   : 402
    1762                    ;*      Loop Unroll Multiple             : 4x
    1763                    ;*      Known Minimum Trip Count         : 4                    
    1764                    ;*      Known Maximum Trip Count         : 16383                    
    1765                    ;*      Known Max Trip Count Factor      : 1
    1766                    ;*      Loop Carried Dependency Bound(^) : 0
    1767                    ;*      Unpartitioned Resource Bound     : 1
    1768                    ;*      Partitioned Resource Bound(*)    : 1
    1769                    ;*      Resource Partition:
    1770                    ;*                                A-side   B-side
    1771                    ;*      .L units                     0        0     
    1772                    ;*      .S units                     0        0     
    1773                    ;*      .D units                     1*       0     
    1774                    ;*      .M units                     0        0     
    1775                    ;*      .X cross paths               0        0     
    1776                    ;*      .T address paths             1        0     
    1777                    ;*      Logical  ops (.LS)           0        0     (.L or .S unit)
    1778                    ;*      Addition ops (.LSD)          2        0     (.L or .S or .D unit)
    1779                    ;*      Bound(.L .S .LS)             0        0     
    1780                    ;*      Bound(.L .S .D .LS .LSD)     1*       0     
    1781                    ;*
    1782                    ;*      Searching for software pipeline schedule at ...
    1783                    ;*         ii = 1  Schedule found with 2 iterations in parallel
    1784                    ;*      Done
    1785                    ;*
    1786                    ;*      Loop will be splooped
    1787                    ;*      Collapsed epilog stages       : 0
    1788                    ;*      Collapsed prolog stages       : 0
    1789                    ;*      Minimum required memory pad   : 0 bytes
    1790                    ;*
    1791                    ;*      Minimum safe trip count       : 1 (after unrolling)
    1792                    ;*
    1793                    ;*      (Performance) If you know that this loop will always execute at a multiple of <8> and at least
    1794                    ;*----------------------------------------------------------------------------*
    1795 000004f4           $C$L10:    ; PIPED LOOP PROLOG
    1796                    
    1797 000004f4     0c67             SPLOOPD         1                 ;2 ; [A_L674] (P) 
    1798 000004f6     d256  ||         MV      .D1X    B4,A6             ; [A_D64P] Define a twin register
    1799 000004f8 01986ff0  ||         PACK2   .S1     A3,A6,A3          ; [A_S674] 
    1800                    
    1801                    ;** --------------------------------------------------------------------------*
    1802 00000500           $C$L11:    ; PIPED LOOP KERNEL
    1803                            .dwpsn  file "C:/Users/Raz Aloni/OneDrive/School/EEL4924/DSP/C_Libs/MicCheckPeripherals/src/LC
    1804                    
    1805 00000500     6c66             SPMASK                            ; [] 
    1806 00000502     d336  ||^        ADD     .D1X    B6,A6,A6          ; [A_D64P] 
    1807 00000504     81c6  ||         MV      .L1     A3,A4             ; [A_L674] |401| (P) <0,0> 
    1808 00000506     a1ce  ||         MV      .S1     A3,A5             ; [A_S674] |401| (P) <0,0> 
    1809                    
    1810 00000508     1c66             SPKERNEL        0,0               ; [] 
    1811 0000050a     0d54  ||         STNDW   .D1T1   A5:A4,*A6++(8)    ; [A_D64P] |401| <0,1> 
    1812                    
    1813                    ;** --------------------------------------------------------------------------*
    1814 0000050c           $C$L12:    ; PIPED LOOP EPILOG
    1815 0000050c 9012a120     [!A1]   BNOP            $C$L16,5          ; [] 
TMS320C6x Assembler PC v8.1.3 Thu Apr 20 05:51:03 2017

Tools Copyright (c) 1996-2015 Texas Instruments Incorporated
LCD.asm                                                              PAGE   34

    1816                               ; BRANCHCC OCCURS {$C$L16}        ; [] 
    1817                    ;** --------------------------------------------------------------------------*
    1818                    ; Peeled loop iterations for unrolled loop:
    1819 00000510     90c7             MV      .L2X    A1,B4             ; [B_L674] 
    1820 00000512     da6f             MVC     .S2     B4,ILC            ; [B_Sb674] 
    1821 00000514     4c6e             NOP             3                 ; [A_L674] 
    1822                    ;*----------------------------------------------------------------------------*
    1823                    ;*   SOFTWARE PIPELINE INFORMATION
    1824                    ;*
    1825                    ;*      Loop found in file               : C:/Users/Raz Aloni/OneDrive/School/EEL4924/DSP/C_Libs/MicCh
    1826                    ;*      Loop source line                 : 399
    1827                    ;*      Loop opening brace source line   : 400
    1828                    ;*      Loop closing brace source line   : 402
    1829                    ;*      Known Minimum Trip Count         : 1                    
    1830                    ;*      Known Maximum Trip Count         : 3                    
    1831                    ;*      Known Max Trip Count Factor      : 1
    1832                    ;*      Loop Carried Dependency Bound(^) : 0
    1833                    ;*      Unpartitioned Resource Bound     : 1
    1834                    ;*      Partitioned Resource Bound(*)    : 1
    1835                    ;*      Resource Partition:
    1836                    ;*                                A-side   B-side
    1837                    ;*      .L units                     0        0     
    1838                    ;*      .S units                     0        0     
    1839                    ;*      .D units                     0        1*    
    1840                    ;*      .M units                     0        0     
    1841                    ;*      .X cross paths               0        0     
    1842                    ;*      .T address paths             0        1     
    1843                    ;*      Logical  ops (.LS)           0        0     (.L or .S unit)
    1844                    ;*      Addition ops (.LSD)          0        0     (.L or .S or .D unit)
    1845                    ;*      Bound(.L .S .LS)             0        0     
    1846                    ;*      Bound(.L .S .D .LS .LSD)     0        1*    
    1847                    ;*
    1848                    ;*      Searching for software pipeline schedule at ...
    1849                    ;*         ii = 1  Schedule found with 2 iterations in parallel
    1850                    ;*      Done
    1851                    ;*
    1852                    ;*      Loop will be splooped
    1853                    ;*      Collapsed epilog stages       : 0
    1854                    ;*      Collapsed prolog stages       : 0
    1855                    ;*      Minimum required memory pad   : 0 bytes
    1856                    ;*
    1857                    ;*      Minimum safe trip count       : 1
    1858                    ;*----------------------------------------------------------------------------*
    1859 00000516           $C$L13:    ; PIPED LOOP PROLOG
    1860                    
    1861 00000516     0c66             SPLOOP          1                 ;2 ; [A_L674] (P) 
    1862 00000518     9347  ||         MV      .L2X    A6,B4             ; [B_L674] 
    1863                    
    1864                    ;** --------------------------------------------------------------------------*
    1865 0000051a           $C$L14:    ; PIPED LOOP KERNEL
    1866 0000051a     1e55             STH     .D2T2   B5,*B4++(2)       ; [B_D64P] |401| (P) <0,0> 
    1867 00000520 08034000             SPKERNEL        1,0               ; [] 
    1868                    ;** --------------------------------------------------------------------------*
    1869 00000524           $C$L15:    ; PIPED LOOP EPILOG
    1870                    ;** --------------------------------------------------------------------------*
TMS320C6x Assembler PC v8.1.3 Thu Apr 20 05:51:03 2017

Tools Copyright (c) 1996-2015 Texas Instruments Incorporated
LCD.asm                                                              PAGE   35

    1871 00000524           $C$L16:    
    1872                            .dwpsn  file "C:/Users/Raz Aloni/OneDrive/School/EEL4924/DSP/C_Libs/MicCheckPeripherals/src/LC
    1873 00000524 010be058             SUB     .L1     A2,1,A2           ; [A_L674] |397| 
    1874                    ;** --------------------------------------------------------------------------*
    1875 00000528           $C$L17:    
    1876                    
    1877 00000528 b004a359     [!A2]   MVK     .L1     1,A0              ; [A_L674] nullify predicate
    1878 0000052c affff291  || [ A2]   B       .S1     $C$L5             ; [A_S674] |397| 
    1879 00000530 039c205b  ||         ADD     .L2     1,B7,B7           ; [B_L674] |397| 
    1880                    
    1881 0000054c c201e02a     [ A0]   MVK     .S2     960,B4            ; [B_Sb674] 
    1882 00000540 c300006f! || [ A0]   LDW     .D2T2   *+DP(FrameBufferData),B6 ; [B_D64P] 
    1883 00000544 c1800829  || [ A0]   MVK     .S1     16,A3             ; [A_S674] 
    1884 00000548 d10be059  || [!A0]   SUB     .L1     A2,1,A2           ; [A_L674] |397| 
    1885 0000053c d0802041  || [!A0]   MVK     .D1     1,A1              ; [A_D64P] nullify predicate
    1886                    
    1887 00000550 c81c8573     [ A0]   MPYLI   .M2     B4,B7,B17:B16     ; [B_M674] 
    1888 00000554 c08c0bf8  || [ A0]   CMPLTU  .L1     A0,A3,A1          ; [A_L674] 
    1889                    
    1890                            .dwpsn  file "C:/Users/Raz Aloni/OneDrive/School/EEL4924/DSP/C_Libs/MicCheckPeripherals/src/LC
    1891 00000558     5d3a     [!A0]   BNOP            $C$L17,2          ; [] |399| 
    1892                            .dwpsn  file "C:/Users/Raz Aloni/OneDrive/School/EEL4924/DSP/C_Libs/MicCheckPeripherals/src/LC
    1893                               ; BRANCHCC OCCURS {$C$L5}         ; [] |397| 
    1894                    ;** --------------------------------------------------------------------------*
    1895 0000055a           $C$L18:    
    1896                            .dwpsn  file "C:/Users/Raz Aloni/OneDrive/School/EEL4924/DSP/C_Libs/MicCheckPeripherals/src/LC
    1897                    $C$DW$141       .dwtag  DW_TAG_TI_branch
    1898                            .dwattr $C$DW$141, DW_AT_low_pc(0x00)
    1899                            .dwattr $C$DW$141, DW_AT_TI_return
    1900                    
    1901 0000055a     a1ef             RETNOP          B3,5              ; [] |404| 
    1902                               ; BRANCH OCCURS {B3}              ; [] |404| 
    1903                            .dwattr $C$DW$131, DW_AT_TI_end_file("C:/Users/Raz Aloni/OneDrive/School/EEL4924/DSP/C_Libs/Mi
    1904                            .dwattr $C$DW$131, DW_AT_TI_end_line(0x194)
    1905                            .dwattr $C$DW$131, DW_AT_TI_end_column(0x01)
    1906                            .dwendentry
    1907                            .dwendtag $C$DW$131
    1908                    
    1909 00000560                   .sect   ".text"
    1910                            .clink
    1911                            .global LCD_DrawImageAlpha
    1912                    
    1913                    $C$DW$142       .dwtag  DW_TAG_subprogram
    1914                            .dwattr $C$DW$142, DW_AT_name("LCD_DrawImageAlpha")
    1915                            .dwattr $C$DW$142, DW_AT_low_pc(LCD_DrawImageAlpha)
    1916                            .dwattr $C$DW$142, DW_AT_high_pc(0x00)
    1917                            .dwattr $C$DW$142, DW_AT_TI_symbol_name("LCD_DrawImageAlpha")
    1918                            .dwattr $C$DW$142, DW_AT_external
    1919                            .dwattr $C$DW$142, DW_AT_TI_begin_file("C:/Users/Raz Aloni/OneDrive/School/EEL4924/DSP/C_Libs/
    1920                            .dwattr $C$DW$142, DW_AT_TI_begin_line(0x1bf)
    1921                            .dwattr $C$DW$142, DW_AT_TI_begin_column(0x06)
    1922                            .dwattr $C$DW$142, DW_AT_decl_file("C:/Users/Raz Aloni/OneDrive/School/EEL4924/DSP/C_Libs/MicC
    1923                            .dwattr $C$DW$142, DW_AT_decl_line(0x1bf)
    1924                            .dwattr $C$DW$142, DW_AT_decl_column(0x06)
    1925                            .dwattr $C$DW$142, DW_AT_TI_max_frame_size(0x00)
TMS320C6x Assembler PC v8.1.3 Thu Apr 20 05:51:03 2017

Tools Copyright (c) 1996-2015 Texas Instruments Incorporated
LCD.asm                                                              PAGE   36

    1926                            .dwpsn  file "C:/Users/Raz Aloni/OneDrive/School/EEL4924/DSP/C_Libs/MicCheckPeripherals/src/LC
    1927                    
    1928                            .dwfde $C$DW$CIE, LCD_DrawImageAlpha
    1929                    $C$DW$143       .dwtag  DW_TAG_formal_parameter
    1930                            .dwattr $C$DW$143, DW_AT_name("image")
    1931                            .dwattr $C$DW$143, DW_AT_TI_symbol_name("image")
    1932                            .dwattr $C$DW$143, DW_AT_type(*$C$DW$T$809)
    1933                            .dwattr $C$DW$143, DW_AT_location[DW_OP_reg4]
    1934                    
    1935                    $C$DW$144       .dwtag  DW_TAG_formal_parameter
    1936                            .dwattr $C$DW$144, DW_AT_name("alpha")
    1937                            .dwattr $C$DW$144, DW_AT_TI_symbol_name("alpha")
    1938                            .dwattr $C$DW$144, DW_AT_type(*$C$DW$T$807)
    1939                            .dwattr $C$DW$144, DW_AT_location[DW_OP_reg20]
    1940                    
    1941                    $C$DW$145       .dwtag  DW_TAG_formal_parameter
    1942                            .dwattr $C$DW$145, DW_AT_name("originX")
    1943                            .dwattr $C$DW$145, DW_AT_TI_symbol_name("originX")
    1944                            .dwattr $C$DW$145, DW_AT_type(*$C$DW$T$184)
    1945                            .dwattr $C$DW$145, DW_AT_location[DW_OP_reg6]
    1946                    
    1947                    $C$DW$146       .dwtag  DW_TAG_formal_parameter
    1948                            .dwattr $C$DW$146, DW_AT_name("originY")
    1949                            .dwattr $C$DW$146, DW_AT_TI_symbol_name("originY")
    1950                            .dwattr $C$DW$146, DW_AT_type(*$C$DW$T$184)
    1951                            .dwattr $C$DW$146, DW_AT_location[DW_OP_reg22]
    1952                    
    1953                    $C$DW$147       .dwtag  DW_TAG_formal_parameter
    1954                            .dwattr $C$DW$147, DW_AT_name("width")
    1955                            .dwattr $C$DW$147, DW_AT_TI_symbol_name("width")
    1956                            .dwattr $C$DW$147, DW_AT_type(*$C$DW$T$184)
    1957                            .dwattr $C$DW$147, DW_AT_location[DW_OP_reg8]
    1958                    
    1959                    $C$DW$148       .dwtag  DW_TAG_formal_parameter
    1960                            .dwattr $C$DW$148, DW_AT_name("height")
    1961                            .dwattr $C$DW$148, DW_AT_TI_symbol_name("height")
    1962                            .dwattr $C$DW$148, DW_AT_type(*$C$DW$T$184)
    1963                            .dwattr $C$DW$148, DW_AT_location[DW_OP_reg24]
    1964                    
    1965                    
    1966                    ;******************************************************************************
    1967                    ;* FUNCTION NAME: LCD_DrawImageAlpha                                          *
    1968                    ;*                                                                            *
    1969                    ;*   Regs Modified     : A0,A3,A5,A7,A8,A9,A16,B0,B1,B2,B5,B6,B7              *
    1970                    ;*   Regs Used         : A0,A3,A4,A5,A6,A7,A8,A9,A16,B0,B1,B2,B3,B4,B5,B6,B7, *
    1971                    ;*                           B8,DP                                            *
    1972                    ;*   Local Frame Size  : 0 Args + 0 Auto + 0 Save = 0 byte                    *
    1973                    ;******************************************************************************
    1974                    LCD_DrawImageAlpha:
    1975                    ;** --------------------------------------------------------------------------*
    1976                    $C$DW$149       .dwtag  DW_TAG_variable
    1977                            .dwattr $C$DW$149, DW_AT_name("width")
    1978                            .dwattr $C$DW$149, DW_AT_TI_symbol_name("width")
    1979                            .dwattr $C$DW$149, DW_AT_type(*$C$DW$T$1005)
    1980                            .dwattr $C$DW$149, DW_AT_location[DW_OP_reg18]
TMS320C6x Assembler PC v8.1.3 Thu Apr 20 05:51:03 2017

Tools Copyright (c) 1996-2015 Texas Instruments Incorporated
LCD.asm                                                              PAGE   37

    1981                    
    1982                    $C$DW$150       .dwtag  DW_TAG_variable
    1983                            .dwattr $C$DW$150, DW_AT_name("originX")
    1984                            .dwattr $C$DW$150, DW_AT_TI_symbol_name("originX")
    1985                            .dwattr $C$DW$150, DW_AT_type(*$C$DW$T$1005)
    1986                            .dwattr $C$DW$150, DW_AT_location[DW_OP_reg6]
    1987                    
    1988                    $C$DW$151       .dwtag  DW_TAG_variable
    1989                            .dwattr $C$DW$151, DW_AT_name("alpha")
    1990                            .dwattr $C$DW$151, DW_AT_TI_symbol_name("alpha")
    1991                            .dwattr $C$DW$151, DW_AT_type(*$C$DW$T$1001)
    1992                            .dwattr $C$DW$151, DW_AT_location[DW_OP_reg20]
    1993                    
    1994                    $C$DW$152       .dwtag  DW_TAG_variable
    1995                            .dwattr $C$DW$152, DW_AT_name("image")
    1996                            .dwattr $C$DW$152, DW_AT_TI_symbol_name("image")
    1997                            .dwattr $C$DW$152, DW_AT_type(*$C$DW$T$1003)
    1998                            .dwattr $C$DW$152, DW_AT_location[DW_OP_reg4]
    1999                    
    2000                    $C$DW$153       .dwtag  DW_TAG_variable
    2001                            .dwattr $C$DW$153, DW_AT_name("i")
    2002                            .dwattr $C$DW$153, DW_AT_TI_symbol_name("i")
    2003                            .dwattr $C$DW$153, DW_AT_type(*$C$DW$T$150)
    2004                            .dwattr $C$DW$153, DW_AT_location[DW_OP_reg5]
    2005                    
    2006                    $C$DW$154       .dwtag  DW_TAG_variable
    2007                            .dwattr $C$DW$154, DW_AT_name("y")
    2008                            .dwattr $C$DW$154, DW_AT_TI_symbol_name("y")
    2009                            .dwattr $C$DW$154, DW_AT_type(*$C$DW$T$10)
    2010                            .dwattr $C$DW$154, DW_AT_location[DW_OP_reg7]
    2011                    
    2012                    $C$DW$155       .dwtag  DW_TAG_variable
    2013                            .dwattr $C$DW$155, DW_AT_name("x")
    2014                            .dwattr $C$DW$155, DW_AT_TI_symbol_name("x")
    2015                            .dwattr $C$DW$155, DW_AT_type(*$C$DW$T$10)
    2016                            .dwattr $C$DW$155, DW_AT_location[DW_OP_reg3]
    2017                    
    2018                            .dwcfi  cfa_offset, 0
    2019                    
    2020 00000560 01a0c841             ADD     .D1     A8,A6,A3          ; [A_D64P] |450| 
    2021 00000564 0280f029  ||         MVK     .S1     480,A5            ; [A_S674] |450| 
    2022 00000568 0299007b  ||         ADD     .L2     B8,B6,B5          ; [B_L674] |450| 
    2023 0000056c 00203059  ||         ADD     .L1X    1,B8,A0           ; [A_L674] |462| 
    2024 00000570 012016a2  ||         MV      .S2X    A8,B2             ; [B_Sb674] |448| 
    2025                    
    2026                            .dwpsn  file "C:/Users/Raz Aloni/OneDrive/School/EEL4924/DSP/C_Libs/MicCheckPeripherals/src/LC
    2027                    
    2028 00000574 03808829             MVK     .S1     272,A7            ; [A_S674] |450| 
    2029 00000578 019469f8  ||         CMPGTU  .L1     A3,A5,A3          ; [A_L674] |450| 
    2030                    
    2031                            .dwpsn  file "C:/Users/Raz Aloni/OneDrive/School/EEL4924/DSP/C_Libs/MicCheckPeripherals/src/LC
    2032 0000057c 0280a358             ZERO    .L1     A5                ; [A_L674] |460| 
    2033                            .dwpsn  file "C:/Users/Raz Aloni/OneDrive/School/EEL4924/DSP/C_Libs/MicCheckPeripherals/src/LC
    2034                    
    2035 00000580 029cb9fb             CMPGTU  .L2X    B5,A7,B5          ; [B_L674] |450| 
TMS320C6x Assembler PC v8.1.3 Thu Apr 20 05:51:03 2017

Tools Copyright (c) 1996-2015 Texas Instruments Incorporated
LCD.asm                                                              PAGE   38

    2036 00000584     f346  ||         MV      .L1X    B6,A7             ; [A_L674] |448| 
    2037                    
    2038 00000586     b5a9             OR      .L2X    A3,B5,B0          ; [B_L674] 
    2039                            .dwpsn  file "C:/Users/Raz Aloni/OneDrive/School/EEL4924/DSP/C_Libs/MicCheckPeripherals/src/LC
    2040 00000588 204ea120     [ B0]   BNOP            $C$L22,5          ; [] |450| 
    2041                               ; BRANCHCC OCCURS {$C$L22}        ; [] |450| 
    2042                    ;** --------------------------------------------------------------------------*
    2043                            .dwpsn  file "C:/Users/Raz Aloni/OneDrive/School/EEL4924/DSP/C_Libs/MicCheckPeripherals/src/LC
    2044                    
    2045 0000058c 703a2121     [!B2]   BNOP            $C$L21,1          ; [] |464| 
    2046 00000590 60880fdb  || [ B2]   MV      .L2     B2,B1             ; [B_L674] 
    2047 00000594 6417e058  || [ B2]   SUB     .L1     A5,1,A8           ; [A_L674] 
    2048                    
    2049 00000598 64911a40     [ B2]   ADDAH   .D1     A4,A8,A9          ; [A_D64P] 
    2050 000005a0 6400006c!    [ B2]   LDW     .D2T1   *+DP(FrameBufferData),A8 ; [B_D64P] 
    2051                            .dwpsn  file "C:/Users/Raz Aloni/OneDrive/School/EEL4924/DSP/C_Libs/MicCheckPeripherals/src/LC
    2052 000005a4 01980fd8             MV      .L1     A6,A3             ; [A_L674] |464| 
    2053                    ;** --------------------------------------------------------------------------*
    2054                    ;**   BEGIN LOOP $C$L19
    2055                    ;** --------------------------------------------------------------------------*
    2056 000005a8           $C$L19:    
    2057 000005a8 00000000             NOP             1                 ; [A_L674] 
    2058                            .dwpsn  file "C:/Users/Raz Aloni/OneDrive/School/EEL4924/DSP/C_Libs/MicCheckPeripherals/src/LC
    2059                               ; BRANCHCC OCCURS {$C$L21}        ; [] |464| 
    2060                    ;*----------------------------------------------------------------------------*
    2061                    ;*   SOFTWARE PIPELINE INFORMATION
    2062                    ;*
    2063                    ;*      Loop found in file               : C:/Users/Raz Aloni/OneDrive/School/EEL4924/DSP/C_Libs/MicCh
    2064                    ;*      Loop source line                 : 464
    2065                    ;*      Loop opening brace source line   : 465
    2066                    ;*      Loop closing brace source line   : 472
    2067                    ;*      Known Minimum Trip Count         : 1                    
    2068                    ;*      Known Maximum Trip Count         : 65535                    
    2069                    ;*      Known Max Trip Count Factor      : 1
    2070                    ;*      Loop Carried Dependency Bound(^) : 14
    2071                    ;*      Unpartitioned Resource Bound     : 3
    2072                    ;*      Partitioned Resource Bound(*)    : 3
    2073                    ;*      Resource Partition:
    2074                    ;*                                A-side   B-side
    2075                    ;*      .L units                     0        1     
    2076                    ;*      .S units                     3*       2     
    2077                    ;*      .D units                     1        3*    
    2078                    ;*      .M units                     0        0     
    2079                    ;*      .X cross paths               1        1     
    2080                    ;*      .T address paths             2        1     
    2081                    ;*      Logical  ops (.LS)           0        0     (.L or .S unit)
    2082                    ;*      Addition ops (.LSD)          2        3     (.L or .S or .D unit)
    2083                    ;*      Bound(.L .S .LS)             2        2     
    2084                    ;*      Bound(.L .S .D .LS .LSD)     2        3*    
    2085                    ;*
    2086                    ;*      Searching for software pipeline schedule at ...
    2087                    ;*         ii = 14 Did not find schedule
    2088                    ;*      Disqualified loop: Did not find schedule
    2089                    ;*----------------------------------------------------------------------------*
    2090 000005ac           $C$L20:    
TMS320C6x Assembler PC v8.1.3 Thu Apr 20 05:51:03 2017

Tools Copyright (c) 1996-2015 Texas Instruments Incorporated
LCD.asm                                                              PAGE   39

    2091                            .dwpsn  file "C:/Users/Raz Aloni/OneDrive/School/EEL4924/DSP/C_Libs/MicCheckPeripherals/src/LC
    2092                    
    2093 000005ac 081d4ca1             SHL     .S1     A7,10,A16         ; [A_S674] |470| 
    2094 000005b0 02a41fda  ||         MV      .L2X    A9,B5             ; [B_L674] 
    2095                    
    2096                            .dwpsn  file "C:/Users/Raz Aloni/OneDrive/School/EEL4924/DSP/C_Libs/MicCheckPeripherals/src/LC
    2097 000005b4 03143286             LDHU    .D2T2   *++B5(2),B6       ; [B_D64P] |466| 
    2098                            .dwpsn  file "C:/Users/Raz Aloni/OneDrive/School/EEL4924/DSP/C_Libs/MicCheckPeripherals/src/LC
    2099 000005b8     ec91             SUB     .L2     B1,1,B1           ; [B_L674] |464| 
    2100                            .dwpsn  file "C:/Users/Raz Aloni/OneDrive/School/EEL4924/DSP/C_Libs/MicCheckPeripherals/src/LC
    2101                    
    2102 000005ba     36c6             MV      .L1X    B5,A9             ; [A_L674] |466| 
    2103 000005c0     d7db  ||         SHL     .S2X    A7,6,B5           ; [B_Sb674] |470| 
    2104                    
    2105 000005c2     26d0             ADD     .L1     1,A5,A5           ; [A_L674] |466| 
    2106                            .dwpsn  file "C:/Users/Raz Aloni/OneDrive/School/EEL4924/DSP/C_Libs/MicCheckPeripherals/src/LC
    2107 000005c4 081610f8             SUB     .L1X    A16,B5,A16        ; [A_L674] |470| 
    2108                            .dwpsn  file "C:/Users/Raz Aloni/OneDrive/School/EEL4924/DSP/C_Libs/MicCheckPeripherals/src/LC
    2109                    
    2110 000005cc 0010ca7a             CMPEQ   .L2     B6,B4,B0          ; [B_L674] |466| 
    2111 000005c8 08407a41  ||         ADDAH   .D1     A16,A3,A16        ; [A_D64P] |470| 
    2112                    
    2113                            .dwpsn  file "C:/Users/Raz Aloni/OneDrive/School/EEL4924/DSP/C_Libs/MicCheckPeripherals/src/LC
    2114 000005d0 3390aa06     [!B0]   LDHU    .D1T2   *+A4[A5],B7       ; [A_D64P] |470| 
    2115                            .dwpsn  file "C:/Users/Raz Aloni/OneDrive/School/EEL4924/DSP/C_Libs/MicCheckPeripherals/src/LC
    2116 000005d4 018c2058             ADD     .L1     1,A3,A3           ; [A_L674] |464| 
    2117                            .dwpsn  file "C:/Users/Raz Aloni/OneDrive/School/EEL4924/DSP/C_Libs/MicCheckPeripherals/src/LC
    2118 000005d8 08410078             ADD     .L1     A8,A16,A16        ; [A_L674] |470| 
    2119                            .dwpsn  file "C:/Users/Raz Aloni/OneDrive/School/EEL4924/DSP/C_Libs/MicCheckPeripherals/src/LC
    2120 000005e0 4fe62120     [ B1]   BNOP            $C$L20,1          ; [] |464| 
    2121                            .dwpsn  file "C:/Users/Raz Aloni/OneDrive/School/EEL4924/DSP/C_Libs/MicCheckPeripherals/src/LC
    2122 000005e4 331f100a     [!B0]   EXTU    .S2     B7,24,16,B6       ; [B_Sb674] |470| 
    2123 000005e8 329d09a2     [!B0]   SHRU    .S2     B7,8,B5           ; [B_Sb674] |470| 
    2124 000005ec 3298affa     [!B0]   OR      .L2     B5,B6,B5          ; [B_L674] |470| 
    2125 000005f0 32c00256     [!B0]   STH     .D1T2   B5,*A16(0)        ; [A_D64P] |470| 
    2126                            .dwpsn  file "C:/Users/Raz Aloni/OneDrive/School/EEL4924/DSP/C_Libs/MicCheckPeripherals/src/LC
    2127                               ; BRANCHCC OCCURS {$C$L20}        ; [] |464| 
    2128                    ;** --------------------------------------------------------------------------*
    2129 000005f4           $C$L21:    
    2130                            .dwpsn  file "C:/Users/Raz Aloni/OneDrive/School/EEL4924/DSP/C_Libs/MicCheckPeripherals/src/LC
    2131                    
    2132 000005f4     ec00             SUB     .L1     A0,1,A0           ; [A_L674] |462| 
    2133 000005f6     27ae  ||         ADD     .S1     1,A7,A7           ; [A_S674] |462| 
    2134                    
    2135 00000604 d104a35a     [!A0]   MVK     .L2     1,B2              ; [B_L674] nullify predicate
    2136 00000600 cffff513  || [ A0]   B       .S2     $C$L19            ; [B_Sb674] |462| 
    2137 000005f8 c1980fd9  || [ A0]   MV      .L1     A6,A3             ; [A_L674] |464| 
    2138                    
    2139                            .dwpsn  file "C:/Users/Raz Aloni/OneDrive/School/EEL4924/DSP/C_Libs/MicCheckPeripherals/src/LC
    2140                    
    2141 00000608 7ffd2121     [!B2]   BNOP            $C$L21,1          ; [] |464| 
    2142 0000060c 6417e058  || [ B2]   SUB     .L1     A5,1,A8           ; [A_L674] 
    2143                    
    2144 00000610 64911a40     [ B2]   ADDAH   .D1     A4,A8,A9          ; [A_D64P] 
    2145 00000614 6400006c!    [ B2]   LDW     .D2T1   *+DP(FrameBufferData),A8 ; [B_D64P] 
TMS320C6x Assembler PC v8.1.3 Thu Apr 20 05:51:03 2017

Tools Copyright (c) 1996-2015 Texas Instruments Incorporated
LCD.asm                                                              PAGE   40

    2146 00000618 60880fda     [ B2]   MV      .L2     B2,B1             ; [B_L674] 
    2147                            .dwpsn  file "C:/Users/Raz Aloni/OneDrive/School/EEL4924/DSP/C_Libs/MicCheckPeripherals/src/LC
    2148                               ; BRANCHCC OCCURS {$C$L19}        ; [] |462| 
    2149                    ;** --------------------------------------------------------------------------*
    2150 0000061c           $C$L22:    
    2151                            .dwpsn  file "C:/Users/Raz Aloni/OneDrive/School/EEL4924/DSP/C_Libs/MicCheckPeripherals/src/LC
    2152                    $C$DW$156       .dwtag  DW_TAG_TI_branch
    2153                            .dwattr $C$DW$156, DW_AT_low_pc(0x00)
    2154                            .dwattr $C$DW$156, DW_AT_TI_return
    2155                    
    2156 0000061c 008ca362             RETNOP          B3,5              ; [] |474| 
    2157                               ; BRANCH OCCURS {B3}              ; [] |474| 
    2158                            .dwattr $C$DW$142, DW_AT_TI_end_file("C:/Users/Raz Aloni/OneDrive/School/EEL4924/DSP/C_Libs/Mi
    2159                            .dwattr $C$DW$142, DW_AT_TI_end_line(0x1da)
    2160                            .dwattr $C$DW$142, DW_AT_TI_end_column(0x01)
    2161                            .dwendentry
    2162                            .dwendtag $C$DW$142
    2163                    
    2164 00000620                   .sect   ".text"
    2165                            .clink
    2166                            .global LCD_DrawImage
    2167                    
    2168                    $C$DW$157       .dwtag  DW_TAG_subprogram
    2169                            .dwattr $C$DW$157, DW_AT_name("LCD_DrawImage")
    2170                            .dwattr $C$DW$157, DW_AT_low_pc(LCD_DrawImage)
    2171                            .dwattr $C$DW$157, DW_AT_high_pc(0x00)
    2172                            .dwattr $C$DW$157, DW_AT_TI_symbol_name("LCD_DrawImage")
    2173                            .dwattr $C$DW$157, DW_AT_external
    2174                            .dwattr $C$DW$157, DW_AT_TI_begin_file("C:/Users/Raz Aloni/OneDrive/School/EEL4924/DSP/C_Libs/
    2175                            .dwattr $C$DW$157, DW_AT_TI_begin_line(0x19e)
    2176                            .dwattr $C$DW$157, DW_AT_TI_begin_column(0x06)
    2177                            .dwattr $C$DW$157, DW_AT_decl_file("C:/Users/Raz Aloni/OneDrive/School/EEL4924/DSP/C_Libs/MicC
    2178                            .dwattr $C$DW$157, DW_AT_decl_line(0x19e)
    2179                            .dwattr $C$DW$157, DW_AT_decl_column(0x06)
    2180                            .dwattr $C$DW$157, DW_AT_TI_max_frame_size(0x00)
    2181                            .dwpsn  file "C:/Users/Raz Aloni/OneDrive/School/EEL4924/DSP/C_Libs/MicCheckPeripherals/src/LC
    2182                    
    2183                            .dwfde $C$DW$CIE, LCD_DrawImage
    2184                    $C$DW$158       .dwtag  DW_TAG_formal_parameter
    2185                            .dwattr $C$DW$158, DW_AT_name("image")
    2186                            .dwattr $C$DW$158, DW_AT_TI_symbol_name("image")
    2187                            .dwattr $C$DW$158, DW_AT_type(*$C$DW$T$809)
    2188                            .dwattr $C$DW$158, DW_AT_location[DW_OP_reg4]
    2189                    
    2190                    $C$DW$159       .dwtag  DW_TAG_formal_parameter
    2191                            .dwattr $C$DW$159, DW_AT_name("originX")
    2192                            .dwattr $C$DW$159, DW_AT_TI_symbol_name("originX")
    2193                            .dwattr $C$DW$159, DW_AT_type(*$C$DW$T$184)
    2194                            .dwattr $C$DW$159, DW_AT_location[DW_OP_reg20]
    2195                    
    2196                    $C$DW$160       .dwtag  DW_TAG_formal_parameter
    2197                            .dwattr $C$DW$160, DW_AT_name("originY")
    2198                            .dwattr $C$DW$160, DW_AT_TI_symbol_name("originY")
    2199                            .dwattr $C$DW$160, DW_AT_type(*$C$DW$T$184)
    2200                            .dwattr $C$DW$160, DW_AT_location[DW_OP_reg6]
TMS320C6x Assembler PC v8.1.3 Thu Apr 20 05:51:03 2017

Tools Copyright (c) 1996-2015 Texas Instruments Incorporated
LCD.asm                                                              PAGE   41

    2201                    
    2202                    $C$DW$161       .dwtag  DW_TAG_formal_parameter
    2203                            .dwattr $C$DW$161, DW_AT_name("width")
    2204                            .dwattr $C$DW$161, DW_AT_TI_symbol_name("width")
    2205                            .dwattr $C$DW$161, DW_AT_type(*$C$DW$T$184)
    2206                            .dwattr $C$DW$161, DW_AT_location[DW_OP_reg22]
    2207                    
    2208                    $C$DW$162       .dwtag  DW_TAG_formal_parameter
    2209                            .dwattr $C$DW$162, DW_AT_name("height")
    2210                            .dwattr $C$DW$162, DW_AT_TI_symbol_name("height")
    2211                            .dwattr $C$DW$162, DW_AT_type(*$C$DW$T$184)
    2212                            .dwattr $C$DW$162, DW_AT_location[DW_OP_reg8]
    2213                    
    2214                    
    2215                    ;******************************************************************************
    2216                    ;* FUNCTION NAME: LCD_DrawImage                                               *
    2217                    ;*                                                                            *
    2218                    ;*   Regs Modified     : A0,A1,A3,A5,B0,B4,B5,B6,B7,B8,B9,B16,B31             *
    2219                    ;*   Regs Used         : A0,A1,A3,A4,A5,A6,A8,B0,B3,B4,B5,B6,B7,B8,B9,DP,B16, *
    2220                    ;*                           B31                                              *
    2221                    ;*   Local Frame Size  : 0 Args + 0 Auto + 0 Save = 0 byte                    *
    2222                    ;******************************************************************************
    2223                    LCD_DrawImage:
    2224                    ;** --------------------------------------------------------------------------*
    2225                    $C$DW$163       .dwtag  DW_TAG_variable
    2226                            .dwattr $C$DW$163, DW_AT_name("width")
    2227                            .dwattr $C$DW$163, DW_AT_TI_symbol_name("width")
    2228                            .dwattr $C$DW$163, DW_AT_type(*$C$DW$T$1005)
    2229                            .dwattr $C$DW$163, DW_AT_location[DW_OP_reg16]
    2230                    
    2231                    $C$DW$164       .dwtag  DW_TAG_variable
    2232                            .dwattr $C$DW$164, DW_AT_name("originX")
    2233                            .dwattr $C$DW$164, DW_AT_TI_symbol_name("originX")
    2234                            .dwattr $C$DW$164, DW_AT_type(*$C$DW$T$1005)
    2235                            .dwattr $C$DW$164, DW_AT_location[DW_OP_reg23]
    2236                    
    2237                    $C$DW$165       .dwtag  DW_TAG_variable
    2238                            .dwattr $C$DW$165, DW_AT_name("image")
    2239                            .dwattr $C$DW$165, DW_AT_TI_symbol_name("image")
    2240                            .dwattr $C$DW$165, DW_AT_type(*$C$DW$T$1003)
    2241                            .dwattr $C$DW$165, DW_AT_location[DW_OP_reg4]
    2242                    
    2243                    $C$DW$166       .dwtag  DW_TAG_variable
    2244                            .dwattr $C$DW$166, DW_AT_name("i")
    2245                            .dwattr $C$DW$166, DW_AT_TI_symbol_name("i")
    2246                            .dwattr $C$DW$166, DW_AT_type(*$C$DW$T$150)
    2247                            .dwattr $C$DW$166, DW_AT_location[DW_OP_reg5]
    2248                    
    2249                    $C$DW$167       .dwtag  DW_TAG_variable
    2250                            .dwattr $C$DW$167, DW_AT_name("y")
    2251                            .dwattr $C$DW$167, DW_AT_TI_symbol_name("y")
    2252                            .dwattr $C$DW$167, DW_AT_type(*$C$DW$T$10)
    2253                            .dwattr $C$DW$167, DW_AT_location[DW_OP_reg22]
    2254                    
    2255                            .dwcfi  cfa_offset, 0
TMS320C6x Assembler PC v8.1.3 Thu Apr 20 05:51:03 2017

Tools Copyright (c) 1996-2015 Texas Instruments Incorporated
LCD.asm                                                              PAGE   42

    2256                    
    2257 00000620 00180fdb             MV      .L2     B6,B0             ; [B_L674] |415| 
    2258 00000624 02988843  ||         ADD     .D2     B6,B4,B5          ; [B_D64P] |417| 
    2259 00000628 0300f02b  ||         MVK     .S2     480,B6            ; [B_Sb674] |417| 
    2260 0000062c 01990079  ||         ADD     .L1     A8,A6,A3          ; [A_L674] |417| 
    2261 00000630 02808829  ||         MVK     .S1     272,A5            ; [A_S674] |417| 
    2262 00000634 00202940  ||         ADD     .D1     1,A8,A0           ; [A_D64P] |429| 
    2263                    
    2264 00000638     0292             ZERO    .S1     A5                ; [A_S674] |427| 
    2265 0000063a     e24f  ||         MV      .S2     B4,B7             ; [B_Sb674] |415| 
    2266 00000640 0298a9fb  ||         CMPGTU  .L2     B5,B6,B5          ; [B_L674] |417| 
    2267 00000644 019469f8  ||         CMPGTU  .L1     A3,A5,A3          ; [A_L674] |417| 
    2268                    
    2269 00000648     d347             MV      .L2X    A6,B6             ; [B_L674] |415| 
    2270 0000064a     76b8             OR      .L1X    B5,A3,A1          ; [A_L674] 
    2271                            .dwpsn  file "C:/Users/Raz Aloni/OneDrive/School/EEL4924/DSP/C_Libs/MicCheckPeripherals/src/LC
    2272 0000064c 8039a120     [ A1]   BNOP            $C$L28,5          ; [] |417| 
    2273                               ; BRANCHCC OCCURS {$C$L28}        ; [] |417| 
    2274                    ;** --------------------------------------------------------------------------*
    2275                            .dwpsn  file "C:/Users/Raz Aloni/OneDrive/School/EEL4924/DSP/C_Libs/MicCheckPeripherals/src/LC
    2276                    
    2277 00000650 302d8121     [!B0]   BNOP            $C$L27,4          ; [] |431| 
    2278 00000654 0f83e05b  ||         SUB     .L2     B0,1,B31          ; [B_L674] 
    2279 00000658 2281e02b  || [ B0]   MVK     .S2     960,B5            ; [B_Sb674] 
    2280 00000660 2800006e! || [ B0]   LDW     .D2T2   *+DP(FrameBufferData),B16 ; [B_D64P] 
    2281                    
    2282                    ;** --------------------------------------------------------------------------*
    2283                    ;**   BEGIN LOOP $C$L23
    2284                    ;** --------------------------------------------------------------------------*
    2285 00000664           $C$L23:    
    2286 00000664 00000000             NOP             1                 ; [A_L674] 
    2287                               ; BRANCHCC OCCURS {$C$L27}        ; [] |431| 
    2288                    ;** --------------------------------------------------------------------------*
    2289 00000668 26fc03a2     [ B0]   MVC     .S2     B31,ILC           ; [B_Sb674] 
    2290                    ;*----------------------------------------------------------------------------*
    2291                    ;*   SOFTWARE PIPELINE INFORMATION
    2292                    ;*
    2293                    ;*      Loop found in file               : C:/Users/Raz Aloni/OneDrive/School/EEL4924/DSP/C_Libs/MicCh
    2294                    ;*      Loop source line                 : 431
    2295                    ;*      Loop opening brace source line   : 432
    2296                    ;*      Loop closing brace source line   : 434
    2297                    ;*      Known Minimum Trip Count         : 1                    
    2298                    ;*      Known Maximum Trip Count         : 65535                    
    2299                    ;*      Known Max Trip Count Factor      : 1
    2300                    ;*      Loop Carried Dependency Bound(^) : 6
    2301                    ;*      Unpartitioned Resource Bound     : 1
    2302                    ;*      Partitioned Resource Bound(*)    : 2
    2303                    ;*      Resource Partition:
    2304                    ;*                                A-side   B-side
    2305                    ;*      .L units                     0        0     
    2306                    ;*      .S units                     0        0     
    2307                    ;*      .D units                     1*       1*    
    2308                    ;*      .M units                     0        0     
    2309                    ;*      .X cross paths               0        0     
    2310                    ;*      .T address paths             0        2     
TMS320C6x Assembler PC v8.1.3 Thu Apr 20 05:51:03 2017

Tools Copyright (c) 1996-2015 Texas Instruments Incorporated
LCD.asm                                                              PAGE   43

    2311                    ;*      Logical  ops (.LS)           0        0     (.L or .S unit)
    2312                    ;*      Addition ops (.LSD)          0        0     (.L or .S or .D unit)
    2313                    ;*      Bound(.L .S .LS)             0        0     
    2314                    ;*      Bound(.L .S .D .LS .LSD)     1*       1*    
    2315                    ;*
    2316                    ;*      Searching for software pipeline schedule at ...
    2317                    ;*         ii = 6  Schedule found with 2 iterations in parallel
    2318                    ;*      Done
    2319                    ;*
    2320                    ;*      Loop will be splooped
    2321                    ;*      Collapsed epilog stages       : 0
    2322                    ;*      Collapsed prolog stages       : 0
    2323                    ;*      Minimum required memory pad   : 0 bytes
    2324                    ;*
    2325                    ;*      Minimum safe trip count       : 1
    2326                    ;*
    2327                    ;*      (Performance) Consider adding the restrict qualifier to the definition of image if they don't 
    2328                    ;*----------------------------------------------------------------------------*
    2329 0000066c           $C$L24:    ; PIPED LOOP PROLOG
    2330                    
    2331 0000066c 0283a001             SPLOOPD         6                 ;12 ; [A_L674] (P) 
    2332 00000670 0190ba41  ||         ADDAH   .D1     A4,A5,A3          ; [A_D64P] 
    2333 00000674 0418a572  ||         MPYLI   .M2     B5,B6,B9:B8       ; [B_M674] 
    2334                    
    2335                    ;** --------------------------------------------------------------------------*
    2336 00000678           $C$L25:    ; PIPED LOOP KERNEL
    2337                            .dwpsn  file "C:/Users/Raz Aloni/OneDrive/School/EEL4924/DSP/C_Libs/MicCheckPeripherals/src/LC
    2338 00000678 020c3606             LDHU    .D1T2   *A3++(2),B4       ; [A_D64P] |433| (P) <0,0>  ^ 
    2339 0000067c 00002000             NOP             2                 ; [A_L674] 
    2340                    
    2341 00000680 000b0001             SPMASK                            ; [] 
    2342 00000684 02a2007a  ||^        ADD     .L2     B16,B8,B5         ; [B_L674] 
    2343                    
    2344 00000688 00830001             SPMASK                            ; [] 
    2345 0000068c 0294fa42  ||^        ADDAH   .D2     B5,B7,B5          ; [B_D64P] 
    2346                    
    2347 00000690     2c67             SPMASK                            ; [] 
    2348 00000692     b050  ||^        ADD     .L1X    B0,A5,A5          ; [A_L674] |433| 
    2349 00000694     1ec5  ||         STH     .D2T2   B4,*B5++(2)       ; [B_D64P] |433| (P) <0,5>  ^ 
    2350                    
    2351 00000696     1c66             SPKERNEL        0,0               ; [] 
    2352                    ;** --------------------------------------------------------------------------*
    2353 00000698           $C$L26:    ; PIPED LOOP EPILOG
    2354 00000698     0c6e             NOP             1                 ; [A_L674] 
    2355                    ;** --------------------------------------------------------------------------*
    2356 0000069a           $C$L27:    
    2357                            .dwpsn  file "C:/Users/Raz Aloni/OneDrive/School/EEL4924/DSP/C_Libs/MicCheckPeripherals/src/LC
    2358 0000069a     ec00             SUB     .L1     A0,1,A0           ; [A_L674] |429| 
    2359                    
    2360 000006a0     18aa     [ A0]   B       .S1     $C$L23            ; [A_S674] |429| 
    2361 000006a2     6867  || [!A0]   MVK     .L2     1,B0              ; [B_L674] nullify predicate
    2362                    
    2363                            .dwpsn  file "C:/Users/Raz Aloni/OneDrive/School/EEL4924/DSP/C_Libs/MicCheckPeripherals/src/LC
    2364 000006a4 3ffd6120     [!B0]   BNOP            $C$L27,3          ; [] |431| 
    2365                            .dwpsn  file "C:/Users/Raz Aloni/OneDrive/School/EEL4924/DSP/C_Libs/MicCheckPeripherals/src/LC
TMS320C6x Assembler PC v8.1.3 Thu Apr 20 05:51:03 2017

Tools Copyright (c) 1996-2015 Texas Instruments Incorporated
LCD.asm                                                              PAGE   44

    2366                    
    2367 000006a8 2281e02b     [ B0]   MVK     .S2     960,B5            ; [B_Sb674] 
    2368 000006ac 2800006f! || [ B0]   LDW     .D2T2   *+DP(FrameBufferData),B16 ; [B_D64P] 
    2369 000006b0     2761  ||         ADD     .L2     1,B6,B6           ; [B_L674] |429| 
    2370                    
    2371                               ; BRANCHCC OCCURS {$C$L23}        ; [] |429| 
    2372                    ;** --------------------------------------------------------------------------*
    2373 000006b2           $C$L28:    
    2374                            .dwpsn  file "C:/Users/Raz Aloni/OneDrive/School/EEL4924/DSP/C_Libs/MicCheckPeripherals/src/LC
    2375                    $C$DW$168       .dwtag  DW_TAG_TI_branch
    2376                            .dwattr $C$DW$168, DW_AT_low_pc(0x00)
    2377                            .dwattr $C$DW$168, DW_AT_TI_return
    2378                    
    2379 000006b2     a1ef             RETNOP          B3,5              ; [] |436| 
    2380                               ; BRANCH OCCURS {B3}              ; [] |436| 
    2381                            .dwattr $C$DW$157, DW_AT_TI_end_file("C:/Users/Raz Aloni/OneDrive/School/EEL4924/DSP/C_Libs/Mi
    2382                            .dwattr $C$DW$157, DW_AT_TI_end_line(0x1b4)
    2383                            .dwattr $C$DW$157, DW_AT_TI_end_column(0x01)
    2384                            .dwendentry
    2385                            .dwendtag $C$DW$157
    2386                    
    2387 000006b4                   .sect   ".text"
    2388                            .clink
    2389                            .global LCD_CommandSend
    2390                    
    2391                    $C$DW$169       .dwtag  DW_TAG_subprogram
    2392                            .dwattr $C$DW$169, DW_AT_name("LCD_CommandSend")
    2393                            .dwattr $C$DW$169, DW_AT_low_pc(LCD_CommandSend)
    2394                            .dwattr $C$DW$169, DW_AT_high_pc(0x00)
    2395                            .dwattr $C$DW$169, DW_AT_TI_symbol_name("LCD_CommandSend")
    2396                            .dwattr $C$DW$169, DW_AT_external
    2397                            .dwattr $C$DW$169, DW_AT_TI_begin_file("C:/Users/Raz Aloni/OneDrive/School/EEL4924/DSP/C_Libs/
    2398                            .dwattr $C$DW$169, DW_AT_TI_begin_line(0x25b)
    2399                            .dwattr $C$DW$169, DW_AT_TI_begin_column(0x06)
    2400                            .dwattr $C$DW$169, DW_AT_decl_file("C:/Users/Raz Aloni/OneDrive/School/EEL4924/DSP/C_Libs/MicC
    2401                            .dwattr $C$DW$169, DW_AT_decl_line(0x25b)
    2402                            .dwattr $C$DW$169, DW_AT_decl_column(0x06)
    2403                            .dwattr $C$DW$169, DW_AT_TI_max_frame_size(0x08)
    2404                            .dwpsn  file "C:/Users/Raz Aloni/OneDrive/School/EEL4924/DSP/C_Libs/MicCheckPeripherals/src/LC
    2405                    
    2406                            .dwfde $C$DW$CIE, LCD_CommandSend
    2407                    $C$DW$170       .dwtag  DW_TAG_formal_parameter
    2408                            .dwattr $C$DW$170, DW_AT_name("cmd")
    2409                            .dwattr $C$DW$170, DW_AT_TI_symbol_name("cmd")
    2410                            .dwattr $C$DW$170, DW_AT_type(*$C$DW$T$615)
    2411                            .dwattr $C$DW$170, DW_AT_location[DW_OP_reg4]
    2412                    
    2413                    
    2414                    ;******************************************************************************
    2415                    ;* FUNCTION NAME: LCD_CommandSend                                             *
    2416                    ;*                                                                            *
    2417                    ;*   Regs Modified     : A0,A1,A2,A3,A4,A5,A6,A7,A8,A9,A10,A11,A16,A17,A18,   *
    2418                    ;*                           A19,A20,A21,A22,A23,A24,A25,A26,A27,A28,A29,A30, *
    2419                    ;*                           A31,B0,B1,B2,B3,B4,B5,B6,B7,B8,B9,SP,B16,B17,B18,*
    2420                    ;*                           B19,B20,B21,B22,B23,B24,B25,B26,B27,B28,B29,B30, *
TMS320C6x Assembler PC v8.1.3 Thu Apr 20 05:51:03 2017

Tools Copyright (c) 1996-2015 Texas Instruments Incorporated
LCD.asm                                                              PAGE   45

    2421                    ;*                           B31                                              *
    2422                    ;*   Regs Used         : A0,A1,A2,A3,A4,A5,A6,A7,A8,A9,A10,A11,A16,A17,A18,   *
    2423                    ;*                           A19,A20,A21,A22,A23,A24,A25,A26,A27,A28,A29,A30, *
    2424                    ;*                           A31,B0,B1,B2,B3,B4,B5,B6,B7,B8,B9,DP,SP,B16,B17, *
    2425                    ;*                           B18,B19,B20,B21,B22,B23,B24,B25,B26,B27,B28,B29, *
    2426                    ;*                           B30,B31                                          *
    2427                    ;*   Local Frame Size  : 0 Args + 0 Auto + 8 Save = 8 byte                    *
    2428                    ;******************************************************************************
    2429                    LCD_CommandSend:
    2430                    ;** --------------------------------------------------------------------------*
    2431                    $C$DW$171       .dwtag  DW_TAG_variable
    2432                            .dwattr $C$DW$171, DW_AT_name("cmd")
    2433                            .dwattr $C$DW$171, DW_AT_TI_symbol_name("cmd")
    2434                            .dwattr $C$DW$171, DW_AT_type(*$C$DW$T$616)
    2435                            .dwattr $C$DW$171, DW_AT_location[DW_OP_reg10]
    2436                    
    2437                            .dwcfi  cfa_offset, 0
    2438 000006b4     25f7             STW     .D2T1   A11,*SP++(-8)     ; [B_D64P] |604| 
    2439                            .dwcfi  cfa_offset, 8
    2440                            .dwcfi  save_reg_to_mem, 11, 0
    2441                    
    2442 000006b8 053c22f5             STW     .D2T1   A10,*SP(4)        ; [B_D64P] |604| 
    2443 000006b6     4646  ||         MV      .L1     A4,A10            ; [A_L674] |604| 
    2444 000006c0 02300029  ||         MVKL    .S1     0x1e26000,A4      ; [A_S674] |606| 
    2445 000006c4     ba33  ||         MVK     .S2     0x3d,B4           ; [B_Sb674] |606| 
    2446                    
    2447                            .dwcfi  save_reg_to_mem, 10, -4
    2448                    $C$DW$172       .dwtag  DW_TAG_TI_branch
    2449                            .dwattr $C$DW$172, DW_AT_low_pc(0x08)
    2450                            .dwattr $C$DW$172, DW_AT_name("GPIOPinWrite")
    2451                            .dwattr $C$DW$172, DW_AT_TI_call
    2452                    
    2453                    
    2454 000006c8 0200f169             MVKH    .S1     0x1e26000,A4      ; [A_S674] |606| 
    2455 000006c6     75c6  ||         MV      .L1X    B3,A11            ; [A_L674] |604| 
    2456 000006cc 10000013! ||         CALLP   .S2     GPIOPinWrite,B3   ; [B_Sb674] |606| 
    2457 000006d0 03002040  ||         MVK     .D1     1,A6              ; [A_D64P] |606| 
    2458                    
    2459                            .dwcfi  save_reg_to_reg, 19, 11
    2460                            .dwpsn  file "C:/Users/Raz Aloni/OneDrive/School/EEL4924/DSP/C_Libs/MicCheckPeripherals/src/LC
    2461 000006d4           $C$RL70:   ; CALLP OCCURS {GPIOPinWrite} {0}  ; [] |606| 
    2462                            .dwpsn  file "C:/Users/Raz Aloni/OneDrive/School/EEL4924/DSP/C_Libs/MicCheckPeripherals/src/LC
    2463 000006d4 02300028             MVKL    .S1     0x1e26000,A4      ; [A_S674] |609| 
    2464                    
    2465 000006d8 032b9f09             EXTU    .S1     A10,28,31,A6      ; [A_S674] |609| 
    2466 000006e0 0200342a  ||         MVK     .S2     0x68,B4           ; [B_Sb674] |609| 
    2467                    
    2468                    $C$DW$173       .dwtag  DW_TAG_TI_branch
    2469                            .dwattr $C$DW$173, DW_AT_low_pc(0x04)
    2470                            .dwattr $C$DW$173, DW_AT_name("GPIOPinWrite")
    2471                            .dwattr $C$DW$173, DW_AT_TI_call
    2472                    
    2473                    
    2474 000006e4 0200f169             MVKH    .S1     0x1e26000,A4      ; [A_S674] |609| 
    2475 000006e8 10000012! ||         CALLP   .S2     GPIOPinWrite,B3   ; [B_Sb674] |609| 
TMS320C6x Assembler PC v8.1.3 Thu Apr 20 05:51:03 2017

Tools Copyright (c) 1996-2015 Texas Instruments Incorporated
LCD.asm                                                              PAGE   46

    2476                    
    2477 000006ec           $C$RL72:   ; CALLP OCCURS {GPIOPinWrite} {0}  ; [] |609| 
    2478                            .dwpsn  file "C:/Users/Raz Aloni/OneDrive/School/EEL4924/DSP/C_Libs/MicCheckPeripherals/src/LC
    2479 000006ec 02300028             MVKL    .S1     0x1e26000,A4      ; [A_S674] |610| 
    2480                    
    2481 000006f0 032bbf09             EXTU    .S1     A10,29,31,A6      ; [A_S674] |610| 
    2482 000006f4 020035aa  ||         MVK     .S2     0x6b,B4           ; [B_Sb674] |610| 
    2483                    
    2484                    $C$DW$174       .dwtag  DW_TAG_TI_branch
    2485                            .dwattr $C$DW$174, DW_AT_low_pc(0x04)
    2486                            .dwattr $C$DW$174, DW_AT_name("GPIOPinWrite")
    2487                            .dwattr $C$DW$174, DW_AT_TI_call
    2488                    
    2489                    
    2490 000006f8 0200f169             MVKH    .S1     0x1e26000,A4      ; [A_S674] |610| 
    2491 000006fc 10000012! ||         CALLP   .S2     GPIOPinWrite,B3   ; [B_Sb674] |610| 
    2492                    
    2493 00000700           $C$RL74:   ; CALLP OCCURS {GPIOPinWrite} {0}  ; [] |610| 
    2494                            .dwpsn  file "C:/Users/Raz Aloni/OneDrive/School/EEL4924/DSP/C_Libs/MicCheckPeripherals/src/LC
    2495 00000700 02300028             MVKL    .S1     0x1e26000,A4      ; [A_S674] |611| 
    2496                    
    2497 00000704 032bdf09             EXTU    .S1     A10,30,31,A6      ; [A_S674] |611| 
    2498 00000708 020033aa  ||         MVK     .S2     0x67,B4           ; [B_Sb674] |611| 
    2499                    
    2500                    $C$DW$175       .dwtag  DW_TAG_TI_branch
    2501                            .dwattr $C$DW$175, DW_AT_low_pc(0x04)
    2502                            .dwattr $C$DW$175, DW_AT_name("GPIOPinWrite")
    2503                            .dwattr $C$DW$175, DW_AT_TI_call
    2504                    
    2505                    
    2506 0000070c 0200f169             MVKH    .S1     0x1e26000,A4      ; [A_S674] |611| 
    2507 00000710 10000012! ||         CALLP   .S2     GPIOPinWrite,B3   ; [B_Sb674] |611| 
    2508                    
    2509 00000714           $C$RL76:   ; CALLP OCCURS {GPIOPinWrite} {0}  ; [] |611| 
    2510                            .dwpsn  file "C:/Users/Raz Aloni/OneDrive/School/EEL4924/DSP/C_Libs/MicCheckPeripherals/src/LC
    2511                    
    2512 00000714 02300029             MVKL    .S1     0x1e26000,A4      ; [A_S674] |612| 
    2513 00000718 0200362a  ||         MVK     .S2     0x6c,B4           ; [B_Sb674] |612| 
    2514                    
    2515                    $C$DW$176       .dwtag  DW_TAG_TI_branch
    2516                            .dwattr $C$DW$176, DW_AT_low_pc(0x08)
    2517                            .dwattr $C$DW$176, DW_AT_name("GPIOPinWrite")
    2518                            .dwattr $C$DW$176, DW_AT_TI_call
    2519                    
    2520                    
    2521 0000071c 0200f169             MVKH    .S1     0x1e26000,A4      ; [A_S674] |612| 
    2522 00000720 03282f59  ||         AND     .L1     1,A10,A6          ; [A_L674] |612| 
    2523 00000724 10000012! ||         CALLP   .S2     GPIOPinWrite,B3   ; [B_Sb674] |612| 
    2524                    
    2525 00000728           $C$RL78:   ; CALLP OCCURS {GPIOPinWrite} {0}  ; [] |612| 
    2526                            .dwpsn  file "C:/Users/Raz Aloni/OneDrive/School/EEL4924/DSP/C_Libs/MicCheckPeripherals/src/LC
    2527                    
    2528 00000728 02300029             MVKL    .S1     0x1e26000,A4      ; [A_S674] |615| 
    2529 0000072c     ba33  ||         MVK     .S2     0x3d,B4           ; [B_Sb674] |615| 
    2530                    
TMS320C6x Assembler PC v8.1.3 Thu Apr 20 05:51:03 2017

Tools Copyright (c) 1996-2015 Texas Instruments Incorporated
LCD.asm                                                              PAGE   47

    2531                    $C$DW$177       .dwtag  DW_TAG_TI_branch
    2532                            .dwattr $C$DW$177, DW_AT_low_pc(0x04)
    2533                            .dwattr $C$DW$177, DW_AT_name("GPIOPinWrite")
    2534                            .dwattr $C$DW$177, DW_AT_TI_call
    2535                    
    2536                    
    2537 00000734 0200f168             MVKH    .S1     0x1e26000,A4      ; [A_S674] |615| 
    2538 00000730 10000013! ||         CALLP   .S2     GPIOPinWrite,B3   ; [B_Sb674] |615| 
    2539 0000072e     0726  ||         ZERO    .L1     A6                ; [A_L674] |615| 
    2540                    
    2541 00000738           $C$RL80:   ; CALLP OCCURS {GPIOPinWrite} {0}  ; [] |615| 
    2542                            .dwpsn  file "C:/Users/Raz Aloni/OneDrive/School/EEL4924/DSP/C_Libs/MicCheckPeripherals/src/LC
    2543 00000738     7587             MV      .L2X    A11,B3            ; [B_L674] |616| 
    2544                            .dwcfi  restore_reg, 19
    2545                    $C$DW$178       .dwtag  DW_TAG_TI_branch
    2546                            .dwattr $C$DW$178, DW_AT_low_pc(0x00)
    2547                            .dwattr $C$DW$178, DW_AT_TI_return
    2548                    
    2549                    
    2550 0000073a     01ef             RET     .S2     B3                ; [B_Sb674] |616| 
    2551 00000740 053c22e4  ||         LDW     .D2T1   *SP(4),A10        ; [B_D64P] |616| 
    2552                    
    2553                            .dwcfi  restore_reg, 10
    2554 00000744     65f7             LDW     .D2T1   *++SP(8),A11      ; [B_D64P] |616| 
    2555                            .dwcfi  cfa_offset, 0
    2556                            .dwcfi  restore_reg, 11
    2557 00000746     6c6e             NOP             4                 ; [A_L674] 
    2558                               ; BRANCH OCCURS {B3}              ; [] |616| 
    2559                            .dwattr $C$DW$169, DW_AT_TI_end_file("C:/Users/Raz Aloni/OneDrive/School/EEL4924/DSP/C_Libs/Mi
    2560                            .dwattr $C$DW$169, DW_AT_TI_end_line(0x268)
    2561                            .dwattr $C$DW$169, DW_AT_TI_end_column(0x01)
    2562                            .dwendentry
    2563                            .dwendtag $C$DW$169
    2564                    
    2565 00000748                   .sect   ".text"
    2566                            .clink
    2567                            .global LCD_CommandReceivedEvent
    2568                    
    2569                    $C$DW$179       .dwtag  DW_TAG_subprogram
    2570                            .dwattr $C$DW$179, DW_AT_name("LCD_CommandReceivedEvent")
    2571                            .dwattr $C$DW$179, DW_AT_low_pc(LCD_CommandReceivedEvent)
    2572                            .dwattr $C$DW$179, DW_AT_high_pc(0x00)
    2573                            .dwattr $C$DW$179, DW_AT_TI_symbol_name("LCD_CommandReceivedEvent")
    2574                            .dwattr $C$DW$179, DW_AT_external
    2575                            .dwattr $C$DW$179, DW_AT_TI_begin_file("C:/Users/Raz Aloni/OneDrive/School/EEL4924/DSP/C_Libs/
    2576                            .dwattr $C$DW$179, DW_AT_TI_begin_line(0x2b1)
    2577                            .dwattr $C$DW$179, DW_AT_TI_begin_column(0x06)
    2578                            .dwattr $C$DW$179, DW_AT_decl_file("C:/Users/Raz Aloni/OneDrive/School/EEL4924/DSP/C_Libs/MicC
    2579                            .dwattr $C$DW$179, DW_AT_decl_line(0x2b1)
    2580                            .dwattr $C$DW$179, DW_AT_decl_column(0x06)
    2581                            .dwattr $C$DW$179, DW_AT_TI_max_frame_size(0x08)
    2582                            .dwpsn  file "C:/Users/Raz Aloni/OneDrive/School/EEL4924/DSP/C_Libs/MicCheckPeripherals/src/LC
    2583                    
    2584                            .dwfde $C$DW$CIE, LCD_CommandReceivedEvent
    2585                    
TMS320C6x Assembler PC v8.1.3 Thu Apr 20 05:51:03 2017

Tools Copyright (c) 1996-2015 Texas Instruments Incorporated
LCD.asm                                                              PAGE   48

    2586                    ;******************************************************************************
    2587                    ;* FUNCTION NAME: LCD_CommandReceivedEvent                                    *
    2588                    ;*                                                                            *
    2589                    ;*   Regs Modified     : A0,A1,A2,A3,A4,A5,A6,A7,A8,A9,A16,A17,A18,A19,A20,   *
    2590                    ;*                           A21,A22,A23,A24,A25,A26,A27,A28,A29,A30,A31,B0,  *
    2591                    ;*                           B1,B2,B3,B4,B5,B6,B7,B8,B9,B16,B17,B18,B19,B20,  *
    2592                    ;*                           B21,B22,B23,B24,B25,B26,B27,B28,B29,B30,B31      *
    2593                    ;*   Regs Used         : A0,A1,A2,A3,A4,A5,A6,A7,A8,A9,A16,A17,A18,A19,A20,   *
    2594                    ;*                           A21,A22,A23,A24,A25,A26,A27,A28,A29,A30,A31,B0,  *
    2595                    ;*                           B1,B2,B3,B4,B5,B6,B7,B8,B9,DP,SP,B16,B17,B18,B19,*
    2596                    ;*                           B20,B21,B22,B23,B24,B25,B26,B27,B28,B29,B30,B31  *
    2597                    ;*   Local Frame Size  : 0 Args + 0 Auto + 4 Save = 4 byte                    *
    2598                    ;******************************************************************************
    2599 00000748           LCD_CommandReceivedEvent:
    2600                    ;** --------------------------------------------------------------------------*
    2601                            .dwcfi  cfa_offset, 0
    2602                            .dwpsn  file "C:/Users/Raz Aloni/OneDrive/School/EEL4924/DSP/C_Libs/MicCheckPeripherals/src/LC
    2603                    $C$DW$180       .dwtag  DW_TAG_TI_branch
    2604                            .dwattr $C$DW$180, DW_AT_low_pc(0x00)
    2605                            .dwattr $C$DW$180, DW_AT_name("ti_sysbios_knl_Semaphore_post__E")
    2606                            .dwattr $C$DW$180, DW_AT_TI_call
    2607                            .dwattr $C$DW$180, DW_AT_TI_return
    2608                    
    2609 00000748 00000010!            CALLRET .S1     ti_sysbios_knl_Semaphore_post__E ; [A_S674] |691| 
    2610 0000074c 0200006c!            LDW     .D2T1   *+DP(LCDCommandSemaphore),A4 ; [B_D64P] |691| 
    2611 00000750 00006000             NOP             4                 ; [A_L674] 
    2612                    $C$RL82:   ; CALL-RETURN OCCURS {ti_sysbios_knl_Semaphore_post__E} 0  ; [] |691| 
    2613                            .dwattr $C$DW$179, DW_AT_TI_end_file("C:/Users/Raz Aloni/OneDrive/School/EEL4924/DSP/C_Libs/Mi
    2614                            .dwattr $C$DW$179, DW_AT_TI_end_line(0x2b4)
    2615                            .dwattr $C$DW$179, DW_AT_TI_end_column(0x01)
    2616                            .dwendentry
    2617                            .dwendtag $C$DW$179
    2618                    
    2619 00000754                   .sect   ".text"
    2620                            .clink
    2621                            .global LCD_CommandReceive
    2622                    
    2623                    $C$DW$181       .dwtag  DW_TAG_subprogram
    2624                            .dwattr $C$DW$181, DW_AT_name("LCD_CommandReceive")
    2625                            .dwattr $C$DW$181, DW_AT_low_pc(LCD_CommandReceive)
    2626                            .dwattr $C$DW$181, DW_AT_high_pc(0x00)
    2627                            .dwattr $C$DW$181, DW_AT_TI_symbol_name("LCD_CommandReceive")
    2628                            .dwattr $C$DW$181, DW_AT_external
    2629                            .dwattr $C$DW$181, DW_AT_type(*$C$DW$T$615)
    2630                            .dwattr $C$DW$181, DW_AT_TI_begin_file("C:/Users/Raz Aloni/OneDrive/School/EEL4924/DSP/C_Libs/
    2631                            .dwattr $C$DW$181, DW_AT_TI_begin_line(0x26e)
    2632                            .dwattr $C$DW$181, DW_AT_TI_begin_column(0x0c)
    2633                            .dwattr $C$DW$181, DW_AT_decl_file("C:/Users/Raz Aloni/OneDrive/School/EEL4924/DSP/C_Libs/MicC
    2634                            .dwattr $C$DW$181, DW_AT_decl_line(0x26e)
    2635                            .dwattr $C$DW$181, DW_AT_decl_column(0x0c)
    2636                            .dwattr $C$DW$181, DW_AT_TI_max_frame_size(0x18)
    2637                            .dwpsn  file "C:/Users/Raz Aloni/OneDrive/School/EEL4924/DSP/C_Libs/MicCheckPeripherals/src/LC
    2638                    
    2639                            .dwfde $C$DW$CIE, LCD_CommandReceive
    2640                    
TMS320C6x Assembler PC v8.1.3 Thu Apr 20 05:51:03 2017

Tools Copyright (c) 1996-2015 Texas Instruments Incorporated
LCD.asm                                                              PAGE   49

    2641                    ;******************************************************************************
    2642                    ;* FUNCTION NAME: LCD_CommandReceive                                          *
    2643                    ;*                                                                            *
    2644                    ;*   Regs Modified     : A0,A1,A2,A3,A4,A5,A6,A7,A8,A9,A10,A11,A12,A13,A16,   *
    2645                    ;*                           A17,A18,A19,A20,A21,A22,A23,A24,A25,A26,A27,A28, *
    2646                    ;*                           A29,A30,A31,B0,B1,B2,B3,B4,B5,B6,B7,B8,B9,SP,B16,*
    2647                    ;*                           B17,B18,B19,B20,B21,B22,B23,B24,B25,B26,B27,B28, *
    2648                    ;*                           B29,B30,B31                                      *
    2649                    ;*   Regs Used         : A0,A1,A2,A3,A4,A5,A6,A7,A8,A9,A10,A11,A12,A13,A16,   *
    2650                    ;*                           A17,A18,A19,A20,A21,A22,A23,A24,A25,A26,A27,A28, *
    2651                    ;*                           A29,A30,A31,B0,B1,B2,B3,B4,B5,B6,B7,B8,B9,DP,SP, *
    2652                    ;*                           B16,B17,B18,B19,B20,B21,B22,B23,B24,B25,B26,B27, *
    2653                    ;*                           B28,B29,B30,B31                                  *
    2654                    ;*   Local Frame Size  : 0 Args + 0 Auto + 24 Save = 24 byte                  *
    2655                    ;******************************************************************************
    2656 00000754           LCD_CommandReceive:
    2657                    ;** --------------------------------------------------------------------------*
    2658                            .dwcfi  cfa_offset, 0
    2659 00000754     25f7             STW     .D2T1   A11,*SP++(-8)     ; [B_D64P] |623| 
    2660                            .dwcfi  cfa_offset, 8
    2661                            .dwcfi  save_reg_to_mem, 11, 0
    2662                    
    2663 00000756     8677             STDW    .D2T1   A13:A12,*SP++(-8) ; [B_D64P] |623| 
    2664 00000758 02300029  ||         MVKL    .S1     0x1e26000,A4      ; [A_S674] |625| 
    2665 00000760     a273  ||         MVK     .S2     0x65,B4           ; [B_Sb674] |625| 
    2666                    
    2667                            .dwcfi  cfa_offset, 16
    2668                            .dwcfi  save_reg_to_mem, 13, -4
    2669                            .dwcfi  save_reg_to_mem, 12, -8
    2670                    $C$DW$182       .dwtag  DW_TAG_TI_branch
    2671                            .dwattr $C$DW$182, DW_AT_low_pc(0x08)
    2672                            .dwattr $C$DW$182, DW_AT_name("GPIOPinRead")
    2673                            .dwattr $C$DW$182, DW_AT_TI_call
    2674                    
    2675                    
    2676 00000762     2577             STW     .D2T1   A10,*SP++(-8)     ; [B_D64P] |623| 
    2677 0000076c     b5c6  ||         MV      .L1X    B3,A13            ; [A_L674] |623| 
    2678 00000768 10000013! ||         CALLP   .S2     GPIOPinRead,B3    ; [B_Sb674] |625| 
    2679 00000764 0200f169  ||         MVKH    .S1     0x1e26000,A4      ; [A_S674] |625| 
    2680                    
    2681                            .dwcfi  cfa_offset, 24
    2682                            .dwcfi  save_reg_to_mem, 10, -16
    2683                            .dwcfi  save_reg_to_reg, 19, 13
    2684                            .dwpsn  file "C:/Users/Raz Aloni/OneDrive/School/EEL4924/DSP/C_Libs/MicCheckPeripherals/src/LC
    2685 0000076e           $C$RL90:   ; CALLP OCCURS {GPIOPinRead} {0}  ; [] |625| 
    2686                    
    2687 0000076e     4646             MV      .L1     A4,A10            ; [A_L674] |625| 
    2688 00000774 0200322a  ||         MVK     .S2     0x64,B4           ; [B_Sb674] |625| 
    2689 00000770 02300029  ||         MVKL    .S1     0x1e26000,A4      ; [A_S674] |625| 
    2690                    
    2691                    $C$DW$183       .dwtag  DW_TAG_TI_branch
    2692                            .dwattr $C$DW$183, DW_AT_low_pc(0x00)
    2693                            .dwattr $C$DW$183, DW_AT_name("GPIOPinRead")
    2694                            .dwattr $C$DW$183, DW_AT_TI_call
    2695                    
TMS320C6x Assembler PC v8.1.3 Thu Apr 20 05:51:03 2017

Tools Copyright (c) 1996-2015 Texas Instruments Incorporated
LCD.asm                                                              PAGE   50

    2696                    
    2697 00000778 10000013!            CALLP   .S2     GPIOPinRead,B3    ; [B_Sb674] |625| 
    2698 00000780 0200f168  ||         MVKH    .S1     0x1e26000,A4      ; [A_S674] |625| 
    2699                    
    2700 00000784           $C$RL88:   ; CALLP OCCURS {GPIOPinRead} {0}  ; [] |625| 
    2701                    
    2702 00000784     8646             MV      .L1     A4,A12            ; [A_L674] |625| 
    2703 00000786     6273  ||         MVK     .S2     0x63,B4           ; [B_Sb674] |625| 
    2704 00000788 02300028  ||         MVKL    .S1     0x1e26000,A4      ; [A_S674] |625| 
    2705                    
    2706                    $C$DW$184       .dwtag  DW_TAG_TI_branch
    2707                            .dwattr $C$DW$184, DW_AT_low_pc(0x00)
    2708                            .dwattr $C$DW$184, DW_AT_name("GPIOPinRead")
    2709                            .dwattr $C$DW$184, DW_AT_TI_call
    2710                    
    2711                    
    2712 0000078c 10000013!            CALLP   .S2     GPIOPinRead,B3    ; [B_Sb674] |625| 
    2713 00000790 0200f168  ||         MVKH    .S1     0x1e26000,A4      ; [A_S674] |625| 
    2714                    
    2715 00000794           $C$RL86:   ; CALLP OCCURS {GPIOPinRead} {0}  ; [] |625| 
    2716                    
    2717 00000794     6646             MV      .L1     A4,A11            ; [A_L674] |625| 
    2718 00000796     1613  ||         MVK     .S2     0x90,B4           ; [B_Sb674] |625| 
    2719 00000798 02300028  ||         MVKL    .S1     0x1e26000,A4      ; [A_S674] |625| 
    2720                    
    2721                    $C$DW$185       .dwtag  DW_TAG_TI_branch
    2722                            .dwattr $C$DW$185, DW_AT_low_pc(0x00)
    2723                            .dwattr $C$DW$185, DW_AT_name("GPIOPinRead")
    2724                            .dwattr $C$DW$185, DW_AT_TI_call
    2725                    
    2726                    
    2727 000007a0 10000013!            CALLP   .S2     GPIOPinRead,B3    ; [B_Sb674] |625| 
    2728 000007a4 0200f168  ||         MVKH    .S1     0x1e26000,A4      ; [A_S674] |625| 
    2729                    
    2730 000007a8           $C$RL84:   ; CALLP OCCURS {GPIOPinRead} {0}  ; [] |625| 
    2731 000007a8 01a94078             ADD     .L1     A10,A10,A3        ; [A_L674] |625| 
    2732                    
    2733 000007ac 018d8ff9             OR      .L1     A12,A3,A3         ; [A_L674] |625| 
    2734 000007b0     6577  ||         LDW     .D2T1   *++SP(8),A10      ; [B_D64P] |629| 
    2735 000007b2     7687  ||         MV      .L2X    A13,B3            ; [B_L674] |629| 
    2736                    
    2737                            .dwcfi  cfa_offset, 16
    2738                            .dwcfi  restore_reg, 10
    2739                            .dwcfi  restore_reg, 19
    2740                    $C$DW$186       .dwtag  DW_TAG_TI_branch
    2741                            .dwattr $C$DW$186, DW_AT_low_pc(0x08)
    2742                            .dwattr $C$DW$186, DW_AT_TI_return
    2743                    
    2744                    
    2745 000007b4     61b0             ADD     .L1     A3,A3,A3          ; [A_L674] |625| 
    2746 000007b6     c677  ||         LDDW    .D2T1   *++SP(8),A13:A12  ; [B_D64P] |629| 
    2747 000007b8     01ef  ||         RET     .S2     B3                ; [B_Sb674] |629| 
    2748                            .dwcfi  cfa_offset, 8
    2749                            .dwcfi  restore_reg, 13
    2750                            .dwcfi  restore_reg, 12
TMS320C6x Assembler PC v8.1.3 Thu Apr 20 05:51:03 2017

Tools Copyright (c) 1996-2015 Texas Instruments Incorporated
LCD.asm                                                              PAGE   51

    2751                    
    2752 000007c0 018d6ff8             OR      .L1     A11,A3,A3         ; [A_L674] |625| 
    2753 000007ba     65f7  ||         LDW     .D2T1   *++SP(8),A11      ; [B_D64P] |629| 
    2754                    
    2755                            .dwcfi  cfa_offset, 0
    2756                            .dwcfi  restore_reg, 11
    2757 000007c4 018c6078             ADD     .L1     A3,A3,A3          ; [A_L674] |625| 
    2758 000007c8 020c8ff8             OR      .L1     A4,A3,A4          ; [A_L674] |625| 
    2759 000007cc 00002000             NOP             2                 ; [A_L674] 
    2760                            .dwpsn  file "C:/Users/Raz Aloni/OneDrive/School/EEL4924/DSP/C_Libs/MicCheckPeripherals/src/LC
    2761                               ; BRANCH OCCURS {B3}              ; [] |629| 
    2762                            .dwattr $C$DW$181, DW_AT_TI_end_file("C:/Users/Raz Aloni/OneDrive/School/EEL4924/DSP/C_Libs/Mi
    2763                            .dwattr $C$DW$181, DW_AT_TI_end_line(0x275)
    2764                            .dwattr $C$DW$181, DW_AT_TI_end_column(0x01)
    2765                            .dwendentry
    2766                            .dwendtag $C$DW$181
    2767                    
    2768 000007d0                   .sect   ".text"
    2769                            .clink
    2770                            .global LCDVersionGet
    2771                    
    2772                    $C$DW$187       .dwtag  DW_TAG_subprogram
    2773                            .dwattr $C$DW$187, DW_AT_name("LCDVersionGet")
    2774                            .dwattr $C$DW$187, DW_AT_low_pc(LCDVersionGet)
    2775                            .dwattr $C$DW$187, DW_AT_high_pc(0x00)
    2776                            .dwattr $C$DW$187, DW_AT_TI_symbol_name("LCDVersionGet")
    2777                            .dwattr $C$DW$187, DW_AT_external
    2778                            .dwattr $C$DW$187, DW_AT_type(*$C$DW$T$11)
    2779                            .dwattr $C$DW$187, DW_AT_TI_begin_file("C:/Users/Raz Aloni/OneDrive/School/EEL4924/DSP/C_Libs/
    2780                            .dwattr $C$DW$187, DW_AT_TI_begin_line(0x2c2)
    2781                            .dwattr $C$DW$187, DW_AT_TI_begin_column(0x0e)
    2782                            .dwattr $C$DW$187, DW_AT_decl_file("C:/Users/Raz Aloni/OneDrive/School/EEL4924/DSP/C_Libs/MicC
    2783                            .dwattr $C$DW$187, DW_AT_decl_line(0x2c2)
    2784                            .dwattr $C$DW$187, DW_AT_decl_column(0x0e)
    2785                            .dwattr $C$DW$187, DW_AT_TI_max_frame_size(0x00)
    2786                            .dwpsn  file "C:/Users/Raz Aloni/OneDrive/School/EEL4924/DSP/C_Libs/MicCheckPeripherals/src/LC
    2787                    
    2788                            .dwfde $C$DW$CIE, LCDVersionGet
    2789                    
    2790                    ;******************************************************************************
    2791                    ;* FUNCTION NAME: LCDVersionGet                                               *
    2792                    ;*                                                                            *
    2793                    ;*   Regs Modified     : A4                                                   *
    2794                    ;*   Regs Used         : A4,B3                                                *
    2795                    ;*   Local Frame Size  : 0 Args + 0 Auto + 0 Save = 0 byte                    *
    2796                    ;******************************************************************************
    2797 000007d0           LCDVersionGet:
    2798                    ;** --------------------------------------------------------------------------*
    2799                            .dwcfi  cfa_offset, 0
    2800                            .dwpsn  file "C:/Users/Raz Aloni/OneDrive/School/EEL4924/DSP/C_Libs/MicCheckPeripherals/src/LC
    2801                    $C$DW$188       .dwtag  DW_TAG_TI_branch
    2802                            .dwattr $C$DW$188, DW_AT_low_pc(0x00)
    2803                            .dwattr $C$DW$188, DW_AT_TI_return
    2804                    
    2805 000007d0 008c8362             RETNOP          B3,4              ; [] |709| 
TMS320C6x Assembler PC v8.1.3 Thu Apr 20 05:51:03 2017

Tools Copyright (c) 1996-2015 Texas Instruments Incorporated
LCD.asm                                                              PAGE   52

    2806                            .dwpsn  file "C:/Users/Raz Aloni/OneDrive/School/EEL4924/DSP/C_Libs/MicCheckPeripherals/src/LC
    2807 000007d4 0204a358             MVK     .L1     1,A4              ; [A_L674] |708| 
    2808                            .dwpsn  file "C:/Users/Raz Aloni/OneDrive/School/EEL4924/DSP/C_Libs/MicCheckPeripherals/src/LC
    2809                               ; BRANCH OCCURS {B3}              ; [] |709| 
    2810                            .dwattr $C$DW$187, DW_AT_TI_end_file("C:/Users/Raz Aloni/OneDrive/School/EEL4924/DSP/C_Libs/Mi
    2811                            .dwattr $C$DW$187, DW_AT_TI_end_line(0x2c5)
    2812                            .dwattr $C$DW$187, DW_AT_TI_end_column(0x01)
    2813                            .dwendentry
    2814                            .dwendtag $C$DW$187
    2815                    
    2816                    ;*****************************************************************************
    2817                    ;* UNDEFINED EXTERNAL REFERENCES                                             *
    2818                    ;*****************************************************************************
    2819                            .global ti_sysbios_knl_Semaphore_post__E
    2820                            .global PSCModuleControl
    2821                            .global RasterEnable
    2822                            .global RasterDisable
    2823                            .global RasterNibbleModeDisable
    2824                            .global RasterLSBDataOrderSelect
    2825                            .global RasterIntEnable
    2826                            .global RasterDMAFBConfig
    2827                            .global RasterDMAConfig
    2828                            .global RasterClkConfig
    2829                            .global RasterModeConfig
    2830                            .global RasterVparamConfig
    2831                            .global RasterHparamConfig
    2832                            .global RasterTiming2Configure
    2833                            .global RasterFIFODMADelayConfig
    2834                            .global GPIODirModeSet
    2835                            .global GPIOPinWrite
    2836                            .global GPIOPinRead
    2837                            .global GPIOIntTypeSet
    2838                            .global GPIOBankIntEnable
    2839                            .global LCDCommandSemaphore
    2840                    
    2841                    ;******************************************************************************
    2842                    ;* BUILD ATTRIBUTES                                                           *
    2843                    ;******************************************************************************
    2844                            .battr "TI", Tag_File, 1, Tag_Long_Precision_Bits(2)
    2845                            .battr "TI", Tag_File, 1, Tag_Bitfield_layout(2)
    2846                            .battr "TI", Tag_File, 1, Tag_ABI_enum_size(2)
    2847                            .battr "c6xabi", Tag_File, 1, Tag_ABI_wchar_t(1)
    2848                            .battr "c6xabi", Tag_File, 1, Tag_ABI_array_object_alignment(0)
    2849                            .battr "c6xabi", Tag_File, 1, Tag_ABI_array_object_align_expected(0)
    2850                            .battr "c6xabi", Tag_File, 1, Tag_ABI_PIC(0)
    2851                            .battr "c6xabi", Tag_File, 1, Tag_ABI_PID(0)
    2852                            .battr "c6xabi", Tag_File, 1, Tag_ABI_DSBT(0)
    2853                            .battr "c6xabi", Tag_File, 1, Tag_ABI_stack_align_needed(0)
    2854                            .battr "c6xabi", Tag_File, 1, Tag_ABI_stack_align_preserved(0)
    2855                            .battr "TI", Tag_File, 1, Tag_Tramps_Use_SOC(1)
    2856                    
    2857                    ;******************************************************************************
    2858                    ;* TYPE INFORMATION                                                           *
    2859                    ;******************************************************************************
    2860                    
TMS320C6x Assembler PC v8.1.3 Thu Apr 20 05:51:03 2017

Tools Copyright (c) 1996-2015 Texas Instruments Incorporated
LCD.asm                                                              PAGE   53

    2861                    $C$DW$T$186     .dwtag  DW_TAG_enumeration_type
    2862                            .dwattr $C$DW$T$186, DW_AT_byte_size(0x04)
    2863                    $C$DW$189       .dwtag  DW_TAG_enumerator
    2864                            .dwattr $C$DW$189, DW_AT_name("PutDown")
    2865                            .dwattr $C$DW$189, DW_AT_const_value(0x00)
    2866                            .dwattr $C$DW$189, DW_AT_decl_file("C:/Users/Raz Aloni/OneDrive/School/EEL4924/DSP/C_Libs/MicC
    2867                            .dwattr $C$DW$189, DW_AT_decl_line(0x3b)
    2868                            .dwattr $C$DW$189, DW_AT_decl_column(0x05)
    2869                    
    2870                    $C$DW$190       .dwtag  DW_TAG_enumerator
    2871                            .dwattr $C$DW$190, DW_AT_name("PutUp")
    2872                            .dwattr $C$DW$190, DW_AT_const_value(0x01)
    2873                            .dwattr $C$DW$190, DW_AT_decl_file("C:/Users/Raz Aloni/OneDrive/School/EEL4924/DSP/C_Libs/MicC
    2874                            .dwattr $C$DW$190, DW_AT_decl_line(0x3c)
    2875                            .dwattr $C$DW$190, DW_AT_decl_column(0x05)
    2876                    
    2877                    $C$DW$191       .dwtag  DW_TAG_enumerator
    2878                            .dwattr $C$DW$191, DW_AT_name("Contact")
    2879                            .dwattr $C$DW$191, DW_AT_const_value(0x02)
    2880                            .dwattr $C$DW$191, DW_AT_decl_file("C:/Users/Raz Aloni/OneDrive/School/EEL4924/DSP/C_Libs/MicC
    2881                            .dwattr $C$DW$191, DW_AT_decl_line(0x3d)
    2882                            .dwattr $C$DW$191, DW_AT_decl_column(0x05)
    2883                    
    2884                            .dwattr $C$DW$T$186, DW_AT_decl_file("C:/Users/Raz Aloni/OneDrive/School/EEL4924/DSP/C_Libs/Mi
    2885                            .dwattr $C$DW$T$186, DW_AT_decl_line(0x3a)
    2886                            .dwattr $C$DW$T$186, DW_AT_decl_column(0x01)
    2887                            .dwendtag $C$DW$T$186
    2888                    
    2889                    $C$DW$T$187     .dwtag  DW_TAG_typedef
    2890                            .dwattr $C$DW$T$187, DW_AT_name("TouchEventFlag")
    2891                            .dwattr $C$DW$T$187, DW_AT_type(*$C$DW$T$186)
    2892                            .dwattr $C$DW$T$187, DW_AT_language(DW_LANG_C)
    2893                            .dwattr $C$DW$T$187, DW_AT_decl_file("C:/Users/Raz Aloni/OneDrive/School/EEL4924/DSP/C_Libs/Mi
    2894                            .dwattr $C$DW$T$187, DW_AT_decl_line(0x3e)
    2895                            .dwattr $C$DW$T$187, DW_AT_decl_column(0x03)
    2896                    
    2897                    
    2898                    $C$DW$T$614     .dwtag  DW_TAG_enumeration_type
    2899                            .dwattr $C$DW$T$614, DW_AT_byte_size(0x04)
    2900                    $C$DW$192       .dwtag  DW_TAG_enumerator
    2901                            .dwattr $C$DW$192, DW_AT_name("Nop")
    2902                            .dwattr $C$DW$192, DW_AT_const_value(0x00)
    2903                            .dwattr $C$DW$192, DW_AT_decl_file("C:/Users/Raz Aloni/OneDrive/School/EEL4924/DSP/C_Libs/MicC
    2904                            .dwattr $C$DW$192, DW_AT_decl_line(0x49)
    2905                            .dwattr $C$DW$192, DW_AT_decl_column(0x05)
    2906                    
    2907                    $C$DW$193       .dwtag  DW_TAG_enumerator
    2908                            .dwattr $C$DW$193, DW_AT_name("PreviousPreset")
    2909                            .dwattr $C$DW$193, DW_AT_const_value(0x01)
    2910                            .dwattr $C$DW$193, DW_AT_decl_file("C:/Users/Raz Aloni/OneDrive/School/EEL4924/DSP/C_Libs/MicC
    2911                            .dwattr $C$DW$193, DW_AT_decl_line(0x4a)
    2912                            .dwattr $C$DW$193, DW_AT_decl_column(0x05)
    2913                    
    2914                    $C$DW$194       .dwtag  DW_TAG_enumerator
    2915                            .dwattr $C$DW$194, DW_AT_name("NextPreset")
TMS320C6x Assembler PC v8.1.3 Thu Apr 20 05:51:03 2017

Tools Copyright (c) 1996-2015 Texas Instruments Incorporated
LCD.asm                                                              PAGE   54

    2916                            .dwattr $C$DW$194, DW_AT_const_value(0x02)
    2917                            .dwattr $C$DW$194, DW_AT_decl_file("C:/Users/Raz Aloni/OneDrive/School/EEL4924/DSP/C_Libs/MicC
    2918                            .dwattr $C$DW$194, DW_AT_decl_line(0x4b)
    2919                            .dwattr $C$DW$194, DW_AT_decl_column(0x05)
    2920                    
    2921                    $C$DW$195       .dwtag  DW_TAG_enumerator
    2922                            .dwattr $C$DW$195, DW_AT_name("Voice0Toggle")
    2923                            .dwattr $C$DW$195, DW_AT_const_value(0x03)
    2924                            .dwattr $C$DW$195, DW_AT_decl_file("C:/Users/Raz Aloni/OneDrive/School/EEL4924/DSP/C_Libs/MicC
    2925                            .dwattr $C$DW$195, DW_AT_decl_line(0x4c)
    2926                            .dwattr $C$DW$195, DW_AT_decl_column(0x05)
    2927                    
    2928                    $C$DW$196       .dwtag  DW_TAG_enumerator
    2929                            .dwattr $C$DW$196, DW_AT_name("Voice1Toggle")
    2930                            .dwattr $C$DW$196, DW_AT_const_value(0x04)
    2931                            .dwattr $C$DW$196, DW_AT_decl_file("C:/Users/Raz Aloni/OneDrive/School/EEL4924/DSP/C_Libs/MicC
    2932                            .dwattr $C$DW$196, DW_AT_decl_line(0x4d)
    2933                            .dwattr $C$DW$196, DW_AT_decl_column(0x05)
    2934                    
    2935                    $C$DW$197       .dwtag  DW_TAG_enumerator
    2936                            .dwattr $C$DW$197, DW_AT_name("Voice2Toggle")
    2937                            .dwattr $C$DW$197, DW_AT_const_value(0x05)
    2938                            .dwattr $C$DW$197, DW_AT_decl_file("C:/Users/Raz Aloni/OneDrive/School/EEL4924/DSP/C_Libs/MicC
    2939                            .dwattr $C$DW$197, DW_AT_decl_line(0x4e)
    2940                            .dwattr $C$DW$197, DW_AT_decl_column(0x05)
    2941                    
    2942                    $C$DW$198       .dwtag  DW_TAG_enumerator
    2943                            .dwattr $C$DW$198, DW_AT_name("Voice3Toggle")
    2944                            .dwattr $C$DW$198, DW_AT_const_value(0x06)
    2945                            .dwattr $C$DW$198, DW_AT_decl_file("C:/Users/Raz Aloni/OneDrive/School/EEL4924/DSP/C_Libs/MicC
    2946                            .dwattr $C$DW$198, DW_AT_decl_line(0x4f)
    2947                            .dwattr $C$DW$198, DW_AT_decl_column(0x05)
    2948                    
    2949                    $C$DW$199       .dwtag  DW_TAG_enumerator
    2950                            .dwattr $C$DW$199, DW_AT_name("Voice0Tune")
    2951                            .dwattr $C$DW$199, DW_AT_const_value(0x07)
    2952                            .dwattr $C$DW$199, DW_AT_decl_file("C:/Users/Raz Aloni/OneDrive/School/EEL4924/DSP/C_Libs/MicC
    2953                            .dwattr $C$DW$199, DW_AT_decl_line(0x50)
    2954                            .dwattr $C$DW$199, DW_AT_decl_column(0x05)
    2955                    
    2956                    $C$DW$200       .dwtag  DW_TAG_enumerator
    2957                            .dwattr $C$DW$200, DW_AT_name("Voice1Tune")
    2958                            .dwattr $C$DW$200, DW_AT_const_value(0x08)
    2959                            .dwattr $C$DW$200, DW_AT_decl_file("C:/Users/Raz Aloni/OneDrive/School/EEL4924/DSP/C_Libs/MicC
    2960                            .dwattr $C$DW$200, DW_AT_decl_line(0x51)
    2961                            .dwattr $C$DW$200, DW_AT_decl_column(0x05)
    2962                    
    2963                    $C$DW$201       .dwtag  DW_TAG_enumerator
    2964                            .dwattr $C$DW$201, DW_AT_name("Voice2Tune")
    2965                            .dwattr $C$DW$201, DW_AT_const_value(0x09)
    2966                            .dwattr $C$DW$201, DW_AT_decl_file("C:/Users/Raz Aloni/OneDrive/School/EEL4924/DSP/C_Libs/MicC
    2967                            .dwattr $C$DW$201, DW_AT_decl_line(0x52)
    2968                            .dwattr $C$DW$201, DW_AT_decl_column(0x05)
    2969                    
    2970                    $C$DW$202       .dwtag  DW_TAG_enumerator
TMS320C6x Assembler PC v8.1.3 Thu Apr 20 05:51:03 2017

Tools Copyright (c) 1996-2015 Texas Instruments Incorporated
LCD.asm                                                              PAGE   55

    2971                            .dwattr $C$DW$202, DW_AT_name("Voice3Tune")
    2972                            .dwattr $C$DW$202, DW_AT_const_value(0x0a)
    2973                            .dwattr $C$DW$202, DW_AT_decl_file("C:/Users/Raz Aloni/OneDrive/School/EEL4924/DSP/C_Libs/MicC
    2974                            .dwattr $C$DW$202, DW_AT_decl_line(0x53)
    2975                            .dwattr $C$DW$202, DW_AT_decl_column(0x05)
    2976                    
    2977                    $C$DW$203       .dwtag  DW_TAG_enumerator
    2978                            .dwattr $C$DW$203, DW_AT_name("ScaleTonic")
    2979                            .dwattr $C$DW$203, DW_AT_const_value(0x0b)
    2980                            .dwattr $C$DW$203, DW_AT_decl_file("C:/Users/Raz Aloni/OneDrive/School/EEL4924/DSP/C_Libs/MicC
    2981                            .dwattr $C$DW$203, DW_AT_decl_line(0x54)
    2982                            .dwattr $C$DW$203, DW_AT_decl_column(0x05)
    2983                    
    2984                    $C$DW$204       .dwtag  DW_TAG_enumerator
    2985                            .dwattr $C$DW$204, DW_AT_name("ChordTonic")
    2986                            .dwattr $C$DW$204, DW_AT_const_value(0x0c)
    2987                            .dwattr $C$DW$204, DW_AT_decl_file("C:/Users/Raz Aloni/OneDrive/School/EEL4924/DSP/C_Libs/MicC
    2988                            .dwattr $C$DW$204, DW_AT_decl_line(0x55)
    2989                            .dwattr $C$DW$204, DW_AT_decl_column(0x05)
    2990                    
    2991                    $C$DW$205       .dwtag  DW_TAG_enumerator
    2992                            .dwattr $C$DW$205, DW_AT_name("ScaleType")
    2993                            .dwattr $C$DW$205, DW_AT_const_value(0x0d)
    2994                            .dwattr $C$DW$205, DW_AT_decl_file("C:/Users/Raz Aloni/OneDrive/School/EEL4924/DSP/C_Libs/MicC
    2995                            .dwattr $C$DW$205, DW_AT_decl_line(0x56)
    2996                            .dwattr $C$DW$205, DW_AT_decl_column(0x05)
    2997                    
    2998                    $C$DW$206       .dwtag  DW_TAG_enumerator
    2999                            .dwattr $C$DW$206, DW_AT_name("ChordType")
    3000                            .dwattr $C$DW$206, DW_AT_const_value(0x0e)
    3001                            .dwattr $C$DW$206, DW_AT_decl_file("C:/Users/Raz Aloni/OneDrive/School/EEL4924/DSP/C_Libs/MicC
    3002                            .dwattr $C$DW$206, DW_AT_decl_line(0x57)
    3003                            .dwattr $C$DW$206, DW_AT_decl_column(0x05)
    3004                    
    3005                    $C$DW$207       .dwtag  DW_TAG_enumerator
    3006                            .dwattr $C$DW$207, DW_AT_name("IsChord")
    3007                            .dwattr $C$DW$207, DW_AT_const_value(0x0f)
    3008                            .dwattr $C$DW$207, DW_AT_decl_file("C:/Users/Raz Aloni/OneDrive/School/EEL4924/DSP/C_Libs/MicC
    3009                            .dwattr $C$DW$207, DW_AT_decl_line(0x58)
    3010                            .dwattr $C$DW$207, DW_AT_decl_column(0x05)
    3011                    
    3012                            .dwattr $C$DW$T$614, DW_AT_decl_file("C:/Users/Raz Aloni/OneDrive/School/EEL4924/DSP/C_Libs/Mi
    3013                            .dwattr $C$DW$T$614, DW_AT_decl_line(0x48)
    3014                            .dwattr $C$DW$T$614, DW_AT_decl_column(0x01)
    3015                            .dwendtag $C$DW$T$614
    3016                    
    3017                    $C$DW$T$615     .dwtag  DW_TAG_typedef
    3018                            .dwattr $C$DW$T$615, DW_AT_name("LCDCommand")
    3019                            .dwattr $C$DW$T$615, DW_AT_type(*$C$DW$T$614)
    3020                            .dwattr $C$DW$T$615, DW_AT_language(DW_LANG_C)
    3021                            .dwattr $C$DW$T$615, DW_AT_decl_file("C:/Users/Raz Aloni/OneDrive/School/EEL4924/DSP/C_Libs/Mi
    3022                            .dwattr $C$DW$T$615, DW_AT_decl_line(0x59)
    3023                            .dwattr $C$DW$T$615, DW_AT_decl_column(0x03)
    3024                    
    3025                    $C$DW$T$616     .dwtag  DW_TAG_const_type
TMS320C6x Assembler PC v8.1.3 Thu Apr 20 05:51:03 2017

Tools Copyright (c) 1996-2015 Texas Instruments Incorporated
LCD.asm                                                              PAGE   56

    3026                            .dwattr $C$DW$T$616, DW_AT_type(*$C$DW$T$615)
    3027                    
    3028                    
    3029                    $C$DW$T$619     .dwtag  DW_TAG_enumeration_type
    3030                            .dwattr $C$DW$T$619, DW_AT_byte_size(0x04)
    3031                    $C$DW$208       .dwtag  DW_TAG_enumerator
    3032                            .dwattr $C$DW$208, DW_AT_name("HW_PSC_CC0")
    3033                            .dwattr $C$DW$208, DW_AT_const_value(0x00)
    3034                            .dwattr $C$DW$208, DW_AT_decl_file("C:/ti/OMAPL138_StarterWare_1_10_04_01/include/hw/hw_psc_C6
    3035                            .dwattr $C$DW$208, DW_AT_decl_line(0x3c)
    3036                            .dwattr $C$DW$208, DW_AT_decl_column(0x05)
    3037                    
    3038                    $C$DW$209       .dwtag  DW_TAG_enumerator
    3039                            .dwattr $C$DW$209, DW_AT_name("HW_PSC_TC0")
    3040                            .dwattr $C$DW$209, DW_AT_const_value(0x01)
    3041                            .dwattr $C$DW$209, DW_AT_decl_file("C:/ti/OMAPL138_StarterWare_1_10_04_01/include/hw/hw_psc_C6
    3042                            .dwattr $C$DW$209, DW_AT_decl_line(0x3d)
    3043                            .dwattr $C$DW$209, DW_AT_decl_column(0x05)
    3044                    
    3045                    $C$DW$210       .dwtag  DW_TAG_enumerator
    3046                            .dwattr $C$DW$210, DW_AT_name("HW_PSC_TC1")
    3047                            .dwattr $C$DW$210, DW_AT_const_value(0x02)
    3048                            .dwattr $C$DW$210, DW_AT_decl_file("C:/ti/OMAPL138_StarterWare_1_10_04_01/include/hw/hw_psc_C6
    3049                            .dwattr $C$DW$210, DW_AT_decl_line(0x3e)
    3050                            .dwattr $C$DW$210, DW_AT_decl_column(0x05)
    3051                    
    3052                    $C$DW$211       .dwtag  DW_TAG_enumerator
    3053                            .dwattr $C$DW$211, DW_AT_name("HW_PSC_EMIFA")
    3054                            .dwattr $C$DW$211, DW_AT_const_value(0x03)
    3055                            .dwattr $C$DW$211, DW_AT_decl_file("C:/ti/OMAPL138_StarterWare_1_10_04_01/include/hw/hw_psc_C6
    3056                            .dwattr $C$DW$211, DW_AT_decl_line(0x3f)
    3057                            .dwattr $C$DW$211, DW_AT_decl_column(0x05)
    3058                    
    3059                    $C$DW$212       .dwtag  DW_TAG_enumerator
    3060                            .dwattr $C$DW$212, DW_AT_name("HW_PSC_SPI0")
    3061                            .dwattr $C$DW$212, DW_AT_const_value(0x04)
    3062                            .dwattr $C$DW$212, DW_AT_decl_file("C:/ti/OMAPL138_StarterWare_1_10_04_01/include/hw/hw_psc_C6
    3063                            .dwattr $C$DW$212, DW_AT_decl_line(0x40)
    3064                            .dwattr $C$DW$212, DW_AT_decl_column(0x05)
    3065                    
    3066                    $C$DW$213       .dwtag  DW_TAG_enumerator
    3067                            .dwattr $C$DW$213, DW_AT_name("HW_PSC_MMCSD0")
    3068                            .dwattr $C$DW$213, DW_AT_const_value(0x05)
    3069                            .dwattr $C$DW$213, DW_AT_decl_file("C:/ti/OMAPL138_StarterWare_1_10_04_01/include/hw/hw_psc_C6
    3070                            .dwattr $C$DW$213, DW_AT_decl_line(0x41)
    3071                            .dwattr $C$DW$213, DW_AT_decl_column(0x05)
    3072                    
    3073                    $C$DW$214       .dwtag  DW_TAG_enumerator
    3074                            .dwattr $C$DW$214, DW_AT_name("HW_PSC_AINTC")
    3075                            .dwattr $C$DW$214, DW_AT_const_value(0x06)
    3076                            .dwattr $C$DW$214, DW_AT_decl_file("C:/ti/OMAPL138_StarterWare_1_10_04_01/include/hw/hw_psc_C6
    3077                            .dwattr $C$DW$214, DW_AT_decl_line(0x42)
    3078                            .dwattr $C$DW$214, DW_AT_decl_column(0x05)
    3079                    
    3080                    $C$DW$215       .dwtag  DW_TAG_enumerator
TMS320C6x Assembler PC v8.1.3 Thu Apr 20 05:51:03 2017

Tools Copyright (c) 1996-2015 Texas Instruments Incorporated
LCD.asm                                                              PAGE   57

    3081                            .dwattr $C$DW$215, DW_AT_name("HW_PSC_ARM_RAMROM")
    3082                            .dwattr $C$DW$215, DW_AT_const_value(0x07)
    3083                            .dwattr $C$DW$215, DW_AT_decl_file("C:/ti/OMAPL138_StarterWare_1_10_04_01/include/hw/hw_psc_C6
    3084                            .dwattr $C$DW$215, DW_AT_decl_line(0x43)
    3085                            .dwattr $C$DW$215, DW_AT_decl_column(0x05)
    3086                    
    3087                    $C$DW$216       .dwtag  DW_TAG_enumerator
    3088                            .dwattr $C$DW$216, DW_AT_name("HW_PSC_UART0")
    3089                            .dwattr $C$DW$216, DW_AT_const_value(0x09)
    3090                            .dwattr $C$DW$216, DW_AT_decl_file("C:/ti/OMAPL138_StarterWare_1_10_04_01/include/hw/hw_psc_C6
    3091                            .dwattr $C$DW$216, DW_AT_decl_line(0x44)
    3092                            .dwattr $C$DW$216, DW_AT_decl_column(0x05)
    3093                    
    3094                    $C$DW$217       .dwtag  DW_TAG_enumerator
    3095                            .dwattr $C$DW$217, DW_AT_name("HW_PSC_SCR0_SS")
    3096                            .dwattr $C$DW$217, DW_AT_const_value(0x0a)
    3097                            .dwattr $C$DW$217, DW_AT_decl_file("C:/ti/OMAPL138_StarterWare_1_10_04_01/include/hw/hw_psc_C6
    3098                            .dwattr $C$DW$217, DW_AT_decl_line(0x45)
    3099                            .dwattr $C$DW$217, DW_AT_decl_column(0x05)
    3100                    
    3101                    $C$DW$218       .dwtag  DW_TAG_enumerator
    3102                            .dwattr $C$DW$218, DW_AT_name("HW_PSC_SCR1_SS")
    3103                            .dwattr $C$DW$218, DW_AT_const_value(0x0b)
    3104                            .dwattr $C$DW$218, DW_AT_decl_file("C:/ti/OMAPL138_StarterWare_1_10_04_01/include/hw/hw_psc_C6
    3105                            .dwattr $C$DW$218, DW_AT_decl_line(0x46)
    3106                            .dwattr $C$DW$218, DW_AT_decl_column(0x05)
    3107                    
    3108                    $C$DW$219       .dwtag  DW_TAG_enumerator
    3109                            .dwattr $C$DW$219, DW_AT_name("HW_PSC_SCR2_SS")
    3110                            .dwattr $C$DW$219, DW_AT_const_value(0x0c)
    3111                            .dwattr $C$DW$219, DW_AT_decl_file("C:/ti/OMAPL138_StarterWare_1_10_04_01/include/hw/hw_psc_C6
    3112                            .dwattr $C$DW$219, DW_AT_decl_line(0x47)
    3113                            .dwattr $C$DW$219, DW_AT_decl_column(0x05)
    3114                    
    3115                    $C$DW$220       .dwtag  DW_TAG_enumerator
    3116                            .dwattr $C$DW$220, DW_AT_name("HW_PSC_PRU")
    3117                            .dwattr $C$DW$220, DW_AT_const_value(0x0d)
    3118                            .dwattr $C$DW$220, DW_AT_decl_file("C:/ti/OMAPL138_StarterWare_1_10_04_01/include/hw/hw_psc_C6
    3119                            .dwattr $C$DW$220, DW_AT_decl_line(0x48)
    3120                            .dwattr $C$DW$220, DW_AT_decl_column(0x05)
    3121                    
    3122                    $C$DW$221       .dwtag  DW_TAG_enumerator
    3123                            .dwattr $C$DW$221, DW_AT_name("HW_PSC_ARM")
    3124                            .dwattr $C$DW$221, DW_AT_const_value(0x0e)
    3125                            .dwattr $C$DW$221, DW_AT_decl_file("C:/ti/OMAPL138_StarterWare_1_10_04_01/include/hw/hw_psc_C6
    3126                            .dwattr $C$DW$221, DW_AT_decl_line(0x49)
    3127                            .dwattr $C$DW$221, DW_AT_decl_column(0x05)
    3128                    
    3129                    $C$DW$222       .dwtag  DW_TAG_enumerator
    3130                            .dwattr $C$DW$222, DW_AT_name("HW_PSC_DSP")
    3131                            .dwattr $C$DW$222, DW_AT_const_value(0x0f)
    3132                            .dwattr $C$DW$222, DW_AT_decl_file("C:/ti/OMAPL138_StarterWare_1_10_04_01/include/hw/hw_psc_C6
    3133                            .dwattr $C$DW$222, DW_AT_decl_line(0x4a)
    3134                            .dwattr $C$DW$222, DW_AT_decl_column(0x05)
    3135                    
TMS320C6x Assembler PC v8.1.3 Thu Apr 20 05:51:03 2017

Tools Copyright (c) 1996-2015 Texas Instruments Incorporated
LCD.asm                                                              PAGE   58

    3136                            .dwattr $C$DW$T$619, DW_AT_decl_file("C:/ti/OMAPL138_StarterWare_1_10_04_01/include/hw/hw_psc_
    3137                            .dwattr $C$DW$T$619, DW_AT_decl_line(0x3b)
