TMS320C6x Assembler PC v8.1.3 Thu Apr 20 04:41:32 2017

Tools Copyright (c) 1996-2015 Texas Instruments Incorporated
leds.asm                                                             PAGE    1

       1                    ;******************************************************************************
       2                    ;* G3 TMS320C6x C/C++ Codegen                                       PC v8.1.3 *
       3                    ;* Date/Time created: Thu Apr 20 04:41:31 2017                                *
       4                    ;******************************************************************************
       5                            .compiler_opts --abi=eabi --array_alignment=8 --diag_wrap=off --endian=little --hll_source=on 
       6                    
       7                    ;******************************************************************************
       8                    ;* GLOBAL FILE PARAMETERS                                                     *
       9                    ;*                                                                            *
      10                    ;*   Architecture      : TMS320C674x                                          *
      11                    ;*   Optimization      : Enabled at level 3                                   *
      12                    ;*   Optimizing for    : Speed                                                *
      13                    ;*                       Based on options: -o3, no -ms                        *
      14                    ;*   Endian            : Little                                               *
      15                    ;*   Interrupt Thrshld : Disabled                                             *
      16                    ;*   Data Access Model : Far Aggregate Data                                   *
      17                    ;*   Pipelining        : Enabled                                              *
      18                    ;*   Speculate Loads   : Enabled with threshold = 0                           *
      19                    ;*   Memory Aliases    : Presume are aliases (pessimistic)                    *
      20                    ;*   Debug Info        : DWARF Debug                                          *
      21                    ;*                                                                            *
      22                    ;******************************************************************************
      23                    
      24                            .asg    A15, FP
      25                            .asg    B14, DP
      26                            .asg    B15, SP
      27                            .global $bss
      28                    
      29                    
      30                    $C$DW$CU        .dwtag  DW_TAG_compile_unit
      31                            .dwattr $C$DW$CU, DW_AT_name("C:/Users/Raz Aloni/OneDrive/School/EEL4924/DSP/C_Libs/MicCheckPe
      32                            .dwattr $C$DW$CU, DW_AT_producer("TI G3 TMS320C6x C/C++ Codegen PC v8.1.3 Copyright (c) 1996-2
      33                            .dwattr $C$DW$CU, DW_AT_TI_version(0x01)
      34                            .dwattr $C$DW$CU, DW_AT_comp_dir("C:\Users\Raz Aloni\OneDrive\School\EEL4924\DSP\DSP_Workspace
      35                    
      36                    $C$DW$1 .dwtag  DW_TAG_subprogram
      37                            .dwattr $C$DW$1, DW_AT_name("PSCModuleControl")
      38                            .dwattr $C$DW$1, DW_AT_TI_symbol_name("PSCModuleControl")
      39                            .dwattr $C$DW$1, DW_AT_type(*$C$DW$T$10)
      40                            .dwattr $C$DW$1, DW_AT_declaration
      41                            .dwattr $C$DW$1, DW_AT_external
      42                            .dwattr $C$DW$1, DW_AT_decl_file("C:/ti/OMAPL138_StarterWare_1_10_04_01/include/psc.h")
      43                            .dwattr $C$DW$1, DW_AT_decl_line(0x3a)
      44                            .dwattr $C$DW$1, DW_AT_decl_column(0x05)
      45                    $C$DW$2 .dwtag  DW_TAG_formal_parameter
      46                            .dwattr $C$DW$2, DW_AT_type(*$C$DW$T$11)
      47                    
      48                    $C$DW$3 .dwtag  DW_TAG_formal_parameter
      49                            .dwattr $C$DW$3, DW_AT_type(*$C$DW$T$11)
      50                    
      51                    $C$DW$4 .dwtag  DW_TAG_formal_parameter
      52                            .dwattr $C$DW$4, DW_AT_type(*$C$DW$T$11)
      53                    
      54                    $C$DW$5 .dwtag  DW_TAG_formal_parameter
      55                            .dwattr $C$DW$5, DW_AT_type(*$C$DW$T$11)
TMS320C6x Assembler PC v8.1.3 Thu Apr 20 04:41:32 2017

Tools Copyright (c) 1996-2015 Texas Instruments Incorporated
leds.asm                                                             PAGE    2

      56                    
      57                            .dwendtag $C$DW$1
      58                    
      59                    
      60                    $C$DW$6 .dwtag  DW_TAG_subprogram
      61                            .dwattr $C$DW$6, DW_AT_name("GPIODirModeSet")
      62                            .dwattr $C$DW$6, DW_AT_TI_symbol_name("GPIODirModeSet")
      63                            .dwattr $C$DW$6, DW_AT_declaration
      64                            .dwattr $C$DW$6, DW_AT_external
      65                            .dwattr $C$DW$6, DW_AT_decl_file("C:/ti/OMAPL138_StarterWare_1_10_04_01/include/gpio.h")
      66                            .dwattr $C$DW$6, DW_AT_decl_line(0x77)
      67                            .dwattr $C$DW$6, DW_AT_decl_column(0x06)
      68                    $C$DW$7 .dwtag  DW_TAG_formal_parameter
      69                            .dwattr $C$DW$7, DW_AT_type(*$C$DW$T$11)
      70                    
      71                    $C$DW$8 .dwtag  DW_TAG_formal_parameter
      72                            .dwattr $C$DW$8, DW_AT_type(*$C$DW$T$11)
      73                    
      74                    $C$DW$9 .dwtag  DW_TAG_formal_parameter
      75                            .dwattr $C$DW$9, DW_AT_type(*$C$DW$T$11)
      76                    
      77                            .dwendtag $C$DW$6
      78                    
      79                    
      80                    $C$DW$10        .dwtag  DW_TAG_subprogram
      81                            .dwattr $C$DW$10, DW_AT_name("GPIOPinWrite")
      82                            .dwattr $C$DW$10, DW_AT_TI_symbol_name("GPIOPinWrite")
      83                            .dwattr $C$DW$10, DW_AT_declaration
      84                            .dwattr $C$DW$10, DW_AT_external
      85                            .dwattr $C$DW$10, DW_AT_decl_file("C:/ti/OMAPL138_StarterWare_1_10_04_01/include/gpio.h")
      86                            .dwattr $C$DW$10, DW_AT_decl_line(0x7a)
      87                            .dwattr $C$DW$10, DW_AT_decl_column(0x06)
      88                    $C$DW$11        .dwtag  DW_TAG_formal_parameter
      89                            .dwattr $C$DW$11, DW_AT_type(*$C$DW$T$11)
      90                    
      91                    $C$DW$12        .dwtag  DW_TAG_formal_parameter
      92                            .dwattr $C$DW$12, DW_AT_type(*$C$DW$T$11)
      93                    
      94                    $C$DW$13        .dwtag  DW_TAG_formal_parameter
      95                            .dwattr $C$DW$13, DW_AT_type(*$C$DW$T$11)
      96                    
      97                            .dwendtag $C$DW$10
      98                    
      99 00000000                   .sect   ".rodata"
     100                            .align  4
     101                            .elfsym sysConfigRegs,SYM_SIZE(4)
     102 00000000           sysConfigRegs:
     103 00000000 01C14000          .bits   29442048,32                     ; sysConfigRegs @ 0
     104                    
     105                    $C$DW$14        .dwtag  DW_TAG_variable
     106                            .dwattr $C$DW$14, DW_AT_name("sysConfigRegs")
     107                            .dwattr $C$DW$14, DW_AT_TI_symbol_name("sysConfigRegs")
     108                            .dwattr $C$DW$14, DW_AT_type(*$C$DW$T$73)
     109                            .dwattr $C$DW$14, DW_AT_location[DW_OP_addr sysConfigRegs]
     110                            .dwattr $C$DW$14, DW_AT_decl_file("C:/Users/Raz Aloni/OneDrive/School/EEL4924/DSP/C_Libs/MicCh
TMS320C6x Assembler PC v8.1.3 Thu Apr 20 04:41:32 2017

Tools Copyright (c) 1996-2015 Texas Instruments Incorporated
leds.asm                                                             PAGE    3

     111                            .dwattr $C$DW$14, DW_AT_decl_line(0x2e)
     112                            .dwattr $C$DW$14, DW_AT_decl_column(0x1b)
     113                    
     114 00000000                   .sect   ".neardata", RW
     115                            .align  1
     116                            .elfsym mode$1,SYM_SIZE(1)
     117 00000000           mode$1:
     118 00000000 00000000          .bits   0,8                     ; mode$1 @ 0
     119                    
     120                    ;       C:\ti\ccsv7\tools\compiler\ti-cgt-c6000_8.1.3\bin\opt6x.exe C:\\Users\\RAZALO~1\\AppData\\Loca
     121 00000000                   .sect   ".text"
     122                            .clink
     123                            .global toggleLeds
     124                    
     125                    $C$DW$15        .dwtag  DW_TAG_subprogram
     126                            .dwattr $C$DW$15, DW_AT_name("toggleLeds")
     127                            .dwattr $C$DW$15, DW_AT_low_pc(toggleLeds)
     128                            .dwattr $C$DW$15, DW_AT_high_pc(0x00)
     129                            .dwattr $C$DW$15, DW_AT_TI_symbol_name("toggleLeds")
     130                            .dwattr $C$DW$15, DW_AT_external
     131                            .dwattr $C$DW$15, DW_AT_TI_begin_file("C:/Users/Raz Aloni/OneDrive/School/EEL4924/DSP/C_Libs/M
     132                            .dwattr $C$DW$15, DW_AT_TI_begin_line(0x90)
     133                            .dwattr $C$DW$15, DW_AT_TI_begin_column(0x06)
     134                            .dwattr $C$DW$15, DW_AT_decl_file("C:/Users/Raz Aloni/OneDrive/School/EEL4924/DSP/C_Libs/MicCh
     135                            .dwattr $C$DW$15, DW_AT_decl_line(0x90)
     136                            .dwattr $C$DW$15, DW_AT_decl_column(0x06)
     137                            .dwattr $C$DW$15, DW_AT_TI_max_frame_size(0x08)
     138                            .dwpsn  file "C:/Users/Raz Aloni/OneDrive/School/EEL4924/DSP/C_Libs/MicCheckPeripherals/src/le
     139                    
     140                            .dwfde $C$DW$CIE, toggleLeds
     141                    $C$DW$16        .dwtag  DW_TAG_variable
     142                            .dwattr $C$DW$16, DW_AT_name("mode")
     143                            .dwattr $C$DW$16, DW_AT_TI_symbol_name("mode$1")
     144                            .dwattr $C$DW$16, DW_AT_type(*$C$DW$T$96)
     145                            .dwattr $C$DW$16, DW_AT_location[DW_OP_addr mode$1]
     146                    
     147                    
     148                    ;******************************************************************************
     149                    ;* FUNCTION NAME: toggleLeds                                                  *
     150                    ;*                                                                            *
     151                    ;*   Regs Modified     : A0,A1,A2,A3,A4,A5,A6,A7,A8,A9,A16,A17,A18,A19,A20,   *
     152                    ;*                           A21,A22,A23,A24,A25,A26,A27,A28,A29,A30,A31,B0,  *
     153                    ;*                           B1,B2,B3,B4,B5,B6,B7,B8,B9,SP,B16,B17,B18,B19,   *
     154                    ;*                           B20,B21,B22,B23,B24,B25,B26,B27,B28,B29,B30,B31  *
     155                    ;*   Regs Used         : A0,A1,A2,A3,A4,A5,A6,A7,A8,A9,A16,A17,A18,A19,A20,   *
     156                    ;*                           A21,A22,A23,A24,A25,A26,A27,A28,A29,A30,A31,B0,  *
     157                    ;*                           B1,B2,B3,B4,B5,B6,B7,B8,B9,DP,SP,B16,B17,B18,B19,*
     158                    ;*                           B20,B21,B22,B23,B24,B25,B26,B27,B28,B29,B30,B31  *
     159                    ;*   Local Frame Size  : 0 Args + 0 Auto + 4 Save = 4 byte                    *
     160                    ;******************************************************************************
     161 00000000           toggleLeds:
     162                    ;** --------------------------------------------------------------------------*
     163                            .dwcfi  cfa_offset, 0
     164                    
     165 00000000 02300029             MVKL    .S1     0x1e26000,A4      ; [A_S674] |149| 
TMS320C6x Assembler PC v8.1.3 Thu Apr 20 04:41:32 2017

Tools Copyright (c) 1996-2015 Texas Instruments Incorporated
leds.asm                                                             PAGE    4

     166 00000004     31f7  ||         STW     .D2T2   B3,*SP++(-8)      ; [B_D64P] |145| 
     167 00000006     3a33  ||         MVK     .S2     0x39,B4           ; [B_Sb674] |149| 
     168                    
     169                            .dwcfi  cfa_offset, 8
     170                            .dwcfi  save_reg_to_mem, 19, 0
     171                            .dwpsn  file "C:/Users/Raz Aloni/OneDrive/School/EEL4924/DSP/C_Libs/MicCheckPeripherals/src/le
     172                    $C$DW$17        .dwtag  DW_TAG_TI_branch
     173                            .dwattr $C$DW$17, DW_AT_low_pc(0x04)
     174                            .dwattr $C$DW$17, DW_AT_name("GPIOPinWrite")
     175                            .dwattr $C$DW$17, DW_AT_TI_call
     176                    
     177                    
     178 00000008 0200f169             MVKH    .S1     0x1e26000,A4      ; [A_S674] |149| 
     179 0000000c 10000013! ||         CALLP   .S2     GPIOPinWrite,B3   ; [B_Sb674] |149| 
     180 00000010 0300002c! ||         LDB     .D2T1   *+DP(mode$1),A6   ; [B_D64P] |149| 
     181                    
     182 00000014           $C$RL0:    ; CALLP OCCURS {GPIOPinWrite} {0}  ; [] |149| 
     183                            .dwpsn  file "C:/Users/Raz Aloni/OneDrive/School/EEL4924/DSP/C_Libs/MicCheckPeripherals/src/le
     184 00000014 0200002e!            LDB     .D2T2   *+DP(mode$1),B4   ; [B_D64P] |153| 
     185                            .dwpsn  file "C:/Users/Raz Aloni/OneDrive/School/EEL4924/DSP/C_Libs/MicCheckPeripherals/src/le
     186 00000018     71f7             LDW     .D2T2   *++SP(8),B3       ; [B_D64P] |154| 
     187                            .dwcfi  cfa_offset, 0
     188                            .dwcfi  restore_reg, 19
     189 0000001a     6c6e             NOP             4                 ; [A_L674] 
     190                    $C$DW$18        .dwtag  DW_TAG_TI_branch
     191                            .dwattr $C$DW$18, DW_AT_low_pc(0x00)
     192                            .dwattr $C$DW$18, DW_AT_TI_return
     193                    
     194 00000020     61ef             RETNOP          B3,3              ; [] |154| 
     195                            .dwpsn  file "C:/Users/Raz Aloni/OneDrive/School/EEL4924/DSP/C_Libs/MicCheckPeripherals/src/le
     196 00000022     fa67             XOR     .L2     1,B4,B4           ; [B_L674] |153| 
     197 00000024 0200003e!            STB     .D2T2   B4,*+DP(mode$1)   ; [B_D64P] |153| 
     198                            .dwpsn  file "C:/Users/Raz Aloni/OneDrive/School/EEL4924/DSP/C_Libs/MicCheckPeripherals/src/le
     199                               ; BRANCH OCCURS {B3}              ; [] |154| 
     200                            .dwattr $C$DW$15, DW_AT_TI_end_file("C:/Users/Raz Aloni/OneDrive/School/EEL4924/DSP/C_Libs/Mic
     201                            .dwattr $C$DW$15, DW_AT_TI_end_line(0x9a)
     202                            .dwattr $C$DW$15, DW_AT_TI_end_column(0x01)
     203                            .dwendentry
     204                            .dwendtag $C$DW$15
     205                    
     206 00000028                   .sect   ".text"
     207                            .clink
     208                            .global SetLEDS
     209                    
     210                    $C$DW$19        .dwtag  DW_TAG_subprogram
     211                            .dwattr $C$DW$19, DW_AT_name("SetLEDS")
     212                            .dwattr $C$DW$19, DW_AT_low_pc(SetLEDS)
     213                            .dwattr $C$DW$19, DW_AT_high_pc(0x00)
     214                            .dwattr $C$DW$19, DW_AT_TI_symbol_name("SetLEDS")
     215                            .dwattr $C$DW$19, DW_AT_external
     216                            .dwattr $C$DW$19, DW_AT_TI_begin_file("C:/Users/Raz Aloni/OneDrive/School/EEL4924/DSP/C_Libs/M
     217                            .dwattr $C$DW$19, DW_AT_TI_begin_line(0x62)
     218                            .dwattr $C$DW$19, DW_AT_TI_begin_column(0x06)
     219                            .dwattr $C$DW$19, DW_AT_decl_file("C:/Users/Raz Aloni/OneDrive/School/EEL4924/DSP/C_Libs/MicCh
     220                            .dwattr $C$DW$19, DW_AT_decl_line(0x62)
TMS320C6x Assembler PC v8.1.3 Thu Apr 20 04:41:32 2017

Tools Copyright (c) 1996-2015 Texas Instruments Incorporated
leds.asm                                                             PAGE    5

     221                            .dwattr $C$DW$19, DW_AT_decl_column(0x06)
     222                            .dwattr $C$DW$19, DW_AT_TI_max_frame_size(0x08)
     223                            .dwpsn  file "C:/Users/Raz Aloni/OneDrive/School/EEL4924/DSP/C_Libs/MicCheckPeripherals/src/le
     224                    
     225                            .dwfde $C$DW$CIE, SetLEDS
     226                    $C$DW$20        .dwtag  DW_TAG_formal_parameter
     227                            .dwattr $C$DW$20, DW_AT_name("value")
     228                            .dwattr $C$DW$20, DW_AT_TI_symbol_name("value")
     229                            .dwattr $C$DW$20, DW_AT_type(*$C$DW$T$27)
     230                            .dwattr $C$DW$20, DW_AT_location[DW_OP_reg4]
     231                    
     232                    
     233                    ;******************************************************************************
     234                    ;* FUNCTION NAME: SetLEDS                                                     *
     235                    ;*                                                                            *
     236                    ;*   Regs Modified     : A0,A1,A2,A3,A4,A5,A6,A7,A8,A9,A10,A11,A16,A17,A18,   *
     237                    ;*                           A19,A20,A21,A22,A23,A24,A25,A26,A27,A28,A29,A30, *
     238                    ;*                           A31,B0,B1,B2,B3,B4,B5,B6,B7,B8,B9,SP,B16,B17,B18,*
     239                    ;*                           B19,B20,B21,B22,B23,B24,B25,B26,B27,B28,B29,B30, *
     240                    ;*                           B31                                              *
     241                    ;*   Regs Used         : A0,A1,A2,A3,A4,A5,A6,A7,A8,A9,A10,A11,A16,A17,A18,   *
     242                    ;*                           A19,A20,A21,A22,A23,A24,A25,A26,A27,A28,A29,A30, *
     243                    ;*                           A31,B0,B1,B2,B3,B4,B5,B6,B7,B8,B9,DP,SP,B16,B17, *
     244                    ;*                           B18,B19,B20,B21,B22,B23,B24,B25,B26,B27,B28,B29, *
     245                    ;*                           B30,B31                                          *
     246                    ;*   Local Frame Size  : 0 Args + 0 Auto + 8 Save = 8 byte                    *
     247                    ;******************************************************************************
     248                    SetLEDS:
     249                    ;** --------------------------------------------------------------------------*
     250                    $C$DW$21        .dwtag  DW_TAG_variable
     251                            .dwattr $C$DW$21, DW_AT_name("value")
     252                            .dwattr $C$DW$21, DW_AT_TI_symbol_name("value")
     253                            .dwattr $C$DW$21, DW_AT_type(*$C$DW$T$99)
     254                            .dwattr $C$DW$21, DW_AT_location[DW_OP_reg10]
     255                    
     256                            .dwcfi  cfa_offset, 0
     257 00000028     25f7             STW     .D2T1   A11,*SP++(-8)     ; [B_D64P] |99| 
     258                            .dwcfi  cfa_offset, 8
     259                            .dwcfi  save_reg_to_mem, 11, 0
     260                    
     261 0000002c 053c22f5             STW     .D2T1   A10,*SP(4)        ; [B_D64P] |99| 
     262 0000002a     4646  ||         MV      .L1     A4,A10            ; [A_L674] |99| 
     263 00000030 02300028  ||         MVKL    .S1     0x1e26000,A4      ; [A_S674] |102| 
     264                    
     265                            .dwcfi  save_reg_to_mem, 10, -4
     266                            .dwpsn  file "C:/Users/Raz Aloni/OneDrive/School/EEL4924/DSP/C_Libs/MicCheckPeripherals/src/le
     267                    
     268 00000034 00290f59             AND     .L1     8,A10,A0          ; [A_L674] |100| 
     269 00000038 0200f168  ||         MVKH    .S1     0x1e26000,A4      ; [A_S674] |102| 
     270                    
     271 00000040 d0000c13     [!A0]   B       .S2     $C$L1             ; [B_Sb674] |100| 
     272 00000044 00800fd8  ||         MV      .L1     A0,A1             ; [A_L674] guard predicate rewrite
     273                    
     274                            .dwpsn  file "C:/Users/Raz Aloni/OneDrive/School/EEL4924/DSP/C_Libs/MicCheckPeripherals/src/le
     275                    $C$DW$22        .dwtag  DW_TAG_TI_branch
TMS320C6x Assembler PC v8.1.3 Thu Apr 20 04:41:32 2017

Tools Copyright (c) 1996-2015 Texas Instruments Incorporated
leds.asm                                                             PAGE    6

     276                            .dwattr $C$DW$22, DW_AT_low_pc(0x00)
     277                            .dwattr $C$DW$22, DW_AT_name("GPIOPinWrite")
     278                            .dwattr $C$DW$22, DW_AT_TI_call
     279                    
     280                    
     281 00000048 c0000011!    [ A0]   CALL    .S1     GPIOPinWrite      ; [A_S674] |102| 
     282 0000004c d0288f58  || [!A0]   AND     .L1     4,A10,A0          ; [A_L674] |105| 
     283                    
     284                            .dwpsn  file "C:/Users/Raz Aloni/OneDrive/School/EEL4924/DSP/C_Libs/MicCheckPeripherals/src/le
     285                    
     286 00000050 8004a359     [ A1]   MVK     .L1     1,A0              ; [A_L674] |107| nullify predicate
     287 00000054 92300028  || [!A1]   MVKL    .S1     0x1e26000,A4      ; [A_S674] |107| 
     288                    
     289                            .dwpsn  file "C:/Users/Raz Aloni/OneDrive/School/EEL4924/DSP/C_Libs/MicCheckPeripherals/src/le
     290                    
     291 00000058 d0001413     [!A0]   B       .S2     $C$L2             ; [B_Sb674] |105| 
     292 0000005c 9200f168  || [!A1]   MVKH    .S1     0x1e26000,A4      ; [A_S674] |107| 
     293                    
     294                            .dwpsn  file "C:/Users/Raz Aloni/OneDrive/School/EEL4924/DSP/C_Libs/MicCheckPeripherals/src/le
     295                    
     296 00000060     2726             MVK     .L1     1,A6              ; [A_L674] |102| 
     297 00000062     4233  ||         MVK     .S2     0x22,B4           ; [B_Sb674] |102| 
     298                    
     299                            .dwpsn  file "C:/Users/Raz Aloni/OneDrive/School/EEL4924/DSP/C_Libs/MicCheckPeripherals/src/le
     300                    
     301 00000064 9304a359     [!A1]   MVK     .L1     1,A6              ; [A_L674] |107| 
     302 00000068 92001cab  || [!A1]   MVK     .S2     0x39,B4           ; [B_Sb674] |107| 
     303 0000006c     75ce  ||         MV      .S1X    B3,A11            ; [A_S674] |99| 
     304                    
     305                            .dwcfi  save_reg_to_reg, 19, 11
     306                            .dwpsn  file "C:/Users/Raz Aloni/OneDrive/School/EEL4924/DSP/C_Libs/MicCheckPeripherals/src/le
     307                               ; BRANCHCC OCCURS {$C$L1}         ; [] |100| 
     308                    ;** --------------------------------------------------------------------------*
     309                            .dwpsn  file "C:/Users/Raz Aloni/OneDrive/School/EEL4924/DSP/C_Libs/MicCheckPeripherals/src/le
     310 0000006e     0c6e             ADDKPC  .S2     $C$RL2,B3,0       ; [B_Sb674] |102| 
     311 00000080           $C$RL2:    ; CALL OCCURS {GPIOPinWrite} {0}  ; [] |102| 
     312                            .dwpsn  file "C:/Users/Raz Aloni/OneDrive/School/EEL4924/DSP/C_Libs/MicCheckPeripherals/src/le
     313                    
     314 00000080 00288f59             AND     .L1     4,A10,A0          ; [A_L674] |105| 
     315 00000084 02300029  ||         MVKL    .S1     0x1e26000,A4      ; [A_S674] |107| 
     316 00000088     3a33  ||         MVK     .S2     0x39,B4           ; [B_Sb674] |107| 
     317 0000008a     3b76  ||         MVK     .D1     1,A6              ; [A_D64P] |107| 
     318                    
     319 0000008c d0304121     [!A0]   BNOP            $C$L2,2           ; [] |105| 
     320 00000090 0200f169  ||         MVKH    .S1     0x1e26000,A4      ; [A_S674] |107| 
     321                    
     322                    ;** --------------------------------------------------------------------------*
     323 000000a0           $C$L1:    
     324                            .dwpsn  file "C:/Users/Raz Aloni/OneDrive/School/EEL4924/DSP/C_Libs/MicCheckPeripherals/src/le
     325                    $C$DW$23        .dwtag  DW_TAG_TI_branch
     326                            .dwattr $C$DW$23, DW_AT_low_pc(0x00)
     327                            .dwattr $C$DW$23, DW_AT_name("GPIOPinWrite")
     328                            .dwattr $C$DW$23, DW_AT_TI_call
     329                    
     330                    
TMS320C6x Assembler PC v8.1.3 Thu Apr 20 04:41:32 2017

Tools Copyright (c) 1996-2015 Texas Instruments Incorporated
leds.asm                                                             PAGE    7

     331 000000a0 c0000011!    [ A0]   CALL    .S1     GPIOPinWrite      ; [A_S674] |107| 
     332 000000a8 00800fd8  ||         MV      .L1     A0,A1             ; [A_L674] guard predicate rewrite
     333 000000a4 d02849f1  || [!A0]   AND     .D1     2,A10,A0          ; [A_D64P] |110| 
     334                    
     335                            .dwpsn  file "C:/Users/Raz Aloni/OneDrive/School/EEL4924/DSP/C_Libs/MicCheckPeripherals/src/le
     336                    
     337 000000ac 8004a359     [ A1]   MVK     .L1     1,A0              ; [A_L674] |112| nullify predicate
     338 000000b0 92300029  || [!A1]   MVKL    .S1     0x1e26000,A4      ; [A_S674] |112| 
     339 000000b4 9200202b  || [!A1]   MVK     .S2     0x40,B4           ; [B_Sb674] |112| 
     340 000000b8 93002040  || [!A1]   MVK     .D1     1,A6              ; [A_D64P] |112| 
     341                    
     342                            .dwpsn  file "C:/Users/Raz Aloni/OneDrive/School/EEL4924/DSP/C_Libs/MicCheckPeripherals/src/le
     343                    
     344 000000bc d0001013     [!A0]   B       .S2     $C$L3             ; [B_Sb674] |110| 
     345 000000c0 9200f168  || [!A1]   MVKH    .S1     0x1e26000,A4      ; [A_S674] |112| 
     346                    
     347                            .dwpsn  file "C:/Users/Raz Aloni/OneDrive/School/EEL4924/DSP/C_Libs/MicCheckPeripherals/src/le
     348                               ; BRANCHCC OCCURS {$C$L2}         ; [] |105| 
     349                    ;** --------------------------------------------------------------------------*
     350                            .dwpsn  file "C:/Users/Raz Aloni/OneDrive/School/EEL4924/DSP/C_Libs/MicCheckPeripherals/src/le
     351 000000c4 01824162             ADDKPC  .S2     $C$RL4,B3,2       ; [B_Sb674] |107| 
     352 000000c8           $C$RL4:    ; CALL OCCURS {GPIOPinWrite} {0}  ; [] |107| 
     353                    ;** --------------------------------------------------------------------------*
     354                            .dwpsn  file "C:/Users/Raz Aloni/OneDrive/School/EEL4924/DSP/C_Libs/MicCheckPeripherals/src/le
     355                    
     356 000000c8 0200202b             MVK     .S2     0x40,B4           ; [B_Sb674] |112| 
     357 000000cc 02300029  ||         MVKL    .S1     0x1e26000,A4      ; [A_S674] |112| 
     358 000000d0 00284f58  ||         AND     .L1     2,A10,A0          ; [A_L674] |110| 
     359                    
     360 000000d4 d0000c13     [!A0]   B       .S2     $C$L3             ; [B_Sb674] |110| 
     361 000000d8 0200f169  ||         MVKH    .S1     0x1e26000,A4      ; [A_S674] |112| 
     362 000000dc 0304a358  ||         MVK     .L1     1,A6              ; [A_L674] |112| 
     363                    
     364                    ;** --------------------------------------------------------------------------*
     365 000000e0           $C$L2:    
     366                            .dwpsn  file "C:/Users/Raz Aloni/OneDrive/School/EEL4924/DSP/C_Libs/MicCheckPeripherals/src/le
     367                    $C$DW$24        .dwtag  DW_TAG_TI_branch
     368                            .dwattr $C$DW$24, DW_AT_low_pc(0x00)
     369                            .dwattr $C$DW$24, DW_AT_name("GPIOPinWrite")
     370                            .dwattr $C$DW$24, DW_AT_TI_call
     371                    
     372                    
     373 000000e0 c0000011!    [ A0]   CALL    .S1     GPIOPinWrite      ; [A_S674] |112| 
     374 000000e4 00800fd9  ||         MV      .L1     A0,A1             ; [A_L674] guard predicate rewrite
     375 000000e8 d02829f0  || [!A0]   AND     .D1     1,A10,A0          ; [A_D64P] |115| 
     376                    
     377                            .dwpsn  file "C:/Users/Raz Aloni/OneDrive/School/EEL4924/DSP/C_Libs/MicCheckPeripherals/src/le
     378                    
     379 000000ec 8004a359     [ A1]   MVK     .L1     1,A0              ; [A_L674] |117| nullify predicate
     380 000000f0 92300029  || [!A1]   MVKL    .S1     0x1e26000,A4      ; [A_S674] |117| 
     381 000000f4 93002041  || [!A1]   MVK     .D1     1,A6              ; [A_D64P] |117| 
     382 000000f8 92001eaa  || [!A1]   MVK     .S2     0x3d,B4           ; [B_Sb674] |117| 
     383                    
     384                            .dwpsn  file "C:/Users/Raz Aloni/OneDrive/School/EEL4924/DSP/C_Libs/MicCheckPeripherals/src/le
     385                    
TMS320C6x Assembler PC v8.1.3 Thu Apr 20 04:41:32 2017

Tools Copyright (c) 1996-2015 Texas Instruments Incorporated
leds.asm                                                             PAGE    8

     386 000000fc d01a4121     [!A0]   BNOP            $C$L4,2           ; [] |115| 
     387 00000100 9200f168  || [!A1]   MVKH    .S1     0x1e26000,A4      ; [A_S674] |117| 
     388                    
     389                            .dwpsn  file "C:/Users/Raz Aloni/OneDrive/School/EEL4924/DSP/C_Libs/MicCheckPeripherals/src/le
     390                               ; BRANCHCC OCCURS {$C$L3}         ; [] |110| 
     391                    ;** --------------------------------------------------------------------------*
     392                            .dwpsn  file "C:/Users/Raz Aloni/OneDrive/School/EEL4924/DSP/C_Libs/MicCheckPeripherals/src/le
     393 00000104 01820162             ADDKPC  .S2     $C$RL6,B3,0       ; [B_Sb674] |112| 
     394 00000108           $C$RL6:    ; CALL OCCURS {GPIOPinWrite} {0}  ; [] |112| 
     395                    ;** --------------------------------------------------------------------------*
     396                            .dwpsn  file "C:/Users/Raz Aloni/OneDrive/School/EEL4924/DSP/C_Libs/MicCheckPeripherals/src/le
     397 00000108 00282f58             AND     .L1     1,A10,A0          ; [A_L674] |115| 
     398 0000010c d0000912     [!A0]   B       .S2     $C$L4             ; [B_Sb674] |115| 
     399                            .dwpsn  file "C:/Users/Raz Aloni/OneDrive/School/EEL4924/DSP/C_Libs/MicCheckPeripherals/src/le
     400 00000110 02300028             MVKL    .S1     0x1e26000,A4      ; [A_S674] |117| 
     401                    
     402 00000114 0200f169             MVKH    .S1     0x1e26000,A4      ; [A_S674] |117| 
     403 00000118     ba33  ||         MVK     .S2     0x3d,B4           ; [B_Sb674] |117| 
     404 0000011a     2726  ||         MVK     .L1     1,A6              ; [A_L674] |117| 
     405                    
     406                    ;** --------------------------------------------------------------------------*
     407                    $C$L3:    
     408                    $C$DW$25        .dwtag  DW_TAG_TI_branch
     409                            .dwattr $C$DW$25, DW_AT_low_pc(0x00)
     410                            .dwattr $C$DW$25, DW_AT_name("GPIOPinWrite")
     411                            .dwattr $C$DW$25, DW_AT_TI_call
     412                    
     413                    
     414 00000120 c0000011!    [ A0]   CALL    .S1     GPIOPinWrite      ; [A_S674] |117| 
     415 00000124 d1ac1fdb  || [!A0]   MV      .L2X    A11,B3            ; [B_L674] |119| 
     416 00000128 d53c22e4  || [!A0]   LDW     .D2T1   *SP(4),A10        ; [B_D64P] |119| 
     417                    
     418                            .dwpsn  file "C:/Users/Raz Aloni/OneDrive/School/EEL4924/DSP/C_Libs/MicCheckPeripherals/src/le
     419                    $C$DW$26        .dwtag  DW_TAG_TI_branch
     420                            .dwattr $C$DW$26, DW_AT_low_pc(0x00)
     421                            .dwattr $C$DW$26, DW_AT_TI_return
     422                    
     423                    
     424 0000012c d08c2363     [!A0]   RETNOP          B3,1              ; [] |119| 
     425 00000130 d5bc52e4  || [!A0]   LDW     .D2T1   *++SP(8),A11      ; [B_D64P] |119| 
     426                    
     427                            .dwpsn  file "C:/Users/Raz Aloni/OneDrive/School/EEL4924/DSP/C_Libs/MicCheckPeripherals/src/le
     428                               ; BRANCHCC OCCURS {$C$L4}         ; [] |115| 
     429                    ;** --------------------------------------------------------------------------*
     430                            .dwpsn  file "C:/Users/Raz Aloni/OneDrive/School/EEL4924/DSP/C_Libs/MicCheckPeripherals/src/le
     431 00000134 01864162             ADDKPC  .S2     $C$RL8,B3,2       ; [B_Sb674] |117| 
     432 00000138           $C$RL8:    ; CALL OCCURS {GPIOPinWrite} {0}  ; [] |117| 
     433                    ;** --------------------------------------------------------------------------*
     434                            .dwpsn  file "C:/Users/Raz Aloni/OneDrive/School/EEL4924/DSP/C_Libs/MicCheckPeripherals/src/le
     435 00000138     7587             MV      .L2X    A11,B3            ; [B_L674] |119| 
     436                            .dwcfi  restore_reg, 19
     437                    $C$DW$27        .dwtag  DW_TAG_TI_branch
     438                            .dwattr $C$DW$27, DW_AT_low_pc(0x00)
     439                            .dwattr $C$DW$27, DW_AT_TI_return
     440                    
TMS320C6x Assembler PC v8.1.3 Thu Apr 20 04:41:32 2017

Tools Copyright (c) 1996-2015 Texas Instruments Incorporated
leds.asm                                                             PAGE    9

     441                    
     442 0000013a     01ef             RET     .S2     B3                ; [B_Sb674] |119| 
     443 00000140 053c22e4  ||         LDW     .D2T1   *SP(4),A10        ; [B_D64P] |119| 
     444                    
     445                            .dwcfi  restore_reg, 10
     446 00000144 05bc52e4             LDW     .D2T1   *++SP(8),A11      ; [B_D64P] |119| 
     447                            .dwcfi  cfa_offset, 0
     448                            .dwcfi  restore_reg, 11
     449                    ;** --------------------------------------------------------------------------*
     450 00000148           $C$L4:    
     451                            .dwcfi  restore_reg, 19
     452                            .dwcfi  restore_reg, 10
     453                            .dwcfi  cfa_offset, 0
     454                            .dwcfi  restore_reg, 11
     455 00000148 00006000             NOP             4                 ; [A_L674] 
     456                               ; BRANCH OCCURS {B3}              ; [] |119| 
     457                            .dwattr $C$DW$19, DW_AT_TI_end_file("C:/Users/Raz Aloni/OneDrive/School/EEL4924/DSP/C_Libs/Mic
     458                            .dwattr $C$DW$19, DW_AT_TI_end_line(0x77)
     459                            .dwattr $C$DW$19, DW_AT_TI_end_column(0x01)
     460                            .dwendentry
     461                            .dwendtag $C$DW$19
     462                    
     463 0000014c                   .sect   ".text"
     464                            .clink
     465                            .global InitLEDS
     466                    
     467                    $C$DW$28        .dwtag  DW_TAG_subprogram
     468                            .dwattr $C$DW$28, DW_AT_name("InitLEDS")
     469                            .dwattr $C$DW$28, DW_AT_low_pc(InitLEDS)
     470                            .dwattr $C$DW$28, DW_AT_high_pc(0x00)
     471                            .dwattr $C$DW$28, DW_AT_TI_symbol_name("InitLEDS")
     472                            .dwattr $C$DW$28, DW_AT_external
     473                            .dwattr $C$DW$28, DW_AT_type(*$C$DW$T$108)
     474                            .dwattr $C$DW$28, DW_AT_TI_begin_file("C:/Users/Raz Aloni/OneDrive/School/EEL4924/DSP/C_Libs/M
     475                            .dwattr $C$DW$28, DW_AT_TI_begin_line(0x34)
     476                            .dwattr $C$DW$28, DW_AT_TI_begin_column(0x07)
     477                            .dwattr $C$DW$28, DW_AT_decl_file("C:/Users/Raz Aloni/OneDrive/School/EEL4924/DSP/C_Libs/MicCh
     478                            .dwattr $C$DW$28, DW_AT_decl_line(0x34)
     479                            .dwattr $C$DW$28, DW_AT_decl_column(0x07)
     480                            .dwattr $C$DW$28, DW_AT_TI_max_frame_size(0x20)
     481                            .dwpsn  file "C:/Users/Raz Aloni/OneDrive/School/EEL4924/DSP/C_Libs/MicCheckPeripherals/src/le
     482                    
     483                            .dwfde $C$DW$CIE, InitLEDS
     484                    $C$DW$29        .dwtag  DW_TAG_formal_parameter
     485                            .dwattr $C$DW$29, DW_AT_name("enableBits")
     486                            .dwattr $C$DW$29, DW_AT_TI_symbol_name("enableBits")
     487                            .dwattr $C$DW$29, DW_AT_type(*$C$DW$T$27)
     488                            .dwattr $C$DW$29, DW_AT_location[DW_OP_reg4]
     489                    
     490                    
     491                    ;******************************************************************************
     492                    ;* FUNCTION NAME: InitLEDS                                                    *
     493                    ;*                                                                            *
     494                    ;*   Regs Modified     : A0,A1,A2,A3,A4,A5,A6,A7,A8,A9,A10,A11,A12,A13,A16,   *
     495                    ;*                           A17,A18,A19,A20,A21,A22,A23,A24,A25,A26,A27,A28, *
TMS320C6x Assembler PC v8.1.3 Thu Apr 20 04:41:32 2017

Tools Copyright (c) 1996-2015 Texas Instruments Incorporated
leds.asm                                                             PAGE   10

     496                    ;*                           A29,A30,A31,B0,B1,B2,B3,B4,B5,B6,B7,B8,B9,B10,   *
     497                    ;*                           B11,SP,B16,B17,B18,B19,B20,B21,B22,B23,B24,B25,  *
     498                    ;*                           B26,B27,B28,B29,B30,B31                          *
     499                    ;*   Regs Used         : A0,A1,A2,A3,A4,A5,A6,A7,A8,A9,A10,A11,A12,A13,A16,   *
     500                    ;*                           A17,A18,A19,A20,A21,A22,A23,A24,A25,A26,A27,A28, *
     501                    ;*                           A29,A30,A31,B0,B1,B2,B3,B4,B5,B6,B7,B8,B9,B10,   *
     502                    ;*                           B11,DP,SP,B16,B17,B18,B19,B20,B21,B22,B23,B24,   *
     503                    ;*                           B25,B26,B27,B28,B29,B30,B31                      *
     504                    ;*   Local Frame Size  : 0 Args + 0 Auto + 32 Save = 32 byte                  *
     505                    ;******************************************************************************
     506                    InitLEDS:
     507                    ;** --------------------------------------------------------------------------*
     508                    $C$DW$30        .dwtag  DW_TAG_variable
     509                            .dwattr $C$DW$30, DW_AT_name("status")
     510                            .dwattr $C$DW$30, DW_AT_TI_symbol_name("status")
     511                            .dwattr $C$DW$30, DW_AT_type(*$C$DW$T$108)
     512                            .dwattr $C$DW$30, DW_AT_location[DW_OP_reg13]
     513                    
     514                    $C$DW$31        .dwtag  DW_TAG_variable
     515                            .dwattr $C$DW$31, DW_AT_name("enableBits")
     516                            .dwattr $C$DW$31, DW_AT_TI_symbol_name("enableBits")
     517                            .dwattr $C$DW$31, DW_AT_type(*$C$DW$T$99)
     518                            .dwattr $C$DW$31, DW_AT_location[DW_OP_reg10]
     519                    
     520                    $C$DW$32        .dwtag  DW_TAG_variable
     521                            .dwattr $C$DW$32, DW_AT_name("d3Enable")
     522                            .dwattr $C$DW$32, DW_AT_TI_symbol_name("d3Enable")
     523                            .dwattr $C$DW$32, DW_AT_type(*$C$DW$T$121)
     524                            .dwattr $C$DW$32, DW_AT_location[DW_OP_reg0]
     525                    
     526                    $C$DW$33        .dwtag  DW_TAG_variable
     527                            .dwattr $C$DW$33, DW_AT_name("d2Enable")
     528                            .dwattr $C$DW$33, DW_AT_TI_symbol_name("d2Enable")
     529                            .dwattr $C$DW$33, DW_AT_type(*$C$DW$T$121)
     530                            .dwattr $C$DW$33, DW_AT_location[DW_OP_reg10]
     531                    
     532                    $C$DW$34        .dwtag  DW_TAG_variable
     533                            .dwattr $C$DW$34, DW_AT_name("d1Enable")
     534                            .dwattr $C$DW$34, DW_AT_TI_symbol_name("d1Enable")
     535                            .dwattr $C$DW$34, DW_AT_type(*$C$DW$T$121)
     536                            .dwattr $C$DW$34, DW_AT_location[DW_OP_reg12]
     537                    
     538                    $C$DW$35        .dwtag  DW_TAG_variable
     539                            .dwattr $C$DW$35, DW_AT_name("d0Enable")
     540                            .dwattr $C$DW$35, DW_AT_TI_symbol_name("d0Enable")
     541                            .dwattr $C$DW$35, DW_AT_type(*$C$DW$T$121)
     542                            .dwattr $C$DW$35, DW_AT_location[DW_OP_reg11]
     543                    
     544                            .dwcfi  cfa_offset, 0
     545 0000014c     25f7             STW     .D2T1   A11,*SP++(-8)     ; [B_D64P] |53| 
     546                            .dwcfi  cfa_offset, 8
     547                            .dwcfi  save_reg_to_mem, 11, 0
     548 0000014e     9577             STDW    .D2T2   B11:B10,*SP++(-8) ; [B_D64P] |53| 
     549                            .dwcfi  cfa_offset, 16
     550                            .dwcfi  save_reg_to_mem, 27, -4
TMS320C6x Assembler PC v8.1.3 Thu Apr 20 04:41:32 2017

Tools Copyright (c) 1996-2015 Texas Instruments Incorporated
leds.asm                                                             PAGE   11

     551                            .dwcfi  save_reg_to_mem, 26, -8
     552 00000150     8677             STDW    .D2T1   A13:A12,*SP++(-8) ; [B_D64P] |53| 
     553                            .dwcfi  cfa_offset, 24
     554                            .dwcfi  save_reg_to_mem, 13, -12
     555                            .dwcfi  save_reg_to_mem, 12, -16
     556                    
     557 00000154 02380029             MVKL    .S1     0x1e27000,A4      ; [A_S674] |62| 
     558 00000152     4646  ||         MV      .L1     A4,A10            ; [A_L674] |53| 
     559 00000158     2577  ||         STW     .D2T1   A10,*SP++(-8)     ; [B_D64P] |53| 
     560 0000015a     6727  ||         MVK     .L2     3,B6              ; [B_L674] |62| 
     561                    
     562                            .dwcfi  cfa_offset, 32
     563                            .dwcfi  save_reg_to_mem, 10, -24
     564                    $C$DW$36        .dwtag  DW_TAG_TI_branch
     565                            .dwattr $C$DW$36, DW_AT_low_pc(0x00)
     566                            .dwattr $C$DW$36, DW_AT_name("PSCModuleControl")
     567                            .dwattr $C$DW$36, DW_AT_TI_call
     568                    
     569                    
     570 00000160 10000013!            CALLP   .S2     PSCModuleControl,B3 ; [B_Sb674] |62| 
     571 00000164 0200f169  ||         MVKH    .S1     0x1e27000,A4      ; [A_S674] |62| 
     572 00000168 058c0fdb  ||         MV      .L2     B3,B11            ; [B_L674] |53| 
     573 0000016c 021808f3  ||         MV      .D2     B6,B4             ; [B_D64P] |62| 
     574 00000170 0300a359  ||         ZERO    .L1     A6                ; [A_L674] |62| 
     575                    
     576                            .dwcfi  save_reg_to_reg, 19, 27
     577                            .dwpsn  file "C:/Users/Raz Aloni/OneDrive/School/EEL4924/DSP/C_Libs/MicCheckPeripherals/src/le
     578 00000180           $C$RL10:   ; CALLP OCCURS {PSCModuleControl} {0}  ; [] |62| 
     579                    ;** --------------------------------------------------------------------------*
     580                            .dwpsn  file "C:/Users/Raz Aloni/OneDrive/School/EEL4924/DSP/C_Libs/MicCheckPeripherals/src/le
     581                    
     582 00000180 06921049             EXT     .S1     A4,16,16,A13      ; [A_S674] |62| 
     583 00000184 01a90f59  ||         AND     .L1     8,A10,A3          ; [A_L674] |54| 
     584 00000188 02289f5b  ||         AND     .L2X    4,A10,B4          ; [B_L674] |55| 
     585 0000018c 02a829f0  ||         AND     .D1     1,A10,A5          ; [A_D64P] |57| 
     586                    
     587 00000190     11e2             EXTU    .S1     A3,16,16,A0       ; [A_S674] |54| 
     588 00000192     9263  ||         EXTU    .S2     B4,16,16,B4       ; [B_Sb674] |55| 
     589 00000194 01a84f58  ||         AND     .L1     2,A10,A3          ; [A_L674] |56| 
     590                    
     591                            .dwpsn  file "C:/Users/Raz Aloni/OneDrive/School/EEL4924/DSP/C_Libs/MicCheckPeripherals/src/le
     592                    
     593 000001a0     1687             MV      .L2X    A13,B0            ; [B_L674] |55| 
     594 00000198 060e1009  ||         EXTU    .S1     A3,16,16,A12      ; [A_S674] |56| 
     595                    
     596 000001a4 20001d93     [ B0]   B       .S2     $C$L8             ; [B_Sb674] |62| 
     597 000001a2     a866  || [ B0]   MVK     .L1     1,A0              ; [A_L674] |74| nullify predicate
     598 000001a8 32300029  || [!B0]   MVKL    .S1     0x1e26000,A4      ; [A_S674] |74| 
     599 000001ac     5656  ||         MV      .D1X    B4,A10            ; [A_D64P] |55| 
     600                    
     601                            .dwpsn  file "C:/Users/Raz Aloni/OneDrive/School/EEL4924/DSP/C_Libs/MicCheckPeripherals/src/le
     602                    
     603 000001b4 d0000910     [!A0]   B       .S1     $C$L5             ; [A_S674] |71| 
     604 000001b0 35209c2b  || [!B0]   MVKL    .S2     0x1c14138,B10     ; [B_Sb674] |73| 
     605 000001ae     cb66  || [!B0]   ZERO    .L1     A6                ; [A_L674] |74| 
TMS320C6x Assembler PC v8.1.3 Thu Apr 20 04:41:32 2017

Tools Copyright (c) 1996-2015 Texas Instruments Incorporated
leds.asm                                                             PAGE   12

     606                    
     607                            .dwpsn  file "C:/Users/Raz Aloni/OneDrive/School/EEL4924/DSP/C_Libs/MicCheckPeripherals/src/le
     608 000001b8 05961008             EXTU    .S1     A5,16,16,A11      ; [A_S674] |57| 
     609                            .dwpsn  file "C:/Users/Raz Aloni/OneDrive/School/EEL4924/DSP/C_Libs/MicCheckPeripherals/src/le
     610 000001c0 3500e0ea     [!B0]   MVKH    .S2     0x1c14138,B10     ; [B_Sb674] |73| 
     611                            .dwpsn  file "C:/Users/Raz Aloni/OneDrive/School/EEL4924/DSP/C_Libs/MicCheckPeripherals/src/le
     612 000001c4 3200112a     [!B0]   MVK     .S2     0x22,B4           ; [B_Sb674] |74| 
     613 000001c8 3200f168     [!B0]   MVKH    .S1     0x1e26000,A4      ; [A_S674] |74| 
     614                            .dwpsn  file "C:/Users/Raz Aloni/OneDrive/School/EEL4924/DSP/C_Libs/MicCheckPeripherals/src/le
     615                               ; BRANCHCC OCCURS {$C$L8}         ; [] |62| 
     616                    ;** --------------------------------------------------------------------------*
     617                            .dwpsn  file "C:/Users/Raz Aloni/OneDrive/School/EEL4924/DSP/C_Libs/MicCheckPeripherals/src/le
     618                    
     619 000001cc c2a802e7     [ A0]   LDW     .D2T2   *B10(0),B5        ; [B_D64P] |73| 
     620 000001d0 d2300028  || [!A0]   MVKL    .S1     0x1e26000,A4      ; [A_S674] |80| 
     621                    
     622                            .dwpsn  file "C:/Users/Raz Aloni/OneDrive/School/EEL4924/DSP/C_Libs/MicCheckPeripherals/src/le
     623                               ; BRANCHCC OCCURS {$C$L5}         ; [] |71| 
     624                    ;** --------------------------------------------------------------------------*
     625                            .dwpsn  file "C:/Users/Raz Aloni/OneDrive/School/EEL4924/DSP/C_Libs/MicCheckPeripherals/src/le
     626                    $C$DW$37        .dwtag  DW_TAG_TI_branch
     627                            .dwattr $C$DW$37, DW_AT_low_pc(0x00)
     628                            .dwattr $C$DW$37, DW_AT_name("GPIODirModeSet")
     629                            .dwattr $C$DW$37, DW_AT_TI_call
     630                    
     631 000001d4 00000010!            CALL    .S1     GPIODirModeSet    ; [A_S674] |74| 
     632 000001d8 01894162             ADDKPC  .S2     $C$RL12,B3,2      ; [B_Sb674] |74| 
     633                            .dwpsn  file "C:/Users/Raz Aloni/OneDrive/School/EEL4924/DSP/C_Libs/MicCheckPeripherals/src/le
     634 000001dc 02977b8a             SET     .S2     B5,27,27,B5       ; [B_Sb674] |73| 
     635 000001e0 02a802f6             STW     .D2T2   B5,*B10(0)        ; [B_D64P] |73| 
     636                            .dwpsn  file "C:/Users/Raz Aloni/OneDrive/School/EEL4924/DSP/C_Libs/MicCheckPeripherals/src/le
     637 000001e4           $C$RL12:   ; CALL OCCURS {GPIODirModeSet} {0}  ; [] |74| 
     638                            .dwpsn  file "C:/Users/Raz Aloni/OneDrive/School/EEL4924/DSP/C_Libs/MicCheckPeripherals/src/le
     639 000001e4 02300028             MVKL    .S1     0x1e26000,A4      ; [A_S674] |80| 
     640                    ;** --------------------------------------------------------------------------*
     641 000001e8           $C$L5:    
     642                    
     643 000001e8 00280fd9             MV      .L1     A10,A0            ; [A_L674] |80| 
     644 000001ec 0528805a  ||         ADD     .L2     4,B10,B10         ; [B_L674] 
     645                    
     646                            .dwpsn  file "C:/Users/Raz Aloni/OneDrive/School/EEL4924/DSP/C_Libs/MicCheckPeripherals/src/le
     647                    
     648 000001f0 c2a802e7     [ A0]   LDW     .D2T2   *B10(0),B5        ; [B_D64P] |79| 
     649 000001f4 d0000710  || [!A0]   B       .S1     $C$L6             ; [A_S674] |77| 
     650                    
     651                            .dwpsn  file "C:/Users/Raz Aloni/OneDrive/School/EEL4924/DSP/C_Libs/MicCheckPeripherals/src/le
     652                    $C$DW$38        .dwtag  DW_TAG_TI_branch
     653                            .dwattr $C$DW$38, DW_AT_low_pc(0x00)
     654                            .dwattr $C$DW$38, DW_AT_name("GPIODirModeSet")
     655                            .dwattr $C$DW$38, DW_AT_TI_call
     656                    
     657 000001f8 c0000010!    [ A0]   CALL    .S1     GPIODirModeSet    ; [A_S674] |80| 
     658 000001fc 0200f168             MVKH    .S1     0x1e26000,A4      ; [A_S674] |80| 
     659                            .dwpsn  file "C:/Users/Raz Aloni/OneDrive/School/EEL4924/DSP/C_Libs/MicCheckPeripherals/src/le
     660 00000200 d2300028     [!A0]   MVKL    .S1     0x1e26000,A4      ; [A_S674] |86| 
TMS320C6x Assembler PC v8.1.3 Thu Apr 20 04:41:32 2017

Tools Copyright (c) 1996-2015 Texas Instruments Incorporated
leds.asm                                                             PAGE   13

     661                            .dwpsn  file "C:/Users/Raz Aloni/OneDrive/School/EEL4924/DSP/C_Libs/MicCheckPeripherals/src/le
     662 00000204     3a33             MVK     .S2     0x39,B4           ; [B_Sb674] |80| 
     663                            .dwpsn  file "C:/Users/Raz Aloni/OneDrive/School/EEL4924/DSP/C_Libs/MicCheckPeripherals/src/le
     664                    
     665 00000206     faa3             SET     .S2     B5,31,31,B5       ; [B_Sb674] |79| 
     666 00000208 0300a358  ||         ZERO    .L1     A6                ; [A_L674] |80| 
     667                    
     668                            .dwpsn  file "C:/Users/Raz Aloni/OneDrive/School/EEL4924/DSP/C_Libs/MicCheckPeripherals/src/le
     669                               ; BRANCHCC OCCURS {$C$L6}         ; [] |77| 
     670                    ;** --------------------------------------------------------------------------*
     671                            .dwpsn  file "C:/Users/Raz Aloni/OneDrive/School/EEL4924/DSP/C_Libs/MicCheckPeripherals/src/le
     672                    
     673 0000020c 01850163             ADDKPC  .S2     $C$RL14,B3,0      ; [B_Sb674] |80| 
     674 00000210 02a802f6  ||         STW     .D2T2   B5,*B10(0)        ; [B_D64P] |79| 
     675                    
     676                            .dwpsn  file "C:/Users/Raz Aloni/OneDrive/School/EEL4924/DSP/C_Libs/MicCheckPeripherals/src/le
     677 00000214           $C$RL14:   ; CALL OCCURS {GPIODirModeSet} {0}  ; [] |80| 
     678                            .dwpsn  file "C:/Users/Raz Aloni/OneDrive/School/EEL4924/DSP/C_Libs/MicCheckPeripherals/src/le
     679 00000214 02300028             MVKL    .S1     0x1e26000,A4      ; [A_S674] |86| 
     680                    ;** --------------------------------------------------------------------------*
     681 00000218           $C$L6:    
     682                    
     683 00000218     0606             MV      .L1     A12,A0            ; [A_L674] |86| 
     684 0000021a     a507  ||         MV      .L2     B10,B5            ; [B_L674] 
     685                    
     686                            .dwpsn  file "C:/Users/Raz Aloni/OneDrive/School/EEL4924/DSP/C_Libs/MicCheckPeripherals/src/le
     687                    
     688 00000220 c29402e7     [ A0]   LDW     .D2T2   *B5(0),B5         ; [B_D64P] |85| 
     689 00000224 d0000592  || [!A0]   B       .S2     $C$L7             ; [B_Sb674] |83| 
     690                    
     691                            .dwpsn  file "C:/Users/Raz Aloni/OneDrive/School/EEL4924/DSP/C_Libs/MicCheckPeripherals/src/le
     692                    $C$DW$39        .dwtag  DW_TAG_TI_branch
     693                            .dwattr $C$DW$39, DW_AT_low_pc(0x00)
     694                            .dwattr $C$DW$39, DW_AT_name("GPIODirModeSet")
     695                            .dwattr $C$DW$39, DW_AT_TI_call
     696                    
     697 00000228 c0000010!    [ A0]   CALL    .S1     GPIODirModeSet    ; [A_S674] |86| 
     698 0000022c 0200f168             MVKH    .S1     0x1e26000,A4      ; [A_S674] |86| 
     699                            .dwpsn  file "C:/Users/Raz Aloni/OneDrive/School/EEL4924/DSP/C_Libs/MicCheckPeripherals/src/le
     700 00000230 d2300028     [!A0]   MVKL    .S1     0x1e26000,A4      ; [A_S674] |92| 
     701                            .dwpsn  file "C:/Users/Raz Aloni/OneDrive/School/EEL4924/DSP/C_Libs/MicCheckPeripherals/src/le
     702 00000234     0253             MVK     .S2     0x40,B4           ; [B_Sb674] |86| 
     703                            .dwpsn  file "C:/Users/Raz Aloni/OneDrive/School/EEL4924/DSP/C_Libs/MicCheckPeripherals/src/le
     704                    
     705 00000236     c507             MV      .L2     B10,B6            ; [B_L674] 
     706 00000238     0726  ||         ZERO    .L1     A6                ; [A_L674] |86| 
     707 0000023a     62a3  ||         OR      .S2     8,B5,B5           ; [B_Sb674] |85| 
     708                    
     709                            .dwpsn  file "C:/Users/Raz Aloni/OneDrive/School/EEL4924/DSP/C_Libs/MicCheckPeripherals/src/le
     710                               ; BRANCHCC OCCURS {$C$L7}         ; [] |83| 
     711                    ;** --------------------------------------------------------------------------*
     712                            .dwpsn  file "C:/Users/Raz Aloni/OneDrive/School/EEL4924/DSP/C_Libs/MicCheckPeripherals/src/le
     713                    
     714 00000240 01820163             ADDKPC  .S2     $C$RL16,B3,0      ; [B_Sb674] |86| 
     715 00000244 029802f6  ||         STW     .D2T2   B5,*B6(0)         ; [B_D64P] |85| 
TMS320C6x Assembler PC v8.1.3 Thu Apr 20 04:41:32 2017

Tools Copyright (c) 1996-2015 Texas Instruments Incorporated
leds.asm                                                             PAGE   14

     716                    
     717                            .dwpsn  file "C:/Users/Raz Aloni/OneDrive/School/EEL4924/DSP/C_Libs/MicCheckPeripherals/src/le
     718 00000248           $C$RL16:   ; CALL OCCURS {GPIODirModeSet} {0}  ; [] |86| 
     719                            .dwpsn  file "C:/Users/Raz Aloni/OneDrive/School/EEL4924/DSP/C_Libs/MicCheckPeripherals/src/le
     720 00000248 02300028             MVKL    .S1     0x1e26000,A4      ; [A_S674] |92| 
     721                    ;** --------------------------------------------------------------------------*
     722 0000024c           $C$L7:    
     723                    
     724 0000024c     0586             MV      .L1     A11,A0            ; [A_L674] |92| 
     725 0000024e     a507  ||         MV      .L2     B10,B5            ; [B_L674] 
     726 00000250     ba33  ||         MVK     .S2     0x3d,B4           ; [B_Sb674] |92| 
     727 00000252     1b76  ||         ZERO    .D1     A6                ; [A_D64P] |92| 
     728 00000254 0200f168  ||         MVKH    .S1     0x1e26000,A4      ; [A_S674] |92| 
     729                    
     730                            .dwpsn  file "C:/Users/Raz Aloni/OneDrive/School/EEL4924/DSP/C_Libs/MicCheckPeripherals/src/le
     731                    
     732 00000258 d0000c13     [!A0]   B       .S2     $C$L9             ; [B_Sb674] |89| 
     733 00000260 c32802e7  || [ A0]   LDW     .D2T2   *B10(0),B6        ; [B_D64P] |91| 
     734 00000264 d2340fd9  || [!A0]   MV      .L1     A13,A4            ; [A_L674] 
     735 00000268 d1ac0fda  || [!A0]   MV      .L2     B11,B3            ; [B_L674] |96| 
     736                    
     737                            .dwpsn  file "C:/Users/Raz Aloni/OneDrive/School/EEL4924/DSP/C_Libs/MicCheckPeripherals/src/le
     738                    $C$DW$40        .dwtag  DW_TAG_TI_branch
     739                            .dwattr $C$DW$40, DW_AT_low_pc(0x00)
     740                            .dwattr $C$DW$40, DW_AT_name("GPIODirModeSet")
     741                            .dwattr $C$DW$40, DW_AT_TI_call
     742                    
     743                    
     744 0000026c c0000011!    [ A0]   CALL    .S1     GPIODirModeSet    ; [A_S674] |92| 
     745 00000270 d53c52e4  || [!A0]   LDW     .D2T1   *++SP(8),A10      ; [B_D64P] |96| 
     746                    
     747                            .dwpsn  file "C:/Users/Raz Aloni/OneDrive/School/EEL4924/DSP/C_Libs/MicCheckPeripherals/src/le
     748 00000274 d63c33e4     [!A0]   LDDW    .D2T1   *++SP(8),A13:A12  ; [B_D64P] |96| 
     749                    $C$DW$41        .dwtag  DW_TAG_TI_branch
     750                            .dwattr $C$DW$41, DW_AT_low_pc(0x04)
     751                            .dwattr $C$DW$41, DW_AT_TI_return
     752                    
     753                    
     754 00000278 d53c33e7     [!A0]   LDDW    .D2T2   *++SP(8),B11:B10  ; [B_D64P] |96| 
     755 0000027c d00c0362  || [!A0]   RET     .S2     B3                ; [B_Sb674] |96| 
     756                    
     757 00000280 d5bc52e4     [!A0]   LDW     .D2T1   *++SP(8),A11      ; [B_D64P] |96| 
     758                            .dwpsn  file "C:/Users/Raz Aloni/OneDrive/School/EEL4924/DSP/C_Libs/MicCheckPeripherals/src/le
     759 00000284     eb23             SET     .S2     B6,15,15,B6       ; [B_Sb674] |91| 
     760                            .dwpsn  file "C:/Users/Raz Aloni/OneDrive/School/EEL4924/DSP/C_Libs/MicCheckPeripherals/src/le
     761                               ; BRANCHCC OCCURS {$C$L9}         ; [] |89| 
     762                    ;** --------------------------------------------------------------------------*
     763                            .dwpsn  file "C:/Users/Raz Aloni/OneDrive/School/EEL4924/DSP/C_Libs/MicCheckPeripherals/src/le
     764                    
     765 00000288 01830162             ADDKPC  .S2     $C$RL18,B3,0      ; [B_Sb674] |92| 
     766 00000286     10e5  ||         STW     .D2T2   B6,*B5(0)         ; [B_D64P] |91| 
     767                    
     768                            .dwpsn  file "C:/Users/Raz Aloni/OneDrive/School/EEL4924/DSP/C_Libs/MicCheckPeripherals/src/le
     769 0000028c           $C$RL18:   ; CALL OCCURS {GPIODirModeSet} {0}  ; [] |92| 
     770                    ;** --------------------------------------------------------------------------*
TMS320C6x Assembler PC v8.1.3 Thu Apr 20 04:41:32 2017

Tools Copyright (c) 1996-2015 Texas Instruments Incorporated
leds.asm                                                             PAGE   15

     771 0000028c           $C$L8:    
     772                            .dwpsn  file "C:/Users/Raz Aloni/OneDrive/School/EEL4924/DSP/C_Libs/MicCheckPeripherals/src/le
     773 0000028c     6577             LDW     .D2T1   *++SP(8),A10      ; [B_D64P] |96| 
     774                            .dwcfi  cfa_offset, 24
     775                            .dwcfi  restore_reg, 10
     776                    
     777 0000028e     8686             MV      .L1     A13,A4            ; [A_L674] 
     778 00000290     c677  ||         LDDW    .D2T1   *++SP(8),A13:A12  ; [B_D64P] |96| 
     779 00000292     6587  ||         MV      .L2     B11,B3            ; [B_L674] |96| 
     780                    
     781                            .dwcfi  cfa_offset, 16
     782                            .dwcfi  restore_reg, 13
     783                            .dwcfi  restore_reg, 12
     784                            .dwcfi  restore_reg, 19
     785                    $C$DW$42        .dwtag  DW_TAG_TI_branch
     786                            .dwattr $C$DW$42, DW_AT_low_pc(0x04)
     787                            .dwattr $C$DW$42, DW_AT_TI_return
     788                    
     789                    
     790 00000294     d577             LDDW    .D2T2   *++SP(8),B11:B10  ; [B_D64P] |96| 
     791 00000296     01ef  ||         RET     .S2     B3                ; [B_Sb674] |96| 
     792                    
     793                            .dwcfi  cfa_offset, 8
     794                            .dwcfi  restore_reg, 27
     795                            .dwcfi  restore_reg, 26
     796 00000298     65f7             LDW     .D2T1   *++SP(8),A11      ; [B_D64P] |96| 
     797                            .dwcfi  cfa_offset, 0
     798                            .dwcfi  restore_reg, 11
     799 0000029a     0c6e             NOP             1                 ; [A_L674] 
     800                    ;** --------------------------------------------------------------------------*
     801 000002a0           $C$L9:    
     802                            .dwcfi  restore_reg, 19
     803                            .dwcfi  cfa_offset, 24
     804                            .dwcfi  restore_reg, 10
     805                            .dwcfi  cfa_offset, 16
     806                            .dwcfi  restore_reg, 13
     807                            .dwcfi  restore_reg, 12
     808                            .dwcfi  cfa_offset, 8
     809                            .dwcfi  restore_reg, 27
     810                            .dwcfi  restore_reg, 26
     811                            .dwcfi  cfa_offset, 0
     812                            .dwcfi  restore_reg, 11
     813 000002a0 00004000             NOP             3                 ; [A_L674] 
     814                               ; BRANCH OCCURS {B3}              ; [] |96| 
     815                            .dwattr $C$DW$28, DW_AT_TI_end_file("C:/Users/Raz Aloni/OneDrive/School/EEL4924/DSP/C_Libs/Mic
     816                            .dwattr $C$DW$28, DW_AT_TI_end_line(0x60)
     817                            .dwattr $C$DW$28, DW_AT_TI_end_column(0x01)
     818                            .dwendentry
     819                            .dwendtag $C$DW$28
     820                    
     821 000002a4                   .sect   ".text"
     822                            .clink
     823                            .global ClearLEDS
     824                    
     825                    $C$DW$43        .dwtag  DW_TAG_subprogram
TMS320C6x Assembler PC v8.1.3 Thu Apr 20 04:41:32 2017

Tools Copyright (c) 1996-2015 Texas Instruments Incorporated
leds.asm                                                             PAGE   16

     826                            .dwattr $C$DW$43, DW_AT_name("ClearLEDS")
     827                            .dwattr $C$DW$43, DW_AT_low_pc(ClearLEDS)
     828                            .dwattr $C$DW$43, DW_AT_high_pc(0x00)
     829                            .dwattr $C$DW$43, DW_AT_TI_symbol_name("ClearLEDS")
     830                            .dwattr $C$DW$43, DW_AT_external
     831                            .dwattr $C$DW$43, DW_AT_TI_begin_file("C:/Users/Raz Aloni/OneDrive/School/EEL4924/DSP/C_Libs/M
     832                            .dwattr $C$DW$43, DW_AT_TI_begin_line(0x79)
     833                            .dwattr $C$DW$43, DW_AT_TI_begin_column(0x06)
     834                            .dwattr $C$DW$43, DW_AT_decl_file("C:/Users/Raz Aloni/OneDrive/School/EEL4924/DSP/C_Libs/MicCh
     835                            .dwattr $C$DW$43, DW_AT_decl_line(0x79)
     836                            .dwattr $C$DW$43, DW_AT_decl_column(0x06)
     837                            .dwattr $C$DW$43, DW_AT_TI_max_frame_size(0x08)
     838                            .dwpsn  file "C:/Users/Raz Aloni/OneDrive/School/EEL4924/DSP/C_Libs/MicCheckPeripherals/src/le
     839                    
     840                            .dwfde $C$DW$CIE, ClearLEDS
     841                    $C$DW$44        .dwtag  DW_TAG_formal_parameter
     842                            .dwattr $C$DW$44, DW_AT_name("value")
     843                            .dwattr $C$DW$44, DW_AT_TI_symbol_name("value")
     844                            .dwattr $C$DW$44, DW_AT_type(*$C$DW$T$27)
     845                            .dwattr $C$DW$44, DW_AT_location[DW_OP_reg4]
     846                    
     847                    
     848                    ;******************************************************************************
     849                    ;* FUNCTION NAME: ClearLEDS                                                   *
     850                    ;*                                                                            *
     851                    ;*   Regs Modified     : A0,A1,A2,A3,A4,A5,A6,A7,A8,A9,A10,A11,A16,A17,A18,   *
     852                    ;*                           A19,A20,A21,A22,A23,A24,A25,A26,A27,A28,A29,A30, *
     853                    ;*                           A31,B0,B1,B2,B3,B4,B5,B6,B7,B8,B9,SP,B16,B17,B18,*
     854                    ;*                           B19,B20,B21,B22,B23,B24,B25,B26,B27,B28,B29,B30, *
     855                    ;*                           B31                                              *
     856                    ;*   Regs Used         : A0,A1,A2,A3,A4,A5,A6,A7,A8,A9,A10,A11,A16,A17,A18,   *
     857                    ;*                           A19,A20,A21,A22,A23,A24,A25,A26,A27,A28,A29,A30, *
     858                    ;*                           A31,B0,B1,B2,B3,B4,B5,B6,B7,B8,B9,DP,SP,B16,B17, *
     859                    ;*                           B18,B19,B20,B21,B22,B23,B24,B25,B26,B27,B28,B29, *
     860                    ;*                           B30,B31                                          *
     861                    ;*   Local Frame Size  : 0 Args + 0 Auto + 8 Save = 8 byte                    *
     862                    ;******************************************************************************
     863                    ClearLEDS:
     864                    ;** --------------------------------------------------------------------------*
     865                    $C$DW$45        .dwtag  DW_TAG_variable
     866                            .dwattr $C$DW$45, DW_AT_name("value")
     867                            .dwattr $C$DW$45, DW_AT_TI_symbol_name("value")
     868                            .dwattr $C$DW$45, DW_AT_type(*$C$DW$T$99)
     869                            .dwattr $C$DW$45, DW_AT_location[DW_OP_reg10]
     870                    
     871                            .dwcfi  cfa_offset, 0
     872 000002a4     25f7             STW     .D2T1   A11,*SP++(-8)     ; [B_D64P] |122| 
     873                            .dwcfi  cfa_offset, 8
     874                            .dwcfi  save_reg_to_mem, 11, 0
     875                    
     876 000002a8 053c22f5             STW     .D2T1   A10,*SP(4)        ; [B_D64P] |122| 
     877 000002a6     4646  ||         MV      .L1     A4,A10            ; [A_L674] |122| 
     878 000002ac 02300028  ||         MVKL    .S1     0x1e26000,A4      ; [A_S674] |125| 
     879                    
     880                            .dwcfi  save_reg_to_mem, 10, -4
TMS320C6x Assembler PC v8.1.3 Thu Apr 20 04:41:32 2017

Tools Copyright (c) 1996-2015 Texas Instruments Incorporated
leds.asm                                                             PAGE   17

     881                            .dwpsn  file "C:/Users/Raz Aloni/OneDrive/School/EEL4924/DSP/C_Libs/MicCheckPeripherals/src/le
     882                    
     883 000002b0 00290f59             AND     .L1     8,A10,A0          ; [A_L674] |123| 
     884 000002b4 0200f168  ||         MVKH    .S1     0x1e26000,A4      ; [A_S674] |125| 
     885                    
     886 000002b8 d0000d13     [!A0]   B       .S2     $C$L10            ; [B_Sb674] |123| 
     887 000002c0 00800fd8  ||         MV      .L1     A0,A1             ; [A_L674] guard predicate rewrite
     888                    
     889                            .dwpsn  file "C:/Users/Raz Aloni/OneDrive/School/EEL4924/DSP/C_Libs/MicCheckPeripherals/src/le
     890                    $C$DW$46        .dwtag  DW_TAG_TI_branch
     891                            .dwattr $C$DW$46, DW_AT_low_pc(0x00)
     892                            .dwattr $C$DW$46, DW_AT_name("GPIOPinWrite")
     893                            .dwattr $C$DW$46, DW_AT_TI_call
     894                    
     895                    
     896 000002c4 c0000011!    [ A0]   CALL    .S1     GPIOPinWrite      ; [A_S674] |125| 
     897 000002c8 d0288f58  || [!A0]   AND     .L1     4,A10,A0          ; [A_L674] |128| 
     898                    
     899                            .dwpsn  file "C:/Users/Raz Aloni/OneDrive/School/EEL4924/DSP/C_Libs/MicCheckPeripherals/src/le
     900                    
     901 000002cc 8004a359     [ A1]   MVK     .L1     1,A0              ; [A_L674] |130| nullify predicate
     902 000002d0 92300028  || [!A1]   MVKL    .S1     0x1e26000,A4      ; [A_S674] |130| 
     903                    
     904                            .dwpsn  file "C:/Users/Raz Aloni/OneDrive/School/EEL4924/DSP/C_Libs/MicCheckPeripherals/src/le
     905                    
     906 000002d4 d0001113     [!A0]   B       .S2     $C$L11            ; [B_Sb674] |128| 
     907 000002d8 9200f168  || [!A1]   MVKH    .S1     0x1e26000,A4      ; [A_S674] |130| 
     908                    
     909                            .dwpsn  file "C:/Users/Raz Aloni/OneDrive/School/EEL4924/DSP/C_Libs/MicCheckPeripherals/src/le
     910                    
     911 000002dc 0300a359             ZERO    .L1     A6                ; [A_L674] |125| 
     912 000002e0     4233  ||         MVK     .S2     0x22,B4           ; [B_Sb674] |125| 
     913                    
     914                            .dwpsn  file "C:/Users/Raz Aloni/OneDrive/School/EEL4924/DSP/C_Libs/MicCheckPeripherals/src/le
     915                    
     916 000002e8 9300a358     [!A1]   ZERO    .L1     A6                ; [A_L674] |130| 
     917 000002e4 92001cab  || [!A1]   MVK     .S2     0x39,B4           ; [B_Sb674] |130| 
     918 000002e2     75ce  ||         MV      .S1X    B3,A11            ; [A_S674] |122| 
     919                    
     920                            .dwcfi  save_reg_to_reg, 19, 11
     921                            .dwpsn  file "C:/Users/Raz Aloni/OneDrive/School/EEL4924/DSP/C_Libs/MicCheckPeripherals/src/le
     922                               ; BRANCHCC OCCURS {$C$L10}        ; [] |123| 
     923                    ;** --------------------------------------------------------------------------*
     924                            .dwpsn  file "C:/Users/Raz Aloni/OneDrive/School/EEL4924/DSP/C_Libs/MicCheckPeripherals/src/le
     925 000002ec 01840162             ADDKPC  .S2     $C$RL20,B3,0      ; [B_Sb674] |125| 
     926 000002f0           $C$RL20:   ; CALL OCCURS {GPIOPinWrite} {0}  ; [] |125| 
     927                            .dwpsn  file "C:/Users/Raz Aloni/OneDrive/School/EEL4924/DSP/C_Libs/MicCheckPeripherals/src/le
     928                    
     929 000002f0 00288f59             AND     .L1     4,A10,A0          ; [A_L674] |128| 
     930 000002f4 02300029  ||         MVKL    .S1     0x1e26000,A4      ; [A_S674] |130| 
     931 000002f8     3a33  ||         MVK     .S2     0x39,B4           ; [B_Sb674] |130| 
     932 000002fa     1b76  ||         ZERO    .D1     A6                ; [A_D64P] |130| 
     933                    
     934 00000300 d0124121     [!A0]   BNOP            $C$L11,2          ; [] |128| 
     935 00000304 0200f168  ||         MVKH    .S1     0x1e26000,A4      ; [A_S674] |130| 
TMS320C6x Assembler PC v8.1.3 Thu Apr 20 04:41:32 2017

Tools Copyright (c) 1996-2015 Texas Instruments Incorporated
leds.asm                                                             PAGE   18

     936                    
     937                    ;** --------------------------------------------------------------------------*
     938 00000308           $C$L10:    
     939                            .dwpsn  file "C:/Users/Raz Aloni/OneDrive/School/EEL4924/DSP/C_Libs/MicCheckPeripherals/src/le
     940                    $C$DW$47        .dwtag  DW_TAG_TI_branch
     941                            .dwattr $C$DW$47, DW_AT_low_pc(0x00)
     942                            .dwattr $C$DW$47, DW_AT_name("GPIOPinWrite")
     943                            .dwattr $C$DW$47, DW_AT_TI_call
     944                    
     945                    
     946 00000308 c0000011!    [ A0]   CALL    .S1     GPIOPinWrite      ; [A_S674] |130| 
     947 0000030c 00800fd9  ||         MV      .L1     A0,A1             ; [A_L674] guard predicate rewrite
     948 00000310 d02849f0  || [!A0]   AND     .D1     2,A10,A0          ; [A_D64P] |133| 
     949                    
     950                            .dwpsn  file "C:/Users/Raz Aloni/OneDrive/School/EEL4924/DSP/C_Libs/MicCheckPeripherals/src/le
     951                    
     952 00000314 8004a359     [ A1]   MVK     .L1     1,A0              ; [A_L674] |135| nullify predicate
     953 00000318 92300029  || [!A1]   MVKL    .S1     0x1e26000,A4      ; [A_S674] |135| 
     954 0000031c 9200202b  || [!A1]   MVK     .S2     0x40,B4           ; [B_Sb674] |135| 
     955 00000320 93000040  || [!A1]   ZERO    .D1     A6                ; [A_D64P] |135| 
     956                    
     957                            .dwpsn  file "C:/Users/Raz Aloni/OneDrive/School/EEL4924/DSP/C_Libs/MicCheckPeripherals/src/le
     958                    
     959 00000324 d0000c93     [!A0]   B       .S2     $C$L12            ; [B_Sb674] |133| 
     960 00000328 9200f168  || [!A1]   MVKH    .S1     0x1e26000,A4      ; [A_S674] |135| 
     961                    
     962                            .dwpsn  file "C:/Users/Raz Aloni/OneDrive/School/EEL4924/DSP/C_Libs/MicCheckPeripherals/src/le
     963                               ; BRANCHCC OCCURS {$C$L11}        ; [] |128| 
     964                    ;** --------------------------------------------------------------------------*
     965                            .dwpsn  file "C:/Users/Raz Aloni/OneDrive/School/EEL4924/DSP/C_Libs/MicCheckPeripherals/src/le
     966 0000032c 01844162             ADDKPC  .S2     $C$RL22,B3,2      ; [B_Sb674] |130| 
     967 00000330           $C$RL22:   ; CALL OCCURS {GPIOPinWrite} {0}  ; [] |130| 
     968                    ;** --------------------------------------------------------------------------*
     969                            .dwpsn  file "C:/Users/Raz Aloni/OneDrive/School/EEL4924/DSP/C_Libs/MicCheckPeripherals/src/le
     970                    
     971 00000330 0200202b             MVK     .S2     0x40,B4           ; [B_Sb674] |135| 
     972 00000334 02300029  ||         MVKL    .S1     0x1e26000,A4      ; [A_S674] |135| 
     973 00000338 00284f58  ||         AND     .L1     2,A10,A0          ; [A_L674] |133| 
     974                    
     975 0000033c d0000c93     [!A0]   B       .S2     $C$L12            ; [B_Sb674] |133| 
     976 00000340 0200f169  ||         MVKH    .S1     0x1e26000,A4      ; [A_S674] |135| 
     977 00000344 0300a358  ||         ZERO    .L1     A6                ; [A_L674] |135| 
     978                    
     979                    ;** --------------------------------------------------------------------------*
     980 00000348           $C$L11:    
     981                            .dwpsn  file "C:/Users/Raz Aloni/OneDrive/School/EEL4924/DSP/C_Libs/MicCheckPeripherals/src/le
     982                    $C$DW$48        .dwtag  DW_TAG_TI_branch
     983                            .dwattr $C$DW$48, DW_AT_low_pc(0x00)
     984                            .dwattr $C$DW$48, DW_AT_name("GPIOPinWrite")
     985                            .dwattr $C$DW$48, DW_AT_TI_call
     986                    
     987                    
     988 00000348 c0000011!    [ A0]   CALL    .S1     GPIOPinWrite      ; [A_S674] |135| 
     989 0000034c 00800fd9  ||         MV      .L1     A0,A1             ; [A_L674] guard predicate rewrite
     990 00000350 d02829f0  || [!A0]   AND     .D1     1,A10,A0          ; [A_D64P] |138| 
TMS320C6x Assembler PC v8.1.3 Thu Apr 20 04:41:32 2017

Tools Copyright (c) 1996-2015 Texas Instruments Incorporated
leds.asm                                                             PAGE   19

     991                    
     992                            .dwpsn  file "C:/Users/Raz Aloni/OneDrive/School/EEL4924/DSP/C_Libs/MicCheckPeripherals/src/le
     993                    
     994 00000354 8004a359     [ A1]   MVK     .L1     1,A0              ; [A_L674] |140| nullify predicate
     995 00000358 92300029  || [!A1]   MVKL    .S1     0x1e26000,A4      ; [A_S674] |140| 
     996 0000035c 93000041  || [!A1]   ZERO    .D1     A6                ; [A_D64P] |140| 
     997 00000360 92001eaa  || [!A1]   MVK     .S2     0x3d,B4           ; [B_Sb674] |140| 
     998                    
     999                            .dwpsn  file "C:/Users/Raz Aloni/OneDrive/School/EEL4924/DSP/C_Libs/MicCheckPeripherals/src/le
    1000                    
    1001 00000364 d0144121     [!A0]   BNOP            $C$L13,2          ; [] |138| 
    1002 00000368 9200f168  || [!A1]   MVKH    .S1     0x1e26000,A4      ; [A_S674] |140| 
    1003                    
    1004                            .dwpsn  file "C:/Users/Raz Aloni/OneDrive/School/EEL4924/DSP/C_Libs/MicCheckPeripherals/src/le
    1005                               ; BRANCHCC OCCURS {$C$L12}        ; [] |133| 
    1006                    ;** --------------------------------------------------------------------------*
    1007                            .dwpsn  file "C:/Users/Raz Aloni/OneDrive/School/EEL4924/DSP/C_Libs/MicCheckPeripherals/src/le
    1008 0000036c 01840162             ADDKPC  .S2     $C$RL24,B3,0      ; [B_Sb674] |135| 
    1009 00000370           $C$RL24:   ; CALL OCCURS {GPIOPinWrite} {0}  ; [] |135| 
    1010                    ;** --------------------------------------------------------------------------*
    1011                            .dwpsn  file "C:/Users/Raz Aloni/OneDrive/School/EEL4924/DSP/C_Libs/MicCheckPeripherals/src/le
    1012 00000370 00282f58             AND     .L1     1,A10,A0          ; [A_L674] |138| 
    1013 00000374 d0000a12     [!A0]   B       .S2     $C$L13            ; [B_Sb674] |138| 
    1014                            .dwpsn  file "C:/Users/Raz Aloni/OneDrive/School/EEL4924/DSP/C_Libs/MicCheckPeripherals/src/le
    1015 00000378 02300028             MVKL    .S1     0x1e26000,A4      ; [A_S674] |140| 
    1016                    
    1017 0000037c 0200f169             MVKH    .S1     0x1e26000,A4      ; [A_S674] |140| 
    1018 00000380     ba33  ||         MVK     .S2     0x3d,B4           ; [B_Sb674] |140| 
    1019 00000382     0726  ||         ZERO    .L1     A6                ; [A_L674] |140| 
    1020                    
    1021                    ;** --------------------------------------------------------------------------*
    1022                    $C$L12:    
    1023                    $C$DW$49        .dwtag  DW_TAG_TI_branch
    1024                            .dwattr $C$DW$49, DW_AT_low_pc(0x00)
    1025                            .dwattr $C$DW$49, DW_AT_name("GPIOPinWrite")
    1026                            .dwattr $C$DW$49, DW_AT_TI_call
    1027                    
    1028                    
    1029 00000384 c0000011!    [ A0]   CALL    .S1     GPIOPinWrite      ; [A_S674] |140| 
    1030 00000388 d1ac1fdb  || [!A0]   MV      .L2X    A11,B3            ; [B_L674] |142| 
    1031 0000038c d53c22e4  || [!A0]   LDW     .D2T1   *SP(4),A10        ; [B_D64P] |142| 
    1032                    
    1033                            .dwpsn  file "C:/Users/Raz Aloni/OneDrive/School/EEL4924/DSP/C_Libs/MicCheckPeripherals/src/le
    1034                    $C$DW$50        .dwtag  DW_TAG_TI_branch
    1035                            .dwattr $C$DW$50, DW_AT_low_pc(0x00)
    1036                            .dwattr $C$DW$50, DW_AT_TI_return
    1037                    
    1038                    
    1039 00000390 d08c2363     [!A0]   RETNOP          B3,1              ; [] |142| 
    1040 00000394 d5bc52e4  || [!A0]   LDW     .D2T1   *++SP(8),A11      ; [B_D64P] |142| 
    1041                    
    1042                            .dwpsn  file "C:/Users/Raz Aloni/OneDrive/School/EEL4924/DSP/C_Libs/MicCheckPeripherals/src/le
    1043                               ; BRANCHCC OCCURS {$C$L13}        ; [] |138| 
    1044                    ;** --------------------------------------------------------------------------*
    1045                            .dwpsn  file "C:/Users/Raz Aloni/OneDrive/School/EEL4924/DSP/C_Libs/MicCheckPeripherals/src/le
TMS320C6x Assembler PC v8.1.3 Thu Apr 20 04:41:32 2017

Tools Copyright (c) 1996-2015 Texas Instruments Incorporated
leds.asm                                                             PAGE   20

    1046 00000398 01884162             ADDKPC  .S2     $C$RL26,B3,2      ; [B_Sb674] |140| 
    1047 000003a0           $C$RL26:   ; CALL OCCURS {GPIOPinWrite} {0}  ; [] |140| 
    1048                    ;** --------------------------------------------------------------------------*
    1049                            .dwpsn  file "C:/Users/Raz Aloni/OneDrive/School/EEL4924/DSP/C_Libs/MicCheckPeripherals/src/le
    1050 000003a0 01ac1fda             MV      .L2X    A11,B3            ; [B_L674] |142| 
    1051                            .dwcfi  restore_reg, 19
    1052                    $C$DW$51        .dwtag  DW_TAG_TI_branch
    1053                            .dwattr $C$DW$51, DW_AT_low_pc(0x00)
    1054                            .dwattr $C$DW$51, DW_AT_TI_return
    1055                    
    1056                    
    1057 000003a4 000c0363             RET     .S2     B3                ; [B_Sb674] |142| 
    1058 000003a8 053c22e4  ||         LDW     .D2T1   *SP(4),A10        ; [B_D64P] |142| 
    1059                    
    1060                            .dwcfi  restore_reg, 10
    1061 000003ac 05bc52e4             LDW     .D2T1   *++SP(8),A11      ; [B_D64P] |142| 
    1062                            .dwcfi  cfa_offset, 0
    1063                            .dwcfi  restore_reg, 11
    1064                    ;** --------------------------------------------------------------------------*
    1065 000003b0           $C$L13:    
    1066                            .dwcfi  restore_reg, 19
    1067                            .dwcfi  restore_reg, 10
    1068                            .dwcfi  cfa_offset, 0
    1069                            .dwcfi  restore_reg, 11
    1070 000003b0 00006000             NOP             4                 ; [A_L674] 
    1071                               ; BRANCH OCCURS {B3}              ; [] |142| 
    1072                            .dwattr $C$DW$43, DW_AT_TI_end_file("C:/Users/Raz Aloni/OneDrive/School/EEL4924/DSP/C_Libs/Mic
    1073                            .dwattr $C$DW$43, DW_AT_TI_end_line(0x8e)
    1074                            .dwattr $C$DW$43, DW_AT_TI_end_column(0x01)
    1075                            .dwendentry
    1076                            .dwendtag $C$DW$43
    1077                    
    1078                    ;*****************************************************************************
    1079                    ;* UNDEFINED EXTERNAL REFERENCES                                             *
    1080                    ;*****************************************************************************
    1081                            .global PSCModuleControl
    1082                            .global GPIODirModeSet
    1083                            .global GPIOPinWrite
    1084                    
    1085                    ;******************************************************************************
    1086                    ;* BUILD ATTRIBUTES                                                           *
    1087                    ;******************************************************************************
    1088                            .battr "TI", Tag_File, 1, Tag_Long_Precision_Bits(2)
    1089                            .battr "TI", Tag_File, 1, Tag_Bitfield_layout(2)
    1090                            .battr "TI", Tag_File, 1, Tag_ABI_enum_size(2)
    1091                            .battr "c6xabi", Tag_File, 1, Tag_ABI_wchar_t(1)
    1092                            .battr "c6xabi", Tag_File, 1, Tag_ABI_array_object_alignment(0)
    1093                            .battr "c6xabi", Tag_File, 1, Tag_ABI_array_object_align_expected(0)
    1094                            .battr "c6xabi", Tag_File, 1, Tag_ABI_PIC(0)
    1095                            .battr "c6xabi", Tag_File, 1, Tag_ABI_PID(0)
    1096                            .battr "c6xabi", Tag_File, 1, Tag_ABI_DSBT(0)
    1097                            .battr "c6xabi", Tag_File, 1, Tag_ABI_stack_align_needed(0)
    1098                            .battr "c6xabi", Tag_File, 1, Tag_ABI_stack_align_preserved(0)
    1099                            .battr "TI", Tag_File, 1, Tag_Tramps_Use_SOC(1)
    1100                    
TMS320C6x Assembler PC v8.1.3 Thu Apr 20 04:41:32 2017

Tools Copyright (c) 1996-2015 Texas Instruments Incorporated
leds.asm                                                             PAGE   21

    1101                    ;******************************************************************************
    1102                    ;* TYPE INFORMATION                                                           *
    1103                    ;******************************************************************************
    1104                    
    1105                    $C$DW$T$51      .dwtag  DW_TAG_enumeration_type
    1106                            .dwattr $C$DW$T$51, DW_AT_byte_size(0x04)
    1107                    $C$DW$52        .dwtag  DW_TAG_enumerator
    1108                            .dwattr $C$DW$52, DW_AT_name("CSL_PSC_CC0")
    1109                            .dwattr $C$DW$52, DW_AT_const_value(0x00)
    1110                            .dwattr $C$DW$52, DW_AT_decl_file("C:/ti/pdk_OMAPL138_1_01_00_02/packages/ti/csl/cslr_psc_C674
    1111                            .dwattr $C$DW$52, DW_AT_decl_line(0x42)
    1112                            .dwattr $C$DW$52, DW_AT_decl_column(0x05)
    1113                    
    1114                    $C$DW$53        .dwtag  DW_TAG_enumerator
    1115                            .dwattr $C$DW$53, DW_AT_name("CSL_PSC_TC0")
    1116                            .dwattr $C$DW$53, DW_AT_const_value(0x01)
    1117                            .dwattr $C$DW$53, DW_AT_decl_file("C:/ti/pdk_OMAPL138_1_01_00_02/packages/ti/csl/cslr_psc_C674
    1118                            .dwattr $C$DW$53, DW_AT_decl_line(0x43)
    1119                            .dwattr $C$DW$53, DW_AT_decl_column(0x05)
    1120                    
    1121                    $C$DW$54        .dwtag  DW_TAG_enumerator
    1122                            .dwattr $C$DW$54, DW_AT_name("CSL_PSC_TC1")
    1123                            .dwattr $C$DW$54, DW_AT_const_value(0x02)
    1124                            .dwattr $C$DW$54, DW_AT_decl_file("C:/ti/pdk_OMAPL138_1_01_00_02/packages/ti/csl/cslr_psc_C674
    1125                            .dwattr $C$DW$54, DW_AT_decl_line(0x44)
    1126                            .dwattr $C$DW$54, DW_AT_decl_column(0x05)
    1127                    
    1128                    $C$DW$55        .dwtag  DW_TAG_enumerator
    1129                            .dwattr $C$DW$55, DW_AT_name("CSL_PSC_EMIFA")
    1130                            .dwattr $C$DW$55, DW_AT_const_value(0x03)
    1131                            .dwattr $C$DW$55, DW_AT_decl_file("C:/ti/pdk_OMAPL138_1_01_00_02/packages/ti/csl/cslr_psc_C674
    1132                            .dwattr $C$DW$55, DW_AT_decl_line(0x45)
    1133                            .dwattr $C$DW$55, DW_AT_decl_column(0x05)
    1134                    
    1135                    $C$DW$56        .dwtag  DW_TAG_enumerator
    1136                            .dwattr $C$DW$56, DW_AT_name("CSL_PSC_SPI0")
    1137                            .dwattr $C$DW$56, DW_AT_const_value(0x04)
    1138                            .dwattr $C$DW$56, DW_AT_decl_file("C:/ti/pdk_OMAPL138_1_01_00_02/packages/ti/csl/cslr_psc_C674
    1139                            .dwattr $C$DW$56, DW_AT_decl_line(0x46)
    1140                            .dwattr $C$DW$56, DW_AT_decl_column(0x05)
    1141                    
    1142                    $C$DW$57        .dwtag  DW_TAG_enumerator
    1143                            .dwattr $C$DW$57, DW_AT_name("CSL_PSC_MMCSD0")
    1144                            .dwattr $C$DW$57, DW_AT_const_value(0x05)
    1145                            .dwattr $C$DW$57, DW_AT_decl_file("C:/ti/pdk_OMAPL138_1_01_00_02/packages/ti/csl/cslr_psc_C674
    1146                            .dwattr $C$DW$57, DW_AT_decl_line(0x47)
    1147                            .dwattr $C$DW$57, DW_AT_decl_column(0x05)
    1148                    
    1149                    $C$DW$58        .dwtag  DW_TAG_enumerator
    1150                            .dwattr $C$DW$58, DW_AT_name("CSL_PSC_UART0")
    1151                            .dwattr $C$DW$58, DW_AT_const_value(0x09)
    1152                            .dwattr $C$DW$58, DW_AT_decl_file("C:/ti/pdk_OMAPL138_1_01_00_02/packages/ti/csl/cslr_psc_C674
    1153                            .dwattr $C$DW$58, DW_AT_decl_line(0x48)
    1154                            .dwattr $C$DW$58, DW_AT_decl_column(0x05)
    1155                    
TMS320C6x Assembler PC v8.1.3 Thu Apr 20 04:41:32 2017

Tools Copyright (c) 1996-2015 Texas Instruments Incorporated
leds.asm                                                             PAGE   22

    1156                    $C$DW$59        .dwtag  DW_TAG_enumerator
    1157                            .dwattr $C$DW$59, DW_AT_name("CSL_PSC_SCR0_SS")
    1158                            .dwattr $C$DW$59, DW_AT_const_value(0x0a)
    1159                            .dwattr $C$DW$59, DW_AT_decl_file("C:/ti/pdk_OMAPL138_1_01_00_02/packages/ti/csl/cslr_psc_C674
    1160                            .dwattr $C$DW$59, DW_AT_decl_line(0x49)
    1161                            .dwattr $C$DW$59, DW_AT_decl_column(0x05)
    1162                    
    1163                    $C$DW$60        .dwtag  DW_TAG_enumerator
    1164                            .dwattr $C$DW$60, DW_AT_name("CSL_PSC_SCR1_SS")
    1165                            .dwattr $C$DW$60, DW_AT_const_value(0x0b)
    1166                            .dwattr $C$DW$60, DW_AT_decl_file("C:/ti/pdk_OMAPL138_1_01_00_02/packages/ti/csl/cslr_psc_C674
    1167                            .dwattr $C$DW$60, DW_AT_decl_line(0x4a)
    1168                            .dwattr $C$DW$60, DW_AT_decl_column(0x05)
    1169                    
    1170                    $C$DW$61        .dwtag  DW_TAG_enumerator
    1171                            .dwattr $C$DW$61, DW_AT_name("CSL_PSC_SCR2_SS")
    1172                            .dwattr $C$DW$61, DW_AT_const_value(0x0c)
    1173                            .dwattr $C$DW$61, DW_AT_decl_file("C:/ti/pdk_OMAPL138_1_01_00_02/packages/ti/csl/cslr_psc_C674
    1174                            .dwattr $C$DW$61, DW_AT_decl_line(0x4b)
    1175                            .dwattr $C$DW$61, DW_AT_decl_column(0x05)
    1176                    
    1177                    $C$DW$62        .dwtag  DW_TAG_enumerator
    1178                            .dwattr $C$DW$62, DW_AT_name("CSL_PSC_PRU")
    1179                            .dwattr $C$DW$62, DW_AT_const_value(0x0d)
    1180                            .dwattr $C$DW$62, DW_AT_decl_file("C:/ti/pdk_OMAPL138_1_01_00_02/packages/ti/csl/cslr_psc_C674
    1181                            .dwattr $C$DW$62, DW_AT_decl_line(0x4c)
    1182                            .dwattr $C$DW$62, DW_AT_decl_column(0x05)
    1183                    
    1184                    $C$DW$63        .dwtag  DW_TAG_enumerator
    1185                            .dwattr $C$DW$63, DW_AT_name("CSL_PSC_DSP")
    1186                            .dwattr $C$DW$63, DW_AT_const_value(0x0f)
    1187                            .dwattr $C$DW$63, DW_AT_decl_file("C:/ti/pdk_OMAPL138_1_01_00_02/packages/ti/csl/cslr_psc_C674
    1188                            .dwattr $C$DW$63, DW_AT_decl_line(0x4d)
    1189                            .dwattr $C$DW$63, DW_AT_decl_column(0x05)
    1190                    
    1191                            .dwattr $C$DW$T$51, DW_AT_decl_file("C:/ti/pdk_OMAPL138_1_01_00_02/packages/ti/csl/cslr_psc_C6
    1192                            .dwattr $C$DW$T$51, DW_AT_decl_line(0x41)
    1193                            .dwattr $C$DW$T$51, DW_AT_decl_column(0x0e)
    1194                            .dwendtag $C$DW$T$51
    1195                    
    1196                    $C$DW$T$52      .dwtag  DW_TAG_typedef
    1197                            .dwattr $C$DW$T$52, DW_AT_name("CSL_Psc0Peripheral")
    1198                            .dwattr $C$DW$T$52, DW_AT_type(*$C$DW$T$51)
    1199                            .dwattr $C$DW$T$52, DW_AT_language(DW_LANG_C)
    1200                            .dwattr $C$DW$T$52, DW_AT_decl_file("C:/ti/pdk_OMAPL138_1_01_00_02/packages/ti/csl/cslr_psc_C6
    1201                            .dwattr $C$DW$T$52, DW_AT_decl_line(0x4f)
    1202                            .dwattr $C$DW$T$52, DW_AT_decl_column(0x03)
    1203                    
    1204                    
    1205                    $C$DW$T$53      .dwtag  DW_TAG_enumeration_type
    1206                            .dwattr $C$DW$T$53, DW_AT_byte_size(0x04)
    1207                    $C$DW$64        .dwtag  DW_TAG_enumerator
    1208                            .dwattr $C$DW$64, DW_AT_name("CSL_PSC_CC1")
    1209                            .dwattr $C$DW$64, DW_AT_const_value(0x00)
    1210                            .dwattr $C$DW$64, DW_AT_decl_file("C:/ti/pdk_OMAPL138_1_01_00_02/packages/ti/csl/cslr_psc_C674
TMS320C6x Assembler PC v8.1.3 Thu Apr 20 04:41:32 2017

Tools Copyright (c) 1996-2015 Texas Instruments Incorporated
leds.asm                                                             PAGE   23

    1211                            .dwattr $C$DW$64, DW_AT_decl_line(0x52)
    1212                            .dwattr $C$DW$64, DW_AT_decl_column(0x05)
    1213                    
    1214                    $C$DW$65        .dwtag  DW_TAG_enumerator
    1215                            .dwattr $C$DW$65, DW_AT_name("CSL_PSC_USB0")
    1216                            .dwattr $C$DW$65, DW_AT_const_value(0x01)
    1217                            .dwattr $C$DW$65, DW_AT_decl_file("C:/ti/pdk_OMAPL138_1_01_00_02/packages/ti/csl/cslr_psc_C674
    1218                            .dwattr $C$DW$65, DW_AT_decl_line(0x53)
    1219                            .dwattr $C$DW$65, DW_AT_decl_column(0x05)
    1220                    
    1221                    $C$DW$66        .dwtag  DW_TAG_enumerator
    1222                            .dwattr $C$DW$66, DW_AT_name("CSL_PSC_USB1")
    1223                            .dwattr $C$DW$66, DW_AT_const_value(0x02)
    1224                            .dwattr $C$DW$66, DW_AT_decl_file("C:/ti/pdk_OMAPL138_1_01_00_02/packages/ti/csl/cslr_psc_C674
    1225                            .dwattr $C$DW$66, DW_AT_decl_line(0x54)
    1226                            .dwattr $C$DW$66, DW_AT_decl_column(0x05)
    1227                    
    1228                    $C$DW$67        .dwtag  DW_TAG_enumerator
    1229                            .dwattr $C$DW$67, DW_AT_name("CSL_PSC_GPIO")
    1230                            .dwattr $C$DW$67, DW_AT_const_value(0x03)
    1231                            .dwattr $C$DW$67, DW_AT_decl_file("C:/ti/pdk_OMAPL138_1_01_00_02/packages/ti/csl/cslr_psc_C674
    1232                            .dwattr $C$DW$67, DW_AT_decl_line(0x55)
    1233                            .dwattr $C$DW$67, DW_AT_decl_column(0x05)
    1234                    
    1235                    $C$DW$68        .dwtag  DW_TAG_enumerator
    1236                            .dwattr $C$DW$68, DW_AT_name("CSL_PSC_UHPI")
    1237                            .dwattr $C$DW$68, DW_AT_const_value(0x04)
    1238                            .dwattr $C$DW$68, DW_AT_decl_file("C:/ti/pdk_OMAPL138_1_01_00_02/packages/ti/csl/cslr_psc_C674
    1239                            .dwattr $C$DW$68, DW_AT_decl_line(0x56)
    1240                            .dwattr $C$DW$68, DW_AT_decl_column(0x05)
    1241                    
    1242                    $C$DW$69        .dwtag  DW_TAG_enumerator
    1243                            .dwattr $C$DW$69, DW_AT_name("CSL_PSC_EMAC")
    1244                            .dwattr $C$DW$69, DW_AT_const_value(0x05)
    1245                            .dwattr $C$DW$69, DW_AT_decl_file("C:/ti/pdk_OMAPL138_1_01_00_02/packages/ti/csl/cslr_psc_C674
    1246                            .dwattr $C$DW$69, DW_AT_decl_line(0x57)
    1247                            .dwattr $C$DW$69, DW_AT_decl_column(0x05)
    1248                    
    1249                    $C$DW$70        .dwtag  DW_TAG_enumerator
    1250                            .dwattr $C$DW$70, DW_AT_name("CSL_PSC_DDR2_MDDR")
    1251                            .dwattr $C$DW$70, DW_AT_const_value(0x06)
    1252                            .dwattr $C$DW$70, DW_AT_decl_file("C:/ti/pdk_OMAPL138_1_01_00_02/packages/ti/csl/cslr_psc_C674
    1253                            .dwattr $C$DW$70, DW_AT_decl_line(0x58)
    1254                            .dwattr $C$DW$70, DW_AT_decl_column(0x05)
    1255                    
    1256                    $C$DW$71        .dwtag  DW_TAG_enumerator
    1257                            .dwattr $C$DW$71, DW_AT_name("CSL_PSC_MCASP0")
    1258                            .dwattr $C$DW$71, DW_AT_const_value(0x07)
    1259                            .dwattr $C$DW$71, DW_AT_decl_file("C:/ti/pdk_OMAPL138_1_01_00_02/packages/ti/csl/cslr_psc_C674
    1260                            .dwattr $C$DW$71, DW_AT_decl_line(0x59)
    1261                            .dwattr $C$DW$71, DW_AT_decl_column(0x05)
    1262                    
    1263                    $C$DW$72        .dwtag  DW_TAG_enumerator
    1264                            .dwattr $C$DW$72, DW_AT_name("CSL_PSC_SATA")
    1265                            .dwattr $C$DW$72, DW_AT_const_value(0x08)
TMS320C6x Assembler PC v8.1.3 Thu Apr 20 04:41:32 2017

Tools Copyright (c) 1996-2015 Texas Instruments Incorporated
leds.asm                                                             PAGE   24

    1266                            .dwattr $C$DW$72, DW_AT_decl_file("C:/ti/pdk_OMAPL138_1_01_00_02/packages/ti/csl/cslr_psc_C674
    1267                            .dwattr $C$DW$72, DW_AT_decl_line(0x5a)
    1268                            .dwattr $C$DW$72, DW_AT_decl_column(0x05)
    1269                    
    1270                    $C$DW$73        .dwtag  DW_TAG_enumerator
    1271                            .dwattr $C$DW$73, DW_AT_name("CSL_PSC_VPIF")
    1272                            .dwattr $C$DW$73, DW_AT_const_value(0x09)
    1273                            .dwattr $C$DW$73, DW_AT_decl_file("C:/ti/pdk_OMAPL138_1_01_00_02/packages/ti/csl/cslr_psc_C674
    1274                            .dwattr $C$DW$73, DW_AT_decl_line(0x5b)
    1275                            .dwattr $C$DW$73, DW_AT_decl_column(0x05)
    1276                    
    1277                    $C$DW$74        .dwtag  DW_TAG_enumerator
    1278                            .dwattr $C$DW$74, DW_AT_name("CSL_PSC_SPI1")
    1279                            .dwattr $C$DW$74, DW_AT_const_value(0x0a)
    1280                            .dwattr $C$DW$74, DW_AT_decl_file("C:/ti/pdk_OMAPL138_1_01_00_02/packages/ti/csl/cslr_psc_C674
    1281                            .dwattr $C$DW$74, DW_AT_decl_line(0x5c)
    1282                            .dwattr $C$DW$74, DW_AT_decl_column(0x05)
    1283                    
    1284                    $C$DW$75        .dwtag  DW_TAG_enumerator
    1285                            .dwattr $C$DW$75, DW_AT_name("CSL_PSC_I2C1")
    1286                            .dwattr $C$DW$75, DW_AT_const_value(0x0b)
    1287                            .dwattr $C$DW$75, DW_AT_decl_file("C:/ti/pdk_OMAPL138_1_01_00_02/packages/ti/csl/cslr_psc_C674
    1288                            .dwattr $C$DW$75, DW_AT_decl_line(0x5d)
    1289                            .dwattr $C$DW$75, DW_AT_decl_column(0x05)
    1290                    
    1291                    $C$DW$76        .dwtag  DW_TAG_enumerator
    1292                            .dwattr $C$DW$76, DW_AT_name("CSL_PSC_UART1")
    1293                            .dwattr $C$DW$76, DW_AT_const_value(0x0c)
    1294                            .dwattr $C$DW$76, DW_AT_decl_file("C:/ti/pdk_OMAPL138_1_01_00_02/packages/ti/csl/cslr_psc_C674
    1295                            .dwattr $C$DW$76, DW_AT_decl_line(0x5e)
    1296                            .dwattr $C$DW$76, DW_AT_decl_column(0x05)
    1297                    
    1298                    $C$DW$77        .dwtag  DW_TAG_enumerator
    1299                            .dwattr $C$DW$77, DW_AT_name("CSL_PSC_UART2")
    1300                            .dwattr $C$DW$77, DW_AT_const_value(0x0d)
    1301                            .dwattr $C$DW$77, DW_AT_decl_file("C:/ti/pdk_OMAPL138_1_01_00_02/packages/ti/csl/cslr_psc_C674
    1302                            .dwattr $C$DW$77, DW_AT_decl_line(0x5f)
    1303                            .dwattr $C$DW$77, DW_AT_decl_column(0x05)
    1304                    
    1305                    $C$DW$78        .dwtag  DW_TAG_enumerator
    1306                            .dwattr $C$DW$78, DW_AT_name("CSL_PSC_MCBSP0")
    1307                            .dwattr $C$DW$78, DW_AT_const_value(0x0e)
    1308                            .dwattr $C$DW$78, DW_AT_decl_file("C:/ti/pdk_OMAPL138_1_01_00_02/packages/ti/csl/cslr_psc_C674
    1309                            .dwattr $C$DW$78, DW_AT_decl_line(0x60)
    1310                            .dwattr $C$DW$78, DW_AT_decl_column(0x05)
    1311                    
    1312                    $C$DW$79        .dwtag  DW_TAG_enumerator
    1313                            .dwattr $C$DW$79, DW_AT_name("CSL_PSC_MCBSP1")
    1314                            .dwattr $C$DW$79, DW_AT_const_value(0x0f)
    1315                            .dwattr $C$DW$79, DW_AT_decl_file("C:/ti/pdk_OMAPL138_1_01_00_02/packages/ti/csl/cslr_psc_C674
    1316                            .dwattr $C$DW$79, DW_AT_decl_line(0x61)
    1317                            .dwattr $C$DW$79, DW_AT_decl_column(0x05)
    1318                    
    1319                    $C$DW$80        .dwtag  DW_TAG_enumerator
    1320                            .dwattr $C$DW$80, DW_AT_name("CSL_PSC_LCDC")
TMS320C6x Assembler PC v8.1.3 Thu Apr 20 04:41:32 2017

Tools Copyright (c) 1996-2015 Texas Instruments Incorporated
leds.asm                                                             PAGE   25

    1321                            .dwattr $C$DW$80, DW_AT_const_value(0x10)
    1322                            .dwattr $C$DW$80, DW_AT_decl_file("C:/ti/pdk_OMAPL138_1_01_00_02/packages/ti/csl/cslr_psc_C674
    1323                            .dwattr $C$DW$80, DW_AT_decl_line(0x62)
    1324                            .dwattr $C$DW$80, DW_AT_decl_column(0x05)
    1325                    
    1326                    $C$DW$81        .dwtag  DW_TAG_enumerator
    1327                            .dwattr $C$DW$81, DW_AT_name("CSL_PSC_EHRPWM")
    1328                            .dwattr $C$DW$81, DW_AT_const_value(0x11)
    1329                            .dwattr $C$DW$81, DW_AT_decl_file("C:/ti/pdk_OMAPL138_1_01_00_02/packages/ti/csl/cslr_psc_C674
    1330                            .dwattr $C$DW$81, DW_AT_decl_line(0x63)
    1331                            .dwattr $C$DW$81, DW_AT_decl_column(0x05)
    1332                    
    1333                    $C$DW$82        .dwtag  DW_TAG_enumerator
    1334                            .dwattr $C$DW$82, DW_AT_name("CSL_PSC_MMCSD1")
    1335                            .dwattr $C$DW$82, DW_AT_const_value(0x12)
    1336                            .dwattr $C$DW$82, DW_AT_decl_file("C:/ti/pdk_OMAPL138_1_01_00_02/packages/ti/csl/cslr_psc_C674
    1337                            .dwattr $C$DW$82, DW_AT_decl_line(0x64)
    1338                            .dwattr $C$DW$82, DW_AT_decl_column(0x05)
    1339                    
    1340                    $C$DW$83        .dwtag  DW_TAG_enumerator
    1341                            .dwattr $C$DW$83, DW_AT_name("CSL_PSC_UPP")
    1342                            .dwattr $C$DW$83, DW_AT_const_value(0x13)
    1343                            .dwattr $C$DW$83, DW_AT_decl_file("C:/ti/pdk_OMAPL138_1_01_00_02/packages/ti/csl/cslr_psc_C674
    1344                            .dwattr $C$DW$83, DW_AT_decl_line(0x65)
    1345                            .dwattr $C$DW$83, DW_AT_decl_column(0x05)
    1346                    
    1347                    $C$DW$84        .dwtag  DW_TAG_enumerator
    1348                            .dwattr $C$DW$84, DW_AT_name("CSL_PSC_ECAP0_1_2")
    1349                            .dwattr $C$DW$84, DW_AT_const_value(0x14)
    1350                            .dwattr $C$DW$84, DW_AT_decl_file("C:/ti/pdk_OMAPL138_1_01_00_02/packages/ti/csl/cslr_psc_C674
    1351                            .dwattr $C$DW$84, DW_AT_decl_line(0x66)
    1352                            .dwattr $C$DW$84, DW_AT_decl_column(0x05)
    1353                    
    1354                    $C$DW$85        .dwtag  DW_TAG_enumerator
    1355                            .dwattr $C$DW$85, DW_AT_name("CSL_PSC_TC2")
    1356                            .dwattr $C$DW$85, DW_AT_const_value(0x15)
    1357                            .dwattr $C$DW$85, DW_AT_decl_file("C:/ti/pdk_OMAPL138_1_01_00_02/packages/ti/csl/cslr_psc_C674
    1358                            .dwattr $C$DW$85, DW_AT_decl_line(0x67)
    1359                            .dwattr $C$DW$85, DW_AT_decl_column(0x05)
    1360                    
    1361                    $C$DW$86        .dwtag  DW_TAG_enumerator
    1362                            .dwattr $C$DW$86, DW_AT_name("CSL_PSC_SCRF0_SS")
    1363                            .dwattr $C$DW$86, DW_AT_const_value(0x18)
    1364                            .dwattr $C$DW$86, DW_AT_decl_file("C:/ti/pdk_OMAPL138_1_01_00_02/packages/ti/csl/cslr_psc_C674
    1365                            .dwattr $C$DW$86, DW_AT_decl_line(0x68)
    1366                            .dwattr $C$DW$86, DW_AT_decl_column(0x05)
    1367                    
    1368                    $C$DW$87        .dwtag  DW_TAG_enumerator
    1369                            .dwattr $C$DW$87, DW_AT_name("CSL_PSC_SCRF1_SS")
    1370                            .dwattr $C$DW$87, DW_AT_const_value(0x19)
    1371                            .dwattr $C$DW$87, DW_AT_decl_file("C:/ti/pdk_OMAPL138_1_01_00_02/packages/ti/csl/cslr_psc_C674
    1372                            .dwattr $C$DW$87, DW_AT_decl_line(0x69)
    1373                            .dwattr $C$DW$87, DW_AT_decl_column(0x05)
    1374                    
    1375                    $C$DW$88        .dwtag  DW_TAG_enumerator
TMS320C6x Assembler PC v8.1.3 Thu Apr 20 04:41:32 2017

Tools Copyright (c) 1996-2015 Texas Instruments Incorporated
leds.asm                                                             PAGE   26

    1376                            .dwattr $C$DW$88, DW_AT_name("CSL_PSC_SCRF2_SS")
    1377                            .dwattr $C$DW$88, DW_AT_const_value(0x1a)
    1378                            .dwattr $C$DW$88, DW_AT_decl_file("C:/ti/pdk_OMAPL138_1_01_00_02/packages/ti/csl/cslr_psc_C674
    1379                            .dwattr $C$DW$88, DW_AT_decl_line(0x6a)
    1380                            .dwattr $C$DW$88, DW_AT_decl_column(0x05)
    1381                    
    1382                    $C$DW$89        .dwtag  DW_TAG_enumerator
    1383                            .dwattr $C$DW$89, DW_AT_name("CSL_PSC_SCRF6_SS")
    1384                            .dwattr $C$DW$89, DW_AT_const_value(0x1b)
    1385                            .dwattr $C$DW$89, DW_AT_decl_file("C:/ti/pdk_OMAPL138_1_01_00_02/packages/ti/csl/cslr_psc_C674
    1386                            .dwattr $C$DW$89, DW_AT_decl_line(0x6b)
    1387                            .dwattr $C$DW$89, DW_AT_decl_column(0x05)
    1388                    
    1389                    $C$DW$90        .dwtag  DW_TAG_enumerator
    1390                            .dwattr $C$DW$90, DW_AT_name("CSL_PSC_SCRF7_SS")
    1391                            .dwattr $C$DW$90, DW_AT_const_value(0x1c)
    1392                            .dwattr $C$DW$90, DW_AT_decl_file("C:/ti/pdk_OMAPL138_1_01_00_02/packages/ti/csl/cslr_psc_C674
    1393                            .dwattr $C$DW$90, DW_AT_decl_line(0x6c)
    1394                            .dwattr $C$DW$90, DW_AT_decl_column(0x05)
    1395                    
    1396                    $C$DW$91        .dwtag  DW_TAG_enumerator
    1397                            .dwattr $C$DW$91, DW_AT_name("CSL_PSC_SCRF8_SS")
    1398                            .dwattr $C$DW$91, DW_AT_const_value(0x1d)
    1399                            .dwattr $C$DW$91, DW_AT_decl_file("C:/ti/pdk_OMAPL138_1_01_00_02/packages/ti/csl/cslr_psc_C674
    1400                            .dwattr $C$DW$91, DW_AT_decl_line(0x6d)
    1401                            .dwattr $C$DW$91, DW_AT_decl_column(0x05)
    1402                    
    1403                    $C$DW$92        .dwtag  DW_TAG_enumerator
    1404                            .dwattr $C$DW$92, DW_AT_name("CSL_PSC_BR_F7")
    1405                            .dwattr $C$DW$92, DW_AT_const_value(0x1e)
    1406                            .dwattr $C$DW$92, DW_AT_decl_file("C:/ti/pdk_OMAPL138_1_01_00_02/packages/ti/csl/cslr_psc_C674
    1407                            .dwattr $C$DW$92, DW_AT_decl_line(0x6e)
    1408                            .dwattr $C$DW$92, DW_AT_decl_column(0x05)
    1409                    
    1410                    $C$DW$93        .dwtag  DW_TAG_enumerator
    1411                            .dwattr $C$DW$93, DW_AT_name("CSL_PSC_SHRAM")
    1412                            .dwattr $C$DW$93, DW_AT_const_value(0x1f)
    1413                            .dwattr $C$DW$93, DW_AT_decl_file("C:/ti/pdk_OMAPL138_1_01_00_02/packages/ti/csl/cslr_psc_C674
    1414                            .dwattr $C$DW$93, DW_AT_decl_line(0x6f)
    1415                            .dwattr $C$DW$93, DW_AT_decl_column(0x05)
    1416                    
    1417                            .dwattr $C$DW$T$53, DW_AT_decl_file("C:/ti/pdk_OMAPL138_1_01_00_02/packages/ti/csl/cslr_psc_C6
    1418                            .dwattr $C$DW$T$53, DW_AT_decl_line(0x51)
    1419                            .dwattr $C$DW$T$53, DW_AT_decl_column(0x0e)
    1420                            .dwendtag $C$DW$T$53
    1421                    
    1422                    $C$DW$T$54      .dwtag  DW_TAG_typedef
    1423                            .dwattr $C$DW$T$54, DW_AT_name("CSL_Psc1Peripheral")
    1424                            .dwattr $C$DW$T$54, DW_AT_type(*$C$DW$T$53)
    1425                            .dwattr $C$DW$T$54, DW_AT_language(DW_LANG_C)
    1426                            .dwattr $C$DW$T$54, DW_AT_decl_file("C:/ti/pdk_OMAPL138_1_01_00_02/packages/ti/csl/cslr_psc_C6
    1427                            .dwattr $C$DW$T$54, DW_AT_decl_line(0x70)
    1428                            .dwattr $C$DW$T$54, DW_AT_decl_column(0x03)
    1429                    
    1430                    
TMS320C6x Assembler PC v8.1.3 Thu Apr 20 04:41:32 2017

Tools Copyright (c) 1996-2015 Texas Instruments Incorporated
leds.asm                                                             PAGE   27

    1431                    $C$DW$T$55      .dwtag  DW_TAG_enumeration_type
    1432                            .dwattr $C$DW$T$55, DW_AT_byte_size(0x04)
    1433                    $C$DW$94        .dwtag  DW_TAG_enumerator
    1434                            .dwattr $C$DW$94, DW_AT_name("CSL_EDMACC_ANY")
    1435                            .dwattr $C$DW$94, DW_AT_const_value(-1)
    1436                            .dwattr $C$DW$94, DW_AT_decl_file("C:/ti/pdk_OMAPL138_1_01_00_02/packages/ti/csl/soc_C6748.h")
    1437                            .dwattr $C$DW$94, DW_AT_decl_line(0x3fe)
    1438                            .dwattr $C$DW$94, DW_AT_decl_column(0x03)
    1439                    
    1440                    $C$DW$95        .dwtag  DW_TAG_enumerator
    1441                            .dwattr $C$DW$95, DW_AT_name("CSL_EDMACC_0")
    1442                            .dwattr $C$DW$95, DW_AT_const_value(0x00)
    1443                            .dwattr $C$DW$95, DW_AT_decl_file("C:/ti/pdk_OMAPL138_1_01_00_02/packages/ti/csl/soc_C6748.h")
    1444                            .dwattr $C$DW$95, DW_AT_decl_line(0x3ff)
    1445                            .dwattr $C$DW$95, DW_AT_decl_column(0x03)
    1446                    
    1447                            .dwattr $C$DW$T$55, DW_AT_decl_file("C:/ti/pdk_OMAPL138_1_01_00_02/packages/ti/csl/soc_C6748.h
    1448                            .dwattr $C$DW$T$55, DW_AT_decl_line(0x3fd)
    1449                            .dwattr $C$DW$T$55, DW_AT_decl_column(0x0e)
    1450                            .dwendtag $C$DW$T$55
    1451                    
    1452                    $C$DW$T$56      .dwtag  DW_TAG_typedef
    1453                            .dwattr $C$DW$T$56, DW_AT_name("CSL_EdmaccNum")
    1454                            .dwattr $C$DW$T$56, DW_AT_type(*$C$DW$T$55)
    1455                            .dwattr $C$DW$T$56, DW_AT_language(DW_LANG_C)
    1456                            .dwattr $C$DW$T$56, DW_AT_decl_file("C:/ti/pdk_OMAPL138_1_01_00_02/packages/ti/csl/soc_C6748.h
    1457                            .dwattr $C$DW$T$56, DW_AT_decl_line(0x400)
    1458                            .dwattr $C$DW$T$56, DW_AT_decl_column(0x03)
    1459                    
    1460                    
    1461                    $C$DW$T$57      .dwtag  DW_TAG_enumeration_type
    1462                            .dwattr $C$DW$T$57, DW_AT_byte_size(0x04)
    1463                    $C$DW$96        .dwtag  DW_TAG_enumerator
    1464                            .dwattr $C$DW$96, DW_AT_name("CSL_EDMA3_QUE_0")
    1465                            .dwattr $C$DW$96, DW_AT_const_value(0x00)
    1466                            .dwattr $C$DW$96, DW_AT_decl_file("C:/ti/pdk_OMAPL138_1_01_00_02/packages/ti/csl/soc_C6748.h")
    1467                            .dwattr $C$DW$96, DW_AT_decl_line(0x405)
    1468                            .dwattr $C$DW$96, DW_AT_decl_column(0x05)
    1469                    
    1470                    $C$DW$97        .dwtag  DW_TAG_enumerator
    1471                            .dwattr $C$DW$97, DW_AT_name("CSL_EDMA3_QUE_1")
    1472                            .dwattr $C$DW$97, DW_AT_const_value(0x01)
    1473                            .dwattr $C$DW$97, DW_AT_decl_file("C:/ti/pdk_OMAPL138_1_01_00_02/packages/ti/csl/soc_C6748.h")
    1474                            .dwattr $C$DW$97, DW_AT_decl_line(0x406)
    1475                            .dwattr $C$DW$97, DW_AT_decl_column(0x05)
    1476                    
    1477                            .dwattr $C$DW$T$57, DW_AT_decl_file("C:/ti/pdk_OMAPL138_1_01_00_02/packages/ti/csl/soc_C6748.h
    1478                            .dwattr $C$DW$T$57, DW_AT_decl_line(0x404)
    1479                            .dwattr $C$DW$T$57, DW_AT_decl_column(0x0e)
    1480                            .dwendtag $C$DW$T$57
    1481                    
    1482                    $C$DW$T$58      .dwtag  DW_TAG_typedef
    1483                            .dwattr $C$DW$T$58, DW_AT_name("CSL_Edma3Que")
    1484                            .dwattr $C$DW$T$58, DW_AT_type(*$C$DW$T$57)
    1485                            .dwattr $C$DW$T$58, DW_AT_language(DW_LANG_C)
TMS320C6x Assembler PC v8.1.3 Thu Apr 20 04:41:32 2017

Tools Copyright (c) 1996-2015 Texas Instruments Incorporated
leds.asm                                                             PAGE   28

    1486                            .dwattr $C$DW$T$58, DW_AT_decl_file("C:/ti/pdk_OMAPL138_1_01_00_02/packages/ti/csl/soc_C6748.h
    1487                            .dwattr $C$DW$T$58, DW_AT_decl_line(0x407)
    1488                            .dwattr $C$DW$T$58, DW_AT_decl_column(0x03)
    1489                    
    1490                    
    1491                    $C$DW$T$59      .dwtag  DW_TAG_enumeration_type
    1492                            .dwattr $C$DW$T$59, DW_AT_byte_size(0x04)
    1493                    $C$DW$98        .dwtag  DW_TAG_enumerator
    1494                            .dwattr $C$DW$98, DW_AT_name("CSL_EDMATC_ANY")
    1495                            .dwattr $C$DW$98, DW_AT_const_value(-1)
    1496                            .dwattr $C$DW$98, DW_AT_decl_file("C:/ti/pdk_OMAPL138_1_01_00_02/packages/ti/csl/soc_C6748.h")
    1497                            .dwattr $C$DW$98, DW_AT_decl_line(0x410)
    1498                            .dwattr $C$DW$98, DW_AT_decl_column(0x03)
    1499                    
    1500                    $C$DW$99        .dwtag  DW_TAG_enumerator
    1501                            .dwattr $C$DW$99, DW_AT_name("CSL_EDMATC_0")
    1502                            .dwattr $C$DW$99, DW_AT_const_value(0x00)
    1503                            .dwattr $C$DW$99, DW_AT_decl_file("C:/ti/pdk_OMAPL138_1_01_00_02/packages/ti/csl/soc_C6748.h")
    1504                            .dwattr $C$DW$99, DW_AT_decl_line(0x411)
    1505                            .dwattr $C$DW$99, DW_AT_decl_column(0x03)
    1506                    
    1507                    $C$DW$100       .dwtag  DW_TAG_enumerator
    1508                            .dwattr $C$DW$100, DW_AT_name("CSL_EDMATC_1")
    1509                            .dwattr $C$DW$100, DW_AT_const_value(0x01)
    1510                            .dwattr $C$DW$100, DW_AT_decl_file("C:/ti/pdk_OMAPL138_1_01_00_02/packages/ti/csl/soc_C6748.h"
    1511                            .dwattr $C$DW$100, DW_AT_decl_line(0x412)
    1512                            .dwattr $C$DW$100, DW_AT_decl_column(0x03)
    1513                    
    1514                            .dwattr $C$DW$T$59, DW_AT_decl_file("C:/ti/pdk_OMAPL138_1_01_00_02/packages/ti/csl/soc_C6748.h
    1515                            .dwattr $C$DW$T$59, DW_AT_decl_line(0x40f)
    1516                            .dwattr $C$DW$T$59, DW_AT_decl_column(0x0e)
    1517                            .dwendtag $C$DW$T$59
    1518                    
    1519                    $C$DW$T$60      .dwtag  DW_TAG_typedef
    1520                            .dwattr $C$DW$T$60, DW_AT_name("CSL_EdmatcNum")
    1521                            .dwattr $C$DW$T$60, DW_AT_type(*$C$DW$T$59)
    1522                            .dwattr $C$DW$T$60, DW_AT_language(DW_LANG_C)
    1523                            .dwattr $C$DW$T$60, DW_AT_decl_file("C:/ti/pdk_OMAPL138_1_01_00_02/packages/ti/csl/soc_C6748.h
    1524                            .dwattr $C$DW$T$60, DW_AT_decl_line(0x413)
    1525                            .dwattr $C$DW$T$60, DW_AT_decl_column(0x03)
    1526                    
    1527                    
    1528                    $C$DW$T$61      .dwtag  DW_TAG_enumeration_type
    1529                            .dwattr $C$DW$T$61, DW_AT_byte_size(0x04)
    1530                    $C$DW$101       .dwtag  DW_TAG_enumerator
    1531                            .dwattr $C$DW$101, DW_AT_name("CSL_DAT_PRI_DEFAULT")
    1532                            .dwattr $C$DW$101, DW_AT_const_value(0x00)
    1533                            .dwattr $C$DW$101, DW_AT_decl_file("C:/ti/pdk_OMAPL138_1_01_00_02/packages/ti/csl/soc_C6748.h"
    1534                            .dwattr $C$DW$101, DW_AT_decl_line(0x440)
    1535                            .dwattr $C$DW$101, DW_AT_decl_column(0x05)
    1536                    
    1537                    $C$DW$102       .dwtag  DW_TAG_enumerator
    1538                            .dwattr $C$DW$102, DW_AT_name("CSL_DAT_PRI_0")
    1539                            .dwattr $C$DW$102, DW_AT_const_value(0x00)
    1540                            .dwattr $C$DW$102, DW_AT_decl_file("C:/ti/pdk_OMAPL138_1_01_00_02/packages/ti/csl/soc_C6748.h"
TMS320C6x Assembler PC v8.1.3 Thu Apr 20 04:41:32 2017

Tools Copyright (c) 1996-2015 Texas Instruments Incorporated
leds.asm                                                             PAGE   29

    1541                            .dwattr $C$DW$102, DW_AT_decl_line(0x441)
    1542                            .dwattr $C$DW$102, DW_AT_decl_column(0x05)
    1543                    
    1544                    $C$DW$103       .dwtag  DW_TAG_enumerator
    1545                            .dwattr $C$DW$103, DW_AT_name("CSL_DAT_PRI_1")
    1546                            .dwattr $C$DW$103, DW_AT_const_value(0x01)
    1547                            .dwattr $C$DW$103, DW_AT_decl_file("C:/ti/pdk_OMAPL138_1_01_00_02/packages/ti/csl/soc_C6748.h"
    1548                            .dwattr $C$DW$103, DW_AT_decl_line(0x442)
    1549                            .dwattr $C$DW$103, DW_AT_decl_column(0x05)
    1550                    
    1551                            .dwattr $C$DW$T$61, DW_AT_decl_file("C:/ti/pdk_OMAPL138_1_01_00_02/packages/ti/csl/soc_C6748.h
    1552                            .dwattr $C$DW$T$61, DW_AT_decl_line(0x43f)
    1553                            .dwattr $C$DW$T$61, DW_AT_decl_column(0x0e)
    1554                            .dwendtag $C$DW$T$61
    1555                    
    1556                    $C$DW$T$62      .dwtag  DW_TAG_typedef
    1557                            .dwattr $C$DW$T$62, DW_AT_name("CSL_DatPriority")
    1558                            .dwattr $C$DW$T$62, DW_AT_type(*$C$DW$T$61)
    1559                            .dwattr $C$DW$T$62, DW_AT_language(DW_LANG_C)
    1560                            .dwattr $C$DW$T$62, DW_AT_decl_file("C:/ti/pdk_OMAPL138_1_01_00_02/packages/ti/csl/soc_C6748.h
    1561                            .dwattr $C$DW$T$62, DW_AT_decl_line(0x443)
    1562                            .dwattr $C$DW$T$62, DW_AT_decl_column(0x03)
    1563                    
    1564                    
    1565                    $C$DW$T$63      .dwtag  DW_TAG_enumeration_type
    1566                            .dwattr $C$DW$T$63, DW_AT_byte_size(0x04)
    1567                    $C$DW$104       .dwtag  DW_TAG_enumerator
    1568                            .dwattr $C$DW$104, DW_AT_name("HW_PSC_CC0")
    1569                            .dwattr $C$DW$104, DW_AT_const_value(0x00)
    1570                            .dwattr $C$DW$104, DW_AT_decl_file("C:/ti/OMAPL138_StarterWare_1_10_04_01/include/hw/hw_psc_C6
    1571                            .dwattr $C$DW$104, DW_AT_decl_line(0x3c)
    1572                            .dwattr $C$DW$104, DW_AT_decl_column(0x05)
    1573                    
    1574                    $C$DW$105       .dwtag  DW_TAG_enumerator
    1575                            .dwattr $C$DW$105, DW_AT_name("HW_PSC_TC0")
    1576                            .dwattr $C$DW$105, DW_AT_const_value(0x01)
    1577                            .dwattr $C$DW$105, DW_AT_decl_file("C:/ti/OMAPL138_StarterWare_1_10_04_01/include/hw/hw_psc_C6
    1578                            .dwattr $C$DW$105, DW_AT_decl_line(0x3d)
    1579                            .dwattr $C$DW$105, DW_AT_decl_column(0x05)
    1580                    
    1581                    $C$DW$106       .dwtag  DW_TAG_enumerator
    1582                            .dwattr $C$DW$106, DW_AT_name("HW_PSC_TC1")
    1583                            .dwattr $C$DW$106, DW_AT_const_value(0x02)
    1584                            .dwattr $C$DW$106, DW_AT_decl_file("C:/ti/OMAPL138_StarterWare_1_10_04_01/include/hw/hw_psc_C6
    1585                            .dwattr $C$DW$106, DW_AT_decl_line(0x3e)
    1586                            .dwattr $C$DW$106, DW_AT_decl_column(0x05)
    1587                    
    1588                    $C$DW$107       .dwtag  DW_TAG_enumerator
    1589                            .dwattr $C$DW$107, DW_AT_name("HW_PSC_EMIFA")
    1590                            .dwattr $C$DW$107, DW_AT_const_value(0x03)
    1591                            .dwattr $C$DW$107, DW_AT_decl_file("C:/ti/OMAPL138_StarterWare_1_10_04_01/include/hw/hw_psc_C6
    1592                            .dwattr $C$DW$107, DW_AT_decl_line(0x3f)
    1593                            .dwattr $C$DW$107, DW_AT_decl_column(0x05)
    1594                    
    1595                    $C$DW$108       .dwtag  DW_TAG_enumerator
TMS320C6x Assembler PC v8.1.3 Thu Apr 20 04:41:32 2017

Tools Copyright (c) 1996-2015 Texas Instruments Incorporated
leds.asm                                                             PAGE   30

    1596                            .dwattr $C$DW$108, DW_AT_name("HW_PSC_SPI0")
    1597                            .dwattr $C$DW$108, DW_AT_const_value(0x04)
    1598                            .dwattr $C$DW$108, DW_AT_decl_file("C:/ti/OMAPL138_StarterWare_1_10_04_01/include/hw/hw_psc_C6
    1599                            .dwattr $C$DW$108, DW_AT_decl_line(0x40)
    1600                            .dwattr $C$DW$108, DW_AT_decl_column(0x05)
    1601                    
    1602                    $C$DW$109       .dwtag  DW_TAG_enumerator
    1603                            .dwattr $C$DW$109, DW_AT_name("HW_PSC_MMCSD0")
    1604                            .dwattr $C$DW$109, DW_AT_const_value(0x05)
    1605                            .dwattr $C$DW$109, DW_AT_decl_file("C:/ti/OMAPL138_StarterWare_1_10_04_01/include/hw/hw_psc_C6
    1606                            .dwattr $C$DW$109, DW_AT_decl_line(0x41)
    1607                            .dwattr $C$DW$109, DW_AT_decl_column(0x05)
    1608                    
    1609                    $C$DW$110       .dwtag  DW_TAG_enumerator
    1610                            .dwattr $C$DW$110, DW_AT_name("HW_PSC_AINTC")
    1611                            .dwattr $C$DW$110, DW_AT_const_value(0x06)
    1612                            .dwattr $C$DW$110, DW_AT_decl_file("C:/ti/OMAPL138_StarterWare_1_10_04_01/include/hw/hw_psc_C6
    1613                            .dwattr $C$DW$110, DW_AT_decl_line(0x42)
    1614                            .dwattr $C$DW$110, DW_AT_decl_column(0x05)
    1615                    
    1616                    $C$DW$111       .dwtag  DW_TAG_enumerator
    1617                            .dwattr $C$DW$111, DW_AT_name("HW_PSC_ARM_RAMROM")
    1618                            .dwattr $C$DW$111, DW_AT_const_value(0x07)
    1619                            .dwattr $C$DW$111, DW_AT_decl_file("C:/ti/OMAPL138_StarterWare_1_10_04_01/include/hw/hw_psc_C6
    1620                            .dwattr $C$DW$111, DW_AT_decl_line(0x43)
    1621                            .dwattr $C$DW$111, DW_AT_decl_column(0x05)
    1622                    
    1623                    $C$DW$112       .dwtag  DW_TAG_enumerator
    1624                            .dwattr $C$DW$112, DW_AT_name("HW_PSC_UART0")
    1625                            .dwattr $C$DW$112, DW_AT_const_value(0x09)
    1626                            .dwattr $C$DW$112, DW_AT_decl_file("C:/ti/OMAPL138_StarterWare_1_10_04_01/include/hw/hw_psc_C6
    1627                            .dwattr $C$DW$112, DW_AT_decl_line(0x44)
    1628                            .dwattr $C$DW$112, DW_AT_decl_column(0x05)
    1629                    
    1630                    $C$DW$113       .dwtag  DW_TAG_enumerator
    1631                            .dwattr $C$DW$113, DW_AT_name("HW_PSC_SCR0_SS")
    1632                            .dwattr $C$DW$113, DW_AT_const_value(0x0a)
    1633                            .dwattr $C$DW$113, DW_AT_decl_file("C:/ti/OMAPL138_StarterWare_1_10_04_01/include/hw/hw_psc_C6
    1634                            .dwattr $C$DW$113, DW_AT_decl_line(0x45)
    1635                            .dwattr $C$DW$113, DW_AT_decl_column(0x05)
    1636                    
    1637                    $C$DW$114       .dwtag  DW_TAG_enumerator
    1638                            .dwattr $C$DW$114, DW_AT_name("HW_PSC_SCR1_SS")
    1639                            .dwattr $C$DW$114, DW_AT_const_value(0x0b)
    1640                            .dwattr $C$DW$114, DW_AT_decl_file("C:/ti/OMAPL138_StarterWare_1_10_04_01/include/hw/hw_psc_C6
    1641                            .dwattr $C$DW$114, DW_AT_decl_line(0x46)
    1642                            .dwattr $C$DW$114, DW_AT_decl_column(0x05)
    1643                    
    1644                    $C$DW$115       .dwtag  DW_TAG_enumerator
    1645                            .dwattr $C$DW$115, DW_AT_name("HW_PSC_SCR2_SS")
    1646                            .dwattr $C$DW$115, DW_AT_const_value(0x0c)
    1647                            .dwattr $C$DW$115, DW_AT_decl_file("C:/ti/OMAPL138_StarterWare_1_10_04_01/include/hw/hw_psc_C6
    1648                            .dwattr $C$DW$115, DW_AT_decl_line(0x47)
    1649                            .dwattr $C$DW$115, DW_AT_decl_column(0x05)
    1650                    
TMS320C6x Assembler PC v8.1.3 Thu Apr 20 04:41:32 2017

Tools Copyright (c) 1996-2015 Texas Instruments Incorporated
leds.asm                                                             PAGE   31

    1651                    $C$DW$116       .dwtag  DW_TAG_enumerator
    1652                            .dwattr $C$DW$116, DW_AT_name("HW_PSC_PRU")
    1653                            .dwattr $C$DW$116, DW_AT_const_value(0x0d)
    1654                            .dwattr $C$DW$116, DW_AT_decl_file("C:/ti/OMAPL138_StarterWare_1_10_04_01/include/hw/hw_psc_C6
    1655                            .dwattr $C$DW$116, DW_AT_decl_line(0x48)
    1656                            .dwattr $C$DW$116, DW_AT_decl_column(0x05)
    1657                    
    1658                    $C$DW$117       .dwtag  DW_TAG_enumerator
    1659                            .dwattr $C$DW$117, DW_AT_name("HW_PSC_ARM")
    1660                            .dwattr $C$DW$117, DW_AT_const_value(0x0e)
    1661                            .dwattr $C$DW$117, DW_AT_decl_file("C:/ti/OMAPL138_StarterWare_1_10_04_01/include/hw/hw_psc_C6
    1662                            .dwattr $C$DW$117, DW_AT_decl_line(0x49)
    1663                            .dwattr $C$DW$117, DW_AT_decl_column(0x05)
    1664                    
    1665                    $C$DW$118       .dwtag  DW_TAG_enumerator
    1666                            .dwattr $C$DW$118, DW_AT_name("HW_PSC_DSP")
    1667                            .dwattr $C$DW$118, DW_AT_const_value(0x0f)
    1668                            .dwattr $C$DW$118, DW_AT_decl_file("C:/ti/OMAPL138_StarterWare_1_10_04_01/include/hw/hw_psc_C6
    1669                            .dwattr $C$DW$118, DW_AT_decl_line(0x4a)
    1670                            .dwattr $C$DW$118, DW_AT_decl_column(0x05)
    1671                    
    1672                            .dwattr $C$DW$T$63, DW_AT_decl_file("C:/ti/OMAPL138_StarterWare_1_10_04_01/include/hw/hw_psc_C
    1673                            .dwattr $C$DW$T$63, DW_AT_decl_line(0x3b)
    1674                            .dwattr $C$DW$T$63, DW_AT_decl_column(0x0e)
    1675                            .dwendtag $C$DW$T$63
    1676                    
    1677                    $C$DW$T$64      .dwtag  DW_TAG_typedef
    1678                            .dwattr $C$DW$T$64, DW_AT_name("Psc0Peripheral")
    1679                            .dwattr $C$DW$T$64, DW_AT_type(*$C$DW$T$63)
    1680                            .dwattr $C$DW$T$64, DW_AT_language(DW_LANG_C)
    1681                            .dwattr $C$DW$T$64, DW_AT_decl_file("C:/ti/OMAPL138_StarterWare_1_10_04_01/include/hw/hw_psc_C
    1682                            .dwattr $C$DW$T$64, DW_AT_decl_line(0x4c)
    1683                            .dwattr $C$DW$T$64, DW_AT_decl_column(0x03)
    1684                    
    1685                    
    1686                    $C$DW$T$65      .dwtag  DW_TAG_enumeration_type
    1687                            .dwattr $C$DW$T$65, DW_AT_byte_size(0x04)
    1688                    $C$DW$119       .dwtag  DW_TAG_enumerator
    1689                            .dwattr $C$DW$119, DW_AT_name("HW_PSC_CC1")
    1690                            .dwattr $C$DW$119, DW_AT_const_value(0x00)
    1691                            .dwattr $C$DW$119, DW_AT_decl_file("C:/ti/OMAPL138_StarterWare_1_10_04_01/include/hw/hw_psc_C6
    1692                            .dwattr $C$DW$119, DW_AT_decl_line(0x4f)
    1693                            .dwattr $C$DW$119, DW_AT_decl_column(0x05)
    1694                    
    1695                    $C$DW$120       .dwtag  DW_TAG_enumerator
    1696                            .dwattr $C$DW$120, DW_AT_name("HW_PSC_USB0")
    1697                            .dwattr $C$DW$120, DW_AT_const_value(0x01)
    1698                            .dwattr $C$DW$120, DW_AT_decl_file("C:/ti/OMAPL138_StarterWare_1_10_04_01/include/hw/hw_psc_C6
    1699                            .dwattr $C$DW$120, DW_AT_decl_line(0x50)
    1700                            .dwattr $C$DW$120, DW_AT_decl_column(0x05)
    1701                    
    1702                    $C$DW$121       .dwtag  DW_TAG_enumerator
    1703                            .dwattr $C$DW$121, DW_AT_name("HW_PSC_USB1")
    1704                            .dwattr $C$DW$121, DW_AT_const_value(0x02)
    1705                            .dwattr $C$DW$121, DW_AT_decl_file("C:/ti/OMAPL138_StarterWare_1_10_04_01/include/hw/hw_psc_C6
TMS320C6x Assembler PC v8.1.3 Thu Apr 20 04:41:32 2017

Tools Copyright (c) 1996-2015 Texas Instruments Incorporated
leds.asm                                                             PAGE   32

    1706                            .dwattr $C$DW$121, DW_AT_decl_line(0x51)
    1707                            .dwattr $C$DW$121, DW_AT_decl_column(0x05)
    1708                    
    1709                    $C$DW$122       .dwtag  DW_TAG_enumerator
    1710                            .dwattr $C$DW$122, DW_AT_name("HW_PSC_GPIO")
    1711                            .dwattr $C$DW$122, DW_AT_const_value(0x03)
    1712                            .dwattr $C$DW$122, DW_AT_decl_file("C:/ti/OMAPL138_StarterWare_1_10_04_01/include/hw/hw_psc_C6
    1713                            .dwattr $C$DW$122, DW_AT_decl_line(0x52)
    1714                            .dwattr $C$DW$122, DW_AT_decl_column(0x05)
    1715                    
    1716                    $C$DW$123       .dwtag  DW_TAG_enumerator
    1717                            .dwattr $C$DW$123, DW_AT_name("HW_PSC_UHPI")
    1718                            .dwattr $C$DW$123, DW_AT_const_value(0x04)
    1719                            .dwattr $C$DW$123, DW_AT_decl_file("C:/ti/OMAPL138_StarterWare_1_10_04_01/include/hw/hw_psc_C6
    1720                            .dwattr $C$DW$123, DW_AT_decl_line(0x53)
    1721                            .dwattr $C$DW$123, DW_AT_decl_column(0x05)
    1722                    
    1723                    $C$DW$124       .dwtag  DW_TAG_enumerator
    1724                            .dwattr $C$DW$124, DW_AT_name("HW_PSC_EMAC")
    1725                            .dwattr $C$DW$124, DW_AT_const_value(0x05)
    1726                            .dwattr $C$DW$124, DW_AT_decl_file("C:/ti/OMAPL138_StarterWare_1_10_04_01/include/hw/hw_psc_C6
    1727                            .dwattr $C$DW$124, DW_AT_decl_line(0x54)
    1728                            .dwattr $C$DW$124, DW_AT_decl_column(0x05)
    1729                    
    1730                    $C$DW$125       .dwtag  DW_TAG_enumerator
    1731                            .dwattr $C$DW$125, DW_AT_name("HW_PSC_DDR2_MDDR")
    1732                            .dwattr $C$DW$125, DW_AT_const_value(0x06)
    1733                            .dwattr $C$DW$125, DW_AT_decl_file("C:/ti/OMAPL138_StarterWare_1_10_04_01/include/hw/hw_psc_C6
    1734                            .dwattr $C$DW$125, DW_AT_decl_line(0x55)
    1735                            .dwattr $C$DW$125, DW_AT_decl_column(0x05)
    1736                    
    1737                    $C$DW$126       .dwtag  DW_TAG_enumerator
    1738                            .dwattr $C$DW$126, DW_AT_name("HW_PSC_MCASP0")
    1739                            .dwattr $C$DW$126, DW_AT_const_value(0x07)
    1740                            .dwattr $C$DW$126, DW_AT_decl_file("C:/ti/OMAPL138_StarterWare_1_10_04_01/include/hw/hw_psc_C6
    1741                            .dwattr $C$DW$126, DW_AT_decl_line(0x56)
    1742                            .dwattr $C$DW$126, DW_AT_decl_column(0x05)
    1743                    
    1744                    $C$DW$127       .dwtag  DW_TAG_enumerator
    1745                            .dwattr $C$DW$127, DW_AT_name("HW_PSC_SATA")
    1746                            .dwattr $C$DW$127, DW_AT_const_value(0x08)
    1747                            .dwattr $C$DW$127, DW_AT_decl_file("C:/ti/OMAPL138_StarterWare_1_10_04_01/include/hw/hw_psc_C6
    1748                            .dwattr $C$DW$127, DW_AT_decl_line(0x57)
    1749                            .dwattr $C$DW$127, DW_AT_decl_column(0x05)
    1750                    
    1751                    $C$DW$128       .dwtag  DW_TAG_enumerator
    1752                            .dwattr $C$DW$128, DW_AT_name("HW_PSC_VPIF")
    1753                            .dwattr $C$DW$128, DW_AT_const_value(0x09)
    1754                            .dwattr $C$DW$128, DW_AT_decl_file("C:/ti/OMAPL138_StarterWare_1_10_04_01/include/hw/hw_psc_C6
    1755                            .dwattr $C$DW$128, DW_AT_decl_line(0x58)
    1756                            .dwattr $C$DW$128, DW_AT_decl_column(0x05)
    1757                    
    1758                    $C$DW$129       .dwtag  DW_TAG_enumerator
    1759                            .dwattr $C$DW$129, DW_AT_name("HW_PSC_SPI1")
    1760                            .dwattr $C$DW$129, DW_AT_const_value(0x0a)
TMS320C6x Assembler PC v8.1.3 Thu Apr 20 04:41:32 2017

Tools Copyright (c) 1996-2015 Texas Instruments Incorporated
leds.asm                                                             PAGE   33

    1761                            .dwattr $C$DW$129, DW_AT_decl_file("C:/ti/OMAPL138_StarterWare_1_10_04_01/include/hw/hw_psc_C6
    1762                            .dwattr $C$DW$129, DW_AT_decl_line(0x59)
    1763                            .dwattr $C$DW$129, DW_AT_decl_column(0x05)
    1764                    
    1765                    $C$DW$130       .dwtag  DW_TAG_enumerator
    1766                            .dwattr $C$DW$130, DW_AT_name("HW_PSC_I2C1")
    1767                            .dwattr $C$DW$130, DW_AT_const_value(0x0b)
    1768                            .dwattr $C$DW$130, DW_AT_decl_file("C:/ti/OMAPL138_StarterWare_1_10_04_01/include/hw/hw_psc_C6
    1769                            .dwattr $C$DW$130, DW_AT_decl_line(0x5a)
    1770                            .dwattr $C$DW$130, DW_AT_decl_column(0x05)
    1771                    
    1772                    $C$DW$131       .dwtag  DW_TAG_enumerator
    1773                            .dwattr $C$DW$131, DW_AT_name("HW_PSC_UART1")
    1774                            .dwattr $C$DW$131, DW_AT_const_value(0x0c)
    1775                            .dwattr $C$DW$131, DW_AT_decl_file("C:/ti/OMAPL138_StarterWare_1_10_04_01/include/hw/hw_psc_C6
    1776                            .dwattr $C$DW$131, DW_AT_decl_line(0x5b)
    1777                            .dwattr $C$DW$131, DW_AT_decl_column(0x05)
    1778                    
    1779                    $C$DW$132       .dwtag  DW_TAG_enumerator
    1780                            .dwattr $C$DW$132, DW_AT_name("HW_PSC_UART2")
    1781                            .dwattr $C$DW$132, DW_AT_const_value(0x0d)
    1782                            .dwattr $C$DW$132, DW_AT_decl_file("C:/ti/OMAPL138_StarterWare_1_10_04_01/include/hw/hw_psc_C6
    1783                            .dwattr $C$DW$132, DW_AT_decl_line(0x5c)
    1784                            .dwattr $C$DW$132, DW_AT_decl_column(0x05)
    1785                    
    1786                    $C$DW$133       .dwtag  DW_TAG_enumerator
    1787                            .dwattr $C$DW$133, DW_AT_name("HW_PSC_MCBSP0")
    1788                            .dwattr $C$DW$133, DW_AT_const_value(0x0e)
    1789                            .dwattr $C$DW$133, DW_AT_decl_file("C:/ti/OMAPL138_StarterWare_1_10_04_01/include/hw/hw_psc_C6
    1790                            .dwattr $C$DW$133, DW_AT_decl_line(0x5d)
    1791                            .dwattr $C$DW$133, DW_AT_decl_column(0x05)
    1792                    
    1793                    $C$DW$134       .dwtag  DW_TAG_enumerator
    1794                            .dwattr $C$DW$134, DW_AT_name("HW_PSC_MCBSP1")
    1795                            .dwattr $C$DW$134, DW_AT_const_value(0x0f)
    1796                            .dwattr $C$DW$134, DW_AT_decl_file("C:/ti/OMAPL138_StarterWare_1_10_04_01/include/hw/hw_psc_C6
    1797                            .dwattr $C$DW$134, DW_AT_decl_line(0x5e)
    1798                            .dwattr $C$DW$134, DW_AT_decl_column(0x05)
    1799                    
    1800                    $C$DW$135       .dwtag  DW_TAG_enumerator
    1801                            .dwattr $C$DW$135, DW_AT_name("HW_PSC_LCDC")
    1802                            .dwattr $C$DW$135, DW_AT_const_value(0x10)
    1803                            .dwattr $C$DW$135, DW_AT_decl_file("C:/ti/OMAPL138_StarterWare_1_10_04_01/include/hw/hw_psc_C6
    1804                            .dwattr $C$DW$135, DW_AT_decl_line(0x5f)
    1805                            .dwattr $C$DW$135, DW_AT_decl_column(0x05)
    1806                    
    1807                    $C$DW$136       .dwtag  DW_TAG_enumerator
    1808                            .dwattr $C$DW$136, DW_AT_name("HW_PSC_EHRPWM")
    1809                            .dwattr $C$DW$136, DW_AT_const_value(0x11)
    1810                            .dwattr $C$DW$136, DW_AT_decl_file("C:/ti/OMAPL138_StarterWare_1_10_04_01/include/hw/hw_psc_C6
    1811                            .dwattr $C$DW$136, DW_AT_decl_line(0x60)
    1812                            .dwattr $C$DW$136, DW_AT_decl_column(0x05)
    1813                    
    1814                    $C$DW$137       .dwtag  DW_TAG_enumerator
    1815                            .dwattr $C$DW$137, DW_AT_name("HW_PSC_MMCSD1")
TMS320C6x Assembler PC v8.1.3 Thu Apr 20 04:41:32 2017

Tools Copyright (c) 1996-2015 Texas Instruments Incorporated
leds.asm                                                             PAGE   34

    1816                            .dwattr $C$DW$137, DW_AT_const_value(0x12)
    1817                            .dwattr $C$DW$137, DW_AT_decl_file("C:/ti/OMAPL138_StarterWare_1_10_04_01/include/hw/hw_psc_C6
    1818                            .dwattr $C$DW$137, DW_AT_decl_line(0x61)
    1819                            .dwattr $C$DW$137, DW_AT_decl_column(0x05)
    1820                    
    1821                    $C$DW$138       .dwtag  DW_TAG_enumerator
    1822                            .dwattr $C$DW$138, DW_AT_name("HW_PSC_UPP")
    1823                            .dwattr $C$DW$138, DW_AT_const_value(0x13)
    1824                            .dwattr $C$DW$138, DW_AT_decl_file("C:/ti/OMAPL138_StarterWare_1_10_04_01/include/hw/hw_psc_C6
    1825                            .dwattr $C$DW$138, DW_AT_decl_line(0x62)
    1826                            .dwattr $C$DW$138, DW_AT_decl_column(0x05)
    1827                    
    1828                    $C$DW$139       .dwtag  DW_TAG_enumerator
    1829                            .dwattr $C$DW$139, DW_AT_name("HW_PSC_ECAP0_1_2")
    1830                            .dwattr $C$DW$139, DW_AT_const_value(0x14)
    1831                            .dwattr $C$DW$139, DW_AT_decl_file("C:/ti/OMAPL138_StarterWare_1_10_04_01/include/hw/hw_psc_C6
    1832                            .dwattr $C$DW$139, DW_AT_decl_line(0x63)
    1833                            .dwattr $C$DW$139, DW_AT_decl_column(0x05)
    1834                    
    1835                    $C$DW$140       .dwtag  DW_TAG_enumerator
    1836                            .dwattr $C$DW$140, DW_AT_name("HW_PSC_TC2")
    1837                            .dwattr $C$DW$140, DW_AT_const_value(0x15)
    1838                            .dwattr $C$DW$140, DW_AT_decl_file("C:/ti/OMAPL138_StarterWare_1_10_04_01/include/hw/hw_psc_C6
    1839                            .dwattr $C$DW$140, DW_AT_decl_line(0x64)
    1840                            .dwattr $C$DW$140, DW_AT_decl_column(0x05)
    1841                    
    1842                    $C$DW$141       .dwtag  DW_TAG_enumerator
    1843                            .dwattr $C$DW$141, DW_AT_name("HW_PSC_SCRF0_SS")
    1844                            .dwattr $C$DW$141, DW_AT_const_value(0x18)
    1845                            .dwattr $C$DW$141, DW_AT_decl_file("C:/ti/OMAPL138_StarterWare_1_10_04_01/include/hw/hw_psc_C6
    1846                            .dwattr $C$DW$141, DW_AT_decl_line(0x65)
    1847                            .dwattr $C$DW$141, DW_AT_decl_column(0x05)
    1848                    
    1849                    $C$DW$142       .dwtag  DW_TAG_enumerator
    1850                            .dwattr $C$DW$142, DW_AT_name("HW_PSC_SCRF1_SS")
    1851                            .dwattr $C$DW$142, DW_AT_const_value(0x19)
    1852                            .dwattr $C$DW$142, DW_AT_decl_file("C:/ti/OMAPL138_StarterWare_1_10_04_01/include/hw/hw_psc_C6
    1853                            .dwattr $C$DW$142, DW_AT_decl_line(0x66)
    1854                            .dwattr $C$DW$142, DW_AT_decl_column(0x05)
    1855                    
    1856                    $C$DW$143       .dwtag  DW_TAG_enumerator
    1857                            .dwattr $C$DW$143, DW_AT_name("HW_PSC_SCRF2_SS")
    1858                            .dwattr $C$DW$143, DW_AT_const_value(0x1a)
    1859                            .dwattr $C$DW$143, DW_AT_decl_file("C:/ti/OMAPL138_StarterWare_1_10_04_01/include/hw/hw_psc_C6
    1860                            .dwattr $C$DW$143, DW_AT_decl_line(0x67)
    1861                            .dwattr $C$DW$143, DW_AT_decl_column(0x05)
    1862                    
    1863                    $C$DW$144       .dwtag  DW_TAG_enumerator
    1864                            .dwattr $C$DW$144, DW_AT_name("HW_PSC_SCRF6_SS")
    1865                            .dwattr $C$DW$144, DW_AT_const_value(0x1b)
    1866                            .dwattr $C$DW$144, DW_AT_decl_file("C:/ti/OMAPL138_StarterWare_1_10_04_01/include/hw/hw_psc_C6
    1867                            .dwattr $C$DW$144, DW_AT_decl_line(0x68)
    1868                            .dwattr $C$DW$144, DW_AT_decl_column(0x05)
    1869                    
    1870                    $C$DW$145       .dwtag  DW_TAG_enumerator
TMS320C6x Assembler PC v8.1.3 Thu Apr 20 04:41:32 2017

Tools Copyright (c) 1996-2015 Texas Instruments Incorporated
leds.asm                                                             PAGE   35

    1871                            .dwattr $C$DW$145, DW_AT_name("HW_PSC_SCRF7_SS")
    1872                            .dwattr $C$DW$145, DW_AT_const_value(0x1c)
    1873                            .dwattr $C$DW$145, DW_AT_decl_file("C:/ti/OMAPL138_StarterWare_1_10_04_01/include/hw/hw_psc_C6
    1874                            .dwattr $C$DW$145, DW_AT_decl_line(0x69)
    1875                            .dwattr $C$DW$145, DW_AT_decl_column(0x05)
    1876                    
    1877                    $C$DW$146       .dwtag  DW_TAG_enumerator
    1878                            .dwattr $C$DW$146, DW_AT_name("HW_PSC_SCRF8_SS")
    1879                            .dwattr $C$DW$146, DW_AT_const_value(0x1d)
    1880                            .dwattr $C$DW$146, DW_AT_decl_file("C:/ti/OMAPL138_StarterWare_1_10_04_01/include/hw/hw_psc_C6
    1881                            .dwattr $C$DW$146, DW_AT_decl_line(0x6a)
    1882                            .dwattr $C$DW$146, DW_AT_decl_column(0x05)
    1883                    
    1884                    $C$DW$147       .dwtag  DW_TAG_enumerator
    1885                            .dwattr $C$DW$147, DW_AT_name("HW_PSC_BR_F7")
    1886                            .dwattr $C$DW$147, DW_AT_const_value(0x1e)
    1887                            .dwattr $C$DW$147, DW_AT_decl_file("C:/ti/OMAPL138_StarterWare_1_10_04_01/include/hw/hw_psc_C6
    1888                            .dwattr $C$DW$147, DW_AT_decl_line(0x6b)
    1889                            .dwattr $C$DW$147, DW_AT_decl_column(0x05)
    1890                    
    1891                    $C$DW$148       .dwtag  DW_TAG_enumerator
    1892                            .dwattr $C$DW$148, DW_AT_name("HW_PSC_SHRAM")
    1893                            .dwattr $C$DW$148, DW_AT_const_value(0x1f)
    1894                            .dwattr $C$DW$148, DW_AT_decl_file("C:/ti/OMAPL138_StarterWare_1_10_04_01/include/hw/hw_psc_C6
    1895                            .dwattr $C$DW$148, DW_AT_decl_line(0x6c)
    1896                            .dwattr $C$DW$148, DW_AT_decl_column(0x05)
    1897                    
    1898                            .dwattr $C$DW$T$65, DW_AT_decl_file("C:/ti/OMAPL138_StarterWare_1_10_04_01/include/hw/hw_psc_C
    1899                            .dwattr $C$DW$T$65, DW_AT_decl_line(0x4e)
    1900                            .dwattr $C$DW$T$65, DW_AT_decl_column(0x0e)
    1901                            .dwendtag $C$DW$T$65
    1902                    
    1903                    $C$DW$T$66      .dwtag  DW_TAG_typedef
    1904                            .dwattr $C$DW$T$66, DW_AT_name("Psc1Peripheral")
    1905                            .dwattr $C$DW$T$66, DW_AT_type(*$C$DW$T$65)
    1906                            .dwattr $C$DW$T$66, DW_AT_language(DW_LANG_C)
    1907                            .dwattr $C$DW$T$66, DW_AT_decl_file("C:/ti/OMAPL138_StarterWare_1_10_04_01/include/hw/hw_psc_C
    1908                            .dwattr $C$DW$T$66, DW_AT_decl_line(0x6d)
    1909                            .dwattr $C$DW$T$66, DW_AT_decl_column(0x03)
    1910                    
    1911                    
    1912                    $C$DW$T$33      .dwtag  DW_TAG_structure_type
    1913                            .dwattr $C$DW$T$33, DW_AT_byte_size(0x190)
    1914                    $C$DW$149       .dwtag  DW_TAG_member
    1915                            .dwattr $C$DW$149, DW_AT_type(*$C$DW$T$23)
    1916                            .dwattr $C$DW$149, DW_AT_name("REVID")
    1917                            .dwattr $C$DW$149, DW_AT_TI_symbol_name("REVID")
    1918                            .dwattr $C$DW$149, DW_AT_data_member_location[DW_OP_plus_uconst 0x0]
    1919                            .dwattr $C$DW$149, DW_AT_accessibility(DW_ACCESS_public)
    1920                            .dwattr $C$DW$149, DW_AT_decl_file("C:/ti/pdk_OMAPL138_1_01_00_02/packages/ti/csl/cslr_syscfg0
    1921                            .dwattr $C$DW$149, DW_AT_decl_line(0x41)
    1922                            .dwattr $C$DW$149, DW_AT_decl_column(0x15)
    1923                    
    1924                    $C$DW$150       .dwtag  DW_TAG_member
    1925                            .dwattr $C$DW$150, DW_AT_type(*$C$DW$T$29)
TMS320C6x Assembler PC v8.1.3 Thu Apr 20 04:41:32 2017

Tools Copyright (c) 1996-2015 Texas Instruments Incorporated
leds.asm                                                             PAGE   36

    1926                            .dwattr $C$DW$150, DW_AT_name("RSVD0")
    1927                            .dwattr $C$DW$150, DW_AT_TI_symbol_name("RSVD0")
    1928                            .dwattr $C$DW$150, DW_AT_data_member_location[DW_OP_plus_uconst 0x4]
    1929                            .dwattr $C$DW$150, DW_AT_accessibility(DW_ACCESS_public)
    1930                            .dwattr $C$DW$150, DW_AT_decl_file("C:/ti/pdk_OMAPL138_1_01_00_02/packages/ti/csl/cslr_syscfg0
    1931                            .dwattr $C$DW$150, DW_AT_decl_line(0x42)
    1932                            .dwattr $C$DW$150, DW_AT_decl_column(0x14)
    1933                    
    1934                    $C$DW$151       .dwtag  DW_TAG_member
    1935                            .dwattr $C$DW$151, DW_AT_type(*$C$DW$T$23)
    1936                            .dwattr $C$DW$151, DW_AT_name("DIEIDR0")
    1937                            .dwattr $C$DW$151, DW_AT_TI_symbol_name("DIEIDR0")
    1938                            .dwattr $C$DW$151, DW_AT_data_member_location[DW_OP_plus_uconst 0x8]
    1939                            .dwattr $C$DW$151, DW_AT_accessibility(DW_ACCESS_public)
    1940                            .dwattr $C$DW$151, DW_AT_decl_file("C:/ti/pdk_OMAPL138_1_01_00_02/packages/ti/csl/cslr_syscfg0
    1941                            .dwattr $C$DW$151, DW_AT_decl_line(0x43)
    1942                            .dwattr $C$DW$151, DW_AT_decl_column(0x15)
    1943                    
    1944                    $C$DW$152       .dwtag  DW_TAG_member
    1945                            .dwattr $C$DW$152, DW_AT_type(*$C$DW$T$23)
    1946                            .dwattr $C$DW$152, DW_AT_name("DIEIDR1")
    1947                            .dwattr $C$DW$152, DW_AT_TI_symbol_name("DIEIDR1")
    1948                            .dwattr $C$DW$152, DW_AT_data_member_location[DW_OP_plus_uconst 0xc]
    1949                            .dwattr $C$DW$152, DW_AT_accessibility(DW_ACCESS_public)
    1950                            .dwattr $C$DW$152, DW_AT_decl_file("C:/ti/pdk_OMAPL138_1_01_00_02/packages/ti/csl/cslr_syscfg0
    1951                            .dwattr $C$DW$152, DW_AT_decl_line(0x44)
    1952                            .dwattr $C$DW$152, DW_AT_decl_column(0x15)
    1953                    
    1954                    $C$DW$153       .dwtag  DW_TAG_member
    1955                            .dwattr $C$DW$153, DW_AT_type(*$C$DW$T$23)
    1956                            .dwattr $C$DW$153, DW_AT_name("DIEIDR2")
    1957                            .dwattr $C$DW$153, DW_AT_TI_symbol_name("DIEIDR2")
    1958                            .dwattr $C$DW$153, DW_AT_data_member_location[DW_OP_plus_uconst 0x10]
    1959                            .dwattr $C$DW$153, DW_AT_accessibility(DW_ACCESS_public)
    1960                            .dwattr $C$DW$153, DW_AT_decl_file("C:/ti/pdk_OMAPL138_1_01_00_02/packages/ti/csl/cslr_syscfg0
    1961                            .dwattr $C$DW$153, DW_AT_decl_line(0x45)
    1962                            .dwattr $C$DW$153, DW_AT_decl_column(0x15)
    1963                    
    1964                    $C$DW$154       .dwtag  DW_TAG_member
    1965                            .dwattr $C$DW$154, DW_AT_type(*$C$DW$T$23)
    1966                            .dwattr $C$DW$154, DW_AT_name("DIEIDR3")
    1967                            .dwattr $C$DW$154, DW_AT_TI_symbol_name("DIEIDR3")
    1968                            .dwattr $C$DW$154, DW_AT_data_member_location[DW_OP_plus_uconst 0x14]
    1969                            .dwattr $C$DW$154, DW_AT_accessibility(DW_ACCESS_public)
    1970                            .dwattr $C$DW$154, DW_AT_decl_file("C:/ti/pdk_OMAPL138_1_01_00_02/packages/ti/csl/cslr_syscfg0
    1971                            .dwattr $C$DW$154, DW_AT_decl_line(0x46)
    1972                            .dwattr $C$DW$154, DW_AT_decl_column(0x15)
    1973                    
    1974                    $C$DW$155       .dwtag  DW_TAG_member
    1975                            .dwattr $C$DW$155, DW_AT_type(*$C$DW$T$23)
    1976                            .dwattr $C$DW$155, DW_AT_name("DEVIDR0")
    1977                            .dwattr $C$DW$155, DW_AT_TI_symbol_name("DEVIDR0")
    1978                            .dwattr $C$DW$155, DW_AT_data_member_location[DW_OP_plus_uconst 0x18]
    1979                            .dwattr $C$DW$155, DW_AT_accessibility(DW_ACCESS_public)
    1980                            .dwattr $C$DW$155, DW_AT_decl_file("C:/ti/pdk_OMAPL138_1_01_00_02/packages/ti/csl/cslr_syscfg0
TMS320C6x Assembler PC v8.1.3 Thu Apr 20 04:41:32 2017

Tools Copyright (c) 1996-2015 Texas Instruments Incorporated
leds.asm                                                             PAGE   37

    1981                            .dwattr $C$DW$155, DW_AT_decl_line(0x47)
    1982                            .dwattr $C$DW$155, DW_AT_decl_column(0x15)
    1983                    
    1984                    $C$DW$156       .dwtag  DW_TAG_member
    1985                            .dwattr $C$DW$156, DW_AT_type(*$C$DW$T$29)
    1986                            .dwattr $C$DW$156, DW_AT_name("RSVD1")
    1987                            .dwattr $C$DW$156, DW_AT_TI_symbol_name("RSVD1")
    1988                            .dwattr $C$DW$156, DW_AT_data_member_location[DW_OP_plus_uconst 0x1c]
    1989                            .dwattr $C$DW$156, DW_AT_accessibility(DW_ACCESS_public)
    1990                            .dwattr $C$DW$156, DW_AT_decl_file("C:/ti/pdk_OMAPL138_1_01_00_02/packages/ti/csl/cslr_syscfg0
    1991                            .dwattr $C$DW$156, DW_AT_decl_line(0x48)
    1992                            .dwattr $C$DW$156, DW_AT_decl_column(0x14)
    1993                    
    1994                    $C$DW$157       .dwtag  DW_TAG_member
    1995                            .dwattr $C$DW$157, DW_AT_type(*$C$DW$T$23)
    1996                            .dwattr $C$DW$157, DW_AT_name("BOOTCFG")
    1997                            .dwattr $C$DW$157, DW_AT_TI_symbol_name("BOOTCFG")
    1998                            .dwattr $C$DW$157, DW_AT_data_member_location[DW_OP_plus_uconst 0x20]
    1999                            .dwattr $C$DW$157, DW_AT_accessibility(DW_ACCESS_public)
    2000                            .dwattr $C$DW$157, DW_AT_decl_file("C:/ti/pdk_OMAPL138_1_01_00_02/packages/ti/csl/cslr_syscfg0
    2001                            .dwattr $C$DW$157, DW_AT_decl_line(0x49)
    2002                            .dwattr $C$DW$157, DW_AT_decl_column(0x15)
    2003                    
    2004                    $C$DW$158       .dwtag  DW_TAG_member
    2005                            .dwattr $C$DW$158, DW_AT_type(*$C$DW$T$23)
    2006                            .dwattr $C$DW$158, DW_AT_name("CHIPREVIDR")
    2007                            .dwattr $C$DW$158, DW_AT_TI_symbol_name("CHIPREVIDR")
    2008                            .dwattr $C$DW$158, DW_AT_data_member_location[DW_OP_plus_uconst 0x24]
    2009                            .dwattr $C$DW$158, DW_AT_accessibility(DW_ACCESS_public)
    2010                            .dwattr $C$DW$158, DW_AT_decl_file("C:/ti/pdk_OMAPL138_1_01_00_02/packages/ti/csl/cslr_syscfg0
    2011                            .dwattr $C$DW$158, DW_AT_decl_line(0x4a)
    2012                            .dwattr $C$DW$158, DW_AT_decl_column(0x15)
    2013                    
    2014                    $C$DW$159       .dwtag  DW_TAG_member
    2015                            .dwattr $C$DW$159, DW_AT_type(*$C$DW$T$30)
    2016                            .dwattr $C$DW$159, DW_AT_name("RSVD2")
    2017                            .dwattr $C$DW$159, DW_AT_TI_symbol_name("RSVD2")
    2018                            .dwattr $C$DW$159, DW_AT_data_member_location[DW_OP_plus_uconst 0x28]
    2019                            .dwattr $C$DW$159, DW_AT_accessibility(DW_ACCESS_public)
    2020                            .dwattr $C$DW$159, DW_AT_decl_file("C:/ti/pdk_OMAPL138_1_01_00_02/packages/ti/csl/cslr_syscfg0
    2021                            .dwattr $C$DW$159, DW_AT_decl_line(0x4b)
    2022                            .dwattr $C$DW$159, DW_AT_decl_column(0x14)
    2023                    
    2024                    $C$DW$160       .dwtag  DW_TAG_member
    2025                            .dwattr $C$DW$160, DW_AT_type(*$C$DW$T$23)
    2026                            .dwattr $C$DW$160, DW_AT_name("KICK0R")
    2027                            .dwattr $C$DW$160, DW_AT_TI_symbol_name("KICK0R")
    2028                            .dwattr $C$DW$160, DW_AT_data_member_location[DW_OP_plus_uconst 0x38]
    2029                            .dwattr $C$DW$160, DW_AT_accessibility(DW_ACCESS_public)
    2030                            .dwattr $C$DW$160, DW_AT_decl_file("C:/ti/pdk_OMAPL138_1_01_00_02/packages/ti/csl/cslr_syscfg0
    2031                            .dwattr $C$DW$160, DW_AT_decl_line(0x4c)
    2032                            .dwattr $C$DW$160, DW_AT_decl_column(0x15)
    2033                    
    2034                    $C$DW$161       .dwtag  DW_TAG_member
    2035                            .dwattr $C$DW$161, DW_AT_type(*$C$DW$T$23)
TMS320C6x Assembler PC v8.1.3 Thu Apr 20 04:41:32 2017

Tools Copyright (c) 1996-2015 Texas Instruments Incorporated
leds.asm                                                             PAGE   38

    2036                            .dwattr $C$DW$161, DW_AT_name("KICK1R")
    2037                            .dwattr $C$DW$161, DW_AT_TI_symbol_name("KICK1R")
    2038                            .dwattr $C$DW$161, DW_AT_data_member_location[DW_OP_plus_uconst 0x3c]
    2039                            .dwattr $C$DW$161, DW_AT_accessibility(DW_ACCESS_public)
    2040                            .dwattr $C$DW$161, DW_AT_decl_file("C:/ti/pdk_OMAPL138_1_01_00_02/packages/ti/csl/cslr_syscfg0
    2041                            .dwattr $C$DW$161, DW_AT_decl_line(0x4d)
    2042                            .dwattr $C$DW$161, DW_AT_decl_column(0x15)
    2043                    
    2044                    $C$DW$162       .dwtag  DW_TAG_member
    2045                            .dwattr $C$DW$162, DW_AT_type(*$C$DW$T$29)
    2046                            .dwattr $C$DW$162, DW_AT_name("RSVD3")
    2047                            .dwattr $C$DW$162, DW_AT_TI_symbol_name("RSVD3")
    2048                            .dwattr $C$DW$162, DW_AT_data_member_location[DW_OP_plus_uconst 0x40]
    2049                            .dwattr $C$DW$162, DW_AT_accessibility(DW_ACCESS_public)
    2050                            .dwattr $C$DW$162, DW_AT_decl_file("C:/ti/pdk_OMAPL138_1_01_00_02/packages/ti/csl/cslr_syscfg0
    2051                            .dwattr $C$DW$162, DW_AT_decl_line(0x4e)
    2052                            .dwattr $C$DW$162, DW_AT_decl_column(0x14)
    2053                    
    2054                    $C$DW$163       .dwtag  DW_TAG_member
    2055                            .dwattr $C$DW$163, DW_AT_type(*$C$DW$T$23)
    2056                            .dwattr $C$DW$163, DW_AT_name("HOST1CFG")
    2057                            .dwattr $C$DW$163, DW_AT_TI_symbol_name("HOST1CFG")
    2058                            .dwattr $C$DW$163, DW_AT_data_member_location[DW_OP_plus_uconst 0x44]
    2059                            .dwattr $C$DW$163, DW_AT_accessibility(DW_ACCESS_public)
    2060                            .dwattr $C$DW$163, DW_AT_decl_file("C:/ti/pdk_OMAPL138_1_01_00_02/packages/ti/csl/cslr_syscfg0
    2061                            .dwattr $C$DW$163, DW_AT_decl_line(0x4f)
    2062                            .dwattr $C$DW$163, DW_AT_decl_column(0x15)
    2063                    
    2064                    $C$DW$164       .dwtag  DW_TAG_member
    2065                            .dwattr $C$DW$164, DW_AT_type(*$C$DW$T$31)
    2066                            .dwattr $C$DW$164, DW_AT_name("RSVD4")
    2067                            .dwattr $C$DW$164, DW_AT_TI_symbol_name("RSVD4")
    2068                            .dwattr $C$DW$164, DW_AT_data_member_location[DW_OP_plus_uconst 0x48]
    2069                            .dwattr $C$DW$164, DW_AT_accessibility(DW_ACCESS_public)
    2070                            .dwattr $C$DW$164, DW_AT_decl_file("C:/ti/pdk_OMAPL138_1_01_00_02/packages/ti/csl/cslr_syscfg0
    2071                            .dwattr $C$DW$164, DW_AT_decl_line(0x50)
    2072                            .dwattr $C$DW$164, DW_AT_decl_column(0x14)
    2073                    
    2074                    $C$DW$165       .dwtag  DW_TAG_member
    2075                            .dwattr $C$DW$165, DW_AT_type(*$C$DW$T$23)
    2076                            .dwattr $C$DW$165, DW_AT_name("IRAWSTAT")
    2077                            .dwattr $C$DW$165, DW_AT_TI_symbol_name("IRAWSTAT")
    2078                            .dwattr $C$DW$165, DW_AT_data_member_location[DW_OP_plus_uconst 0xe0]
    2079                            .dwattr $C$DW$165, DW_AT_accessibility(DW_ACCESS_public)
    2080                            .dwattr $C$DW$165, DW_AT_decl_file("C:/ti/pdk_OMAPL138_1_01_00_02/packages/ti/csl/cslr_syscfg0
    2081                            .dwattr $C$DW$165, DW_AT_decl_line(0x51)
    2082                            .dwattr $C$DW$165, DW_AT_decl_column(0x15)
    2083                    
    2084                    $C$DW$166       .dwtag  DW_TAG_member
    2085                            .dwattr $C$DW$166, DW_AT_type(*$C$DW$T$23)
    2086                            .dwattr $C$DW$166, DW_AT_name("IENSTAT")
    2087                            .dwattr $C$DW$166, DW_AT_TI_symbol_name("IENSTAT")
    2088                            .dwattr $C$DW$166, DW_AT_data_member_location[DW_OP_plus_uconst 0xe4]
    2089                            .dwattr $C$DW$166, DW_AT_accessibility(DW_ACCESS_public)
    2090                            .dwattr $C$DW$166, DW_AT_decl_file("C:/ti/pdk_OMAPL138_1_01_00_02/packages/ti/csl/cslr_syscfg0
TMS320C6x Assembler PC v8.1.3 Thu Apr 20 04:41:32 2017

Tools Copyright (c) 1996-2015 Texas Instruments Incorporated
leds.asm                                                             PAGE   39

    2091                            .dwattr $C$DW$166, DW_AT_decl_line(0x52)
    2092                            .dwattr $C$DW$166, DW_AT_decl_column(0x15)
    2093                    
    2094                    $C$DW$167       .dwtag  DW_TAG_member
    2095                            .dwattr $C$DW$167, DW_AT_type(*$C$DW$T$23)
    2096                            .dwattr $C$DW$167, DW_AT_name("IENSET")
    2097                            .dwattr $C$DW$167, DW_AT_TI_symbol_name("IENSET")
    2098                            .dwattr $C$DW$167, DW_AT_data_member_location[DW_OP_plus_uconst 0xe8]
    2099                            .dwattr $C$DW$167, DW_AT_accessibility(DW_ACCESS_public)
    2100                            .dwattr $C$DW$167, DW_AT_decl_file("C:/ti/pdk_OMAPL138_1_01_00_02/packages/ti/csl/cslr_syscfg0
    2101                            .dwattr $C$DW$167, DW_AT_decl_line(0x53)
    2102                            .dwattr $C$DW$167, DW_AT_decl_column(0x15)
    2103                    
    2104                    $C$DW$168       .dwtag  DW_TAG_member
    2105                            .dwattr $C$DW$168, DW_AT_type(*$C$DW$T$23)
    2106                            .dwattr $C$DW$168, DW_AT_name("IENCLR")
    2107                            .dwattr $C$DW$168, DW_AT_TI_symbol_name("IENCLR")
    2108                            .dwattr $C$DW$168, DW_AT_data_member_location[DW_OP_plus_uconst 0xec]
    2109                            .dwattr $C$DW$168, DW_AT_accessibility(DW_ACCESS_public)
    2110                            .dwattr $C$DW$168, DW_AT_decl_file("C:/ti/pdk_OMAPL138_1_01_00_02/packages/ti/csl/cslr_syscfg0
    2111                            .dwattr $C$DW$168, DW_AT_decl_line(0x54)
    2112                            .dwattr $C$DW$168, DW_AT_decl_column(0x15)
    2113                    
    2114                    $C$DW$169       .dwtag  DW_TAG_member
    2115                            .dwattr $C$DW$169, DW_AT_type(*$C$DW$T$23)
    2116                            .dwattr $C$DW$169, DW_AT_name("EOI")
    2117                            .dwattr $C$DW$169, DW_AT_TI_symbol_name("EOI")
    2118                            .dwattr $C$DW$169, DW_AT_data_member_location[DW_OP_plus_uconst 0xf0]
    2119                            .dwattr $C$DW$169, DW_AT_accessibility(DW_ACCESS_public)
    2120                            .dwattr $C$DW$169, DW_AT_decl_file("C:/ti/pdk_OMAPL138_1_01_00_02/packages/ti/csl/cslr_syscfg0
    2121                            .dwattr $C$DW$169, DW_AT_decl_line(0x55)
    2122                            .dwattr $C$DW$169, DW_AT_decl_column(0x15)
    2123                    
    2124                    $C$DW$170       .dwtag  DW_TAG_member
    2125                            .dwattr $C$DW$170, DW_AT_type(*$C$DW$T$23)
    2126                            .dwattr $C$DW$170, DW_AT_name("FLTADDRR")
    2127                            .dwattr $C$DW$170, DW_AT_TI_symbol_name("FLTADDRR")
    2128                            .dwattr $C$DW$170, DW_AT_data_member_location[DW_OP_plus_uconst 0xf4]
    2129                            .dwattr $C$DW$170, DW_AT_accessibility(DW_ACCESS_public)
    2130                            .dwattr $C$DW$170, DW_AT_decl_file("C:/ti/pdk_OMAPL138_1_01_00_02/packages/ti/csl/cslr_syscfg0
    2131                            .dwattr $C$DW$170, DW_AT_decl_line(0x56)
    2132                            .dwattr $C$DW$170, DW_AT_decl_column(0x15)
    2133                    
    2134                    $C$DW$171       .dwtag  DW_TAG_member
    2135                            .dwattr $C$DW$171, DW_AT_type(*$C$DW$T$23)
    2136                            .dwattr $C$DW$171, DW_AT_name("FLTSTAT")
    2137                            .dwattr $C$DW$171, DW_AT_TI_symbol_name("FLTSTAT")
    2138                            .dwattr $C$DW$171, DW_AT_data_member_location[DW_OP_plus_uconst 0xf8]
    2139                            .dwattr $C$DW$171, DW_AT_accessibility(DW_ACCESS_public)
    2140                            .dwattr $C$DW$171, DW_AT_decl_file("C:/ti/pdk_OMAPL138_1_01_00_02/packages/ti/csl/cslr_syscfg0
    2141                            .dwattr $C$DW$171, DW_AT_decl_line(0x57)
    2142                            .dwattr $C$DW$171, DW_AT_decl_column(0x15)
    2143                    
    2144                    $C$DW$172       .dwtag  DW_TAG_member
    2145                            .dwattr $C$DW$172, DW_AT_type(*$C$DW$T$32)
TMS320C6x Assembler PC v8.1.3 Thu Apr 20 04:41:32 2017

Tools Copyright (c) 1996-2015 Texas Instruments Incorporated
leds.asm                                                             PAGE   40

    2146                            .dwattr $C$DW$172, DW_AT_name("RSVD5")
    2147                            .dwattr $C$DW$172, DW_AT_TI_symbol_name("RSVD5")
    2148                            .dwattr $C$DW$172, DW_AT_data_member_location[DW_OP_plus_uconst 0xfc]
    2149                            .dwattr $C$DW$172, DW_AT_accessibility(DW_ACCESS_public)
    2150                            .dwattr $C$DW$172, DW_AT_decl_file("C:/ti/pdk_OMAPL138_1_01_00_02/packages/ti/csl/cslr_syscfg0
    2151                            .dwattr $C$DW$172, DW_AT_decl_line(0x58)
    2152                            .dwattr $C$DW$172, DW_AT_decl_column(0x14)
    2153                    
    2154                    $C$DW$173       .dwtag  DW_TAG_member
    2155                            .dwattr $C$DW$173, DW_AT_type(*$C$DW$T$23)
    2156                            .dwattr $C$DW$173, DW_AT_name("MSTPRI0")
    2157                            .dwattr $C$DW$173, DW_AT_TI_symbol_name("MSTPRI0")
    2158                            .dwattr $C$DW$173, DW_AT_data_member_location[DW_OP_plus_uconst 0x110]
    2159                            .dwattr $C$DW$173, DW_AT_accessibility(DW_ACCESS_public)
    2160                            .dwattr $C$DW$173, DW_AT_decl_file("C:/ti/pdk_OMAPL138_1_01_00_02/packages/ti/csl/cslr_syscfg0
    2161                            .dwattr $C$DW$173, DW_AT_decl_line(0x59)
    2162                            .dwattr $C$DW$173, DW_AT_decl_column(0x15)
    2163                    
    2164                    $C$DW$174       .dwtag  DW_TAG_member
    2165                            .dwattr $C$DW$174, DW_AT_type(*$C$DW$T$23)
    2166                            .dwattr $C$DW$174, DW_AT_name("MSTPRI1")
    2167                            .dwattr $C$DW$174, DW_AT_TI_symbol_name("MSTPRI1")
    2168                            .dwattr $C$DW$174, DW_AT_data_member_location[DW_OP_plus_uconst 0x114]
    2169                            .dwattr $C$DW$174, DW_AT_accessibility(DW_ACCESS_public)
    2170                            .dwattr $C$DW$174, DW_AT_decl_file("C:/ti/pdk_OMAPL138_1_01_00_02/packages/ti/csl/cslr_syscfg0
    2171                            .dwattr $C$DW$174, DW_AT_decl_line(0x5a)
    2172                            .dwattr $C$DW$174, DW_AT_decl_column(0x15)
    2173                    
    2174                    $C$DW$175       .dwtag  DW_TAG_member
    2175                            .dwattr $C$DW$175, DW_AT_type(*$C$DW$T$23)
    2176                            .dwattr $C$DW$175, DW_AT_name("MSTPRI2")
    2177                            .dwattr $C$DW$175, DW_AT_TI_symbol_name("MSTPRI2")
    2178                            .dwattr $C$DW$175, DW_AT_data_member_location[DW_OP_plus_uconst 0x118]
    2179                            .dwattr $C$DW$175, DW_AT_accessibility(DW_ACCESS_public)
    2180                            .dwattr $C$DW$175, DW_AT_decl_file("C:/ti/pdk_OMAPL138_1_01_00_02/packages/ti/csl/cslr_syscfg0
    2181                            .dwattr $C$DW$175, DW_AT_decl_line(0x5b)
    2182                            .dwattr $C$DW$175, DW_AT_decl_column(0x15)
    2183                    
    2184                    $C$DW$176       .dwtag  DW_TAG_member
    2185                            .dwattr $C$DW$176, DW_AT_type(*$C$DW$T$29)
    2186                            .dwattr $C$DW$176, DW_AT_name("RSVD6")
    2187                            .dwattr $C$DW$176, DW_AT_TI_symbol_name("RSVD6")
    2188                            .dwattr $C$DW$176, DW_AT_data_member_location[DW_OP_plus_uconst 0x11c]
    2189                            .dwattr $C$DW$176, DW_AT_accessibility(DW_ACCESS_public)
    2190                            .dwattr $C$DW$176, DW_AT_decl_file("C:/ti/pdk_OMAPL138_1_01_00_02/packages/ti/csl/cslr_syscfg0
    2191                            .dwattr $C$DW$176, DW_AT_decl_line(0x5c)
    2192                            .dwattr $C$DW$176, DW_AT_decl_column(0x14)
    2193                    
    2194                    $C$DW$177       .dwtag  DW_TAG_member
    2195                            .dwattr $C$DW$177, DW_AT_type(*$C$DW$T$23)
    2196                            .dwattr $C$DW$177, DW_AT_name("PINMUX0")
    2197                            .dwattr $C$DW$177, DW_AT_TI_symbol_name("PINMUX0")
    2198                            .dwattr $C$DW$177, DW_AT_data_member_location[DW_OP_plus_uconst 0x120]
    2199                            .dwattr $C$DW$177, DW_AT_accessibility(DW_ACCESS_public)
    2200                            .dwattr $C$DW$177, DW_AT_decl_file("C:/ti/pdk_OMAPL138_1_01_00_02/packages/ti/csl/cslr_syscfg0
TMS320C6x Assembler PC v8.1.3 Thu Apr 20 04:41:32 2017

Tools Copyright (c) 1996-2015 Texas Instruments Incorporated
leds.asm                                                             PAGE   41

    2201                            .dwattr $C$DW$177, DW_AT_decl_line(0x5d)
    2202                            .dwattr $C$DW$177, DW_AT_decl_column(0x15)
    2203                    
    2204                    $C$DW$178       .dwtag  DW_TAG_member
    2205                            .dwattr $C$DW$178, DW_AT_type(*$C$DW$T$23)
    2206                            .dwattr $C$DW$178, DW_AT_name("PINMUX1")
    2207                            .dwattr $C$DW$178, DW_AT_TI_symbol_name("PINMUX1")
    2208                            .dwattr $C$DW$178, DW_AT_data_member_location[DW_OP_plus_uconst 0x124]
    2209                            .dwattr $C$DW$178, DW_AT_accessibility(DW_ACCESS_public)
    2210                            .dwattr $C$DW$178, DW_AT_decl_file("C:/ti/pdk_OMAPL138_1_01_00_02/packages/ti/csl/cslr_syscfg0
    2211                            .dwattr $C$DW$178, DW_AT_decl_line(0x5e)
    2212                            .dwattr $C$DW$178, DW_AT_decl_column(0x15)
    2213                    
    2214                    $C$DW$179       .dwtag  DW_TAG_member
    2215                            .dwattr $C$DW$179, DW_AT_type(*$C$DW$T$23)
    2216                            .dwattr $C$DW$179, DW_AT_name("PINMUX2")
    2217                            .dwattr $C$DW$179, DW_AT_TI_symbol_name("PINMUX2")
    2218                            .dwattr $C$DW$179, DW_AT_data_member_location[DW_OP_plus_uconst 0x128]
    2219                            .dwattr $C$DW$179, DW_AT_accessibility(DW_ACCESS_public)
    2220                            .dwattr $C$DW$179, DW_AT_decl_file("C:/ti/pdk_OMAPL138_1_01_00_02/packages/ti/csl/cslr_syscfg0
    2221                            .dwattr $C$DW$179, DW_AT_decl_line(0x5f)
    2222                            .dwattr $C$DW$179, DW_AT_decl_column(0x15)
    2223                    
    2224                    $C$DW$180       .dwtag  DW_TAG_member
    2225                            .dwattr $C$DW$180, DW_AT_type(*$C$DW$T$23)
    2226                            .dwattr $C$DW$180, DW_AT_name("PINMUX3")
    2227                            .dwattr $C$DW$180, DW_AT_TI_symbol_name("PINMUX3")
    2228                            .dwattr $C$DW$180, DW_AT_data_member_location[DW_OP_plus_uconst 0x12c]
    2229                            .dwattr $C$DW$180, DW_AT_accessibility(DW_ACCESS_public)
    2230                            .dwattr $C$DW$180, DW_AT_decl_file("C:/ti/pdk_OMAPL138_1_01_00_02/packages/ti/csl/cslr_syscfg0
    2231                            .dwattr $C$DW$180, DW_AT_decl_line(0x60)
    2232                            .dwattr $C$DW$180, DW_AT_decl_column(0x15)
    2233                    
    2234                    $C$DW$181       .dwtag  DW_TAG_member
    2235                            .dwattr $C$DW$181, DW_AT_type(*$C$DW$T$23)
    2236                            .dwattr $C$DW$181, DW_AT_name("PINMUX4")
    2237                            .dwattr $C$DW$181, DW_AT_TI_symbol_name("PINMUX4")
    2238                            .dwattr $C$DW$181, DW_AT_data_member_location[DW_OP_plus_uconst 0x130]
    2239                            .dwattr $C$DW$181, DW_AT_accessibility(DW_ACCESS_public)
    2240                            .dwattr $C$DW$181, DW_AT_decl_file("C:/ti/pdk_OMAPL138_1_01_00_02/packages/ti/csl/cslr_syscfg0
    2241                            .dwattr $C$DW$181, DW_AT_decl_line(0x61)
    2242                            .dwattr $C$DW$181, DW_AT_decl_column(0x15)
    2243                    
    2244                    $C$DW$182       .dwtag  DW_TAG_member
    2245                            .dwattr $C$DW$182, DW_AT_type(*$C$DW$T$23)
    2246                            .dwattr $C$DW$182, DW_AT_name("PINMUX5")
    2247                            .dwattr $C$DW$182, DW_AT_TI_symbol_name("PINMUX5")
    2248                            .dwattr $C$DW$182, DW_AT_data_member_location[DW_OP_plus_uconst 0x134]
    2249                            .dwattr $C$DW$182, DW_AT_accessibility(DW_ACCESS_public)
    2250                            .dwattr $C$DW$182, DW_AT_decl_file("C:/ti/pdk_OMAPL138_1_01_00_02/packages/ti/csl/cslr_syscfg0
    2251                            .dwattr $C$DW$182, DW_AT_decl_line(0x62)
    2252                            .dwattr $C$DW$182, DW_AT_decl_column(0x15)
    2253                    
    2254                    $C$DW$183       .dwtag  DW_TAG_member
    2255                            .dwattr $C$DW$183, DW_AT_type(*$C$DW$T$23)
TMS320C6x Assembler PC v8.1.3 Thu Apr 20 04:41:32 2017

Tools Copyright (c) 1996-2015 Texas Instruments Incorporated
leds.asm                                                             PAGE   42

    2256                            .dwattr $C$DW$183, DW_AT_name("PINMUX6")
    2257                            .dwattr $C$DW$183, DW_AT_TI_symbol_name("PINMUX6")
    2258                            .dwattr $C$DW$183, DW_AT_data_member_location[DW_OP_plus_uconst 0x138]
    2259                            .dwattr $C$DW$183, DW_AT_accessibility(DW_ACCESS_public)
    2260                            .dwattr $C$DW$183, DW_AT_decl_file("C:/ti/pdk_OMAPL138_1_01_00_02/packages/ti/csl/cslr_syscfg0
    2261                            .dwattr $C$DW$183, DW_AT_decl_line(0x63)
    2262                            .dwattr $C$DW$183, DW_AT_decl_column(0x15)
    2263                    
    2264                    $C$DW$184       .dwtag  DW_TAG_member
    2265                            .dwattr $C$DW$184, DW_AT_type(*$C$DW$T$23)
    2266                            .dwattr $C$DW$184, DW_AT_name("PINMUX7")
    2267                            .dwattr $C$DW$184, DW_AT_TI_symbol_name("PINMUX7")
    2268                            .dwattr $C$DW$184, DW_AT_data_member_location[DW_OP_plus_uconst 0x13c]
    2269                            .dwattr $C$DW$184, DW_AT_accessibility(DW_ACCESS_public)
    2270                            .dwattr $C$DW$184, DW_AT_decl_file("C:/ti/pdk_OMAPL138_1_01_00_02/packages/ti/csl/cslr_syscfg0
    2271                            .dwattr $C$DW$184, DW_AT_decl_line(0x64)
    2272                            .dwattr $C$DW$184, DW_AT_decl_column(0x15)
    2273                    
    2274                    $C$DW$185       .dwtag  DW_TAG_member
    2275                            .dwattr $C$DW$185, DW_AT_type(*$C$DW$T$23)
    2276                            .dwattr $C$DW$185, DW_AT_name("PINMUX8")
    2277                            .dwattr $C$DW$185, DW_AT_TI_symbol_name("PINMUX8")
    2278                            .dwattr $C$DW$185, DW_AT_data_member_location[DW_OP_plus_uconst 0x140]
    2279                            .dwattr $C$DW$185, DW_AT_accessibility(DW_ACCESS_public)
    2280                            .dwattr $C$DW$185, DW_AT_decl_file("C:/ti/pdk_OMAPL138_1_01_00_02/packages/ti/csl/cslr_syscfg0
    2281                            .dwattr $C$DW$185, DW_AT_decl_line(0x65)
    2282                            .dwattr $C$DW$185, DW_AT_decl_column(0x15)
    2283                    
    2284                    $C$DW$186       .dwtag  DW_TAG_member
    2285                            .dwattr $C$DW$186, DW_AT_type(*$C$DW$T$23)
    2286                            .dwattr $C$DW$186, DW_AT_name("PINMUX9")
    2287                            .dwattr $C$DW$186, DW_AT_TI_symbol_name("PINMUX9")
    2288                            .dwattr $C$DW$186, DW_AT_data_member_location[DW_OP_plus_uconst 0x144]
    2289                            .dwattr $C$DW$186, DW_AT_accessibility(DW_ACCESS_public)
    2290                            .dwattr $C$DW$186, DW_AT_decl_file("C:/ti/pdk_OMAPL138_1_01_00_02/packages/ti/csl/cslr_syscfg0
    2291                            .dwattr $C$DW$186, DW_AT_decl_line(0x66)
    2292                            .dwattr $C$DW$186, DW_AT_decl_column(0x15)
    2293                    
    2294                    $C$DW$187       .dwtag  DW_TAG_member
    2295                            .dwattr $C$DW$187, DW_AT_type(*$C$DW$T$23)
    2296                            .dwattr $C$DW$187, DW_AT_name("PINMUX10")
    2297                            .dwattr $C$DW$187, DW_AT_TI_symbol_name("PINMUX10")
    2298                            .dwattr $C$DW$187, DW_AT_data_member_location[DW_OP_plus_uconst 0x148]
    2299                            .dwattr $C$DW$187, DW_AT_accessibility(DW_ACCESS_public)
    2300                            .dwattr $C$DW$187, DW_AT_decl_file("C:/ti/pdk_OMAPL138_1_01_00_02/packages/ti/csl/cslr_syscfg0
    2301                            .dwattr $C$DW$187, DW_AT_decl_line(0x67)
    2302                            .dwattr $C$DW$187, DW_AT_decl_column(0x15)
    2303                    
    2304                    $C$DW$188       .dwtag  DW_TAG_member
    2305                            .dwattr $C$DW$188, DW_AT_type(*$C$DW$T$23)
    2306                            .dwattr $C$DW$188, DW_AT_name("PINMUX11")
    2307                            .dwattr $C$DW$188, DW_AT_TI_symbol_name("PINMUX11")
    2308                            .dwattr $C$DW$188, DW_AT_data_member_location[DW_OP_plus_uconst 0x14c]
    2309                            .dwattr $C$DW$188, DW_AT_accessibility(DW_ACCESS_public)
    2310                            .dwattr $C$DW$188, DW_AT_decl_file("C:/ti/pdk_OMAPL138_1_01_00_02/packages/ti/csl/cslr_syscfg0
TMS320C6x Assembler PC v8.1.3 Thu Apr 20 04:41:32 2017

Tools Copyright (c) 1996-2015 Texas Instruments Incorporated
leds.asm                                                             PAGE   43

    2311                            .dwattr $C$DW$188, DW_AT_decl_line(0x68)
    2312                            .dwattr $C$DW$188, DW_AT_decl_column(0x15)
    2313                    
    2314                    $C$DW$189       .dwtag  DW_TAG_member
    2315                            .dwattr $C$DW$189, DW_AT_type(*$C$DW$T$23)
    2316                            .dwattr $C$DW$189, DW_AT_name("PINMUX12")
    2317                            .dwattr $C$DW$189, DW_AT_TI_symbol_name("PINMUX12")
    2318                            .dwattr $C$DW$189, DW_AT_data_member_location[DW_OP_plus_uconst 0x150]
    2319                            .dwattr $C$DW$189, DW_AT_accessibility(DW_ACCESS_public)
    2320                            .dwattr $C$DW$189, DW_AT_decl_file("C:/ti/pdk_OMAPL138_1_01_00_02/packages/ti/csl/cslr_syscfg0
    2321                            .dwattr $C$DW$189, DW_AT_decl_line(0x69)
    2322                            .dwattr $C$DW$189, DW_AT_decl_column(0x15)
    2323                    
    2324                    $C$DW$190       .dwtag  DW_TAG_member
    2325                            .dwattr $C$DW$190, DW_AT_type(*$C$DW$T$23)
    2326                            .dwattr $C$DW$190, DW_AT_name("PINMUX13")
    2327                            .dwattr $C$DW$190, DW_AT_TI_symbol_name("PINMUX13")
    2328                            .dwattr $C$DW$190, DW_AT_data_member_location[DW_OP_plus_uconst 0x154]
    2329                            .dwattr $C$DW$190, DW_AT_accessibility(DW_ACCESS_public)
    2330                            .dwattr $C$DW$190, DW_AT_decl_file("C:/ti/pdk_OMAPL138_1_01_00_02/packages/ti/csl/cslr_syscfg0
    2331                            .dwattr $C$DW$190, DW_AT_decl_line(0x6a)
    2332                            .dwattr $C$DW$190, DW_AT_decl_column(0x15)
    2333                    
    2334                    $C$DW$191       .dwtag  DW_TAG_member
    2335                            .dwattr $C$DW$191, DW_AT_type(*$C$DW$T$23)
    2336                            .dwattr $C$DW$191, DW_AT_name("PINMUX14")
    2337                            .dwattr $C$DW$191, DW_AT_TI_symbol_name("PINMUX14")
    2338                            .dwattr $C$DW$191, DW_AT_data_member_location[DW_OP_plus_uconst 0x158]
    2339                            .dwattr $C$DW$191, DW_AT_accessibility(DW_ACCESS_public)
    2340                            .dwattr $C$DW$191, DW_AT_decl_file("C:/ti/pdk_OMAPL138_1_01_00_02/packages/ti/csl/cslr_syscfg0
    2341                            .dwattr $C$DW$191, DW_AT_decl_line(0x6b)
    2342                            .dwattr $C$DW$191, DW_AT_decl_column(0x15)
    2343                    
    2344                    $C$DW$192       .dwtag  DW_TAG_member
    2345                            .dwattr $C$DW$192, DW_AT_type(*$C$DW$T$23)
    2346                            .dwattr $C$DW$192, DW_AT_name("PINMUX15")
    2347                            .dwattr $C$DW$192, DW_AT_TI_symbol_name("PINMUX15")
    2348                            .dwattr $C$DW$192, DW_AT_data_member_location[DW_OP_plus_uconst 0x15c]
    2349                            .dwattr $C$DW$192, DW_AT_accessibility(DW_ACCESS_public)
    2350                            .dwattr $C$DW$192, DW_AT_decl_file("C:/ti/pdk_OMAPL138_1_01_00_02/packages/ti/csl/cslr_syscfg0
    2351                            .dwattr $C$DW$192, DW_AT_decl_line(0x6c)
    2352                            .dwattr $C$DW$192, DW_AT_decl_column(0x15)
    2353                    
    2354                    $C$DW$193       .dwtag  DW_TAG_member
    2355                            .dwattr $C$DW$193, DW_AT_type(*$C$DW$T$23)
    2356                            .dwattr $C$DW$193, DW_AT_name("PINMUX16")
    2357                            .dwattr $C$DW$193, DW_AT_TI_symbol_name("PINMUX16")
    2358                            .dwattr $C$DW$193, DW_AT_data_member_location[DW_OP_plus_uconst 0x160]
    2359                            .dwattr $C$DW$193, DW_AT_accessibility(DW_ACCESS_public)
    2360                            .dwattr $C$DW$193, DW_AT_decl_file("C:/ti/pdk_OMAPL138_1_01_00_02/packages/ti/csl/cslr_syscfg0
    2361                            .dwattr $C$DW$193, DW_AT_decl_line(0x6d)
    2362                            .dwattr $C$DW$193, DW_AT_decl_column(0x15)
    2363                    
    2364                    $C$DW$194       .dwtag  DW_TAG_member
    2365                            .dwattr $C$DW$194, DW_AT_type(*$C$DW$T$23)
TMS320C6x Assembler PC v8.1.3 Thu Apr 20 04:41:32 2017

Tools Copyright (c) 1996-2015 Texas Instruments Incorporated
leds.asm                                                             PAGE   44

    2366                            .dwattr $C$DW$194, DW_AT_name("PINMUX17")
    2367                            .dwattr $C$DW$194, DW_AT_TI_symbol_name("PINMUX17")
    2368                            .dwattr $C$DW$194, DW_AT_data_member_location[DW_OP_plus_uconst 0x164]
    2369                            .dwattr $C$DW$194, DW_AT_accessibility(DW_ACCESS_public)
    2370                            .dwattr $C$DW$194, DW_AT_decl_file("C:/ti/pdk_OMAPL138_1_01_00_02/packages/ti/csl/cslr_syscfg0
    2371                            .dwattr $C$DW$194, DW_AT_decl_line(0x6e)
    2372                            .dwattr $C$DW$194, DW_AT_decl_column(0x15)
    2373                    
    2374                    $C$DW$195       .dwtag  DW_TAG_member
    2375                            .dwattr $C$DW$195, DW_AT_type(*$C$DW$T$23)
    2376                            .dwattr $C$DW$195, DW_AT_name("PINMUX18")
    2377                            .dwattr $C$DW$195, DW_AT_TI_symbol_name("PINMUX18")
    2378                            .dwattr $C$DW$195, DW_AT_data_member_location[DW_OP_plus_uconst 0x168]
    2379                            .dwattr $C$DW$195, DW_AT_accessibility(DW_ACCESS_public)
    2380                            .dwattr $C$DW$195, DW_AT_decl_file("C:/ti/pdk_OMAPL138_1_01_00_02/packages/ti/csl/cslr_syscfg0
    2381                            .dwattr $C$DW$195, DW_AT_decl_line(0x6f)
    2382                            .dwattr $C$DW$195, DW_AT_decl_column(0x15)
    2383                    
    2384                    $C$DW$196       .dwtag  DW_TAG_member
    2385                            .dwattr $C$DW$196, DW_AT_type(*$C$DW$T$23)
    2386                            .dwattr $C$DW$196, DW_AT_name("PINMUX19")
    2387                            .dwattr $C$DW$196, DW_AT_TI_symbol_name("PINMUX19")
    2388                            .dwattr $C$DW$196, DW_AT_data_member_location[DW_OP_plus_uconst 0x16c]
    2389                            .dwattr $C$DW$196, DW_AT_accessibility(DW_ACCESS_public)
    2390                            .dwattr $C$DW$196, DW_AT_decl_file("C:/ti/pdk_OMAPL138_1_01_00_02/packages/ti/csl/cslr_syscfg0
    2391                            .dwattr $C$DW$196, DW_AT_decl_line(0x70)
    2392                            .dwattr $C$DW$196, DW_AT_decl_column(0x15)
    2393                    
    2394                    $C$DW$197       .dwtag  DW_TAG_member
    2395                            .dwattr $C$DW$197, DW_AT_type(*$C$DW$T$23)
    2396                            .dwattr $C$DW$197, DW_AT_name("SUSPSRC")
    2397                            .dwattr $C$DW$197, DW_AT_TI_symbol_name("SUSPSRC")
    2398                            .dwattr $C$DW$197, DW_AT_data_member_location[DW_OP_plus_uconst 0x170]
    2399                            .dwattr $C$DW$197, DW_AT_accessibility(DW_ACCESS_public)
    2400                            .dwattr $C$DW$197, DW_AT_decl_file("C:/ti/pdk_OMAPL138_1_01_00_02/packages/ti/csl/cslr_syscfg0
    2401                            .dwattr $C$DW$197, DW_AT_decl_line(0x71)
    2402                            .dwattr $C$DW$197, DW_AT_decl_column(0x15)
    2403                    
    2404                    $C$DW$198       .dwtag  DW_TAG_member
    2405                            .dwattr $C$DW$198, DW_AT_type(*$C$DW$T$23)
    2406                            .dwattr $C$DW$198, DW_AT_name("CHIPSIG")
    2407                            .dwattr $C$DW$198, DW_AT_TI_symbol_name("CHIPSIG")
    2408                            .dwattr $C$DW$198, DW_AT_data_member_location[DW_OP_plus_uconst 0x174]
    2409                            .dwattr $C$DW$198, DW_AT_accessibility(DW_ACCESS_public)
    2410                            .dwattr $C$DW$198, DW_AT_decl_file("C:/ti/pdk_OMAPL138_1_01_00_02/packages/ti/csl/cslr_syscfg0
    2411                            .dwattr $C$DW$198, DW_AT_decl_line(0x72)
    2412                            .dwattr $C$DW$198, DW_AT_decl_column(0x15)
    2413                    
    2414                    $C$DW$199       .dwtag  DW_TAG_member
    2415                            .dwattr $C$DW$199, DW_AT_type(*$C$DW$T$23)
    2416                            .dwattr $C$DW$199, DW_AT_name("CHIPSIG_CLR")
    2417                            .dwattr $C$DW$199, DW_AT_TI_symbol_name("CHIPSIG_CLR")
    2418                            .dwattr $C$DW$199, DW_AT_data_member_location[DW_OP_plus_uconst 0x178]
    2419                            .dwattr $C$DW$199, DW_AT_accessibility(DW_ACCESS_public)
    2420                            .dwattr $C$DW$199, DW_AT_decl_file("C:/ti/pdk_OMAPL138_1_01_00_02/packages/ti/csl/cslr_syscfg0
TMS320C6x Assembler PC v8.1.3 Thu Apr 20 04:41:32 2017

Tools Copyright (c) 1996-2015 Texas Instruments Incorporated
leds.asm                                                             PAGE   45

    2421                            .dwattr $C$DW$199, DW_AT_decl_line(0x73)
    2422                            .dwattr $C$DW$199, DW_AT_decl_column(0x15)
    2423                    
    2424                    $C$DW$200       .dwtag  DW_TAG_member
    2425                            .dwattr $C$DW$200, DW_AT_type(*$C$DW$T$23)
    2426                            .dwattr $C$DW$200, DW_AT_name("CFGCHIP0")
    2427                            .dwattr $C$DW$200, DW_AT_TI_symbol_name("CFGCHIP0")
    2428                            .dwattr $C$DW$200, DW_AT_data_member_location[DW_OP_plus_uconst 0x17c]
    2429                            .dwattr $C$DW$200, DW_AT_accessibility(DW_ACCESS_public)
    2430                            .dwattr $C$DW$200, DW_AT_decl_file("C:/ti/pdk_OMAPL138_1_01_00_02/packages/ti/csl/cslr_syscfg0
    2431                            .dwattr $C$DW$200, DW_AT_decl_line(0x74)
    2432                            .dwattr $C$DW$200, DW_AT_decl_column(0x15)
    2433                    
    2434                    $C$DW$201       .dwtag  DW_TAG_member
    2435                            .dwattr $C$DW$201, DW_AT_type(*$C$DW$T$23)
    2436                            .dwattr $C$DW$201, DW_AT_name("CFGCHIP1")
    2437                            .dwattr $C$DW$201, DW_AT_TI_symbol_name("CFGCHIP1")
    2438                            .dwattr $C$DW$201, DW_AT_data_member_location[DW_OP_plus_uconst 0x180]
    2439                            .dwattr $C$DW$201, DW_AT_accessibility(DW_ACCESS_public)
    2440                            .dwattr $C$DW$201, DW_AT_decl_file("C:/ti/pdk_OMAPL138_1_01_00_02/packages/ti/csl/cslr_syscfg0
    2441                            .dwattr $C$DW$201, DW_AT_decl_line(0x75)
    2442                            .dwattr $C$DW$201, DW_AT_decl_column(0x15)
    2443                    
    2444                    $C$DW$202       .dwtag  DW_TAG_member
    2445                            .dwattr $C$DW$202, DW_AT_type(*$C$DW$T$23)
    2446                            .dwattr $C$DW$202, DW_AT_name("CFGCHIP2")
    2447                            .dwattr $C$DW$202, DW_AT_TI_symbol_name("CFGCHIP2")
    2448                            .dwattr $C$DW$202, DW_AT_data_member_location[DW_OP_plus_uconst 0x184]
    2449                            .dwattr $C$DW$202, DW_AT_accessibility(DW_ACCESS_public)
    2450                            .dwattr $C$DW$202, DW_AT_decl_file("C:/ti/pdk_OMAPL138_1_01_00_02/packages/ti/csl/cslr_syscfg0
    2451                            .dwattr $C$DW$202, DW_AT_decl_line(0x76)
    2452                            .dwattr $C$DW$202, DW_AT_decl_column(0x15)
    2453                    
    2454                    $C$DW$203       .dwtag  DW_TAG_member
    2455                            .dwattr $C$DW$203, DW_AT_type(*$C$DW$T$23)
    2456                            .dwattr $C$DW$203, DW_AT_name("CFGCHIP3")
    2457                            .dwattr $C$DW$203, DW_AT_TI_symbol_name("CFGCHIP3")
    2458                            .dwattr $C$DW$203, DW_AT_data_member_location[DW_OP_plus_uconst 0x188]
    2459                            .dwattr $C$DW$203, DW_AT_accessibility(DW_ACCESS_public)
    2460                            .dwattr $C$DW$203, DW_AT_decl_file("C:/ti/pdk_OMAPL138_1_01_00_02/packages/ti/csl/cslr_syscfg0
    2461                            .dwattr $C$DW$203, DW_AT_decl_line(0x77)
    2462                            .dwattr $C$DW$203, DW_AT_decl_column(0x15)
    2463                    
    2464                    $C$DW$204       .dwtag  DW_TAG_member
    2465                            .dwattr $C$DW$204, DW_AT_type(*$C$DW$T$23)
    2466                            .dwattr $C$DW$204, DW_AT_name("CFGCHIP4")
    2467                            .dwattr $C$DW$204, DW_AT_TI_symbol_name("CFGCHIP4")
    2468                            .dwattr $C$DW$204, DW_AT_data_member_location[DW_OP_plus_uconst 0x18c]
    2469                            .dwattr $C$DW$204, DW_AT_accessibility(DW_ACCESS_public)
    2470                            .dwattr $C$DW$204, DW_AT_decl_file("C:/ti/pdk_OMAPL138_1_01_00_02/packages/ti/csl/cslr_syscfg0
    2471                            .dwattr $C$DW$204, DW_AT_decl_line(0x78)
    2472                            .dwattr $C$DW$204, DW_AT_decl_column(0x15)
    2473                    
    2474                            .dwattr $C$DW$T$33, DW_AT_decl_file("C:/ti/pdk_OMAPL138_1_01_00_02/packages/ti/csl/cslr_syscfg
    2475                            .dwattr $C$DW$T$33, DW_AT_decl_line(0x40)
TMS320C6x Assembler PC v8.1.3 Thu Apr 20 04:41:32 2017

Tools Copyright (c) 1996-2015 Texas Instruments Incorporated
leds.asm                                                             PAGE   46

    2476                            .dwattr $C$DW$T$33, DW_AT_decl_column(0x11)
    2477                            .dwendtag $C$DW$T$33
    2478                    
    2479                    $C$DW$T$69      .dwtag  DW_TAG_typedef
    2480                            .dwattr $C$DW$T$69, DW_AT_name("CSL_SyscfgRegs")
    2481                            .dwattr $C$DW$T$69, DW_AT_type(*$C$DW$T$33)
    2482                            .dwattr $C$DW$T$69, DW_AT_language(DW_LANG_C)
    2483                            .dwattr $C$DW$T$69, DW_AT_decl_file("C:/ti/pdk_OMAPL138_1_01_00_02/packages/ti/csl/cslr_syscfg
    2484                            .dwattr $C$DW$T$69, DW_AT_decl_line(0x79)
    2485                            .dwattr $C$DW$T$69, DW_AT_decl_column(0x03)
    2486                    
    2487                    $C$DW$T$70      .dwtag  DW_TAG_volatile_type
    2488                            .dwattr $C$DW$T$70, DW_AT_type(*$C$DW$T$69)
    2489                    
    2490                    $C$DW$T$71      .dwtag  DW_TAG_pointer_type
    2491                            .dwattr $C$DW$T$71, DW_AT_type(*$C$DW$T$70)
    2492                            .dwattr $C$DW$T$71, DW_AT_address_class(0x20)
    2493                    
    2494                    $C$DW$T$72      .dwtag  DW_TAG_typedef
    2495                            .dwattr $C$DW$T$72, DW_AT_name("CSL_SyscfgRegsOvly")
    2496                            .dwattr $C$DW$T$72, DW_AT_type(*$C$DW$T$71)
    2497                            .dwattr $C$DW$T$72, DW_AT_language(DW_LANG_C)
    2498                            .dwattr $C$DW$T$72, DW_AT_decl_file("C:/ti/pdk_OMAPL138_1_01_00_02/packages/ti/csl/cslr_syscfg
    2499                            .dwattr $C$DW$T$72, DW_AT_decl_line(0x7e)
    2500                            .dwattr $C$DW$T$72, DW_AT_decl_column(0x2e)
    2501                    
    2502                    $C$DW$T$73      .dwtag  DW_TAG_const_type
    2503                            .dwattr $C$DW$T$73, DW_AT_type(*$C$DW$T$72)
    2504                    
    2505                    
    2506                    $C$DW$T$42      .dwtag  DW_TAG_structure_type
    2507                            .dwattr $C$DW$T$42, DW_AT_byte_size(0xa80)
    2508                    $C$DW$205       .dwtag  DW_TAG_member
    2509                            .dwattr $C$DW$205, DW_AT_type(*$C$DW$T$23)
    2510                            .dwattr $C$DW$205, DW_AT_name("REVID")
    2511                            .dwattr $C$DW$205, DW_AT_TI_symbol_name("REVID")
    2512                            .dwattr $C$DW$205, DW_AT_data_member_location[DW_OP_plus_uconst 0x0]
    2513                            .dwattr $C$DW$205, DW_AT_accessibility(DW_ACCESS_public)
    2514                            .dwattr $C$DW$205, DW_AT_decl_file("C:/ti/pdk_OMAPL138_1_01_00_02/packages/ti/csl/cslr_psc_C67
    2515                            .dwattr $C$DW$205, DW_AT_decl_line(0x78)
    2516                            .dwattr $C$DW$205, DW_AT_decl_column(0x15)
    2517                    
    2518                    $C$DW$206       .dwtag  DW_TAG_member
    2519                            .dwattr $C$DW$206, DW_AT_type(*$C$DW$T$32)
    2520                            .dwattr $C$DW$206, DW_AT_name("RSVD0")
    2521                            .dwattr $C$DW$206, DW_AT_TI_symbol_name("RSVD0")
    2522                            .dwattr $C$DW$206, DW_AT_data_member_location[DW_OP_plus_uconst 0x4]
    2523                            .dwattr $C$DW$206, DW_AT_accessibility(DW_ACCESS_public)
    2524                            .dwattr $C$DW$206, DW_AT_decl_file("C:/ti/pdk_OMAPL138_1_01_00_02/packages/ti/csl/cslr_psc_C67
    2525                            .dwattr $C$DW$206, DW_AT_decl_line(0x79)
    2526                            .dwattr $C$DW$206, DW_AT_decl_column(0x14)
    2527                    
    2528                    $C$DW$207       .dwtag  DW_TAG_member
    2529                            .dwattr $C$DW$207, DW_AT_type(*$C$DW$T$23)
    2530                            .dwattr $C$DW$207, DW_AT_name("INTEVAL")
TMS320C6x Assembler PC v8.1.3 Thu Apr 20 04:41:32 2017

Tools Copyright (c) 1996-2015 Texas Instruments Incorporated
leds.asm                                                             PAGE   47

    2531                            .dwattr $C$DW$207, DW_AT_TI_symbol_name("INTEVAL")
    2532                            .dwattr $C$DW$207, DW_AT_data_member_location[DW_OP_plus_uconst 0x18]
    2533                            .dwattr $C$DW$207, DW_AT_accessibility(DW_ACCESS_public)
    2534                            .dwattr $C$DW$207, DW_AT_decl_file("C:/ti/pdk_OMAPL138_1_01_00_02/packages/ti/csl/cslr_psc_C67
    2535                            .dwattr $C$DW$207, DW_AT_decl_line(0x7a)
    2536                            .dwattr $C$DW$207, DW_AT_decl_column(0x15)
    2537                    
    2538                    $C$DW$208       .dwtag  DW_TAG_member
    2539                            .dwattr $C$DW$208, DW_AT_type(*$C$DW$T$34)
    2540                            .dwattr $C$DW$208, DW_AT_name("RSVD1")
    2541                            .dwattr $C$DW$208, DW_AT_TI_symbol_name("RSVD1")
    2542                            .dwattr $C$DW$208, DW_AT_data_member_location[DW_OP_plus_uconst 0x1c]
    2543                            .dwattr $C$DW$208, DW_AT_accessibility(DW_ACCESS_public)
    2544                            .dwattr $C$DW$208, DW_AT_decl_file("C:/ti/pdk_OMAPL138_1_01_00_02/packages/ti/csl/cslr_psc_C67
    2545                            .dwattr $C$DW$208, DW_AT_decl_line(0x7b)
    2546                            .dwattr $C$DW$208, DW_AT_decl_column(0x14)
    2547                    
    2548                    $C$DW$209       .dwtag  DW_TAG_member
    2549                            .dwattr $C$DW$209, DW_AT_type(*$C$DW$T$23)
    2550                            .dwattr $C$DW$209, DW_AT_name("MERRPR0")
    2551                            .dwattr $C$DW$209, DW_AT_TI_symbol_name("MERRPR0")
    2552                            .dwattr $C$DW$209, DW_AT_data_member_location[DW_OP_plus_uconst 0x40]
    2553                            .dwattr $C$DW$209, DW_AT_accessibility(DW_ACCESS_public)
    2554                            .dwattr $C$DW$209, DW_AT_decl_file("C:/ti/pdk_OMAPL138_1_01_00_02/packages/ti/csl/cslr_psc_C67
    2555                            .dwattr $C$DW$209, DW_AT_decl_line(0x7c)
    2556                            .dwattr $C$DW$209, DW_AT_decl_column(0x15)
    2557                    
    2558                    $C$DW$210       .dwtag  DW_TAG_member
    2559                            .dwattr $C$DW$210, DW_AT_type(*$C$DW$T$35)
    2560                            .dwattr $C$DW$210, DW_AT_name("RSVD2")
    2561                            .dwattr $C$DW$210, DW_AT_TI_symbol_name("RSVD2")
    2562                            .dwattr $C$DW$210, DW_AT_data_member_location[DW_OP_plus_uconst 0x44]
    2563                            .dwattr $C$DW$210, DW_AT_accessibility(DW_ACCESS_public)
    2564                            .dwattr $C$DW$210, DW_AT_decl_file("C:/ti/pdk_OMAPL138_1_01_00_02/packages/ti/csl/cslr_psc_C67
    2565                            .dwattr $C$DW$210, DW_AT_decl_line(0x7d)
    2566                            .dwattr $C$DW$210, DW_AT_decl_column(0x14)
    2567                    
    2568                    $C$DW$211       .dwtag  DW_TAG_member
    2569                            .dwattr $C$DW$211, DW_AT_type(*$C$DW$T$23)
    2570                            .dwattr $C$DW$211, DW_AT_name("MERRCR0")
    2571                            .dwattr $C$DW$211, DW_AT_TI_symbol_name("MERRCR0")
    2572                            .dwattr $C$DW$211, DW_AT_data_member_location[DW_OP_plus_uconst 0x50]
    2573                            .dwattr $C$DW$211, DW_AT_accessibility(DW_ACCESS_public)
    2574                            .dwattr $C$DW$211, DW_AT_decl_file("C:/ti/pdk_OMAPL138_1_01_00_02/packages/ti/csl/cslr_psc_C67
    2575                            .dwattr $C$DW$211, DW_AT_decl_line(0x7e)
    2576                            .dwattr $C$DW$211, DW_AT_decl_column(0x15)
    2577                    
    2578                    $C$DW$212       .dwtag  DW_TAG_member
    2579                            .dwattr $C$DW$212, DW_AT_type(*$C$DW$T$35)
    2580                            .dwattr $C$DW$212, DW_AT_name("RSVD3")
    2581                            .dwattr $C$DW$212, DW_AT_TI_symbol_name("RSVD3")
    2582                            .dwattr $C$DW$212, DW_AT_data_member_location[DW_OP_plus_uconst 0x54]
    2583                            .dwattr $C$DW$212, DW_AT_accessibility(DW_ACCESS_public)
    2584                            .dwattr $C$DW$212, DW_AT_decl_file("C:/ti/pdk_OMAPL138_1_01_00_02/packages/ti/csl/cslr_psc_C67
    2585                            .dwattr $C$DW$212, DW_AT_decl_line(0x7f)
TMS320C6x Assembler PC v8.1.3 Thu Apr 20 04:41:32 2017

Tools Copyright (c) 1996-2015 Texas Instruments Incorporated
leds.asm                                                             PAGE   48

    2586                            .dwattr $C$DW$212, DW_AT_decl_column(0x14)
    2587                    
    2588                    $C$DW$213       .dwtag  DW_TAG_member
    2589                            .dwattr $C$DW$213, DW_AT_type(*$C$DW$T$23)
    2590                            .dwattr $C$DW$213, DW_AT_name("PERRPR")
    2591                            .dwattr $C$DW$213, DW_AT_TI_symbol_name("PERRPR")
    2592                            .dwattr $C$DW$213, DW_AT_data_member_location[DW_OP_plus_uconst 0x60]
    2593                            .dwattr $C$DW$213, DW_AT_accessibility(DW_ACCESS_public)
    2594                            .dwattr $C$DW$213, DW_AT_decl_file("C:/ti/pdk_OMAPL138_1_01_00_02/packages/ti/csl/cslr_psc_C67
    2595                            .dwattr $C$DW$213, DW_AT_decl_line(0x80)
    2596                            .dwattr $C$DW$213, DW_AT_decl_column(0x15)
    2597                    
    2598                    $C$DW$214       .dwtag  DW_TAG_member
    2599                            .dwattr $C$DW$214, DW_AT_type(*$C$DW$T$29)
    2600                            .dwattr $C$DW$214, DW_AT_name("RSVD4")
    2601                            .dwattr $C$DW$214, DW_AT_TI_symbol_name("RSVD4")
    2602                            .dwattr $C$DW$214, DW_AT_data_member_location[DW_OP_plus_uconst 0x64]
    2603                            .dwattr $C$DW$214, DW_AT_accessibility(DW_ACCESS_public)
    2604                            .dwattr $C$DW$214, DW_AT_decl_file("C:/ti/pdk_OMAPL138_1_01_00_02/packages/ti/csl/cslr_psc_C67
    2605                            .dwattr $C$DW$214, DW_AT_decl_line(0x81)
    2606                            .dwattr $C$DW$214, DW_AT_decl_column(0x14)
    2607                    
    2608                    $C$DW$215       .dwtag  DW_TAG_member
    2609                            .dwattr $C$DW$215, DW_AT_type(*$C$DW$T$23)
    2610                            .dwattr $C$DW$215, DW_AT_name("PERRCR")
    2611                            .dwattr $C$DW$215, DW_AT_TI_symbol_name("PERRCR")
    2612                            .dwattr $C$DW$215, DW_AT_data_member_location[DW_OP_plus_uconst 0x68]
    2613                            .dwattr $C$DW$215, DW_AT_accessibility(DW_ACCESS_public)
    2614                            .dwattr $C$DW$215, DW_AT_decl_file("C:/ti/pdk_OMAPL138_1_01_00_02/packages/ti/csl/cslr_psc_C67
    2615                            .dwattr $C$DW$215, DW_AT_decl_line(0x82)
    2616                            .dwattr $C$DW$215, DW_AT_decl_column(0x15)
    2617                    
    2618                    $C$DW$216       .dwtag  DW_TAG_member
    2619                            .dwattr $C$DW$216, DW_AT_type(*$C$DW$T$36)
    2620                            .dwattr $C$DW$216, DW_AT_name("RSVD5")
    2621                            .dwattr $C$DW$216, DW_AT_TI_symbol_name("RSVD5")
    2622                            .dwattr $C$DW$216, DW_AT_data_member_location[DW_OP_plus_uconst 0x6c]
    2623                            .dwattr $C$DW$216, DW_AT_accessibility(DW_ACCESS_public)
    2624                            .dwattr $C$DW$216, DW_AT_decl_file("C:/ti/pdk_OMAPL138_1_01_00_02/packages/ti/csl/cslr_psc_C67
    2625                            .dwattr $C$DW$216, DW_AT_decl_line(0x83)
    2626                            .dwattr $C$DW$216, DW_AT_decl_column(0x14)
    2627                    
    2628                    $C$DW$217       .dwtag  DW_TAG_member
    2629                            .dwattr $C$DW$217, DW_AT_type(*$C$DW$T$23)
    2630                            .dwattr $C$DW$217, DW_AT_name("PTCMD")
    2631                            .dwattr $C$DW$217, DW_AT_TI_symbol_name("PTCMD")
    2632                            .dwattr $C$DW$217, DW_AT_data_member_location[DW_OP_plus_uconst 0x120]
    2633                            .dwattr $C$DW$217, DW_AT_accessibility(DW_ACCESS_public)
    2634                            .dwattr $C$DW$217, DW_AT_decl_file("C:/ti/pdk_OMAPL138_1_01_00_02/packages/ti/csl/cslr_psc_C67
    2635                            .dwattr $C$DW$217, DW_AT_decl_line(0x84)
    2636                            .dwattr $C$DW$217, DW_AT_decl_column(0x15)
    2637                    
    2638                    $C$DW$218       .dwtag  DW_TAG_member
    2639                            .dwattr $C$DW$218, DW_AT_type(*$C$DW$T$29)
    2640                            .dwattr $C$DW$218, DW_AT_name("RSVD6")
TMS320C6x Assembler PC v8.1.3 Thu Apr 20 04:41:32 2017

Tools Copyright (c) 1996-2015 Texas Instruments Incorporated
leds.asm                                                             PAGE   49

    2641                            .dwattr $C$DW$218, DW_AT_TI_symbol_name("RSVD6")
    2642                            .dwattr $C$DW$218, DW_AT_data_member_location[DW_OP_plus_uconst 0x124]
    2643                            .dwattr $C$DW$218, DW_AT_accessibility(DW_ACCESS_public)
    2644                            .dwattr $C$DW$218, DW_AT_decl_file("C:/ti/pdk_OMAPL138_1_01_00_02/packages/ti/csl/cslr_psc_C67
    2645                            .dwattr $C$DW$218, DW_AT_decl_line(0x85)
    2646                            .dwattr $C$DW$218, DW_AT_decl_column(0x14)
    2647                    
    2648                    $C$DW$219       .dwtag  DW_TAG_member
    2649                            .dwattr $C$DW$219, DW_AT_type(*$C$DW$T$23)
    2650                            .dwattr $C$DW$219, DW_AT_name("PTSTAT")
    2651                            .dwattr $C$DW$219, DW_AT_TI_symbol_name("PTSTAT")
    2652                            .dwattr $C$DW$219, DW_AT_data_member_location[DW_OP_plus_uconst 0x128]
    2653                            .dwattr $C$DW$219, DW_AT_accessibility(DW_ACCESS_public)
    2654                            .dwattr $C$DW$219, DW_AT_decl_file("C:/ti/pdk_OMAPL138_1_01_00_02/packages/ti/csl/cslr_psc_C67
    2655                            .dwattr $C$DW$219, DW_AT_decl_line(0x86)
    2656                            .dwattr $C$DW$219, DW_AT_decl_column(0x15)
    2657                    
    2658                    $C$DW$220       .dwtag  DW_TAG_member
    2659                            .dwattr $C$DW$220, DW_AT_type(*$C$DW$T$37)
    2660                            .dwattr $C$DW$220, DW_AT_name("RSVD7")
    2661                            .dwattr $C$DW$220, DW_AT_TI_symbol_name("RSVD7")
    2662                            .dwattr $C$DW$220, DW_AT_data_member_location[DW_OP_plus_uconst 0x12c]
    2663                            .dwattr $C$DW$220, DW_AT_accessibility(DW_ACCESS_public)
    2664                            .dwattr $C$DW$220, DW_AT_decl_file("C:/ti/pdk_OMAPL138_1_01_00_02/packages/ti/csl/cslr_psc_C67
    2665                            .dwattr $C$DW$220, DW_AT_decl_line(0x87)
    2666                            .dwattr $C$DW$220, DW_AT_decl_column(0x14)
    2667                    
    2668                    $C$DW$221       .dwtag  DW_TAG_member
    2669                            .dwattr $C$DW$221, DW_AT_type(*$C$DW$T$23)
    2670                            .dwattr $C$DW$221, DW_AT_name("PDSTAT0")
    2671                            .dwattr $C$DW$221, DW_AT_TI_symbol_name("PDSTAT0")
    2672                            .dwattr $C$DW$221, DW_AT_data_member_location[DW_OP_plus_uconst 0x200]
    2673                            .dwattr $C$DW$221, DW_AT_accessibility(DW_ACCESS_public)
    2674                            .dwattr $C$DW$221, DW_AT_decl_file("C:/ti/pdk_OMAPL138_1_01_00_02/packages/ti/csl/cslr_psc_C67
    2675                            .dwattr $C$DW$221, DW_AT_decl_line(0x88)
    2676                            .dwattr $C$DW$221, DW_AT_decl_column(0x15)
    2677                    
    2678                    $C$DW$222       .dwtag  DW_TAG_member
    2679                            .dwattr $C$DW$222, DW_AT_type(*$C$DW$T$23)
    2680                            .dwattr $C$DW$222, DW_AT_name("PDSTAT1")
    2681                            .dwattr $C$DW$222, DW_AT_TI_symbol_name("PDSTAT1")
    2682                            .dwattr $C$DW$222, DW_AT_data_member_location[DW_OP_plus_uconst 0x204]
    2683                            .dwattr $C$DW$222, DW_AT_accessibility(DW_ACCESS_public)
    2684                            .dwattr $C$DW$222, DW_AT_decl_file("C:/ti/pdk_OMAPL138_1_01_00_02/packages/ti/csl/cslr_psc_C67
    2685                            .dwattr $C$DW$222, DW_AT_decl_line(0x89)
    2686                            .dwattr $C$DW$222, DW_AT_decl_column(0x15)
    2687                    
    2688                    $C$DW$223       .dwtag  DW_TAG_member
    2689                            .dwattr $C$DW$223, DW_AT_type(*$C$DW$T$38)
    2690                            .dwattr $C$DW$223, DW_AT_name("RSVD8")
    2691                            .dwattr $C$DW$223, DW_AT_TI_symbol_name("RSVD8")
    2692                            .dwattr $C$DW$223, DW_AT_data_member_location[DW_OP_plus_uconst 0x208]
    2693                            .dwattr $C$DW$223, DW_AT_accessibility(DW_ACCESS_public)
    2694                            .dwattr $C$DW$223, DW_AT_decl_file("C:/ti/pdk_OMAPL138_1_01_00_02/packages/ti/csl/cslr_psc_C67
    2695                            .dwattr $C$DW$223, DW_AT_decl_line(0x8a)
TMS320C6x Assembler PC v8.1.3 Thu Apr 20 04:41:32 2017

Tools Copyright (c) 1996-2015 Texas Instruments Incorporated
leds.asm                                                             PAGE   50

    2696                            .dwattr $C$DW$223, DW_AT_decl_column(0x14)
    2697                    
    2698                    $C$DW$224       .dwtag  DW_TAG_member
    2699                            .dwattr $C$DW$224, DW_AT_type(*$C$DW$T$23)
    2700                            .dwattr $C$DW$224, DW_AT_name("PDCTL0")
    2701                            .dwattr $C$DW$224, DW_AT_TI_symbol_name("PDCTL0")
    2702                            .dwattr $C$DW$224, DW_AT_data_member_location[DW_OP_plus_uconst 0x300]
    2703                            .dwattr $C$DW$224, DW_AT_accessibility(DW_ACCESS_public)
    2704                            .dwattr $C$DW$224, DW_AT_decl_file("C:/ti/pdk_OMAPL138_1_01_00_02/packages/ti/csl/cslr_psc_C67
    2705                            .dwattr $C$DW$224, DW_AT_decl_line(0x8b)
    2706                            .dwattr $C$DW$224, DW_AT_decl_column(0x15)
    2707                    
    2708                    $C$DW$225       .dwtag  DW_TAG_member
    2709                            .dwattr $C$DW$225, DW_AT_type(*$C$DW$T$23)
    2710                            .dwattr $C$DW$225, DW_AT_name("PDCTL1")
    2711                            .dwattr $C$DW$225, DW_AT_TI_symbol_name("PDCTL1")
    2712                            .dwattr $C$DW$225, DW_AT_data_member_location[DW_OP_plus_uconst 0x304]
    2713                            .dwattr $C$DW$225, DW_AT_accessibility(DW_ACCESS_public)
    2714                            .dwattr $C$DW$225, DW_AT_decl_file("C:/ti/pdk_OMAPL138_1_01_00_02/packages/ti/csl/cslr_psc_C67
    2715                            .dwattr $C$DW$225, DW_AT_decl_line(0x8c)
    2716                            .dwattr $C$DW$225, DW_AT_decl_column(0x15)
    2717                    
    2718                    $C$DW$226       .dwtag  DW_TAG_member
    2719                            .dwattr $C$DW$226, DW_AT_type(*$C$DW$T$38)
    2720                            .dwattr $C$DW$226, DW_AT_name("RSVD9")
    2721                            .dwattr $C$DW$226, DW_AT_TI_symbol_name("RSVD9")
    2722                            .dwattr $C$DW$226, DW_AT_data_member_location[DW_OP_plus_uconst 0x308]
    2723                            .dwattr $C$DW$226, DW_AT_accessibility(DW_ACCESS_public)
    2724                            .dwattr $C$DW$226, DW_AT_decl_file("C:/ti/pdk_OMAPL138_1_01_00_02/packages/ti/csl/cslr_psc_C67
    2725                            .dwattr $C$DW$226, DW_AT_decl_line(0x8d)
    2726                            .dwattr $C$DW$226, DW_AT_decl_column(0x14)
    2727                    
    2728                    $C$DW$227       .dwtag  DW_TAG_member
    2729                            .dwattr $C$DW$227, DW_AT_type(*$C$DW$T$23)
    2730                            .dwattr $C$DW$227, DW_AT_name("PDCFG0")
    2731                            .dwattr $C$DW$227, DW_AT_TI_symbol_name("PDCFG0")
    2732                            .dwattr $C$DW$227, DW_AT_data_member_location[DW_OP_plus_uconst 0x400]
    2733                            .dwattr $C$DW$227, DW_AT_accessibility(DW_ACCESS_public)
    2734                            .dwattr $C$DW$227, DW_AT_decl_file("C:/ti/pdk_OMAPL138_1_01_00_02/packages/ti/csl/cslr_psc_C67
    2735                            .dwattr $C$DW$227, DW_AT_decl_line(0x8e)
    2736                            .dwattr $C$DW$227, DW_AT_decl_column(0x15)
    2737                    
    2738                    $C$DW$228       .dwtag  DW_TAG_member
    2739                            .dwattr $C$DW$228, DW_AT_type(*$C$DW$T$23)
    2740                            .dwattr $C$DW$228, DW_AT_name("PDCFG1")
    2741                            .dwattr $C$DW$228, DW_AT_TI_symbol_name("PDCFG1")
    2742                            .dwattr $C$DW$228, DW_AT_data_member_location[DW_OP_plus_uconst 0x404]
    2743                            .dwattr $C$DW$228, DW_AT_accessibility(DW_ACCESS_public)
    2744                            .dwattr $C$DW$228, DW_AT_decl_file("C:/ti/pdk_OMAPL138_1_01_00_02/packages/ti/csl/cslr_psc_C67
    2745                            .dwattr $C$DW$228, DW_AT_decl_line(0x8f)
    2746                            .dwattr $C$DW$228, DW_AT_decl_column(0x15)
    2747                    
    2748                    $C$DW$229       .dwtag  DW_TAG_member
    2749                            .dwattr $C$DW$229, DW_AT_type(*$C$DW$T$39)
    2750                            .dwattr $C$DW$229, DW_AT_name("RSVD10")
TMS320C6x Assembler PC v8.1.3 Thu Apr 20 04:41:32 2017

Tools Copyright (c) 1996-2015 Texas Instruments Incorporated
leds.asm                                                             PAGE   51

    2751                            .dwattr $C$DW$229, DW_AT_TI_symbol_name("RSVD10")
    2752                            .dwattr $C$DW$229, DW_AT_data_member_location[DW_OP_plus_uconst 0x408]
    2753                            .dwattr $C$DW$229, DW_AT_accessibility(DW_ACCESS_public)
    2754                            .dwattr $C$DW$229, DW_AT_decl_file("C:/ti/pdk_OMAPL138_1_01_00_02/packages/ti/csl/cslr_psc_C67
    2755                            .dwattr $C$DW$229, DW_AT_decl_line(0x90)
    2756                            .dwattr $C$DW$229, DW_AT_decl_column(0x14)
    2757                    
    2758                    $C$DW$230       .dwtag  DW_TAG_member
    2759                            .dwattr $C$DW$230, DW_AT_type(*$C$DW$T$40)
    2760                            .dwattr $C$DW$230, DW_AT_name("MDSTAT")
    2761                            .dwattr $C$DW$230, DW_AT_TI_symbol_name("MDSTAT")
    2762                            .dwattr $C$DW$230, DW_AT_data_member_location[DW_OP_plus_uconst 0x800]
    2763                            .dwattr $C$DW$230, DW_AT_accessibility(DW_ACCESS_public)
    2764                            .dwattr $C$DW$230, DW_AT_decl_file("C:/ti/pdk_OMAPL138_1_01_00_02/packages/ti/csl/cslr_psc_C67
    2765                            .dwattr $C$DW$230, DW_AT_decl_line(0x91)
    2766                            .dwattr $C$DW$230, DW_AT_decl_column(0x15)
    2767                    
    2768                    $C$DW$231       .dwtag  DW_TAG_member
    2769                            .dwattr $C$DW$231, DW_AT_type(*$C$DW$T$41)
    2770                            .dwattr $C$DW$231, DW_AT_name("RSVD11")
    2771                            .dwattr $C$DW$231, DW_AT_TI_symbol_name("RSVD11")
    2772                            .dwattr $C$DW$231, DW_AT_data_member_location[DW_OP_plus_uconst 0x880]
    2773                            .dwattr $C$DW$231, DW_AT_accessibility(DW_ACCESS_public)
    2774                            .dwattr $C$DW$231, DW_AT_decl_file("C:/ti/pdk_OMAPL138_1_01_00_02/packages/ti/csl/cslr_psc_C67
    2775                            .dwattr $C$DW$231, DW_AT_decl_line(0x92)
    2776                            .dwattr $C$DW$231, DW_AT_decl_column(0x14)
    2777                    
    2778                    $C$DW$232       .dwtag  DW_TAG_member
    2779                            .dwattr $C$DW$232, DW_AT_type(*$C$DW$T$40)
    2780                            .dwattr $C$DW$232, DW_AT_name("MDCTL")
    2781                            .dwattr $C$DW$232, DW_AT_TI_symbol_name("MDCTL")
    2782                            .dwattr $C$DW$232, DW_AT_data_member_location[DW_OP_plus_uconst 0xa00]
    2783                            .dwattr $C$DW$232, DW_AT_accessibility(DW_ACCESS_public)
    2784                            .dwattr $C$DW$232, DW_AT_decl_file("C:/ti/pdk_OMAPL138_1_01_00_02/packages/ti/csl/cslr_psc_C67
    2785                            .dwattr $C$DW$232, DW_AT_decl_line(0x93)
    2786                            .dwattr $C$DW$232, DW_AT_decl_column(0x15)
    2787                    
    2788                            .dwattr $C$DW$T$42, DW_AT_decl_file("C:/ti/pdk_OMAPL138_1_01_00_02/packages/ti/csl/cslr_psc_C6
    2789                            .dwattr $C$DW$T$42, DW_AT_decl_line(0x77)
    2790                            .dwattr $C$DW$T$42, DW_AT_decl_column(0x11)
    2791                            .dwendtag $C$DW$T$42
    2792                    
    2793                    $C$DW$T$74      .dwtag  DW_TAG_typedef
    2794                            .dwattr $C$DW$T$74, DW_AT_name("CSL_PscRegs")
    2795                            .dwattr $C$DW$T$74, DW_AT_type(*$C$DW$T$42)
    2796                            .dwattr $C$DW$T$74, DW_AT_language(DW_LANG_C)
    2797                            .dwattr $C$DW$T$74, DW_AT_decl_file("C:/ti/pdk_OMAPL138_1_01_00_02/packages/ti/csl/cslr_psc_C6
    2798                            .dwattr $C$DW$T$74, DW_AT_decl_line(0x94)
    2799                            .dwattr $C$DW$T$74, DW_AT_decl_column(0x03)
    2800                    
    2801                    $C$DW$T$75      .dwtag  DW_TAG_volatile_type
    2802                            .dwattr $C$DW$T$75, DW_AT_type(*$C$DW$T$74)
    2803                    
    2804                    $C$DW$T$76      .dwtag  DW_TAG_pointer_type
    2805                            .dwattr $C$DW$T$76, DW_AT_type(*$C$DW$T$75)
TMS320C6x Assembler PC v8.1.3 Thu Apr 20 04:41:32 2017

Tools Copyright (c) 1996-2015 Texas Instruments Incorporated
leds.asm                                                             PAGE   52

    2806                            .dwattr $C$DW$T$76, DW_AT_address_class(0x20)
    2807                    
    2808                    $C$DW$T$77      .dwtag  DW_TAG_typedef
    2809                            .dwattr $C$DW$T$77, DW_AT_name("CSL_PscRegsOvly")
    2810                            .dwattr $C$DW$T$77, DW_AT_type(*$C$DW$T$76)
    2811                            .dwattr $C$DW$T$77, DW_AT_language(DW_LANG_C)
    2812                            .dwattr $C$DW$T$77, DW_AT_decl_file("C:/ti/pdk_OMAPL138_1_01_00_02/packages/ti/csl/cslr_psc_C6
    2813                            .dwattr $C$DW$T$77, DW_AT_decl_line(0x9a)
    2814                            .dwattr $C$DW$T$77, DW_AT_decl_column(0x2b)
    2815                    
    2816                    
    2817                    $C$DW$T$43      .dwtag  DW_TAG_structure_type
    2818                            .dwattr $C$DW$T$43, DW_AT_byte_size(0x28)
    2819                    $C$DW$233       .dwtag  DW_TAG_member
    2820                            .dwattr $C$DW$233, DW_AT_type(*$C$DW$T$23)
    2821                            .dwattr $C$DW$233, DW_AT_name("DIR")
    2822                            .dwattr $C$DW$233, DW_AT_TI_symbol_name("DIR")
    2823                            .dwattr $C$DW$233, DW_AT_data_member_location[DW_OP_plus_uconst 0x0]
    2824                            .dwattr $C$DW$233, DW_AT_accessibility(DW_ACCESS_public)
    2825                            .dwattr $C$DW$233, DW_AT_decl_file("C:/ti/pdk_OMAPL138_1_01_00_02/packages/ti/csl/cslr_gpio.h"
    2826                            .dwattr $C$DW$233, DW_AT_decl_line(0x43)
    2827                            .dwattr $C$DW$233, DW_AT_decl_column(0x15)
    2828                    
    2829                    $C$DW$234       .dwtag  DW_TAG_member
    2830                            .dwattr $C$DW$234, DW_AT_type(*$C$DW$T$23)
    2831                            .dwattr $C$DW$234, DW_AT_name("OUT_DATA")
    2832                            .dwattr $C$DW$234, DW_AT_TI_symbol_name("OUT_DATA")
    2833                            .dwattr $C$DW$234, DW_AT_data_member_location[DW_OP_plus_uconst 0x4]
    2834                            .dwattr $C$DW$234, DW_AT_accessibility(DW_ACCESS_public)
    2835                            .dwattr $C$DW$234, DW_AT_decl_file("C:/ti/pdk_OMAPL138_1_01_00_02/packages/ti/csl/cslr_gpio.h"
    2836                            .dwattr $C$DW$234, DW_AT_decl_line(0x44)
    2837                            .dwattr $C$DW$234, DW_AT_decl_column(0x15)
    2838                    
    2839                    $C$DW$235       .dwtag  DW_TAG_member
    2840                            .dwattr $C$DW$235, DW_AT_type(*$C$DW$T$23)
    2841                            .dwattr $C$DW$235, DW_AT_name("SET_DATA")
    2842                            .dwattr $C$DW$235, DW_AT_TI_symbol_name("SET_DATA")
    2843                            .dwattr $C$DW$235, DW_AT_data_member_location[DW_OP_plus_uconst 0x8]
    2844                            .dwattr $C$DW$235, DW_AT_accessibility(DW_ACCESS_public)
    2845                            .dwattr $C$DW$235, DW_AT_decl_file("C:/ti/pdk_OMAPL138_1_01_00_02/packages/ti/csl/cslr_gpio.h"
    2846                            .dwattr $C$DW$235, DW_AT_decl_line(0x45)
    2847                            .dwattr $C$DW$235, DW_AT_decl_column(0x15)
    2848                    
    2849                    $C$DW$236       .dwtag  DW_TAG_member
    2850                            .dwattr $C$DW$236, DW_AT_type(*$C$DW$T$23)
    2851                            .dwattr $C$DW$236, DW_AT_name("CLR_DATA")
    2852                            .dwattr $C$DW$236, DW_AT_TI_symbol_name("CLR_DATA")
    2853                            .dwattr $C$DW$236, DW_AT_data_member_location[DW_OP_plus_uconst 0xc]
    2854                            .dwattr $C$DW$236, DW_AT_accessibility(DW_ACCESS_public)
    2855                            .dwattr $C$DW$236, DW_AT_decl_file("C:/ti/pdk_OMAPL138_1_01_00_02/packages/ti/csl/cslr_gpio.h"
    2856                            .dwattr $C$DW$236, DW_AT_decl_line(0x46)
    2857                            .dwattr $C$DW$236, DW_AT_decl_column(0x15)
    2858                    
    2859                    $C$DW$237       .dwtag  DW_TAG_member
    2860                            .dwattr $C$DW$237, DW_AT_type(*$C$DW$T$23)
TMS320C6x Assembler PC v8.1.3 Thu Apr 20 04:41:32 2017

Tools Copyright (c) 1996-2015 Texas Instruments Incorporated
leds.asm                                                             PAGE   53

    2861                            .dwattr $C$DW$237, DW_AT_name("IN_DATA")
    2862                            .dwattr $C$DW$237, DW_AT_TI_symbol_name("IN_DATA")
    2863                            .dwattr $C$DW$237, DW_AT_data_member_location[DW_OP_plus_uconst 0x10]
    2864                            .dwattr $C$DW$237, DW_AT_accessibility(DW_ACCESS_public)
    2865                            .dwattr $C$DW$237, DW_AT_decl_file("C:/ti/pdk_OMAPL138_1_01_00_02/packages/ti/csl/cslr_gpio.h"
    2866                            .dwattr $C$DW$237, DW_AT_decl_line(0x47)
    2867                            .dwattr $C$DW$237, DW_AT_decl_column(0x15)
    2868                    
    2869                    $C$DW$238       .dwtag  DW_TAG_member
    2870                            .dwattr $C$DW$238, DW_AT_type(*$C$DW$T$23)
    2871                            .dwattr $C$DW$238, DW_AT_name("SET_RIS_TRIG")
    2872                            .dwattr $C$DW$238, DW_AT_TI_symbol_name("SET_RIS_TRIG")
    2873                            .dwattr $C$DW$238, DW_AT_data_member_location[DW_OP_plus_uconst 0x14]
    2874                            .dwattr $C$DW$238, DW_AT_accessibility(DW_ACCESS_public)
    2875                            .dwattr $C$DW$238, DW_AT_decl_file("C:/ti/pdk_OMAPL138_1_01_00_02/packages/ti/csl/cslr_gpio.h"
    2876                            .dwattr $C$DW$238, DW_AT_decl_line(0x48)
    2877                            .dwattr $C$DW$238, DW_AT_decl_column(0x15)
    2878                    
    2879                    $C$DW$239       .dwtag  DW_TAG_member
    2880                            .dwattr $C$DW$239, DW_AT_type(*$C$DW$T$23)
    2881                            .dwattr $C$DW$239, DW_AT_name("CLR_RIS_TRIG")
    2882                            .dwattr $C$DW$239, DW_AT_TI_symbol_name("CLR_RIS_TRIG")
    2883                            .dwattr $C$DW$239, DW_AT_data_member_location[DW_OP_plus_uconst 0x18]
    2884                            .dwattr $C$DW$239, DW_AT_accessibility(DW_ACCESS_public)
    2885                            .dwattr $C$DW$239, DW_AT_decl_file("C:/ti/pdk_OMAPL138_1_01_00_02/packages/ti/csl/cslr_gpio.h"
    2886                            .dwattr $C$DW$239, DW_AT_decl_line(0x49)
    2887                            .dwattr $C$DW$239, DW_AT_decl_column(0x15)
    2888                    
    2889                    $C$DW$240       .dwtag  DW_TAG_member
    2890                            .dwattr $C$DW$240, DW_AT_type(*$C$DW$T$23)
    2891                            .dwattr $C$DW$240, DW_AT_name("SET_FAL_TRIG")
    2892                            .dwattr $C$DW$240, DW_AT_TI_symbol_name("SET_FAL_TRIG")
    2893                            .dwattr $C$DW$240, DW_AT_data_member_location[DW_OP_plus_uconst 0x1c]
    2894                            .dwattr $C$DW$240, DW_AT_accessibility(DW_ACCESS_public)
    2895                            .dwattr $C$DW$240, DW_AT_decl_file("C:/ti/pdk_OMAPL138_1_01_00_02/packages/ti/csl/cslr_gpio.h"
    2896                            .dwattr $C$DW$240, DW_AT_decl_line(0x4a)
    2897                            .dwattr $C$DW$240, DW_AT_decl_column(0x15)
    2898                    
    2899                    $C$DW$241       .dwtag  DW_TAG_member
    2900                            .dwattr $C$DW$241, DW_AT_type(*$C$DW$T$23)
    2901                            .dwattr $C$DW$241, DW_AT_name("CLR_FAL_TRIG")
    2902                            .dwattr $C$DW$241, DW_AT_TI_symbol_name("CLR_FAL_TRIG")
    2903                            .dwattr $C$DW$241, DW_AT_data_member_location[DW_OP_plus_uconst 0x20]
    2904                            .dwattr $C$DW$241, DW_AT_accessibility(DW_ACCESS_public)
    2905                            .dwattr $C$DW$241, DW_AT_decl_file("C:/ti/pdk_OMAPL138_1_01_00_02/packages/ti/csl/cslr_gpio.h"
    2906                            .dwattr $C$DW$241, DW_AT_decl_line(0x4b)
    2907                            .dwattr $C$DW$241, DW_AT_decl_column(0x15)
    2908                    
    2909                    $C$DW$242       .dwtag  DW_TAG_member
    2910                            .dwattr $C$DW$242, DW_AT_type(*$C$DW$T$23)
    2911                            .dwattr $C$DW$242, DW_AT_name("INTSTAT")
    2912                            .dwattr $C$DW$242, DW_AT_TI_symbol_name("INTSTAT")
    2913                            .dwattr $C$DW$242, DW_AT_data_member_location[DW_OP_plus_uconst 0x24]
    2914                            .dwattr $C$DW$242, DW_AT_accessibility(DW_ACCESS_public)
    2915                            .dwattr $C$DW$242, DW_AT_decl_file("C:/ti/pdk_OMAPL138_1_01_00_02/packages/ti/csl/cslr_gpio.h"
TMS320C6x Assembler PC v8.1.3 Thu Apr 20 04:41:32 2017

Tools Copyright (c) 1996-2015 Texas Instruments Incorporated
leds.asm                                                             PAGE   54

    2916                            .dwattr $C$DW$242, DW_AT_decl_line(0x4c)
    2917                            .dwattr $C$DW$242, DW_AT_decl_column(0x15)
    2918                    
    2919                            .dwattr $C$DW$T$43, DW_AT_decl_file("C:/ti/pdk_OMAPL138_1_01_00_02/packages/ti/csl/cslr_gpio.h
    2920                            .dwattr $C$DW$T$43, DW_AT_decl_line(0x42)
    2921                            .dwattr $C$DW$T$43, DW_AT_decl_column(0x11)
    2922                            .dwendtag $C$DW$T$43
    2923                    
    2924                    $C$DW$T$44      .dwtag  DW_TAG_typedef
    2925                            .dwattr $C$DW$T$44, DW_AT_name("CSL_GpioBankRegs")
    2926                            .dwattr $C$DW$T$44, DW_AT_type(*$C$DW$T$43)
    2927                            .dwattr $C$DW$T$44, DW_AT_language(DW_LANG_C)
    2928                            .dwattr $C$DW$T$44, DW_AT_decl_file("C:/ti/pdk_OMAPL138_1_01_00_02/packages/ti/csl/cslr_gpio.h
    2929                            .dwattr $C$DW$T$44, DW_AT_decl_line(0x4d)
    2930                            .dwattr $C$DW$T$44, DW_AT_decl_column(0x03)
    2931                    
    2932                    
    2933                    $C$DW$T$45      .dwtag  DW_TAG_array_type
    2934                            .dwattr $C$DW$T$45, DW_AT_type(*$C$DW$T$44)
    2935                            .dwattr $C$DW$T$45, DW_AT_language(DW_LANG_C)
    2936                            .dwattr $C$DW$T$45, DW_AT_byte_size(0xc8)
    2937                    $C$DW$243       .dwtag  DW_TAG_subrange_type
    2938                            .dwattr $C$DW$243, DW_AT_upper_bound(0x04)
    2939                    
    2940                            .dwendtag $C$DW$T$45
    2941                    
    2942                    
    2943                    $C$DW$T$46      .dwtag  DW_TAG_structure_type
    2944                            .dwattr $C$DW$T$46, DW_AT_byte_size(0xd8)
    2945                    $C$DW$244       .dwtag  DW_TAG_member
    2946                            .dwattr $C$DW$244, DW_AT_type(*$C$DW$T$23)
    2947                            .dwattr $C$DW$244, DW_AT_name("REVID")
    2948                            .dwattr $C$DW$244, DW_AT_TI_symbol_name("REVID")
    2949                            .dwattr $C$DW$244, DW_AT_data_member_location[DW_OP_plus_uconst 0x0]
    2950                            .dwattr $C$DW$244, DW_AT_accessibility(DW_ACCESS_public)
    2951                            .dwattr $C$DW$244, DW_AT_decl_file("C:/ti/pdk_OMAPL138_1_01_00_02/packages/ti/csl/cslr_gpio.h"
    2952                            .dwattr $C$DW$244, DW_AT_decl_line(0x53)
    2953                            .dwattr $C$DW$244, DW_AT_decl_column(0x15)
    2954                    
    2955                    $C$DW$245       .dwtag  DW_TAG_member
    2956                            .dwattr $C$DW$245, DW_AT_type(*$C$DW$T$29)
    2957                            .dwattr $C$DW$245, DW_AT_name("RSVD0")
    2958                            .dwattr $C$DW$245, DW_AT_TI_symbol_name("RSVD0")
    2959                            .dwattr $C$DW$245, DW_AT_data_member_location[DW_OP_plus_uconst 0x4]
    2960                            .dwattr $C$DW$245, DW_AT_accessibility(DW_ACCESS_public)
    2961                            .dwattr $C$DW$245, DW_AT_decl_file("C:/ti/pdk_OMAPL138_1_01_00_02/packages/ti/csl/cslr_gpio.h"
    2962                            .dwattr $C$DW$245, DW_AT_decl_line(0x54)
    2963                            .dwattr $C$DW$245, DW_AT_decl_column(0x14)
    2964                    
    2965                    $C$DW$246       .dwtag  DW_TAG_member
    2966                            .dwattr $C$DW$246, DW_AT_type(*$C$DW$T$23)
    2967                            .dwattr $C$DW$246, DW_AT_name("BINTEN")
    2968                            .dwattr $C$DW$246, DW_AT_TI_symbol_name("BINTEN")
    2969                            .dwattr $C$DW$246, DW_AT_data_member_location[DW_OP_plus_uconst 0x8]
    2970                            .dwattr $C$DW$246, DW_AT_accessibility(DW_ACCESS_public)
TMS320C6x Assembler PC v8.1.3 Thu Apr 20 04:41:32 2017

Tools Copyright (c) 1996-2015 Texas Instruments Incorporated
leds.asm                                                             PAGE   55

    2971                            .dwattr $C$DW$246, DW_AT_decl_file("C:/ti/pdk_OMAPL138_1_01_00_02/packages/ti/csl/cslr_gpio.h"
    2972                            .dwattr $C$DW$246, DW_AT_decl_line(0x55)
    2973                            .dwattr $C$DW$246, DW_AT_decl_column(0x15)
    2974                    
    2975                    $C$DW$247       .dwtag  DW_TAG_member
    2976                            .dwattr $C$DW$247, DW_AT_type(*$C$DW$T$29)
    2977                            .dwattr $C$DW$247, DW_AT_name("RSVD1")
    2978                            .dwattr $C$DW$247, DW_AT_TI_symbol_name("RSVD1")
    2979                            .dwattr $C$DW$247, DW_AT_data_member_location[DW_OP_plus_uconst 0xc]
    2980                            .dwattr $C$DW$247, DW_AT_accessibility(DW_ACCESS_public)
    2981                            .dwattr $C$DW$247, DW_AT_decl_file("C:/ti/pdk_OMAPL138_1_01_00_02/packages/ti/csl/cslr_gpio.h"
    2982                            .dwattr $C$DW$247, DW_AT_decl_line(0x56)
    2983                            .dwattr $C$DW$247, DW_AT_decl_column(0x14)
    2984                    
    2985                    $C$DW$248       .dwtag  DW_TAG_member
    2986                            .dwattr $C$DW$248, DW_AT_type(*$C$DW$T$45)
    2987                            .dwattr $C$DW$248, DW_AT_name("BANK")
    2988                            .dwattr $C$DW$248, DW_AT_TI_symbol_name("BANK")
    2989                            .dwattr $C$DW$248, DW_AT_data_member_location[DW_OP_plus_uconst 0x10]
    2990                            .dwattr $C$DW$248, DW_AT_accessibility(DW_ACCESS_public)
    2991                            .dwattr $C$DW$248, DW_AT_decl_file("C:/ti/pdk_OMAPL138_1_01_00_02/packages/ti/csl/cslr_gpio.h"
    2992                            .dwattr $C$DW$248, DW_AT_decl_line(0x57)
    2993                            .dwattr $C$DW$248, DW_AT_decl_column(0x16)
    2994                    
    2995                            .dwattr $C$DW$T$46, DW_AT_decl_file("C:/ti/pdk_OMAPL138_1_01_00_02/packages/ti/csl/cslr_gpio.h
    2996                            .dwattr $C$DW$T$46, DW_AT_decl_line(0x52)
    2997                            .dwattr $C$DW$T$46, DW_AT_decl_column(0x11)
    2998                            .dwendtag $C$DW$T$46
    2999                    
    3000                    $C$DW$T$78      .dwtag  DW_TAG_typedef
    3001                            .dwattr $C$DW$T$78, DW_AT_name("CSL_GpioRegs")
    3002                            .dwattr $C$DW$T$78, DW_AT_type(*$C$DW$T$46)
    3003                            .dwattr $C$DW$T$78, DW_AT_language(DW_LANG_C)
    3004                            .dwattr $C$DW$T$78, DW_AT_decl_file("C:/ti/pdk_OMAPL138_1_01_00_02/packages/ti/csl/cslr_gpio.h
    3005                            .dwattr $C$DW$T$78, DW_AT_decl_line(0x58)
    3006                            .dwattr $C$DW$T$78, DW_AT_decl_column(0x03)
    3007                    
    3008                    $C$DW$T$79      .dwtag  DW_TAG_volatile_type
    3009                            .dwattr $C$DW$T$79, DW_AT_type(*$C$DW$T$78)
    3010                    
    3011                    $C$DW$T$80      .dwtag  DW_TAG_pointer_type
    3012                            .dwattr $C$DW$T$80, DW_AT_type(*$C$DW$T$79)
    3013                            .dwattr $C$DW$T$80, DW_AT_address_class(0x20)
    3014                    
    3015                    $C$DW$T$81      .dwtag  DW_TAG_typedef
    3016                            .dwattr $C$DW$T$81, DW_AT_name("CSL_GpioRegsOvly")
    3017                            .dwattr $C$DW$T$81, DW_AT_type(*$C$DW$T$80)
    3018                            .dwattr $C$DW$T$81, DW_AT_language(DW_LANG_C)
