TMS320C6x Assembler PC v8.1.3 Fri Apr 14 08:40:18 2017

Tools Copyright (c) 1996-2015 Texas Instruments Incorporated
AudioInterface.asm                                                   PAGE    1

       1                    ;******************************************************************************
       2                    ;* G3 TMS320C6x C/C++ Codegen                                       PC v8.1.3 *
       3                    ;* Date/Time created: Fri Apr 14 08:40:17 2017                                *
       4                    ;******************************************************************************
       5                            .compiler_opts --abi=eabi --array_alignment=8 --diag_wrap=off --endian=little --hll_source=on 
       6                    
       7                    ;******************************************************************************
       8                    ;* GLOBAL FILE PARAMETERS                                                     *
       9                    ;*                                                                            *
      10                    ;*   Architecture      : TMS320C674x                                          *
      11                    ;*   Optimization      : Enabled at level 3                                   *
      12                    ;*   Optimizing for    : Speed                                                *
      13                    ;*                       Based on options: -o3, no -ms                        *
      14                    ;*   Endian            : Little                                               *
      15                    ;*   Interrupt Thrshld : Disabled                                             *
      16                    ;*   Data Access Model : Far Aggregate Data                                   *
      17                    ;*   Pipelining        : Enabled                                              *
      18                    ;*   Speculate Loads   : Enabled with threshold = 0                           *
      19                    ;*   Memory Aliases    : Presume are aliases (pessimistic)                    *
      20                    ;*   Debug Info        : DWARF Debug                                          *
      21                    ;*                                                                            *
      22                    ;******************************************************************************
      23                    
      24                            .asg    A15, FP
      25                            .asg    B14, DP
      26                            .asg    B15, SP
      27                            .global $bss
      28                    
      29                    
      30                    $C$DW$CU        .dwtag  DW_TAG_compile_unit
      31                            .dwattr $C$DW$CU, DW_AT_name("C:/Users/Raz Aloni/OneDrive/School/EEL4924/DSP/C_Libs/AudioInter
      32                            .dwattr $C$DW$CU, DW_AT_producer("TI G3 TMS320C6x C/C++ Codegen PC v8.1.3 Copyright (c) 1996-2
      33                            .dwattr $C$DW$CU, DW_AT_TI_version(0x01)
      34                            .dwattr $C$DW$CU, DW_AT_comp_dir("C:\Users\Raz Aloni\OneDrive\School\EEL4924\DSP\DSP_Workspace
      35                    
      36                    $C$DW$1 .dwtag  DW_TAG_subprogram
      37                            .dwattr $C$DW$1, DW_AT_name("memcpy")
      38                            .dwattr $C$DW$1, DW_AT_TI_symbol_name("memcpy")
      39                            .dwattr $C$DW$1, DW_AT_type(*$C$DW$T$3)
      40                            .dwattr $C$DW$1, DW_AT_declaration
      41                            .dwattr $C$DW$1, DW_AT_external
      42                            .dwattr $C$DW$1, DW_AT_decl_file("C:/ti/ccsv7/tools/compiler/ti-cgt-c6000_8.1.3/include/string
      43                            .dwattr $C$DW$1, DW_AT_decl_line(0x65)
      44                            .dwattr $C$DW$1, DW_AT_decl_column(0x16)
      45                    $C$DW$2 .dwtag  DW_TAG_formal_parameter
      46                            .dwattr $C$DW$2, DW_AT_type(*$C$DW$T$3)
      47                    
      48                    $C$DW$3 .dwtag  DW_TAG_formal_parameter
      49                            .dwattr $C$DW$3, DW_AT_type(*$C$DW$T$230)
      50                    
      51                    $C$DW$4 .dwtag  DW_TAG_formal_parameter
      52                            .dwattr $C$DW$4, DW_AT_type(*$C$DW$T$228)
      53                    
      54                            .dwendtag $C$DW$1
      55                    
TMS320C6x Assembler PC v8.1.3 Fri Apr 14 08:40:18 2017

Tools Copyright (c) 1996-2015 Texas Instruments Incorporated
AudioInterface.asm                                                   PAGE    2

      56                    
      57                    $C$DW$5 .dwtag  DW_TAG_subprogram
      58                            .dwattr $C$DW$5, DW_AT_name("ti_sysbios_knl_Queue_put__E")
      59                            .dwattr $C$DW$5, DW_AT_TI_symbol_name("ti_sysbios_knl_Queue_put__E")
      60                            .dwattr $C$DW$5, DW_AT_declaration
      61                            .dwattr $C$DW$5, DW_AT_external
      62                            .dwattr $C$DW$5, DW_AT_decl_file("C:/ti/bios_6_50_00_10/packages/ti/sysbios/knl/Queue.h")
      63                            .dwattr $C$DW$5, DW_AT_decl_line(0x179)
      64                            .dwattr $C$DW$5, DW_AT_decl_column(0x13)
      65                    $C$DW$6 .dwtag  DW_TAG_formal_parameter
      66                            .dwattr $C$DW$6, DW_AT_type(*$C$DW$T$473)
      67                    
      68                    $C$DW$7 .dwtag  DW_TAG_formal_parameter
      69                            .dwattr $C$DW$7, DW_AT_type(*$C$DW$T$438)
      70                    
      71                            .dwendtag $C$DW$5
      72                    
      73                    
      74                    $C$DW$8 .dwtag  DW_TAG_subprogram
      75                            .dwattr $C$DW$8, DW_AT_name("ti_sysbios_knl_Semaphore_post__E")
      76                            .dwattr $C$DW$8, DW_AT_TI_symbol_name("ti_sysbios_knl_Semaphore_post__E")
      77                            .dwattr $C$DW$8, DW_AT_declaration
      78                            .dwattr $C$DW$8, DW_AT_external
      79                            .dwattr $C$DW$8, DW_AT_decl_file("C:/ti/bios_6_50_00_10/packages/ti/sysbios/knl/Semaphore.h")
      80                            .dwattr $C$DW$8, DW_AT_decl_line(0x1e1)
      81                            .dwattr $C$DW$8, DW_AT_decl_column(0x13)
      82                    $C$DW$9 .dwtag  DW_TAG_formal_parameter
      83                            .dwattr $C$DW$9, DW_AT_type(*$C$DW$T$899)
      84                    
      85                            .dwendtag $C$DW$8
      86                    
      87                    
      88                    $C$DW$10        .dwtag  DW_TAG_subprogram
      89                            .dwattr $C$DW$10, DW_AT_name("McASPTxReset")
      90                            .dwattr $C$DW$10, DW_AT_TI_symbol_name("McASPTxReset")
      91                            .dwattr $C$DW$10, DW_AT_declaration
      92                            .dwattr $C$DW$10, DW_AT_external
      93                            .dwattr $C$DW$10, DW_AT_decl_file("C:/ti/OMAPL138_StarterWare_1_10_04_01/include/mcasp.h")
      94                            .dwattr $C$DW$10, DW_AT_decl_line(0x1ab)
      95                            .dwattr $C$DW$10, DW_AT_decl_column(0x0d)
      96                    $C$DW$11        .dwtag  DW_TAG_formal_parameter
      97                            .dwattr $C$DW$11, DW_AT_type(*$C$DW$T$11)
      98                    
      99                            .dwendtag $C$DW$10
     100                    
     101                    
     102                    $C$DW$12        .dwtag  DW_TAG_subprogram
     103                            .dwattr $C$DW$12, DW_AT_name("McASPRxReset")
     104                            .dwattr $C$DW$12, DW_AT_TI_symbol_name("McASPRxReset")
     105                            .dwattr $C$DW$12, DW_AT_declaration
     106                            .dwattr $C$DW$12, DW_AT_external
     107                            .dwattr $C$DW$12, DW_AT_decl_file("C:/ti/OMAPL138_StarterWare_1_10_04_01/include/mcasp.h")
     108                            .dwattr $C$DW$12, DW_AT_decl_line(0x1ac)
     109                            .dwattr $C$DW$12, DW_AT_decl_column(0x0d)
     110                    $C$DW$13        .dwtag  DW_TAG_formal_parameter
TMS320C6x Assembler PC v8.1.3 Fri Apr 14 08:40:18 2017

Tools Copyright (c) 1996-2015 Texas Instruments Incorporated
AudioInterface.asm                                                   PAGE    3

     111                            .dwattr $C$DW$13, DW_AT_type(*$C$DW$T$11)
     112                    
     113                            .dwendtag $C$DW$12
     114                    
     115                    
     116                    $C$DW$14        .dwtag  DW_TAG_subprogram
     117                            .dwattr $C$DW$14, DW_AT_name("McASPWriteFifoEnable")
     118                            .dwattr $C$DW$14, DW_AT_TI_symbol_name("McASPWriteFifoEnable")
     119                            .dwattr $C$DW$14, DW_AT_declaration
     120                            .dwattr $C$DW$14, DW_AT_external
     121                            .dwattr $C$DW$14, DW_AT_decl_file("C:/ti/OMAPL138_StarterWare_1_10_04_01/include/mcasp.h")
     122                            .dwattr $C$DW$14, DW_AT_decl_line(0x1ad)
     123                            .dwattr $C$DW$14, DW_AT_decl_column(0x0d)
     124                    $C$DW$15        .dwtag  DW_TAG_formal_parameter
     125                            .dwattr $C$DW$15, DW_AT_type(*$C$DW$T$11)
     126                    
     127                    $C$DW$16        .dwtag  DW_TAG_formal_parameter
     128                            .dwattr $C$DW$16, DW_AT_type(*$C$DW$T$11)
     129                    
     130                    $C$DW$17        .dwtag  DW_TAG_formal_parameter
     131                            .dwattr $C$DW$17, DW_AT_type(*$C$DW$T$11)
     132                    
     133                            .dwendtag $C$DW$14
     134                    
     135                    
     136                    $C$DW$18        .dwtag  DW_TAG_subprogram
     137                            .dwattr $C$DW$18, DW_AT_name("McASPReadFifoEnable")
     138                            .dwattr $C$DW$18, DW_AT_TI_symbol_name("McASPReadFifoEnable")
     139                            .dwattr $C$DW$18, DW_AT_declaration
     140                            .dwattr $C$DW$18, DW_AT_external
     141                            .dwattr $C$DW$18, DW_AT_decl_file("C:/ti/OMAPL138_StarterWare_1_10_04_01/include/mcasp.h")
     142                            .dwattr $C$DW$18, DW_AT_decl_line(0x1af)
     143                            .dwattr $C$DW$18, DW_AT_decl_column(0x0d)
     144                    $C$DW$19        .dwtag  DW_TAG_formal_parameter
     145                            .dwattr $C$DW$19, DW_AT_type(*$C$DW$T$11)
     146                    
     147                    $C$DW$20        .dwtag  DW_TAG_formal_parameter
     148                            .dwattr $C$DW$20, DW_AT_type(*$C$DW$T$11)
     149                    
     150                    $C$DW$21        .dwtag  DW_TAG_formal_parameter
     151                            .dwattr $C$DW$21, DW_AT_type(*$C$DW$T$11)
     152                    
     153                            .dwendtag $C$DW$18
     154                    
     155                    
     156                    $C$DW$22        .dwtag  DW_TAG_subprogram
     157                            .dwattr $C$DW$22, DW_AT_name("McASPTxFmtI2SSet")
     158                            .dwattr $C$DW$22, DW_AT_TI_symbol_name("McASPTxFmtI2SSet")
     159                            .dwattr $C$DW$22, DW_AT_declaration
     160                            .dwattr $C$DW$22, DW_AT_external
     161                            .dwattr $C$DW$22, DW_AT_decl_file("C:/ti/OMAPL138_StarterWare_1_10_04_01/include/mcasp.h")
     162                            .dwattr $C$DW$22, DW_AT_decl_line(0x1b5)
     163                            .dwattr $C$DW$22, DW_AT_decl_column(0x0d)
     164                    $C$DW$23        .dwtag  DW_TAG_formal_parameter
     165                            .dwattr $C$DW$23, DW_AT_type(*$C$DW$T$11)
TMS320C6x Assembler PC v8.1.3 Fri Apr 14 08:40:18 2017

Tools Copyright (c) 1996-2015 Texas Instruments Incorporated
AudioInterface.asm                                                   PAGE    4

     166                    
     167                    $C$DW$24        .dwtag  DW_TAG_formal_parameter
     168                            .dwattr $C$DW$24, DW_AT_type(*$C$DW$T$11)
     169                    
     170                    $C$DW$25        .dwtag  DW_TAG_formal_parameter
     171                            .dwattr $C$DW$25, DW_AT_type(*$C$DW$T$11)
     172                    
     173                    $C$DW$26        .dwtag  DW_TAG_formal_parameter
     174                            .dwattr $C$DW$26, DW_AT_type(*$C$DW$T$11)
     175                    
     176                            .dwendtag $C$DW$22
     177                    
     178                    
     179                    $C$DW$27        .dwtag  DW_TAG_subprogram
     180                            .dwattr $C$DW$27, DW_AT_name("McASPRxFmtI2SSet")
     181                            .dwattr $C$DW$27, DW_AT_TI_symbol_name("McASPRxFmtI2SSet")
     182                            .dwattr $C$DW$27, DW_AT_declaration
     183                            .dwattr $C$DW$27, DW_AT_external
     184                            .dwattr $C$DW$27, DW_AT_decl_file("C:/ti/OMAPL138_StarterWare_1_10_04_01/include/mcasp.h")
     185                            .dwattr $C$DW$27, DW_AT_decl_line(0x1b7)
     186                            .dwattr $C$DW$27, DW_AT_decl_column(0x0d)
     187                    $C$DW$28        .dwtag  DW_TAG_formal_parameter
     188                            .dwattr $C$DW$28, DW_AT_type(*$C$DW$T$11)
     189                    
     190                    $C$DW$29        .dwtag  DW_TAG_formal_parameter
     191                            .dwattr $C$DW$29, DW_AT_type(*$C$DW$T$11)
     192                    
     193                    $C$DW$30        .dwtag  DW_TAG_formal_parameter
     194                            .dwattr $C$DW$30, DW_AT_type(*$C$DW$T$11)
     195                    
     196                    $C$DW$31        .dwtag  DW_TAG_formal_parameter
     197                            .dwattr $C$DW$31, DW_AT_type(*$C$DW$T$11)
     198                    
     199                            .dwendtag $C$DW$27
     200                    
     201                    
     202                    $C$DW$32        .dwtag  DW_TAG_subprogram
     203                            .dwattr $C$DW$32, DW_AT_name("McASPTxFrameSyncCfg")
     204                            .dwattr $C$DW$32, DW_AT_TI_symbol_name("McASPTxFrameSyncCfg")
     205                            .dwattr $C$DW$32, DW_AT_declaration
     206                            .dwattr $C$DW$32, DW_AT_external
     207                            .dwattr $C$DW$32, DW_AT_decl_file("C:/ti/OMAPL138_StarterWare_1_10_04_01/include/mcasp.h")
     208                            .dwattr $C$DW$32, DW_AT_decl_line(0x1b9)
     209                            .dwattr $C$DW$32, DW_AT_decl_column(0x0d)
     210                    $C$DW$33        .dwtag  DW_TAG_formal_parameter
     211                            .dwattr $C$DW$33, DW_AT_type(*$C$DW$T$11)
     212                    
     213                    $C$DW$34        .dwtag  DW_TAG_formal_parameter
     214                            .dwattr $C$DW$34, DW_AT_type(*$C$DW$T$11)
     215                    
     216                    $C$DW$35        .dwtag  DW_TAG_formal_parameter
     217                            .dwattr $C$DW$35, DW_AT_type(*$C$DW$T$11)
     218                    
     219                    $C$DW$36        .dwtag  DW_TAG_formal_parameter
     220                            .dwattr $C$DW$36, DW_AT_type(*$C$DW$T$11)
TMS320C6x Assembler PC v8.1.3 Fri Apr 14 08:40:18 2017

Tools Copyright (c) 1996-2015 Texas Instruments Incorporated
AudioInterface.asm                                                   PAGE    5

     221                    
     222                            .dwendtag $C$DW$32
     223                    
     224                    
     225                    $C$DW$37        .dwtag  DW_TAG_subprogram
     226                            .dwattr $C$DW$37, DW_AT_name("McASPRxFrameSyncCfg")
     227                            .dwattr $C$DW$37, DW_AT_TI_symbol_name("McASPRxFrameSyncCfg")
     228                            .dwattr $C$DW$37, DW_AT_declaration
     229                            .dwattr $C$DW$37, DW_AT_external
     230                            .dwattr $C$DW$37, DW_AT_decl_file("C:/ti/OMAPL138_StarterWare_1_10_04_01/include/mcasp.h")
     231                            .dwattr $C$DW$37, DW_AT_decl_line(0x1bb)
     232                            .dwattr $C$DW$37, DW_AT_decl_column(0x0d)
     233                    $C$DW$38        .dwtag  DW_TAG_formal_parameter
     234                            .dwattr $C$DW$38, DW_AT_type(*$C$DW$T$11)
     235                    
     236                    $C$DW$39        .dwtag  DW_TAG_formal_parameter
     237                            .dwattr $C$DW$39, DW_AT_type(*$C$DW$T$11)
     238                    
     239                    $C$DW$40        .dwtag  DW_TAG_formal_parameter
     240                            .dwattr $C$DW$40, DW_AT_type(*$C$DW$T$11)
     241                    
     242                    $C$DW$41        .dwtag  DW_TAG_formal_parameter
     243                            .dwattr $C$DW$41, DW_AT_type(*$C$DW$T$11)
     244                    
     245                            .dwendtag $C$DW$37
     246                    
     247                    
     248                    $C$DW$42        .dwtag  DW_TAG_subprogram
     249                            .dwattr $C$DW$42, DW_AT_name("McASPTxClkCfg")
     250                            .dwattr $C$DW$42, DW_AT_TI_symbol_name("McASPTxClkCfg")
     251                            .dwattr $C$DW$42, DW_AT_declaration
     252                            .dwattr $C$DW$42, DW_AT_external
     253                            .dwattr $C$DW$42, DW_AT_decl_file("C:/ti/OMAPL138_StarterWare_1_10_04_01/include/mcasp.h")
     254                            .dwattr $C$DW$42, DW_AT_decl_line(0x1bd)
     255                            .dwattr $C$DW$42, DW_AT_decl_column(0x0d)
     256                    $C$DW$43        .dwtag  DW_TAG_formal_parameter
     257                            .dwattr $C$DW$43, DW_AT_type(*$C$DW$T$11)
     258                    
     259                    $C$DW$44        .dwtag  DW_TAG_formal_parameter
     260                            .dwattr $C$DW$44, DW_AT_type(*$C$DW$T$11)
     261                    
     262                    $C$DW$45        .dwtag  DW_TAG_formal_parameter
     263                            .dwattr $C$DW$45, DW_AT_type(*$C$DW$T$11)
     264                    
     265                    $C$DW$46        .dwtag  DW_TAG_formal_parameter
     266                            .dwattr $C$DW$46, DW_AT_type(*$C$DW$T$11)
     267                    
     268                            .dwendtag $C$DW$42
     269                    
     270                    
     271                    $C$DW$47        .dwtag  DW_TAG_subprogram
     272                            .dwattr $C$DW$47, DW_AT_name("McASPRxClkCfg")
     273                            .dwattr $C$DW$47, DW_AT_TI_symbol_name("McASPRxClkCfg")
     274                            .dwattr $C$DW$47, DW_AT_declaration
     275                            .dwattr $C$DW$47, DW_AT_external
TMS320C6x Assembler PC v8.1.3 Fri Apr 14 08:40:18 2017

Tools Copyright (c) 1996-2015 Texas Instruments Incorporated
AudioInterface.asm                                                   PAGE    6

     276                            .dwattr $C$DW$47, DW_AT_decl_file("C:/ti/OMAPL138_StarterWare_1_10_04_01/include/mcasp.h")
     277                            .dwattr $C$DW$47, DW_AT_decl_line(0x1bf)
     278                            .dwattr $C$DW$47, DW_AT_decl_column(0x0d)
     279                    $C$DW$48        .dwtag  DW_TAG_formal_parameter
     280                            .dwattr $C$DW$48, DW_AT_type(*$C$DW$T$11)
     281                    
     282                    $C$DW$49        .dwtag  DW_TAG_formal_parameter
     283                            .dwattr $C$DW$49, DW_AT_type(*$C$DW$T$11)
     284                    
     285                    $C$DW$50        .dwtag  DW_TAG_formal_parameter
     286                            .dwattr $C$DW$50, DW_AT_type(*$C$DW$T$11)
     287                    
     288                    $C$DW$51        .dwtag  DW_TAG_formal_parameter
     289                            .dwattr $C$DW$51, DW_AT_type(*$C$DW$T$11)
     290                    
     291                            .dwendtag $C$DW$47
     292                    
     293                    
     294                    $C$DW$52        .dwtag  DW_TAG_subprogram
     295                            .dwattr $C$DW$52, DW_AT_name("McASPTxClkPolaritySet")
     296                            .dwattr $C$DW$52, DW_AT_TI_symbol_name("McASPTxClkPolaritySet")
     297                            .dwattr $C$DW$52, DW_AT_declaration
     298                            .dwattr $C$DW$52, DW_AT_external
     299                            .dwattr $C$DW$52, DW_AT_decl_file("C:/ti/OMAPL138_StarterWare_1_10_04_01/include/mcasp.h")
     300                            .dwattr $C$DW$52, DW_AT_decl_line(0x1c1)
     301                            .dwattr $C$DW$52, DW_AT_decl_column(0x0d)
     302                    $C$DW$53        .dwtag  DW_TAG_formal_parameter
     303                            .dwattr $C$DW$53, DW_AT_type(*$C$DW$T$11)
     304                    
     305                    $C$DW$54        .dwtag  DW_TAG_formal_parameter
     306                            .dwattr $C$DW$54, DW_AT_type(*$C$DW$T$11)
     307                    
     308                            .dwendtag $C$DW$52
     309                    
     310                    
     311                    $C$DW$55        .dwtag  DW_TAG_subprogram
     312                            .dwattr $C$DW$55, DW_AT_name("McASPRxClkPolaritySet")
     313                            .dwattr $C$DW$55, DW_AT_TI_symbol_name("McASPRxClkPolaritySet")
     314                            .dwattr $C$DW$55, DW_AT_declaration
     315                            .dwattr $C$DW$55, DW_AT_external
     316                            .dwattr $C$DW$55, DW_AT_decl_file("C:/ti/OMAPL138_StarterWare_1_10_04_01/include/mcasp.h")
     317                            .dwattr $C$DW$55, DW_AT_decl_line(0x1c2)
     318                            .dwattr $C$DW$55, DW_AT_decl_column(0x0d)
     319                    $C$DW$56        .dwtag  DW_TAG_formal_parameter
     320                            .dwattr $C$DW$56, DW_AT_type(*$C$DW$T$11)
     321                    
     322                    $C$DW$57        .dwtag  DW_TAG_formal_parameter
     323                            .dwattr $C$DW$57, DW_AT_type(*$C$DW$T$11)
     324                    
     325                            .dwendtag $C$DW$55
     326                    
     327                    
     328                    $C$DW$58        .dwtag  DW_TAG_subprogram
     329                            .dwattr $C$DW$58, DW_AT_name("McASPTxRxClkSyncEnable")
     330                            .dwattr $C$DW$58, DW_AT_TI_symbol_name("McASPTxRxClkSyncEnable")
TMS320C6x Assembler PC v8.1.3 Fri Apr 14 08:40:18 2017

Tools Copyright (c) 1996-2015 Texas Instruments Incorporated
AudioInterface.asm                                                   PAGE    7

     331                            .dwattr $C$DW$58, DW_AT_declaration
     332                            .dwattr $C$DW$58, DW_AT_external
     333                            .dwattr $C$DW$58, DW_AT_decl_file("C:/ti/OMAPL138_StarterWare_1_10_04_01/include/mcasp.h")
     334                            .dwattr $C$DW$58, DW_AT_decl_line(0x1c7)
     335                            .dwattr $C$DW$58, DW_AT_decl_column(0x0d)
     336                    $C$DW$59        .dwtag  DW_TAG_formal_parameter
     337                            .dwattr $C$DW$59, DW_AT_type(*$C$DW$T$11)
     338                    
     339                            .dwendtag $C$DW$58
     340                    
     341                    
     342                    $C$DW$60        .dwtag  DW_TAG_subprogram
     343                            .dwattr $C$DW$60, DW_AT_name("McASPSerializerTxSet")
     344                            .dwattr $C$DW$60, DW_AT_TI_symbol_name("McASPSerializerTxSet")
     345                            .dwattr $C$DW$60, DW_AT_declaration
     346                            .dwattr $C$DW$60, DW_AT_external
     347                            .dwattr $C$DW$60, DW_AT_decl_file("C:/ti/OMAPL138_StarterWare_1_10_04_01/include/mcasp.h")
     348                            .dwattr $C$DW$60, DW_AT_decl_line(0x1c9)
     349                            .dwattr $C$DW$60, DW_AT_decl_column(0x0d)
     350                    $C$DW$61        .dwtag  DW_TAG_formal_parameter
     351                            .dwattr $C$DW$61, DW_AT_type(*$C$DW$T$11)
     352                    
     353                    $C$DW$62        .dwtag  DW_TAG_formal_parameter
     354                            .dwattr $C$DW$62, DW_AT_type(*$C$DW$T$11)
     355                    
     356                            .dwendtag $C$DW$60
     357                    
     358                    
     359                    $C$DW$63        .dwtag  DW_TAG_subprogram
     360                            .dwattr $C$DW$63, DW_AT_name("McASPSerializerRxSet")
     361                            .dwattr $C$DW$63, DW_AT_TI_symbol_name("McASPSerializerRxSet")
     362                            .dwattr $C$DW$63, DW_AT_declaration
     363                            .dwattr $C$DW$63, DW_AT_external
     364                            .dwattr $C$DW$63, DW_AT_decl_file("C:/ti/OMAPL138_StarterWare_1_10_04_01/include/mcasp.h")
     365                            .dwattr $C$DW$63, DW_AT_decl_line(0x1ca)
     366                            .dwattr $C$DW$63, DW_AT_decl_column(0x0d)
     367                    $C$DW$64        .dwtag  DW_TAG_formal_parameter
     368                            .dwattr $C$DW$64, DW_AT_type(*$C$DW$T$11)
     369                    
     370                    $C$DW$65        .dwtag  DW_TAG_formal_parameter
     371                            .dwattr $C$DW$65, DW_AT_type(*$C$DW$T$11)
     372                    
     373                            .dwendtag $C$DW$63
     374                    
     375                    
     376                    $C$DW$66        .dwtag  DW_TAG_subprogram
     377                            .dwattr $C$DW$66, DW_AT_name("McASPPinDirOutputSet")
     378                            .dwattr $C$DW$66, DW_AT_TI_symbol_name("McASPPinDirOutputSet")
     379                            .dwattr $C$DW$66, DW_AT_declaration
     380                            .dwattr $C$DW$66, DW_AT_external
     381                            .dwattr $C$DW$66, DW_AT_decl_file("C:/ti/OMAPL138_StarterWare_1_10_04_01/include/mcasp.h")
     382                            .dwattr $C$DW$66, DW_AT_decl_line(0x1cd)
     383                            .dwattr $C$DW$66, DW_AT_decl_column(0x0d)
     384                    $C$DW$67        .dwtag  DW_TAG_formal_parameter
     385                            .dwattr $C$DW$67, DW_AT_type(*$C$DW$T$11)
TMS320C6x Assembler PC v8.1.3 Fri Apr 14 08:40:18 2017

Tools Copyright (c) 1996-2015 Texas Instruments Incorporated
AudioInterface.asm                                                   PAGE    8

     386                    
     387                    $C$DW$68        .dwtag  DW_TAG_formal_parameter
     388                            .dwattr $C$DW$68, DW_AT_type(*$C$DW$T$11)
     389                    
     390                            .dwendtag $C$DW$66
     391                    
     392                    
     393                    $C$DW$69        .dwtag  DW_TAG_subprogram
     394                            .dwattr $C$DW$69, DW_AT_name("McASPPinDirInputSet")
     395                            .dwattr $C$DW$69, DW_AT_TI_symbol_name("McASPPinDirInputSet")
     396                            .dwattr $C$DW$69, DW_AT_declaration
     397                            .dwattr $C$DW$69, DW_AT_external
     398                            .dwattr $C$DW$69, DW_AT_decl_file("C:/ti/OMAPL138_StarterWare_1_10_04_01/include/mcasp.h")
     399                            .dwattr $C$DW$69, DW_AT_decl_line(0x1ce)
     400                            .dwattr $C$DW$69, DW_AT_decl_column(0x0d)
     401                    $C$DW$70        .dwtag  DW_TAG_formal_parameter
     402                            .dwattr $C$DW$70, DW_AT_type(*$C$DW$T$11)
     403                    
     404                    $C$DW$71        .dwtag  DW_TAG_formal_parameter
     405                            .dwattr $C$DW$71, DW_AT_type(*$C$DW$T$11)
     406                    
     407                            .dwendtag $C$DW$69
     408                    
     409                    
     410                    $C$DW$72        .dwtag  DW_TAG_subprogram
     411                            .dwattr $C$DW$72, DW_AT_name("McASPPinMcASPSet")
     412                            .dwattr $C$DW$72, DW_AT_TI_symbol_name("McASPPinMcASPSet")
     413                            .dwattr $C$DW$72, DW_AT_declaration
     414                            .dwattr $C$DW$72, DW_AT_external
     415                            .dwattr $C$DW$72, DW_AT_decl_file("C:/ti/OMAPL138_StarterWare_1_10_04_01/include/mcasp.h")
     416                            .dwattr $C$DW$72, DW_AT_decl_line(0x1cf)
     417                            .dwattr $C$DW$72, DW_AT_decl_column(0x0d)
     418                    $C$DW$73        .dwtag  DW_TAG_formal_parameter
     419                            .dwattr $C$DW$73, DW_AT_type(*$C$DW$T$11)
     420                    
     421                    $C$DW$74        .dwtag  DW_TAG_formal_parameter
     422                            .dwattr $C$DW$74, DW_AT_type(*$C$DW$T$11)
     423                    
     424                            .dwendtag $C$DW$72
     425                    
     426                    
     427                    $C$DW$75        .dwtag  DW_TAG_subprogram
     428                            .dwattr $C$DW$75, DW_AT_name("McASPTxTimeSlotSet")
     429                            .dwattr $C$DW$75, DW_AT_TI_symbol_name("McASPTxTimeSlotSet")
     430                            .dwattr $C$DW$75, DW_AT_declaration
     431                            .dwattr $C$DW$75, DW_AT_external
     432                            .dwattr $C$DW$75, DW_AT_decl_file("C:/ti/OMAPL138_StarterWare_1_10_04_01/include/mcasp.h")
     433                            .dwattr $C$DW$75, DW_AT_decl_line(0x1d1)
     434                            .dwattr $C$DW$75, DW_AT_decl_column(0x0d)
     435                    $C$DW$76        .dwtag  DW_TAG_formal_parameter
     436                            .dwattr $C$DW$76, DW_AT_type(*$C$DW$T$11)
     437                    
     438                    $C$DW$77        .dwtag  DW_TAG_formal_parameter
     439                            .dwattr $C$DW$77, DW_AT_type(*$C$DW$T$11)
     440                    
TMS320C6x Assembler PC v8.1.3 Fri Apr 14 08:40:18 2017

Tools Copyright (c) 1996-2015 Texas Instruments Incorporated
AudioInterface.asm                                                   PAGE    9

     441                            .dwendtag $C$DW$75
     442                    
     443                    
     444                    $C$DW$78        .dwtag  DW_TAG_subprogram
     445                            .dwattr $C$DW$78, DW_AT_name("McASPRxTimeSlotSet")
     446                            .dwattr $C$DW$78, DW_AT_TI_symbol_name("McASPRxTimeSlotSet")
     447                            .dwattr $C$DW$78, DW_AT_declaration
     448                            .dwattr $C$DW$78, DW_AT_external
     449                            .dwattr $C$DW$78, DW_AT_decl_file("C:/ti/OMAPL138_StarterWare_1_10_04_01/include/mcasp.h")
     450                            .dwattr $C$DW$78, DW_AT_decl_line(0x1d2)
     451                            .dwattr $C$DW$78, DW_AT_decl_column(0x0d)
     452                    $C$DW$79        .dwtag  DW_TAG_formal_parameter
     453                            .dwattr $C$DW$79, DW_AT_type(*$C$DW$T$11)
     454                    
     455                    $C$DW$80        .dwtag  DW_TAG_formal_parameter
     456                            .dwattr $C$DW$80, DW_AT_type(*$C$DW$T$11)
     457                    
     458                            .dwendtag $C$DW$78
     459                    
     460                    
     461                    $C$DW$81        .dwtag  DW_TAG_subprogram
     462                            .dwattr $C$DW$81, DW_AT_name("McASPTxIntEnable")
     463                            .dwattr $C$DW$81, DW_AT_TI_symbol_name("McASPTxIntEnable")
     464                            .dwattr $C$DW$81, DW_AT_declaration
     465                            .dwattr $C$DW$81, DW_AT_external
     466                            .dwattr $C$DW$81, DW_AT_decl_file("C:/ti/OMAPL138_StarterWare_1_10_04_01/include/mcasp.h")
     467                            .dwattr $C$DW$81, DW_AT_decl_line(0x1d5)
     468                            .dwattr $C$DW$81, DW_AT_decl_column(0x0d)
     469                    $C$DW$82        .dwtag  DW_TAG_formal_parameter
     470                            .dwattr $C$DW$82, DW_AT_type(*$C$DW$T$11)
     471                    
     472                    $C$DW$83        .dwtag  DW_TAG_formal_parameter
     473                            .dwattr $C$DW$83, DW_AT_type(*$C$DW$T$11)
     474                    
     475                            .dwendtag $C$DW$81
     476                    
     477                    
     478                    $C$DW$84        .dwtag  DW_TAG_subprogram
     479                            .dwattr $C$DW$84, DW_AT_name("McASPRxIntEnable")
     480                            .dwattr $C$DW$84, DW_AT_TI_symbol_name("McASPRxIntEnable")
     481                            .dwattr $C$DW$84, DW_AT_declaration
     482                            .dwattr $C$DW$84, DW_AT_external
     483                            .dwattr $C$DW$84, DW_AT_decl_file("C:/ti/OMAPL138_StarterWare_1_10_04_01/include/mcasp.h")
     484                            .dwattr $C$DW$84, DW_AT_decl_line(0x1d6)
     485                            .dwattr $C$DW$84, DW_AT_decl_column(0x0d)
     486                    $C$DW$85        .dwtag  DW_TAG_formal_parameter
     487                            .dwattr $C$DW$85, DW_AT_type(*$C$DW$T$11)
     488                    
     489                    $C$DW$86        .dwtag  DW_TAG_formal_parameter
     490                            .dwattr $C$DW$86, DW_AT_type(*$C$DW$T$11)
     491                    
     492                            .dwendtag $C$DW$84
     493                    
     494                    
     495                    $C$DW$87        .dwtag  DW_TAG_subprogram
TMS320C6x Assembler PC v8.1.3 Fri Apr 14 08:40:18 2017

Tools Copyright (c) 1996-2015 Texas Instruments Incorporated
AudioInterface.asm                                                   PAGE   10

     496                            .dwattr $C$DW$87, DW_AT_name("McASPTxClkStart")
     497                            .dwattr $C$DW$87, DW_AT_TI_symbol_name("McASPTxClkStart")
     498                            .dwattr $C$DW$87, DW_AT_declaration
     499                            .dwattr $C$DW$87, DW_AT_external
     500                            .dwattr $C$DW$87, DW_AT_decl_file("C:/ti/OMAPL138_StarterWare_1_10_04_01/include/mcasp.h")
     501                            .dwattr $C$DW$87, DW_AT_decl_line(0x1d7)
     502                            .dwattr $C$DW$87, DW_AT_decl_column(0x0d)
     503                    $C$DW$88        .dwtag  DW_TAG_formal_parameter
     504                            .dwattr $C$DW$88, DW_AT_type(*$C$DW$T$11)
     505                    
     506                    $C$DW$89        .dwtag  DW_TAG_formal_parameter
     507                            .dwattr $C$DW$89, DW_AT_type(*$C$DW$T$11)
     508                    
     509                            .dwendtag $C$DW$87
     510                    
     511                    
     512                    $C$DW$90        .dwtag  DW_TAG_subprogram
     513                            .dwattr $C$DW$90, DW_AT_name("McASPRxClkStart")
     514                            .dwattr $C$DW$90, DW_AT_TI_symbol_name("McASPRxClkStart")
     515                            .dwattr $C$DW$90, DW_AT_declaration
     516                            .dwattr $C$DW$90, DW_AT_external
     517                            .dwattr $C$DW$90, DW_AT_decl_file("C:/ti/OMAPL138_StarterWare_1_10_04_01/include/mcasp.h")
     518                            .dwattr $C$DW$90, DW_AT_decl_line(0x1d8)
     519                            .dwattr $C$DW$90, DW_AT_decl_column(0x0d)
     520                    $C$DW$91        .dwtag  DW_TAG_formal_parameter
     521                            .dwattr $C$DW$91, DW_AT_type(*$C$DW$T$11)
     522                    
     523                    $C$DW$92        .dwtag  DW_TAG_formal_parameter
     524                            .dwattr $C$DW$92, DW_AT_type(*$C$DW$T$11)
     525                    
     526                            .dwendtag $C$DW$90
     527                    
     528                    
     529                    $C$DW$93        .dwtag  DW_TAG_subprogram
     530                            .dwattr $C$DW$93, DW_AT_name("McASPTxSerActivate")
     531                            .dwattr $C$DW$93, DW_AT_TI_symbol_name("McASPTxSerActivate")
     532                            .dwattr $C$DW$93, DW_AT_declaration
     533                            .dwattr $C$DW$93, DW_AT_external
     534                            .dwattr $C$DW$93, DW_AT_decl_file("C:/ti/OMAPL138_StarterWare_1_10_04_01/include/mcasp.h")
     535                            .dwattr $C$DW$93, DW_AT_decl_line(0x1d9)
     536                            .dwattr $C$DW$93, DW_AT_decl_column(0x0d)
     537                    $C$DW$94        .dwtag  DW_TAG_formal_parameter
     538                            .dwattr $C$DW$94, DW_AT_type(*$C$DW$T$11)
     539                    
     540                            .dwendtag $C$DW$93
     541                    
     542                    
     543                    $C$DW$95        .dwtag  DW_TAG_subprogram
     544                            .dwattr $C$DW$95, DW_AT_name("McASPRxSerActivate")
     545                            .dwattr $C$DW$95, DW_AT_TI_symbol_name("McASPRxSerActivate")
     546                            .dwattr $C$DW$95, DW_AT_declaration
     547                            .dwattr $C$DW$95, DW_AT_external
     548                            .dwattr $C$DW$95, DW_AT_decl_file("C:/ti/OMAPL138_StarterWare_1_10_04_01/include/mcasp.h")
     549                            .dwattr $C$DW$95, DW_AT_decl_line(0x1da)
     550                            .dwattr $C$DW$95, DW_AT_decl_column(0x0d)
TMS320C6x Assembler PC v8.1.3 Fri Apr 14 08:40:18 2017

Tools Copyright (c) 1996-2015 Texas Instruments Incorporated
AudioInterface.asm                                                   PAGE   11

     551                    $C$DW$96        .dwtag  DW_TAG_formal_parameter
     552                            .dwattr $C$DW$96, DW_AT_type(*$C$DW$T$11)
     553                    
     554                            .dwendtag $C$DW$95
     555                    
     556                    
     557                    $C$DW$97        .dwtag  DW_TAG_subprogram
     558                            .dwattr $C$DW$97, DW_AT_name("McASPTxEnable")
     559                            .dwattr $C$DW$97, DW_AT_TI_symbol_name("McASPTxEnable")
     560                            .dwattr $C$DW$97, DW_AT_declaration
     561                            .dwattr $C$DW$97, DW_AT_external
     562                            .dwattr $C$DW$97, DW_AT_decl_file("C:/ti/OMAPL138_StarterWare_1_10_04_01/include/mcasp.h")
     563                            .dwattr $C$DW$97, DW_AT_decl_line(0x1db)
     564                            .dwattr $C$DW$97, DW_AT_decl_column(0x0d)
     565                    $C$DW$98        .dwtag  DW_TAG_formal_parameter
     566                            .dwattr $C$DW$98, DW_AT_type(*$C$DW$T$11)
     567                    
     568                            .dwendtag $C$DW$97
     569                    
     570                    
     571                    $C$DW$99        .dwtag  DW_TAG_subprogram
     572                            .dwattr $C$DW$99, DW_AT_name("McASPRxEnable")
     573                            .dwattr $C$DW$99, DW_AT_TI_symbol_name("McASPRxEnable")
     574                            .dwattr $C$DW$99, DW_AT_declaration
     575                            .dwattr $C$DW$99, DW_AT_external
     576                            .dwattr $C$DW$99, DW_AT_decl_file("C:/ti/OMAPL138_StarterWare_1_10_04_01/include/mcasp.h")
     577                            .dwattr $C$DW$99, DW_AT_decl_line(0x1dc)
     578                            .dwattr $C$DW$99, DW_AT_decl_column(0x0d)
     579                    $C$DW$100       .dwtag  DW_TAG_formal_parameter
     580                            .dwattr $C$DW$100, DW_AT_type(*$C$DW$T$11)
     581                    
     582                            .dwendtag $C$DW$99
     583                    
     584                    
     585                    $C$DW$101       .dwtag  DW_TAG_subprogram
     586                            .dwattr $C$DW$101, DW_AT_name("McASPTxClkCheckConfig")
     587                            .dwattr $C$DW$101, DW_AT_TI_symbol_name("McASPTxClkCheckConfig")
     588                            .dwattr $C$DW$101, DW_AT_declaration
     589                            .dwattr $C$DW$101, DW_AT_external
     590                            .dwattr $C$DW$101, DW_AT_decl_file("C:/ti/OMAPL138_StarterWare_1_10_04_01/include/mcasp.h")
     591                            .dwattr $C$DW$101, DW_AT_decl_line(0x1e1)
     592                            .dwattr $C$DW$101, DW_AT_decl_column(0x0d)
     593                    $C$DW$102       .dwtag  DW_TAG_formal_parameter
     594                            .dwattr $C$DW$102, DW_AT_type(*$C$DW$T$11)
     595                    
     596                    $C$DW$103       .dwtag  DW_TAG_formal_parameter
     597                            .dwattr $C$DW$103, DW_AT_type(*$C$DW$T$11)
     598                    
     599                    $C$DW$104       .dwtag  DW_TAG_formal_parameter
     600                            .dwattr $C$DW$104, DW_AT_type(*$C$DW$T$6)
     601                    
     602                    $C$DW$105       .dwtag  DW_TAG_formal_parameter
     603                            .dwattr $C$DW$105, DW_AT_type(*$C$DW$T$6)
     604                    
     605                            .dwendtag $C$DW$101
TMS320C6x Assembler PC v8.1.3 Fri Apr 14 08:40:18 2017

Tools Copyright (c) 1996-2015 Texas Instruments Incorporated
AudioInterface.asm                                                   PAGE   12

     606                    
     607                    
     608                    $C$DW$106       .dwtag  DW_TAG_subprogram
     609                            .dwattr $C$DW$106, DW_AT_name("McASPRxClkCheckConfig")
     610                            .dwattr $C$DW$106, DW_AT_TI_symbol_name("McASPRxClkCheckConfig")
     611                            .dwattr $C$DW$106, DW_AT_declaration
     612                            .dwattr $C$DW$106, DW_AT_external
     613                            .dwattr $C$DW$106, DW_AT_decl_file("C:/ti/OMAPL138_StarterWare_1_10_04_01/include/mcasp.h")
     614                            .dwattr $C$DW$106, DW_AT_decl_line(0x1e4)
     615                            .dwattr $C$DW$106, DW_AT_decl_column(0x0d)
     616                    $C$DW$107       .dwtag  DW_TAG_formal_parameter
     617                            .dwattr $C$DW$107, DW_AT_type(*$C$DW$T$11)
     618                    
     619                    $C$DW$108       .dwtag  DW_TAG_formal_parameter
     620                            .dwattr $C$DW$108, DW_AT_type(*$C$DW$T$11)
     621                    
     622                    $C$DW$109       .dwtag  DW_TAG_formal_parameter
     623                            .dwattr $C$DW$109, DW_AT_type(*$C$DW$T$6)
     624                    
     625                    $C$DW$110       .dwtag  DW_TAG_formal_parameter
     626                            .dwattr $C$DW$110, DW_AT_type(*$C$DW$T$6)
     627                    
     628                            .dwendtag $C$DW$106
     629                    
     630                    
     631                    $C$DW$111       .dwtag  DW_TAG_subprogram
     632                            .dwattr $C$DW$111, DW_AT_name("McASPTxStatusGet")
     633                            .dwattr $C$DW$111, DW_AT_TI_symbol_name("McASPTxStatusGet")
     634                            .dwattr $C$DW$111, DW_AT_type(*$C$DW$T$11)
     635                            .dwattr $C$DW$111, DW_AT_declaration
     636                            .dwattr $C$DW$111, DW_AT_external
     637                            .dwattr $C$DW$111, DW_AT_decl_file("C:/ti/OMAPL138_StarterWare_1_10_04_01/include/mcasp.h")
     638                            .dwattr $C$DW$111, DW_AT_decl_line(0x1ea)
     639                            .dwattr $C$DW$111, DW_AT_decl_column(0x15)
     640                    $C$DW$112       .dwtag  DW_TAG_formal_parameter
     641                            .dwattr $C$DW$112, DW_AT_type(*$C$DW$T$11)
     642                    
     643                            .dwendtag $C$DW$111
     644                    
     645                    
     646                    $C$DW$113       .dwtag  DW_TAG_subprogram
     647                            .dwattr $C$DW$113, DW_AT_name("McASPRxStatusGet")
     648                            .dwattr $C$DW$113, DW_AT_TI_symbol_name("McASPRxStatusGet")
     649                            .dwattr $C$DW$113, DW_AT_type(*$C$DW$T$11)
     650                            .dwattr $C$DW$113, DW_AT_declaration
     651                            .dwattr $C$DW$113, DW_AT_external
     652                            .dwattr $C$DW$113, DW_AT_decl_file("C:/ti/OMAPL138_StarterWare_1_10_04_01/include/mcasp.h")
     653                            .dwattr $C$DW$113, DW_AT_decl_line(0x1eb)
     654                            .dwattr $C$DW$113, DW_AT_decl_column(0x15)
     655                    $C$DW$114       .dwtag  DW_TAG_formal_parameter
     656                            .dwattr $C$DW$114, DW_AT_type(*$C$DW$T$11)
     657                    
     658                            .dwendtag $C$DW$113
     659                    
     660                    
TMS320C6x Assembler PC v8.1.3 Fri Apr 14 08:40:18 2017

Tools Copyright (c) 1996-2015 Texas Instruments Incorporated
AudioInterface.asm                                                   PAGE   13

     661                    $C$DW$115       .dwtag  DW_TAG_subprogram
     662                            .dwattr $C$DW$115, DW_AT_name("PSCModuleControl")
     663                            .dwattr $C$DW$115, DW_AT_TI_symbol_name("PSCModuleControl")
     664                            .dwattr $C$DW$115, DW_AT_type(*$C$DW$T$10)
     665                            .dwattr $C$DW$115, DW_AT_declaration
     666                            .dwattr $C$DW$115, DW_AT_external
     667                            .dwattr $C$DW$115, DW_AT_decl_file("C:/ti/OMAPL138_StarterWare_1_10_04_01/include/psc.h")
     668                            .dwattr $C$DW$115, DW_AT_decl_line(0x3a)
     669                            .dwattr $C$DW$115, DW_AT_decl_column(0x05)
     670                    $C$DW$116       .dwtag  DW_TAG_formal_parameter
     671                            .dwattr $C$DW$116, DW_AT_type(*$C$DW$T$11)
     672                    
     673                    $C$DW$117       .dwtag  DW_TAG_formal_parameter
     674                            .dwattr $C$DW$117, DW_AT_type(*$C$DW$T$11)
     675                    
     676                    $C$DW$118       .dwtag  DW_TAG_formal_parameter
     677                            .dwattr $C$DW$118, DW_AT_type(*$C$DW$T$11)
     678                    
     679                    $C$DW$119       .dwtag  DW_TAG_formal_parameter
     680                            .dwattr $C$DW$119, DW_AT_type(*$C$DW$T$11)
     681                    
     682                            .dwendtag $C$DW$115
     683                    
     684                    
     685                    $C$DW$120       .dwtag  DW_TAG_subprogram
     686                            .dwattr $C$DW$120, DW_AT_name("EDMA3Init")
     687                            .dwattr $C$DW$120, DW_AT_TI_symbol_name("EDMA3Init")
     688                            .dwattr $C$DW$120, DW_AT_declaration
     689                            .dwattr $C$DW$120, DW_AT_external
     690                            .dwattr $C$DW$120, DW_AT_decl_file("C:/ti/OMAPL138_StarterWare_1_10_04_01/include/edma.h")
     691                            .dwattr $C$DW$120, DW_AT_decl_line(0x14e)
     692                            .dwattr $C$DW$120, DW_AT_decl_column(0x06)
     693                    $C$DW$121       .dwtag  DW_TAG_formal_parameter
     694                            .dwattr $C$DW$121, DW_AT_type(*$C$DW$T$11)
     695                    
     696                    $C$DW$122       .dwtag  DW_TAG_formal_parameter
     697                            .dwattr $C$DW$122, DW_AT_type(*$C$DW$T$11)
     698                    
     699                            .dwendtag $C$DW$120
     700                    
     701                    
     702                    $C$DW$123       .dwtag  DW_TAG_subprogram
     703                            .dwattr $C$DW$123, DW_AT_name("EDMA3GetIntrStatus")
     704                            .dwattr $C$DW$123, DW_AT_TI_symbol_name("EDMA3GetIntrStatus")
     705                            .dwattr $C$DW$123, DW_AT_type(*$C$DW$T$11)
     706                            .dwattr $C$DW$123, DW_AT_declaration
     707                            .dwattr $C$DW$123, DW_AT_external
     708                            .dwattr $C$DW$123, DW_AT_decl_file("C:/ti/OMAPL138_StarterWare_1_10_04_01/include/edma.h")
     709                            .dwattr $C$DW$123, DW_AT_decl_line(0x185)
     710                            .dwattr $C$DW$123, DW_AT_decl_column(0x0e)
     711                    $C$DW$124       .dwtag  DW_TAG_formal_parameter
     712                            .dwattr $C$DW$124, DW_AT_type(*$C$DW$T$11)
     713                    
     714                            .dwendtag $C$DW$123
     715                    
TMS320C6x Assembler PC v8.1.3 Fri Apr 14 08:40:18 2017

Tools Copyright (c) 1996-2015 Texas Instruments Incorporated
AudioInterface.asm                                                   PAGE   14

     716                    
     717                    $C$DW$125       .dwtag  DW_TAG_subprogram
     718                            .dwattr $C$DW$125, DW_AT_name("EDMA3ClrIntr")
     719                            .dwattr $C$DW$125, DW_AT_TI_symbol_name("EDMA3ClrIntr")
     720                            .dwattr $C$DW$125, DW_AT_declaration
     721                            .dwattr $C$DW$125, DW_AT_external
     722                            .dwattr $C$DW$125, DW_AT_decl_file("C:/ti/OMAPL138_StarterWare_1_10_04_01/include/edma.h")
     723                            .dwattr $C$DW$125, DW_AT_decl_line(0x18d)
     724                            .dwattr $C$DW$125, DW_AT_decl_column(0x06)
     725                    $C$DW$126       .dwtag  DW_TAG_formal_parameter
     726                            .dwattr $C$DW$126, DW_AT_type(*$C$DW$T$11)
     727                    
     728                    $C$DW$127       .dwtag  DW_TAG_formal_parameter
     729                            .dwattr $C$DW$127, DW_AT_type(*$C$DW$T$11)
     730                    
     731                            .dwendtag $C$DW$125
     732                    
     733                    
     734                    $C$DW$128       .dwtag  DW_TAG_subprogram
     735                            .dwattr $C$DW$128, DW_AT_name("EDMA3SetPaRAM")
     736                            .dwattr $C$DW$128, DW_AT_TI_symbol_name("EDMA3SetPaRAM")
     737                            .dwattr $C$DW$128, DW_AT_declaration
     738                            .dwattr $C$DW$128, DW_AT_external
     739                            .dwattr $C$DW$128, DW_AT_decl_file("C:/ti/OMAPL138_StarterWare_1_10_04_01/include/edma.h")
     740                            .dwattr $C$DW$128, DW_AT_decl_line(0x198)
     741                            .dwattr $C$DW$128, DW_AT_decl_column(0x06)
     742                    $C$DW$129       .dwtag  DW_TAG_formal_parameter
     743                            .dwattr $C$DW$129, DW_AT_type(*$C$DW$T$11)
     744                    
     745                    $C$DW$130       .dwtag  DW_TAG_formal_parameter
     746                            .dwattr $C$DW$130, DW_AT_type(*$C$DW$T$11)
     747                    
     748                    $C$DW$131       .dwtag  DW_TAG_formal_parameter
     749                            .dwattr $C$DW$131, DW_AT_type(*$C$DW$T$743)
     750                    
     751                            .dwendtag $C$DW$128
     752                    
     753                    
     754                    $C$DW$132       .dwtag  DW_TAG_subprogram
     755                            .dwattr $C$DW$132, DW_AT_name("EDMA3RequestChannel")
     756                            .dwattr $C$DW$132, DW_AT_TI_symbol_name("EDMA3RequestChannel")
     757                            .dwattr $C$DW$132, DW_AT_type(*$C$DW$T$11)
     758                            .dwattr $C$DW$132, DW_AT_declaration
     759                            .dwattr $C$DW$132, DW_AT_external
     760                            .dwattr $C$DW$132, DW_AT_decl_file("C:/ti/OMAPL138_StarterWare_1_10_04_01/include/edma.h")
     761                            .dwattr $C$DW$132, DW_AT_decl_line(0x1aa)
     762                            .dwattr $C$DW$132, DW_AT_decl_column(0x0e)
     763                    $C$DW$133       .dwtag  DW_TAG_formal_parameter
     764                            .dwattr $C$DW$133, DW_AT_type(*$C$DW$T$11)
     765                    
     766                    $C$DW$134       .dwtag  DW_TAG_formal_parameter
     767                            .dwattr $C$DW$134, DW_AT_type(*$C$DW$T$11)
     768                    
     769                    $C$DW$135       .dwtag  DW_TAG_formal_parameter
     770                            .dwattr $C$DW$135, DW_AT_type(*$C$DW$T$11)
TMS320C6x Assembler PC v8.1.3 Fri Apr 14 08:40:18 2017

Tools Copyright (c) 1996-2015 Texas Instruments Incorporated
AudioInterface.asm                                                   PAGE   15

     771                    
     772                    $C$DW$136       .dwtag  DW_TAG_formal_parameter
     773                            .dwattr $C$DW$136, DW_AT_type(*$C$DW$T$11)
     774                    
     775                    $C$DW$137       .dwtag  DW_TAG_formal_parameter
     776                            .dwattr $C$DW$137, DW_AT_type(*$C$DW$T$11)
     777                    
     778                            .dwendtag $C$DW$132
     779                    
     780                    
     781                    $C$DW$138       .dwtag  DW_TAG_subprogram
     782                            .dwattr $C$DW$138, DW_AT_name("EDMA3EnableTransfer")
     783                            .dwattr $C$DW$138, DW_AT_TI_symbol_name("EDMA3EnableTransfer")
     784                            .dwattr $C$DW$138, DW_AT_type(*$C$DW$T$11)
     785                            .dwattr $C$DW$138, DW_AT_declaration
     786                            .dwattr $C$DW$138, DW_AT_external
     787                            .dwattr $C$DW$138, DW_AT_decl_file("C:/ti/OMAPL138_StarterWare_1_10_04_01/include/edma.h")
     788                            .dwattr $C$DW$138, DW_AT_decl_line(0x1b2)
     789                            .dwattr $C$DW$138, DW_AT_decl_column(0x0e)
     790                    $C$DW$139       .dwtag  DW_TAG_formal_parameter
     791                            .dwattr $C$DW$139, DW_AT_type(*$C$DW$T$11)
     792                    
     793                    $C$DW$140       .dwtag  DW_TAG_formal_parameter
     794                            .dwattr $C$DW$140, DW_AT_type(*$C$DW$T$11)
     795                    
     796                    $C$DW$141       .dwtag  DW_TAG_formal_parameter
     797                            .dwattr $C$DW$141, DW_AT_type(*$C$DW$T$11)
     798                    
     799                            .dwendtag $C$DW$138
     800                    
     801                    
     802                    $C$DW$142       .dwtag  DW_TAG_subprogram
     803                            .dwattr $C$DW$142, DW_AT_name("I2CCodecIfInit")
     804                            .dwattr $C$DW$142, DW_AT_TI_symbol_name("I2CCodecIfInit")
     805                            .dwattr $C$DW$142, DW_AT_declaration
     806                            .dwattr $C$DW$142, DW_AT_external
     807                            .dwattr $C$DW$142, DW_AT_decl_file("C:/Users/Raz Aloni/OneDrive/School/EEL4924/DSP/C_Libs/Audi
     808                            .dwattr $C$DW$142, DW_AT_decl_line(0x35)
     809                            .dwattr $C$DW$142, DW_AT_decl_column(0x0d)
     810                    $C$DW$143       .dwtag  DW_TAG_formal_parameter
     811                            .dwattr $C$DW$143, DW_AT_type(*$C$DW$T$11)
     812                    
     813                    $C$DW$144       .dwtag  DW_TAG_formal_parameter
     814                            .dwattr $C$DW$144, DW_AT_type(*$C$DW$T$11)
     815                    
     816                    $C$DW$145       .dwtag  DW_TAG_formal_parameter
     817                            .dwattr $C$DW$145, DW_AT_type(*$C$DW$T$11)
     818                    
     819                            .dwendtag $C$DW$142
     820                    
     821                    
     822                    $C$DW$146       .dwtag  DW_TAG_subprogram
     823                            .dwattr $C$DW$146, DW_AT_name("AIC31Reset")
     824                            .dwattr $C$DW$146, DW_AT_TI_symbol_name("AIC31Reset")
     825                            .dwattr $C$DW$146, DW_AT_declaration
TMS320C6x Assembler PC v8.1.3 Fri Apr 14 08:40:18 2017

Tools Copyright (c) 1996-2015 Texas Instruments Incorporated
AudioInterface.asm                                                   PAGE   16

     826                            .dwattr $C$DW$146, DW_AT_external
     827                            .dwattr $C$DW$146, DW_AT_decl_file("C:/Users/Raz Aloni/OneDrive/School/EEL4924/DSP/C_Libs/Audi
     828                            .dwattr $C$DW$146, DW_AT_decl_line(0x40)
     829                            .dwattr $C$DW$146, DW_AT_decl_column(0x0d)
     830                    $C$DW$147       .dwtag  DW_TAG_formal_parameter
     831                            .dwattr $C$DW$147, DW_AT_type(*$C$DW$T$11)
     832                    
     833                            .dwendtag $C$DW$146
     834                    
     835                    
     836                    $C$DW$148       .dwtag  DW_TAG_subprogram
     837                            .dwattr $C$DW$148, DW_AT_name("AIC31DataConfig")
     838                            .dwattr $C$DW$148, DW_AT_TI_symbol_name("AIC31DataConfig")
     839                            .dwattr $C$DW$148, DW_AT_declaration
     840                            .dwattr $C$DW$148, DW_AT_external
     841                            .dwattr $C$DW$148, DW_AT_decl_file("C:/Users/Raz Aloni/OneDrive/School/EEL4924/DSP/C_Libs/Audi
     842                            .dwattr $C$DW$148, DW_AT_decl_line(0x41)
     843                            .dwattr $C$DW$148, DW_AT_decl_column(0x0d)
     844                    $C$DW$149       .dwtag  DW_TAG_formal_parameter
     845                            .dwattr $C$DW$149, DW_AT_type(*$C$DW$T$11)
     846                    
     847                    $C$DW$150       .dwtag  DW_TAG_formal_parameter
     848                            .dwattr $C$DW$150, DW_AT_type(*$C$DW$T$6)
     849                    
     850                    $C$DW$151       .dwtag  DW_TAG_formal_parameter
     851                            .dwattr $C$DW$151, DW_AT_type(*$C$DW$T$6)
     852                    
     853                    $C$DW$152       .dwtag  DW_TAG_formal_parameter
     854                            .dwattr $C$DW$152, DW_AT_type(*$C$DW$T$6)
     855                    
     856                            .dwendtag $C$DW$148
     857                    
     858                    
     859                    $C$DW$153       .dwtag  DW_TAG_subprogram
     860                            .dwattr $C$DW$153, DW_AT_name("AIC31SampleRateConfig")
     861                            .dwattr $C$DW$153, DW_AT_TI_symbol_name("AIC31SampleRateConfig")
     862                            .dwattr $C$DW$153, DW_AT_declaration
     863                            .dwattr $C$DW$153, DW_AT_external
     864                            .dwattr $C$DW$153, DW_AT_decl_file("C:/Users/Raz Aloni/OneDrive/School/EEL4924/DSP/C_Libs/Audi
     865                            .dwattr $C$DW$153, DW_AT_decl_line(0x43)
     866                            .dwattr $C$DW$153, DW_AT_decl_column(0x0d)
     867                    $C$DW$154       .dwtag  DW_TAG_formal_parameter
     868                            .dwattr $C$DW$154, DW_AT_type(*$C$DW$T$11)
     869                    
     870                    $C$DW$155       .dwtag  DW_TAG_formal_parameter
     871                            .dwattr $C$DW$155, DW_AT_type(*$C$DW$T$11)
     872                    
     873                    $C$DW$156       .dwtag  DW_TAG_formal_parameter
     874                            .dwattr $C$DW$156, DW_AT_type(*$C$DW$T$11)
     875                    
     876                            .dwendtag $C$DW$153
     877                    
     878                    
     879                    $C$DW$157       .dwtag  DW_TAG_subprogram
     880                            .dwattr $C$DW$157, DW_AT_name("AIC31ADCInit")
TMS320C6x Assembler PC v8.1.3 Fri Apr 14 08:40:18 2017

Tools Copyright (c) 1996-2015 Texas Instruments Incorporated
AudioInterface.asm                                                   PAGE   17

     881                            .dwattr $C$DW$157, DW_AT_TI_symbol_name("AIC31ADCInit")
     882                            .dwattr $C$DW$157, DW_AT_declaration
     883                            .dwattr $C$DW$157, DW_AT_external
     884                            .dwattr $C$DW$157, DW_AT_decl_file("C:/Users/Raz Aloni/OneDrive/School/EEL4924/DSP/C_Libs/Audi
     885                            .dwattr $C$DW$157, DW_AT_decl_line(0x45)
     886                            .dwattr $C$DW$157, DW_AT_decl_column(0x0d)
     887                    $C$DW$158       .dwtag  DW_TAG_formal_parameter
     888                            .dwattr $C$DW$158, DW_AT_type(*$C$DW$T$11)
     889                    
     890                            .dwendtag $C$DW$157
     891                    
     892                    
     893                    $C$DW$159       .dwtag  DW_TAG_subprogram
     894                            .dwattr $C$DW$159, DW_AT_name("AIC31LeftPGAGain")
     895                            .dwattr $C$DW$159, DW_AT_TI_symbol_name("AIC31LeftPGAGain")
     896                            .dwattr $C$DW$159, DW_AT_declaration
     897                            .dwattr $C$DW$159, DW_AT_external
     898                            .dwattr $C$DW$159, DW_AT_decl_file("C:/Users/Raz Aloni/OneDrive/School/EEL4924/DSP/C_Libs/Audi
     899                            .dwattr $C$DW$159, DW_AT_decl_line(0x49)
     900                            .dwattr $C$DW$159, DW_AT_decl_column(0x0d)
     901                    $C$DW$160       .dwtag  DW_TAG_formal_parameter
     902                            .dwattr $C$DW$160, DW_AT_type(*$C$DW$T$11)
     903                    
     904                    $C$DW$161       .dwtag  DW_TAG_formal_parameter
     905                            .dwattr $C$DW$161, DW_AT_type(*$C$DW$T$6)
     906                    
     907                            .dwendtag $C$DW$159
     908                    
     909                    $C$DW$162       .dwtag  DW_TAG_variable
     910                            .dwattr $C$DW$162, DW_AT_name("AudioRxBufferQueue")
     911                            .dwattr $C$DW$162, DW_AT_TI_symbol_name("AudioRxBufferQueue")
     912                            .dwattr $C$DW$162, DW_AT_type(*$C$DW$T$1792)
     913                            .dwattr $C$DW$162, DW_AT_declaration
     914                            .dwattr $C$DW$162, DW_AT_external
     915                            .dwattr $C$DW$162, DW_AT_decl_file("C:/Users/Raz Aloni/OneDrive/School/EEL4924/DSP/DSP_Workspa
     916                            .dwattr $C$DW$162, DW_AT_decl_line(0x11)
     917                            .dwattr $C$DW$162, DW_AT_decl_column(0x2a)
     918                    
     919                    $C$DW$163       .dwtag  DW_TAG_variable
     920                            .dwattr $C$DW$163, DW_AT_name("AudioRxQueueSem")
     921                            .dwattr $C$DW$163, DW_AT_TI_symbol_name("AudioRxQueueSem")
     922                            .dwattr $C$DW$163, DW_AT_type(*$C$DW$T$1812)
     923                            .dwattr $C$DW$163, DW_AT_declaration
     924                            .dwattr $C$DW$163, DW_AT_external
     925                            .dwattr $C$DW$163, DW_AT_decl_file("C:/Users/Raz Aloni/OneDrive/School/EEL4924/DSP/DSP_Workspa
     926                            .dwattr $C$DW$163, DW_AT_decl_line(0x14)
     927                            .dwattr $C$DW$163, DW_AT_decl_column(0x2e)
     928                    
     929                            .global RXPingPong
     930                            .farcommon      RXPingPong,8192,8
     931                    $C$DW$164       .dwtag  DW_TAG_variable
     932                            .dwattr $C$DW$164, DW_AT_name("RXPingPong")
     933                            .dwattr $C$DW$164, DW_AT_TI_symbol_name("RXPingPong")
     934                            .dwattr $C$DW$164, DW_AT_location[DW_OP_addr RXPingPong]
     935                            .dwattr $C$DW$164, DW_AT_type(*$C$DW$T$1110)
TMS320C6x Assembler PC v8.1.3 Fri Apr 14 08:40:18 2017

Tools Copyright (c) 1996-2015 Texas Instruments Incorporated
AudioInterface.asm                                                   PAGE   18

     936                            .dwattr $C$DW$164, DW_AT_external
     937                            .dwattr $C$DW$164, DW_AT_decl_file("C:/Users/Raz Aloni/OneDrive/School/EEL4924/DSP/C_Libs/Audi
     938                            .dwattr $C$DW$164, DW_AT_decl_line(0x28)
     939                            .dwattr $C$DW$164, DW_AT_decl_column(0x07)
     940                    
     941                            .global TXPingPong
     942                            .farcommon      TXPingPong,2048,8
     943                    $C$DW$165       .dwtag  DW_TAG_variable
     944                            .dwattr $C$DW$165, DW_AT_name("TXPingPong")
     945                            .dwattr $C$DW$165, DW_AT_TI_symbol_name("TXPingPong")
     946                            .dwattr $C$DW$165, DW_AT_location[DW_OP_addr TXPingPong]
     947                            .dwattr $C$DW$165, DW_AT_type(*$C$DW$T$1112)
     948                            .dwattr $C$DW$165, DW_AT_external
     949                            .dwattr $C$DW$165, DW_AT_decl_file("C:/Users/Raz Aloni/OneDrive/School/EEL4924/DSP/C_Libs/Audi
     950                            .dwattr $C$DW$165, DW_AT_decl_line(0x2b)
     951                            .dwattr $C$DW$165, DW_AT_decl_column(0x07)
     952                    
     953 00000000                   .sect   ".fardata:LoopBuffer", RW
     954                            .clink
     955                            .align  8
     956                            .elfsym LoopBuffer,SYM_SIZE(80)
     957 00000000           LoopBuffer:
     958 00000000 00000000          .bits   0,16                    ; LoopBuffer[0] @ 0
     959 00000002                   .space  78
     960                    
     961                    $C$DW$166       .dwtag  DW_TAG_variable
     962                            .dwattr $C$DW$166, DW_AT_name("LoopBuffer")
     963                            .dwattr $C$DW$166, DW_AT_TI_symbol_name("LoopBuffer")
     964                            .dwattr $C$DW$166, DW_AT_type(*$C$DW$T$1114)
     965                            .dwattr $C$DW$166, DW_AT_location[DW_OP_addr LoopBuffer]
     966                            .dwattr $C$DW$166, DW_AT_decl_file("C:/Users/Raz Aloni/OneDrive/School/EEL4924/DSP/C_Libs/Audi
     967                            .dwattr $C$DW$166, DW_AT_decl_line(0x31)
     968                            .dwattr $C$DW$166, DW_AT_decl_column(0x0e)
     969                    
     970                            .farcommon      TXParamRAMS,8,8
     971                    $C$DW$167       .dwtag  DW_TAG_variable
     972                            .dwattr $C$DW$167, DW_AT_name("TXParamRAMS")
     973                            .dwattr $C$DW$167, DW_AT_TI_symbol_name("TXParamRAMS")
     974                            .dwattr $C$DW$167, DW_AT_type(*$C$DW$T$744)
     975                            .dwattr $C$DW$167, DW_AT_location[DW_OP_addr TXParamRAMS]
     976                            .dwattr $C$DW$167, DW_AT_decl_file("C:/Users/Raz Aloni/OneDrive/School/EEL4924/DSP/C_Libs/Audi
     977                            .dwattr $C$DW$167, DW_AT_decl_line(0x35)
     978                            .dwattr $C$DW$167, DW_AT_decl_column(0x1c)
     979                    
     980                            .global RxPingPongParams
     981 00000000                   .sect   ".const"
     982                            .align  4
     983                            .elfsym RxPingPongParams,SYM_SIZE(32)
     984 00000000           RxPingPongParams:
     985 00000000 00100100          .bits   1048832,32                      ; RxPingPongParams.opt @ 0
     986 00000004 01D02000          .bits   30416896,32                     ; RxPingPongParams.srcAddr @ 32
     987 00000008 00000002          .bits   2,16                    ; RxPingPongParams.aCnt @ 64
     988 00000008 02000002          .bits   512,16                  ; RxPingPongParams.bCnt @ 80
     989 0000000c 00000000!         .bits   RXPingPong,32           ; RxPingPongParams.destAddr @ 96
     990 00000010 00000000          .bits   0,16                    ; RxPingPongParams.srcBIdx @ 128
TMS320C6x Assembler PC v8.1.3 Fri Apr 14 08:40:18 2017

Tools Copyright (c) 1996-2015 Texas Instruments Incorporated
AudioInterface.asm                                                   PAGE   19

     991 00000010 00020000          .bits   2,16                    ; RxPingPongParams.destBIdx @ 144
     992 00000014 00004520          .bits   17696,16                        ; RxPingPongParams.linkAddr @ 160
     993 00000014 00004520          .bits   0,16                    ; RxPingPongParams.bCntReload @ 176
     994 00000018 00000000          .bits   0,16                    ; RxPingPongParams.srcCIdx @ 192
     995 00000018 00000000          .bits   0,16                    ; RxPingPongParams.destCIdx @ 208
     996 0000001c 00000001          .bits   1,16                    ; RxPingPongParams.cCnt @ 224
     997 0000001c 00000001          .bits   0,16
     998                    
     999                    $C$DW$168       .dwtag  DW_TAG_variable
    1000                            .dwattr $C$DW$168, DW_AT_name("RxPingPongParams")
    1001                            .dwattr $C$DW$168, DW_AT_TI_symbol_name("RxPingPongParams")
    1002                            .dwattr $C$DW$168, DW_AT_location[DW_OP_addr RxPingPongParams]
    1003                            .dwattr $C$DW$168, DW_AT_type(*$C$DW$T$742)
    1004                            .dwattr $C$DW$168, DW_AT_external
    1005                            .dwattr $C$DW$168, DW_AT_decl_file("C:/Users/Raz Aloni/OneDrive/School/EEL4924/DSP/C_Libs/Audi
    1006                            .dwattr $C$DW$168, DW_AT_decl_line(0x82)
    1007                            .dwattr $C$DW$168, DW_AT_decl_column(0x1a)
    1008                    
    1009                            .global TxPingPongParams
    1010 00000020                   .sect   ".const"
    1011                            .align  4
    1012                            .elfsym TxPingPongParams,SYM_SIZE(32)
    1013 00000020           TxPingPongParams:
    1014 00000020 00001100          .bits   4352,32                 ; TxPingPongParams.opt @ 0
    1015 00000024 00000000!         .bits   LoopBuffer,32           ; TxPingPongParams.srcAddr @ 32
    1016 00000028 00000002          .bits   2,16                    ; TxPingPongParams.aCnt @ 64
    1017 00000028 00280002          .bits   40,16                   ; TxPingPongParams.bCnt @ 80
    1018 0000002c 01D02000          .bits   30416896,32                     ; TxPingPongParams.destAddr @ 96
    1019 00000030 00000002          .bits   2,16                    ; TxPingPongParams.srcBIdx @ 128
    1020 00000030 00000002          .bits   0,16                    ; TxPingPongParams.destBIdx @ 144
    1021 00000034 00004600          .bits   17920,16                        ; TxPingPongParams.linkAddr @ 160
    1022 00000034 00004600          .bits   0,16                    ; TxPingPongParams.bCntReload @ 176
    1023 00000038 00000000          .bits   0,16                    ; TxPingPongParams.srcCIdx @ 192
    1024 00000038 00000000          .bits   0,16                    ; TxPingPongParams.destCIdx @ 208
    1025 0000003c 00000001          .bits   1,16                    ; TxPingPongParams.cCnt @ 224
    1026 0000003c 00000001          .bits   0,16
    1027                    
    1028                    $C$DW$169       .dwtag  DW_TAG_variable
    1029                            .dwattr $C$DW$169, DW_AT_name("TxPingPongParams")
    1030                            .dwattr $C$DW$169, DW_AT_TI_symbol_name("TxPingPongParams")
    1031                            .dwattr $C$DW$169, DW_AT_location[DW_OP_addr TxPingPongParams]
    1032                            .dwattr $C$DW$169, DW_AT_type(*$C$DW$T$742)
    1033                            .dwattr $C$DW$169, DW_AT_external
    1034                            .dwattr $C$DW$169, DW_AT_decl_file("C:/Users/Raz Aloni/OneDrive/School/EEL4924/DSP/C_Libs/Audi
    1035                            .dwattr $C$DW$169, DW_AT_decl_line(0xa7)
    1036                            .dwattr $C$DW$169, DW_AT_decl_column(0x1a)
    1037                    
    1038 00000000                   .sect   ".rodata"
    1039                            .align  4
    1040                            .elfsym sysConfigRegs,SYM_SIZE(4)
    1041 00000000           sysConfigRegs:
    1042 00000000 01C14000          .bits   29442048,32                     ; sysConfigRegs @ 0
    1043                    
    1044                    $C$DW$170       .dwtag  DW_TAG_variable
    1045                            .dwattr $C$DW$170, DW_AT_name("sysConfigRegs")
TMS320C6x Assembler PC v8.1.3 Fri Apr 14 08:40:18 2017

Tools Copyright (c) 1996-2015 Texas Instruments Incorporated
AudioInterface.asm                                                   PAGE   20

    1046                            .dwattr $C$DW$170, DW_AT_TI_symbol_name("sysConfigRegs")
    1047                            .dwattr $C$DW$170, DW_AT_type(*$C$DW$T$706)
    1048                            .dwattr $C$DW$170, DW_AT_location[DW_OP_addr sysConfigRegs]
    1049                            .dwattr $C$DW$170, DW_AT_decl_file("C:/Users/Raz Aloni/OneDrive/School/EEL4924/DSP/C_Libs/Audi
    1050                            .dwattr $C$DW$170, DW_AT_decl_line(0xd0)
    1051                            .dwattr $C$DW$170, DW_AT_decl_column(0x1b)
    1052                    
    1053 00000004                   .sect   ".rodata"
    1054                            .align  4
    1055                            .elfsym mcaspRegs,SYM_SIZE(4)
    1056 00000004           mcaspRegs:
    1057 00000004 01D00000          .bits   30408704,32                     ; mcaspRegs @ 0
    1058                    
    1059                    $C$DW$171       .dwtag  DW_TAG_variable
    1060                            .dwattr $C$DW$171, DW_AT_name("mcaspRegs")
    1061                            .dwattr $C$DW$171, DW_AT_TI_symbol_name("mcaspRegs")
    1062                            .dwattr $C$DW$171, DW_AT_type(*$C$DW$T$713)
    1063                            .dwattr $C$DW$171, DW_AT_location[DW_OP_addr mcaspRegs]
    1064                            .dwattr $C$DW$171, DW_AT_decl_file("C:/Users/Raz Aloni/OneDrive/School/EEL4924/DSP/C_Libs/Audi
    1065                            .dwattr $C$DW$171, DW_AT_decl_line(0xd1)
    1066                            .dwattr $C$DW$171, DW_AT_decl_column(0x1a)
    1067                    
    1068 00000000                   .sect   ".neardata", RW
    1069                            .align  4
    1070                            .elfsym RxBuffIndex$1,SYM_SIZE(4)
    1071 00000000           RxBuffIndex$1:
    1072 00000000 00000000          .bits   0,32                    ; RxBuffIndex$1 @ 0
    1073                    
    1074                            .farcommon      Msg$2,12,4
    1075 00000004                   .sect   ".neardata", RW
    1076                            .align  4
    1077                            .elfsym TxBuffIndex$3,SYM_SIZE(4)
    1078 00000004           TxBuffIndex$3:
    1079 00000004 00000000          .bits   0,32                    ; TxBuffIndex$3 @ 0
    1080                    
    1081                    ;       C:\ti\ccsv7\tools\compiler\ti-cgt-c6000_8.1.3\bin\opt6x.exe C:\\Users\\RAZALO~1\\AppData\\Loca
    1082 00000000                   .sect   ".text"
    1083                            .clink
    1084                    
    1085                    $C$DW$172       .dwtag  DW_TAG_subprogram
    1086                            .dwattr $C$DW$172, DW_AT_name("AudioAICInit")
    1087                            .dwattr $C$DW$172, DW_AT_low_pc(AudioAICInit)
    1088                            .dwattr $C$DW$172, DW_AT_high_pc(0x00)
    1089                            .dwattr $C$DW$172, DW_AT_TI_symbol_name("AudioAICInit")
    1090                            .dwattr $C$DW$172, DW_AT_TI_begin_file("C:/Users/Raz Aloni/OneDrive/School/EEL4924/DSP/C_Libs/
    1091                            .dwattr $C$DW$172, DW_AT_TI_begin_line(0x152)
    1092                            .dwattr $C$DW$172, DW_AT_TI_begin_column(0x0d)
    1093                            .dwattr $C$DW$172, DW_AT_decl_file("C:/Users/Raz Aloni/OneDrive/School/EEL4924/DSP/C_Libs/Audi
    1094                            .dwattr $C$DW$172, DW_AT_decl_line(0x152)
    1095                            .dwattr $C$DW$172, DW_AT_decl_column(0x0d)
    1096                            .dwattr $C$DW$172, DW_AT_TI_max_frame_size(0x10)
    1097                            .dwpsn  file "C:/Users/Raz Aloni/OneDrive/School/EEL4924/DSP/C_Libs/AudioInterface/src/AudioIn
    1098                    
    1099                            .dwfde $C$DW$CIE, AudioAICInit
    1100                    
TMS320C6x Assembler PC v8.1.3 Fri Apr 14 08:40:18 2017

Tools Copyright (c) 1996-2015 Texas Instruments Incorporated
AudioInterface.asm                                                   PAGE   21

    1101                    ;******************************************************************************
    1102                    ;* FUNCTION NAME: AudioAICInit                                                *
    1103                    ;*                                                                            *
    1104                    ;*   Regs Modified     : A0,A1,A2,A3,A4,A5,A6,A7,A8,A9,A10,A11,A16,A17,A18,   *
    1105                    ;*                           A19,A20,A21,A22,A23,A24,A25,A26,A27,A28,A29,A30, *
    1106                    ;*                           A31,B0,B1,B2,B3,B4,B5,B6,B7,B8,B9,SP,B16,B17,B18,*
    1107                    ;*                           B19,B20,B21,B22,B23,B24,B25,B26,B27,B28,B29,B30, *
    1108                    ;*                           B31                                              *
    1109                    ;*   Regs Used         : A0,A1,A2,A3,A4,A5,A6,A7,A8,A9,A10,A11,A16,A17,A18,   *
    1110                    ;*                           A19,A20,A21,A22,A23,A24,A25,A26,A27,A28,A29,A30, *
    1111                    ;*                           A31,B0,B1,B2,B3,B4,B5,B6,B7,B8,B9,DP,SP,B16,B17, *
    1112                    ;*                           B18,B19,B20,B21,B22,B23,B24,B25,B26,B27,B28,B29, *
    1113                    ;*                           B30,B31                                          *
    1114                    ;*   Local Frame Size  : 0 Args + 4 Auto + 8 Save = 12 byte                   *
    1115                    ;******************************************************************************
    1116                    AudioAICInit:
    1117                    ;** --------------------------------------------------------------------------*
    1118                    $C$DW$173       .dwtag  DW_TAG_variable
    1119                            .dwattr $C$DW$173, DW_AT_name("savePinMux")
    1120                            .dwattr $C$DW$173, DW_AT_TI_symbol_name("savePinMux")
    1121                            .dwattr $C$DW$173, DW_AT_type(*$C$DW$T$11)
    1122                            .dwattr $C$DW$173, DW_AT_location[DW_OP_reg3]
    1123                    
    1124                    $C$DW$174       .dwtag  DW_TAG_variable
    1125                            .dwattr $C$DW$174, DW_AT_name("delay")
    1126                            .dwattr $C$DW$174, DW_AT_TI_symbol_name("delay")
    1127                            .dwattr $C$DW$174, DW_AT_type(*$C$DW$T$1308)
    1128                            .dwattr $C$DW$174, DW_AT_location[DW_OP_breg31 4]
    1129                    
    1130                            .dwcfi  cfa_offset, 0
    1131                            .dwpsn  file "C:/Users/Raz Aloni/OneDrive/School/EEL4924/DSP/C_Libs/AudioInterface/src/AudioIn
    1132 00000000 01a09828             MVKL    .S1     0x1c14130,A3      ; [A_S674] |270| 
    1133 00000004 0180e0e8             MVKH    .S1     0x1c14130,A3      ; [A_S674] |270| 
    1134 00000008 020c0264             LDW     .D1T1   *A3(0),A4         ; [A_D64P] |270| 
    1135                            .dwpsn  file "C:/Users/Raz Aloni/OneDrive/School/EEL4924/DSP/C_Libs/AudioInterface/src/AudioIn
    1136 0000000c 05bc94f4             STW     .D2T1   A11,*SP++(-16)    ; [B_D64P] |339| 
    1137                            .dwcfi  cfa_offset, 16
    1138                            .dwcfi  save_reg_to_mem, 11, 0
    1139                            .dwpsn  file "C:/Users/Raz Aloni/OneDrive/School/EEL4924/DSP/C_Libs/AudioInterface/src/AudioIn
    1140 00000010 03000c28             MVK     .S1     0x18,A6           ; [A_S674] |344| 
    1141                            .dwpsn  file "C:/Users/Raz Aloni/OneDrive/School/EEL4924/DSP/C_Libs/AudioInterface/src/AudioIn
    1142 00000014 0211002a             MVK     .S2     8704,B4           ; [B_Sb674] |276| 
    1143                            .dwpsn  file "C:/Users/Raz Aloni/OneDrive/School/EEL4924/DSP/C_Libs/AudioInterface/src/AudioIn
    1144                    
    1145 00000018 053c62f5             STW     .D2T1   A10,*SP(12)       ; [B_D64P] |339| 
    1146 0000001c 05100028  ||         MVKL    .S1     0x1c22000,A10     ; [A_S674] |344| 
    1147                    
    1148                            .dwcfi  save_reg_to_mem, 10, -4
    1149                            .dwpsn  file "C:/Users/Raz Aloni/OneDrive/School/EEL4924/DSP/C_Libs/AudioInterface/src/AudioIn
    1150                    
    1151 00000024 028c0fd8             MV      .L1     A3,A5             ; [A_L674] |276| 
    1152 00000020 01910fc9  ||         CLR     .S1     A4,8,15,A3        ; [A_S674] |270| 
    1153                    
    1154                            .dwpsn  file "C:/Users/Raz Aloni/OneDrive/School/EEL4924/DSP/C_Libs/AudioInterface/src/AudioIn
    1155                    
TMS320C6x Assembler PC v8.1.3 Fri Apr 14 08:40:18 2017

Tools Copyright (c) 1996-2015 Texas Instruments Incorporated
AudioInterface.asm                                                   PAGE   22

    1156 00000028 01907ff9             OR      .L1X    B4,A3,A3          ; [A_L674] |276| 
    1157 0000002c 0500e168  ||         MVKH    .S1     0x1c22000,A10     ; [A_S674] |344| 
    1158                    
    1159                    $C$DW$175       .dwtag  DW_TAG_TI_branch
    1160                            .dwattr $C$DW$175, DW_AT_low_pc(0x10)
    1161                            .dwattr $C$DW$175, DW_AT_name("I2CCodecIfInit")
    1162                            .dwattr $C$DW$175, DW_AT_TI_call
    1163                    
    1164                    
    1165 00000030     00b4             STW     .D1T1   A3,*A5(0)         ; [A_D64P] |276| 
    1166 00000032     0627  ||         ZERO    .L2     B4                ; [B_L674] |344| 
    1167 00000034     8506  ||         MV      .L1     A10,A4            ; [A_L674] |344| 
    1168 00000036     75ce  ||         MV      .S1X    B3,A11            ; [A_S674] |339| 
    1169 00000038 10000012! ||         CALLP   .S2     I2CCodecIfInit,B3 ; [B_Sb674] |344| 
    1170                    
    1171                            .dwcfi  save_reg_to_reg, 19, 11
    1172                            .dwpsn  file "C:/Users/Raz Aloni/OneDrive/School/EEL4924/DSP/C_Libs/AudioInterface/src/AudioIn
    1173 00000040           $C$RL0:    ; CALLP OCCURS {I2CCodecIfInit} {0}  ; [] |344| 
    1174                            .dwpsn  file "C:/Users/Raz Aloni/OneDrive/School/EEL4924/DSP/C_Libs/AudioInterface/src/AudioIn
    1175 00000040 0207ffaa             MVK     .S2     4095,B4           ; [B_Sb674] |347| 
    1176                    $C$DW$176       .dwtag  DW_TAG_TI_branch
    1177                            .dwattr $C$DW$176, DW_AT_low_pc(0x08)
    1178                            .dwattr $C$DW$176, DW_AT_name("AIC31Reset")
    1179                            .dwattr $C$DW$176, DW_AT_TI_call
    1180                    
    1181                    
    1182 00000044     bc45             STW     .D2T2   B4,*SP(4)         ; [B_D64P] |347| 
    1183 00000046     8506  ||         MV      .L1     A10,A4            ; [A_L674] |347| 
    1184 00000048 10000012! ||         CALLP   .S2     AIC31Reset,B3     ; [B_Sb674] |349| 
    1185                    
    1186                            .dwpsn  file "C:/Users/Raz Aloni/OneDrive/School/EEL4924/DSP/C_Libs/AudioInterface/src/AudioIn
    1187 0000004c           $C$RL2:    ; CALLP OCCURS {AIC31Reset} {0}   ; [] |349| 
    1188                    ;** --------------------------------------------------------------------------*
    1189                            .dwpsn  file "C:/Users/Raz Aloni/OneDrive/School/EEL4924/DSP/C_Libs/AudioInterface/src/AudioIn
    1190 0000004c     bc4d             LDW     .D2T2   *SP(4),B4         ; [B_D64P] |350| 
    1191 0000004e     fea7             MVK     .L2     -1,B5             ; [B_L674] |350| 
    1192 00000050     4c6e             NOP             3                 ; [A_L674] 
    1193 00000052     ee41             SUB     .L2     B4,1,B4           ; [B_L674] |350| 
    1194 00000054     bc45             STW     .D2T2   B4,*SP(4)         ; [B_D64P] |350| 
    1195 00000056     bc4d             LDW     .D2T2   *SP(4),B4         ; [B_D64P] |350| 
    1196 00000058     72c6             MV      .L1X    B5,A3             ; [A_L674] |350| 
    1197 0000005a     4c6e             NOP             3                 ; [A_L674] 
    1198 00000060     86e9             CMPEQ   .L2     B4,B5,B0          ; [B_L674] |350| 
    1199                    
    1200 00000064 2020a120     [ B0]   BNOP            $C$L4,5           ; [] |350| 
    1201 00000062     c867  || [!B0]   ZERO    .L2     B0                ; [B_L674] 
    1202                    
    1203                               ; BRANCHCC OCCURS {$C$L4}         ; [] |350| 
    1204                    ;*----------------------------------------------------------------------------*
    1205                    ;*   SOFTWARE PIPELINE INFORMATION
    1206                    ;*
    1207                    ;*      Loop found in file               : C:/Users/Raz Aloni/OneDrive/School/EEL4924/DSP/C_Libs/Audio
    1208                    ;*      Loop source line                 : 350
    1209                    ;*      Loop opening brace source line   : 350
    1210                    ;*      Loop closing brace source line   : 350
TMS320C6x Assembler PC v8.1.3 Fri Apr 14 08:40:18 2017

Tools Copyright (c) 1996-2015 Texas Instruments Incorporated
AudioInterface.asm                                                   PAGE   23

    1211                    ;*      Known Minimum Trip Count         : 1                    
    1212                    ;*      Known Max Trip Count Factor      : 1
    1213                    ;*      Loop Carried Dependency Bound(^) : 8
    1214                    ;*      Unpartitioned Resource Bound     : 3
    1215                    ;*      Partitioned Resource Bound(*)    : 3
    1216                    ;*      Resource Partition:
    1217                    ;*                                A-side   B-side
    1218                    ;*      .L units                     0        1     
    1219                    ;*      .S units                     0        0     
    1220                    ;*      .D units                     0        3*    
    1221                    ;*      .M units                     0        0     
    1222                    ;*      .X cross paths               0        0     
    1223                    ;*      .T address paths             0        3     
    1224                    ;*      Logical  ops (.LS)           0        0     (.L or .S unit)
    1225                    ;*      Addition ops (.LSD)          0        2     (.L or .S or .D unit)
    1226                    ;*      Bound(.L .S .LS)             0        1     
    1227                    ;*      Bound(.L .S .D .LS .LSD)     0        2     
    1228                    ;*
    1229                    ;*      Searching for software pipeline schedule at ...
    1230                    ;*         ii = 8  Unsafe schedule for irregular loop
    1231                    ;*         ii = 8  Unsafe schedule for irregular loop
    1232                    ;*         ii = 8  Unsafe schedule for irregular loop
    1233                    ;*         ii = 8  Did not find schedule
    1234                    ;*         ii = 9  Unsafe schedule for irregular loop
    1235                    ;*         ii = 9  Unsafe schedule for irregular loop
    1236                    ;*         ii = 9  Unsafe schedule for irregular loop
    1237                    ;*         ii = 9  Did not find schedule
    1238                    ;*         ii = 10 Unsafe schedule for irregular loop
    1239                    ;*         ii = 10 Unsafe schedule for irregular loop
    1240                    ;*         ii = 10 Unsafe schedule for irregular loop
    1241                    ;*         ii = 10 Did not find schedule
    1242                    ;*         ii = 11 Unsafe schedule for irregular loop
    1243                    ;*         ii = 11 Unsafe schedule for irregular loop
    1244                    ;*         ii = 11 Unsafe schedule for irregular loop
    1245                    ;*         ii = 11 Did not find schedule
    1246                    ;*         ii = 12 Unsafe schedule for irregular loop
    1247                    ;*         ii = 12 Unsafe schedule for irregular loop
    1248                    ;*         ii = 12 Unsafe schedule for irregular loop
    1249                    ;*         ii = 12 Did not find schedule
    1250                    ;*         ii = 13 Unsafe schedule for irregular loop
    1251                    ;*         ii = 13 Unsafe schedule for irregular loop
    1252                    ;*         ii = 13 Unsafe schedule for irregular loop
    1253                    ;*         ii = 13 Did not find schedule
    1254                    ;*         ii = 14 Schedule found with 2 iterations in parallel
    1255                    ;*      Done
    1256                    ;*
    1257                    ;*      Loop will be splooped
    1258                    ;*      Collapsed epilog stages       : 1
    1259                    ;*      Collapsed prolog stages       : 0
    1260                    ;*      Minimum required memory pad   : 0 bytes
    1261                    ;*
    1262                    ;*      Minimum safe trip count       : 1
    1263                    ;*----------------------------------------------------------------------------*
    1264 00000068           $C$L1:    ; PIPED LOOP PROLOG
    1265 00000068 3683e000     [!B0]   SPLOOPW         14                ;28 ; [A_L674] (P) 
TMS320C6x Assembler PC v8.1.3 Fri Apr 14 08:40:18 2017

Tools Copyright (c) 1996-2015 Texas Instruments Incorporated
AudioInterface.asm                                                   PAGE   24

    1266                    ;** --------------------------------------------------------------------------*
    1267 0000006c           $C$L2:    ; PIPED LOOP KERNEL
    1268 0000006c 00010000             NOP             9                 ; [A_L674] 
    1269 00000070 00000000             NOP             1                 ; [A_L674] 
    1270 00000074 32bc22e6     [!B0]   LDW     .D2T2   *SP(4),B5         ; [B_D64P] |350| (P) <0,10>  ^ 
    1271 00000078     2c6e             NOP             2                 ; [A_L674] 
    1272                    
    1273 0000007a     2ce6             SPMASK                            ; [] 
    1274 00000080     d1c7  ||^        MV      .L2X    A3,B6             ; [B_L674] 
    1275                    
    1276 00000082     0c6e             NOP             1                 ; [A_L674] 
    1277 00000084     c2c1             ADD     .L2     B6,B5,B4          ; [B_L674] |350| <0,15>  ^ 
    1278 00000086     bc45             STW     .D2T2   B4,*SP(4)         ; [B_D64P] |350| <0,16>  ^ 
    1279 00000088     bc4d             LDW     .D2T2   *SP(4),B4         ; [B_D64P] |350| <0,17>  ^ 
    1280 0000008a     6c6e             NOP             4                 ; [A_L674] 
    1281 0000008c 02188a7a             CMPEQ   .L2     B4,B6,B4          ; [B_L674] |350| <0,22> 
    1282 00000090     0247             MV      .L2     B4,B0             ; [B_L674] |350| <0,23> 
    1283 00000092     2c6e             NOP             2                 ; [A_L674] 
    1284 00000094 00000000             NOP             1                 ; [A_L674] 
    1285 00000098 00034000             SPKERNEL        0,0               ; [] 
    1286                    ;** --------------------------------------------------------------------------*
    1287 000000a0           $C$L3:    ; PIPED LOOP EPILOG
    1288                    ;** --------------------------------------------------------------------------*
    1289 000000a0           $C$L4:    
    1290                            .dwpsn  file "C:/Users/Raz Aloni/OneDrive/School/EEL4924/DSP/C_Libs/AudioInterface/src/AudioIn
    1291                    $C$DW$177       .dwtag  DW_TAG_TI_branch
    1292                            .dwattr $C$DW$177, DW_AT_low_pc(0x10)
    1293                            .dwattr $C$DW$177, DW_AT_name("AIC31DataConfig")
    1294                            .dwattr $C$DW$177, DW_AT_TI_call
    1295                    
    1296                    
    1297 000000a0     8506             MV      .L1     A10,A4            ; [A_L674] |353| 
    1298 000000a2     1312  ||         MVK     .S1     0x10,A6           ; [A_S674] |353| 
    1299 000000a4     0627  ||         ZERO    .L2     B4                ; [B_L674] |353| 
    1300 000000a6     1b77  ||         ZERO    .D2     B6                ; [B_D64P] |353| 
    1301 000000a8 10000012! ||         CALLP   .S2     AIC31DataConfig,B3 ; [B_Sb674] |353| 
    1302                    
    1303 000000ac           $C$RL4:    ; CALLP OCCURS {AIC31DataConfig} {0}  ; [] |353| 
    1304                            .dwpsn  file "C:/Users/Raz Aloni/OneDrive/School/EEL4924/DSP/C_Libs/AudioInterface/src/AudioIn
    1305                    
    1306 000000ac 03562229             MVKL    .S1     0xac44,A6         ; [A_S674] |354| 
    1307 000000b0     fe73  ||         MVK     .S2     0xff,B4           ; [B_Sb674] |354| 
    1308                    
    1309                    $C$DW$178       .dwtag  DW_TAG_TI_branch
    1310                            .dwattr $C$DW$178, DW_AT_low_pc(0x04)
    1311                            .dwattr $C$DW$178, DW_AT_name("AIC31SampleRateConfig")
    1312                            .dwattr $C$DW$178, DW_AT_TI_call
    1313                    
    1314                    
    1315 000000b8 03000068             MVKH    .S1     0xac44,A6         ; [A_S674] |354| 
    1316 000000b4 10000013! ||         CALLP   .S2     AIC31SampleRateConfig,B3 ; [B_Sb674] |354| 
    1317 000000b2     8506  ||         MV      .L1     A10,A4            ; [A_L674] |354| 
    1318                    
    1319 000000c0           $C$RL6:    ; CALLP OCCURS {AIC31SampleRateConfig} {0}  ; [] |354| 
    1320                            .dwpsn  file "C:/Users/Raz Aloni/OneDrive/School/EEL4924/DSP/C_Libs/AudioInterface/src/AudioIn
TMS320C6x Assembler PC v8.1.3 Fri Apr 14 08:40:18 2017

Tools Copyright (c) 1996-2015 Texas Instruments Incorporated
AudioInterface.asm                                                   PAGE   25

    1321                    $C$DW$179       .dwtag  DW_TAG_TI_branch
    1322                            .dwattr $C$DW$179, DW_AT_low_pc(0x00)
    1323                            .dwattr $C$DW$179, DW_AT_name("AIC31ADCInit")
    1324                            .dwattr $C$DW$179, DW_AT_TI_call
    1325                    
    1326                    
    1327 000000c0 10000013!            CALLP   .S2     AIC31ADCInit,B3   ; [B_Sb674] |364| 
    1328 000000c4     8506  ||         MV      .L1     A10,A4            ; [A_L674] |364| 
    1329                    
    1330 000000c6           $C$RL8:    ; CALLP OCCURS {AIC31ADCInit} {0}  ; [] |364| 
    1331                            .dwpsn  file "C:/Users/Raz Aloni/OneDrive/School/EEL4924/DSP/C_Libs/AudioInterface/src/AudioIn
    1332 000000c6     7587             MV      .L2X    A11,B3            ; [B_L674] |368| 
    1333                            .dwcfi  restore_reg, 19
    1334                    $C$DW$180       .dwtag  DW_TAG_TI_branch
    1335                            .dwattr $C$DW$180, DW_AT_low_pc(0x00)
    1336                            .dwattr $C$DW$180, DW_AT_TI_return
    1337                    
    1338                    
    1339 000000cc 000c0362             RET     .S2     B3                ; [B_Sb674] |368| 
    1340 000000c8 053c62e5  ||         LDW     .D2T1   *SP(12),A10       ; [B_D64P] |368| 
    1341                    
    1342                            .dwcfi  restore_reg, 10
    1343 000000d0 05bc92e4             LDW     .D2T1   *++SP(16),A11     ; [B_D64P] |368| 
    1344                            .dwcfi  cfa_offset, 0
    1345                            .dwcfi  restore_reg, 11
    1346 000000d4 00006000             NOP             4                 ; [A_L674] 
    1347                               ; BRANCH OCCURS {B3}              ; [] |368| 
    1348                            .dwattr $C$DW$172, DW_AT_TI_end_file("C:/Users/Raz Aloni/OneDrive/School/EEL4924/DSP/C_Libs/Au
    1349                            .dwattr $C$DW$172, DW_AT_TI_end_line(0x170)
    1350                            .dwattr $C$DW$172, DW_AT_TI_end_column(0x01)
    1351                            .dwendentry
    1352                            .dwendtag $C$DW$172
    1353                    
    1354 000000d8                   .sect   ".text"
    1355                            .clink
    1356                    
    1357                    $C$DW$181       .dwtag  DW_TAG_subprogram
    1358                            .dwattr $C$DW$181, DW_AT_name("AudioEDMAInitParams")
    1359                            .dwattr $C$DW$181, DW_AT_low_pc(AudioEDMAInitParams)
    1360                            .dwattr $C$DW$181, DW_AT_high_pc(0x00)
    1361                            .dwattr $C$DW$181, DW_AT_TI_symbol_name("AudioEDMAInitParams")
    1362                            .dwattr $C$DW$181, DW_AT_TI_begin_file("C:/Users/Raz Aloni/OneDrive/School/EEL4924/DSP/C_Libs/
    1363                            .dwattr $C$DW$181, DW_AT_TI_begin_line(0x11b)
    1364                            .dwattr $C$DW$181, DW_AT_TI_begin_column(0x0d)
    1365                            .dwattr $C$DW$181, DW_AT_decl_file("C:/Users/Raz Aloni/OneDrive/School/EEL4924/DSP/C_Libs/Audi
    1366                            .dwattr $C$DW$181, DW_AT_decl_line(0x11b)
    1367                            .dwattr $C$DW$181, DW_AT_decl_column(0x0d)
    1368                            .dwattr $C$DW$181, DW_AT_TI_max_frame_size(0x48)
    1369                            .dwpsn  file "C:/Users/Raz Aloni/OneDrive/School/EEL4924/DSP/C_Libs/AudioInterface/src/AudioIn
    1370                    
    1371                            .dwfde $C$DW$CIE, AudioEDMAInitParams
    1372                    
    1373                    ;******************************************************************************
    1374                    ;* FUNCTION NAME: AudioEDMAInitParams                                         *
    1375                    ;*                                                                            *
TMS320C6x Assembler PC v8.1.3 Fri Apr 14 08:40:18 2017

Tools Copyright (c) 1996-2015 Texas Instruments Incorporated
AudioInterface.asm                                                   PAGE   26

    1376                    ;*   Regs Modified     : A0,A1,A2,A3,A4,A5,A6,A7,A8,A9,A10,A11,A12,A13,A16,   *
    1377                    ;*                           A17,A18,A19,A20,A21,A22,A23,A24,A25,A26,A27,A28, *
    1378                    ;*                           A29,A30,A31,B0,B1,B2,B3,B4,B5,B6,B7,B8,B9,B10,   *
    1379                    ;*                           B11,B12,B13,SP,B16,B17,B18,B19,B20,B21,B22,B23,  *
    1380                    ;*                           B24,B25,B26,B27,B28,B29,B30,B31                  *
    1381                    ;*   Regs Used         : A0,A1,A2,A3,A4,A5,A6,A7,A8,A9,A10,A11,A12,A13,A16,   *
    1382                    ;*                           A17,A18,A19,A20,A21,A22,A23,A24,A25,A26,A27,A28, *
    1383                    ;*                           A29,A30,A31,B0,B1,B2,B3,B4,B5,B6,B7,B8,B9,B10,   *
    1384                    ;*                           B11,B12,B13,DP,SP,B16,B17,B18,B19,B20,B21,B22,   *
    1385                    ;*                           B23,B24,B25,B26,B27,B28,B29,B30,B31              *
    1386                    ;*   Local Frame Size  : 0 Args + 32 Auto + 40 Save = 72 byte                 *
    1387                    ;******************************************************************************
    1388                    AudioEDMAInitParams:
    1389                    ;** --------------------------------------------------------------------------*
    1390                    $C$DW$182       .dwtag  DW_TAG_variable
    1391                            .dwattr $C$DW$182, DW_AT_name("i")
    1392                            .dwattr $C$DW$182, DW_AT_TI_symbol_name("i")
    1393                            .dwattr $C$DW$182, DW_AT_type(*$C$DW$T$1252)
    1394                            .dwattr $C$DW$182, DW_AT_location[DW_OP_reg26]
    1395                    
    1396                    $C$DW$183       .dwtag  DW_TAG_variable
    1397                            .dwattr $C$DW$183, DW_AT_name("i")
    1398                            .dwattr $C$DW$183, DW_AT_TI_symbol_name("i")
    1399                            .dwattr $C$DW$183, DW_AT_type(*$C$DW$T$10)
    1400                            .dwattr $C$DW$183, DW_AT_location[DW_OP_reg26]
    1401                    
    1402                    $C$DW$184       .dwtag  DW_TAG_variable
    1403                            .dwattr $C$DW$184, DW_AT_name("PingPongParams")
    1404                            .dwattr $C$DW$184, DW_AT_TI_symbol_name("PingPongParams")
    1405                            .dwattr $C$DW$184, DW_AT_type(*$C$DW$T$741)
    1406                            .dwattr $C$DW$184, DW_AT_location[DW_OP_breg31 4]
    1407                    
    1408                            .dwcfi  cfa_offset, 0
    1409 000000d8     25f7             STW     .D2T1   A11,*SP++(-8)     ; [B_D64P] |284| 
    1410                            .dwcfi  cfa_offset, 8
    1411                            .dwcfi  save_reg_to_mem, 11, 0
    1412 000000da     9677             STDW    .D2T2   B13:B12,*SP++(-8) ; [B_D64P] |284| 
    1413                            .dwcfi  cfa_offset, 16
    1414                            .dwcfi  save_reg_to_mem, 29, -4
    1415                            .dwcfi  save_reg_to_mem, 28, -8
    1416 000000e0     9577             STDW    .D2T2   B11:B10,*SP++(-8) ; [B_D64P] |284| 
    1417                            .dwcfi  cfa_offset, 24
    1418                            .dwcfi  save_reg_to_mem, 27, -12
    1419                            .dwcfi  save_reg_to_mem, 26, -16
    1420                    
    1421 000000e2     8677             STDW    .D2T1   A13:A12,*SP++(-8) ; [B_D64P] |284| 
    1422 000000e4 0200002a! ||         MVKL    .S2     RxPingPongParams,B4 ; [B_Sb674] |289| 
    1423                            .dwcfi  cfa_offset, 32
    1424                            .dwcfi  save_reg_to_mem, 13, -20
    1425                            .dwcfi  save_reg_to_mem, 12, -24
    1426                    
    1427 000000ec     2577             STW     .D2T1   A10,*SP++(-8)     ; [B_D64P] |284| 
    1428 000000e8 0200006b! ||         MVKH    .S2     RxPingPongParams,B4 ; [B_Sb674] |289| 
    1429                    
    1430                            .dwcfi  cfa_offset, 40
TMS320C6x Assembler PC v8.1.3 Fri Apr 14 08:40:18 2017

Tools Copyright (c) 1996-2015 Texas Instruments Incorporated
AudioInterface.asm                                                   PAGE   27

    1431                            .dwcfi  save_reg_to_mem, 10, -32
    1432                            .dwpsn  file "C:/Users/Raz Aloni/OneDrive/School/EEL4924/DSP/C_Libs/AudioInterface/src/AudioIn
    1433 000000ee     087d             LDNDW   .D2T1   *B4(8),A7:A6      ; [B_D64P] |289| 
    1434 000000f0 029043a4             LDNDW   .D2T1   *B4(16),A5:A4     ; [B_D64P] |289| 
    1435                            .dwpsn  file "C:/Users/Raz Aloni/OneDrive/School/EEL4924/DSP/C_Libs/AudioInterface/src/AudioIn
    1436                    
    1437 000000f4 049003a5             LDNDW   .D2T1   *B4(0),A9:A8      ; [B_D64P] |289| 
    1438 000000f8 07fff052  ||         ADDK    .S2     -32,SP            ; [B_Sb674] |284| 
    1439                    
    1440                            .dwcfi  cfa_offset, 72
    1441                            .dwpsn  file "C:/Users/Raz Aloni/OneDrive/School/EEL4924/DSP/C_Libs/AudioInterface/src/AudioIn
    1442 00000100 029063a6             LDNDW   .D2T2   *B4(24),B5:B4     ; [B_D64P] |289| 
    1443 00000104 01bc9058             ADD     .L1X    4,SP,A3           ; [A_L674] |289| 
    1444 00000108 038c2374             STNDW   .D1T1   A7:A6,*A3(8)      ; [A_D64P] |289| 
    1445                    
    1446 0000010c 028c4375             STNDW   .D1T1   A5:A4,*A3(16)     ; [A_D64P] |289| 
    1447 00000110 0600a358  ||         ZERO    .L1     A12               ; [A_L674] |292| 
    1448                    
    1449                            .dwpsn  file "C:/Users/Raz Aloni/OneDrive/School/EEL4924/DSP/C_Libs/AudioInterface/src/AudioIn
    1450                    
    1451 00000114 048c0375             STNDW   .D1T1   A9:A8,*A3(0)      ; [A_D64P] |289| 
    1452 00000118 0632d889  ||         SET     .S1     A12,22,24,A12     ; [A_S674] |292| 
    1453 0000011c 068c1fd8  ||         MV      .L1X    B3,A13            ; [A_L674] |284| 
    1454                    
    1455                            .dwcfi  save_reg_to_reg, 19, 13
    1456                            .dwpsn  file "C:/Users/Raz Aloni/OneDrive/School/EEL4924/DSP/C_Libs/AudioInterface/src/AudioIn
    1457                    $C$DW$185       .dwtag  DW_TAG_TI_branch
    1458                            .dwattr $C$DW$185, DW_AT_low_pc(0x00)
    1459                            .dwattr $C$DW$185, DW_AT_name("EDMA3SetPaRAM")
    1460                            .dwattr $C$DW$185, DW_AT_TI_call
    1461                    
    1462                    
    1463 00000120 10000013!            CALLP   .S2     EDMA3SetPaRAM,B3  ; [B_Sb674] |292| 
    1464 00000124     0627  ||         ZERO    .L2     B4                ; [B_L674] |292| 
    1465 0000012c 028c6376  ||         STNDW   .D1T2   B5:B4,*A3(24)     ; [A_D64P] |289| 
    1466 00000128 033c9059  ||         ADD     .L1X    4,SP,A6           ; [A_L674] |292| 
    1467 00000126     860e  ||         MV      .S1     A12,A4            ; [A_S674] |292| 
    1468                    
    1469                            .dwpsn  file "C:/Users/Raz Aloni/OneDrive/School/EEL4924/DSP/C_Libs/AudioInterface/src/AudioIn
    1470 00000130           $C$RL10:   ; CALLP OCCURS {EDMA3SetPaRAM} {0}  ; [] |292| 
    1471 00000130 05001028             MVK     .S1     0x20,A10          ; [A_S674] 
    1472 00000134 05807028             MVK     .S1     0xe0,A11          ; [A_S674] 
    1473                            .dwpsn  file "C:/Users/Raz Aloni/OneDrive/School/EEL4924/DSP/C_Libs/AudioInterface/src/AudioIn
    1474                    $C$DW$186       .dwtag  DW_TAG_TI_branch
    1475                            .dwattr $C$DW$186, DW_AT_low_pc(0x00)
    1476                            .dwattr $C$DW$186, DW_AT_name("EDMA3SetPaRAM")
    1477                            .dwattr $C$DW$186, DW_AT_TI_call
    1478                    
    1479                    
    1480 00000138 00000011!            CALL    .S1     EDMA3SetPaRAM     ; [A_S674] |304| 
    1481 00000140 01a96f79  ||         AND     .L1     A11,A10,A3        ; [A_L674] |301| 
    1482 00000144 0602802a  ||         MVK     .S2     0x500,B12         ; [B_Sb674] 
    1483                    
    1484 00000148 02a0002a             MVK     .S2     0x4000,B5         ; [B_Sb674] 
    1485                    
TMS320C6x Assembler PC v8.1.3 Fri Apr 14 08:40:18 2017

Tools Copyright (c) 1996-2015 Texas Instruments Incorporated
AudioInterface.asm                                                   PAGE   28

    1486 0000014c 020d907b             ADD     .L2X    B12,A3,B4         ; [B_L674] |301| 
    1487 00000150 0680142a  ||         MVK     .S2     0x28,B13          ; [B_Sb674] 
    1488                    
    1489                            .dwpsn  file "C:/Users/Raz Aloni/OneDrive/School/EEL4924/DSP/C_Libs/AudioInterface/src/AudioIn
    1490                    
    1491 00000154 0210affb             OR      .L2     B5,B4,B4          ; [B_L674] |301| 
    1492 00000158 0580002b! ||         MVKL    .S2     RXPingPong,B11    ; [B_Sb674] 
    1493 0000015c 05000042  ||         ZERO    .D2     B10               ; [B_D64P] |295| 
    1494                    
    1495                            .dwpsn  file "C:/Users/Raz Aloni/OneDrive/School/EEL4924/DSP/C_Libs/AudioInterface/src/AudioIn
    1496                    
    1497 00000160 0229a07b             ADD     .L2     B13,B10,B4        ; [B_L674] |304| 
    1498 00000164 023d82d7  ||         STH     .D2T2   B4,*SP(24)        ; [B_D64P] |301| 
    1499 00000168 0580006b! ||         MVKH    .S2     RXPingPong,B11    ; [B_Sb674] 
    1500 0000016c 033c9059  ||         ADD     .L1X    4,SP,A6           ; [A_L674] |304| 
    1501 00000170 023006a0  ||         MV      .S1     A12,A4            ; [A_S674] |304| 
    1502                    
    1503                    ;*----------------------------------------------------------------------------*
    1504                    ;*   SOFTWARE PIPELINE INFORMATION
    1505                    ;*      Disqualified loop: Loop contains a call
    1506                    ;*          (Performance) Loop at line 295 cannot be scheduled efficiently, as it contains a function 
    1507                    ;*      Disqualified loop: Loop contains non-pipelinable instructions
    1508                    ;*----------------------------------------------------------------------------*
    1509 00000174           $C$L5:    
    1510                            .dwpsn  file "C:/Users/Raz Aloni/OneDrive/School/EEL4924/DSP/C_Libs/AudioInterface/src/AudioIn
    1511                    
    1512 00000174 01880163             ADDKPC  .S2     $C$RL12,B3,0      ; [B_Sb674] |304| 
    1513 00000178 05bc82f7  ||         STW     .D2T2   B11,*SP(16)       ; [B_D64P] |298| 
    1514                    
    1515                            .dwpsn  file "C:/Users/Raz Aloni/OneDrive/School/EEL4924/DSP/C_Libs/AudioInterface/src/AudioIn
    1516 00000180           $C$RL12:   ; CALL OCCURS {EDMA3SetPaRAM} {0}  ; [] |304| 
    1517                    ;** --------------------------------------------------------------------------*
    1518                            .dwpsn  file "C:/Users/Raz Aloni/OneDrive/School/EEL4924/DSP/C_Libs/AudioInterface/src/AudioIn
    1519                    
    1520 00000180 0528205b             ADD     .L2     1,B10,B10         ; [B_L674] |295| 
    1521 00000184 05001051  ||         ADDK    .S1     32,A10            ; [A_S674] |295| 
    1522 00000188 05820052  ||         ADDK    .S2     1024,B11          ; [B_Sb674] |295| 
    1523                    
    1524 0000018c 002908da             CMPLT   .L2     B10,8,B0          ; [B_L674] |295| 
    1525                    
    1526 00000190 2ffffe91     [ B0]   B       .S1     $C$L5             ; [A_S674] |295| 
    1527 00000194 21a96f79  || [ B0]   AND     .L1     A11,A10,A3        ; [A_L674] |301| 
    1528 00000198 22a0002b  || [ B0]   MVK     .S2     0x4000,B5         ; [B_Sb674] 
    1529 0000019c 223008f0  || [ B0]   MV      .D1     A12,A4            ; [A_D64P] |304| 
    1530                    
    1531                            .dwpsn  file "C:/Users/Raz Aloni/OneDrive/School/EEL4924/DSP/C_Libs/AudioInterface/src/AudioIn
    1532                    $C$DW$187       .dwtag  DW_TAG_TI_branch
    1533                            .dwattr $C$DW$187, DW_AT_low_pc(0x00)
    1534                            .dwattr $C$DW$187, DW_AT_name("EDMA3SetPaRAM")
    1535                            .dwattr $C$DW$187, DW_AT_TI_call
    1536                    
    1537                    
    1538 000001a0 20000011!    [ B0]   CALL    .S1     EDMA3SetPaRAM     ; [A_S674] |304| 
    1539 000001a4 233c9059  || [ B0]   ADD     .L1X    4,SP,A6           ; [A_L674] |304| 
    1540 000001a8 3200002a! || [!B0]   MVKL    .S2     TxPingPongParams,B4 ; [B_Sb674] |311| 
TMS320C6x Assembler PC v8.1.3 Fri Apr 14 08:40:18 2017

Tools Copyright (c) 1996-2015 Texas Instruments Incorporated
AudioInterface.asm                                                   PAGE   29

    1541                    
    1542                            .dwpsn  file "C:/Users/Raz Aloni/OneDrive/School/EEL4924/DSP/C_Libs/AudioInterface/src/AudioIn
    1543                    $C$DW$188       .dwtag  DW_TAG_TI_branch
    1544                            .dwattr $C$DW$188, DW_AT_low_pc(0x00)
    1545                            .dwattr $C$DW$188, DW_AT_name("memcpy")
    1546                            .dwattr $C$DW$188, DW_AT_TI_call
    1547                    
    1548                    
    1549 000001ac 30000011!    [!B0]   CALL    .S1     memcpy            ; [A_S674] |311| 
    1550 000001b0 220d907a  || [ B0]   ADD     .L2X    B12,A3,B4         ; [B_L674] |301| 
    1551                    
    1552 000001b4 2210affa     [ B0]   OR      .L2     B5,B4,B4          ; [B_L674] |301| 
    1553 000001b8 223d82d6     [ B0]   STH     .D2T2   B4,*SP(24)        ; [B_D64P] |301| 
    1554                            .dwpsn  file "C:/Users/Raz Aloni/OneDrive/School/EEL4924/DSP/C_Libs/AudioInterface/src/AudioIn
    1555 000001bc 2229a07a     [ B0]   ADD     .L2     B13,B10,B4        ; [B_L674] |304| 
    1556                            .dwpsn  file "C:/Users/Raz Aloni/OneDrive/School/EEL4924/DSP/C_Libs/AudioInterface/src/AudioIn
    1557                               ; BRANCHCC OCCURS {$C$L5}         ; [] |295| 
    1558                    ;** --------------------------------------------------------------------------*
    1559                            .dwpsn  file "C:/Users/Raz Aloni/OneDrive/School/EEL4924/DSP/C_Libs/AudioInterface/src/AudioIn
    1560 000001c0 0200006a!            MVKH    .S2     TxPingPongParams,B4 ; [B_Sb674] |311| 
    1561                    
    1562 000001c4 01840163             ADDKPC  .S2     $C$RL14,B3,0      ; [B_Sb674] |311| 
    1563 000001cc 03001028  ||         MVK     .S1     0x20,A6           ; [A_S674] |311| 
    1564 000001c8 023c9059  ||         ADD     .L1X    4,SP,A4           ; [A_L674] |311| 
    1565                    
    1566 000001d0           $C$RL14:   ; CALL OCCURS {memcpy} {0}        ; [] |311| 
    1567                    ;** --------------------------------------------------------------------------*
    1568                            .dwpsn  file "C:/Users/Raz Aloni/OneDrive/School/EEL4924/DSP/C_Libs/AudioInterface/src/AudioIn
    1569                    $C$DW$189       .dwtag  DW_TAG_TI_branch
    1570                            .dwattr $C$DW$189, DW_AT_low_pc(0x00)
    1571                            .dwattr $C$DW$189, DW_AT_name("EDMA3SetPaRAM")
    1572                            .dwattr $C$DW$189, DW_AT_TI_call
    1573                    
    1574                    
    1575 000001d0 10000013!            CALLP   .S2     EDMA3SetPaRAM,B3  ; [B_Sb674] |314| 
    1576 000001d4     2627  ||         MVK     .L2     1,B4              ; [B_L674] |314| 
    1577 000001d8 033c9058  ||         ADD     .L1X    4,SP,A6           ; [A_L674] |314| 
    1578 000001d6     860e  ||         MV      .S1     A12,A4            ; [A_S674] |314| 
    1579                    
    1580 000001e0           $C$RL16:   ; CALLP OCCURS {EDMA3SetPaRAM} {0}  ; [] |314| 
    1581                            .dwpsn  file "C:/Users/Raz Aloni/OneDrive/School/EEL4924/DSP/C_Libs/AudioInterface/src/AudioIn
    1582                    $C$DW$190       .dwtag  DW_TAG_TI_branch
    1583                            .dwattr $C$DW$190, DW_AT_low_pc(0x00)
    1584                            .dwattr $C$DW$190, DW_AT_name("EDMA3SetPaRAM")
    1585                            .dwattr $C$DW$190, DW_AT_TI_call
    1586                    
    1587                    
    1588 000001e0 00000011!            CALL    .S1     EDMA3SetPaRAM     ; [A_S674] |326| 
    1589 000001e4 0280002a! ||         MVKL    .S2     TXParamRAMS,B5    ; [B_Sb674] 
    1590                    
    1591 000001e8 0583002b             MVK     .S2     0x600,B11         ; [B_Sb674] 
    1592 000001ec 05800028! ||         MVKL    .S1     LoopBuffer,A11    ; [A_S674] 
    1593                    
    1594 000001f0 0280006b!            MVKH    .S2     TXParamRAMS,B5    ; [B_Sb674] 
    1595 000001f4 05800068! ||         MVKH    .S1     LoopBuffer,A11    ; [A_S674] 
TMS320C6x Assembler PC v8.1.3 Fri Apr 14 08:40:18 2017

Tools Copyright (c) 1996-2015 Texas Instruments Incorporated
AudioInterface.asm                                                   PAGE   30

    1596                    
    1597                            .dwpsn  file "C:/Users/Raz Aloni/OneDrive/School/EEL4924/DSP/C_Libs/AudioInterface/src/AudioIn
    1598                    
    1599 000001f8 05bc42f5             STW     .D2T1   A11,*SP(8)        ; [B_D64P] |320| 
    1600 000001fc 033c9059  ||         ADD     .L1X    4,SP,A6           ; [A_L674] |326| 
    1601 00000200 0220002b  ||         MVK     .S2     0x4000,B4         ; [B_Sb674] 
    1602 00000204 0500a35a  ||         ZERO    .L2     B10               ; [B_L674] |317| 
    1603                    
    1604                            .dwpsn  file "C:/Users/Raz Aloni/OneDrive/School/EEL4924/DSP/C_Libs/AudioInterface/src/AudioIn
    1605                    
    1606 00000208 0228dec3             ADDAD   .D2     B10,6,B4          ; [B_D64P] |326| 
    1607 0000020c     56c6  ||         MV      .L1X    B5,A10            ; [A_L674] 
    1608 00000210 06ac8ffb  ||         OR      .L2     B4,B11,B13        ; [B_L674] |323| 
    1609 0000020e     860e  ||         MV      .S1     A12,A4            ; [A_S674] |326| 
    1610 00000214 063016a3  ||         MV      .S2X    A12,B12           ; [B_Sb674] 
    1611                    
    1612                    ;*----------------------------------------------------------------------------*
    1613                    ;*   SOFTWARE PIPELINE INFORMATION
    1614                    ;*      Disqualified loop: Loop contains a call
    1615                    ;*          (Performance) Loop at line 317 cannot be scheduled efficiently, as it contains a function 
    1616                    ;*      Disqualified loop: Loop contains non-pipelinable instructions
    1617                    ;*----------------------------------------------------------------------------*
    1618 00000220           $C$L6:    
    1619                    
    1620 00000220 01820163             ADDKPC  .S2     $C$RL18,B3,0      ; [B_Sb674] |326| 
    1621 00000224 06bd82d6  ||         STH     .D2T2   B13,*SP(24)       ; [B_D64P] |323| 
    1622                    
    1623                            .dwpsn  file "C:/Users/Raz Aloni/OneDrive/School/EEL4924/DSP/C_Libs/AudioInterface/src/AudioIn
    1624 00000228           $C$RL18:   ; CALL OCCURS {EDMA3SetPaRAM} {0}  ; [] |326| 
    1625                    ;** --------------------------------------------------------------------------*
    1626                            .dwpsn  file "C:/Users/Raz Aloni/OneDrive/School/EEL4924/DSP/C_Libs/AudioInterface/src/AudioIn
    1627                    
    1628 00000228 0528205b             ADD     .L2     1,B10,B10         ; [B_L674] |317| 
    1629 0000022c 0231a843  ||         ADD     .D2     B12,B13,B4        ; [B_D64P] |329| 
    1630 00000230 05801052  ||         ADDK    .S2     32,B11            ; [B_Sb674] |317| 
    1631                    
    1632 00000234 002848db             CMPLT   .L2     B10,2,B0          ; [B_L674] |317| 
    1633 00000238 02283676  ||         STW     .D1T2   B4,*A10++(4)      ; [A_D64P] |329| 
    1634                    
    1635 0000023c 233c9059     [ B0]   ADD     .L1X    4,SP,A6           ; [A_L674] |326| 
    1636 00000240 25bc42f5  || [ B0]   STW     .D2T1   A11,*SP(8)        ; [B_D64P] |320| 
    1637 00000244 2ffffc12  || [ B0]   B       .S2     $C$L6             ; [B_Sb674] |317| 
    1638                    
    1639                            .dwpsn  file "C:/Users/Raz Aloni/OneDrive/School/EEL4924/DSP/C_Libs/AudioInterface/src/AudioIn
    1640                    $C$DW$191       .dwtag  DW_TAG_TI_branch
    1641                            .dwattr $C$DW$191, DW_AT_low_pc(0x00)
    1642                            .dwattr $C$DW$191, DW_AT_name("EDMA3SetPaRAM")
    1643                            .dwattr $C$DW$191, DW_AT_TI_call
    1644                    
    1645 00000248 20000010!    [ B0]   CALL    .S1     EDMA3SetPaRAM     ; [A_S674] |326| 
    1646 0000024c 22300fd8     [ B0]   MV      .L1     A12,A4            ; [A_L674] |326| 
    1647 00000250 2220002a     [ B0]   MVK     .S2     0x4000,B4         ; [B_Sb674] 
    1648                            .dwpsn  file "C:/Users/Raz Aloni/OneDrive/School/EEL4924/DSP/C_Libs/AudioInterface/src/AudioIn
    1649 00000254 26ac8ffa     [ B0]   OR      .L2     B4,B11,B13        ; [B_L674] |323| 
    1650                            .dwpsn  file "C:/Users/Raz Aloni/OneDrive/School/EEL4924/DSP/C_Libs/AudioInterface/src/AudioIn
TMS320C6x Assembler PC v8.1.3 Fri Apr 14 08:40:18 2017

Tools Copyright (c) 1996-2015 Texas Instruments Incorporated
AudioInterface.asm                                                   PAGE   31

    1651 00000258 2228dec2     [ B0]   ADDAD   .D2     B10,6,B4          ; [B_D64P] |326| 
    1652                            .dwpsn  file "C:/Users/Raz Aloni/OneDrive/School/EEL4924/DSP/C_Libs/AudioInterface/src/AudioIn
    1653                               ; BRANCHCC OCCURS {$C$L6}         ; [] |317| 
    1654                    ;** --------------------------------------------------------------------------*
    1655                            .dwpsn  file "C:/Users/Raz Aloni/OneDrive/School/EEL4924/DSP/C_Libs/AudioInterface/src/AudioIn
    1656                    
    1657 0000025c 178008ff             ADDAW   .D2     SP,8,SP           ; [B_D64P] |331| 
    1658 00000260     7687  ||         MV      .L2X    A13,B3            ; [B_L674] |331| 
    1659                    
    1660                            .dwcfi  cfa_offset, 40
    1661                            .dwcfi  restore_reg, 19
    1662 00000262     6577             LDW     .D2T1   *++SP(8),A10      ; [B_D64P] |331| 
    1663                            .dwcfi  cfa_offset, 32
    1664                            .dwcfi  restore_reg, 10
    1665 00000264     c677             LDDW    .D2T1   *++SP(8),A13:A12  ; [B_D64P] |331| 
    1666                            .dwcfi  cfa_offset, 24
    1667                            .dwcfi  restore_reg, 13
    1668                            .dwcfi  restore_reg, 12
    1669 00000266     d577             LDDW    .D2T2   *++SP(8),B11:B10  ; [B_D64P] |331| 
    1670                            .dwcfi  cfa_offset, 16
    1671                            .dwcfi  restore_reg, 27
    1672                            .dwcfi  restore_reg, 26
    1673                    $C$DW$192       .dwtag  DW_TAG_TI_branch
    1674                            .dwattr $C$DW$192, DW_AT_low_pc(0x04)
    1675                            .dwattr $C$DW$192, DW_AT_TI_return
    1676                    
    1677                    
    1678 00000268     d677             LDDW    .D2T2   *++SP(8),B13:B12  ; [B_D64P] |331| 
    1679 0000026a     01ef  ||         RET     .S2     B3                ; [B_Sb674] |331| 
    1680                    
    1681                            .dwcfi  cfa_offset, 8
    1682                            .dwcfi  restore_reg, 29
    1683                            .dwcfi  restore_reg, 28
    1684 0000026c     65f7             LDW     .D2T1   *++SP(8),A11      ; [B_D64P] |331| 
    1685                            .dwcfi  cfa_offset, 0
    1686                            .dwcfi  restore_reg, 11
    1687 0000026e     6c6e             NOP             4                 ; [A_L674] 
    1688                               ; BRANCH OCCURS {B3}              ; [] |331| 
    1689                            .dwattr $C$DW$181, DW_AT_TI_end_file("C:/Users/Raz Aloni/OneDrive/School/EEL4924/DSP/C_Libs/Au
    1690                            .dwattr $C$DW$181, DW_AT_TI_end_line(0x14b)
    1691                            .dwattr $C$DW$181, DW_AT_TI_end_column(0x01)
    1692                            .dwendentry
    1693                            .dwendtag $C$DW$181
    1694                    
    1695 00000270                   .sect   ".text"
    1696                            .clink
    1697                            .global InitAudioInterface
    1698                    
    1699                    $C$DW$193       .dwtag  DW_TAG_subprogram
    1700                            .dwattr $C$DW$193, DW_AT_name("InitAudioInterface")
    1701                            .dwattr $C$DW$193, DW_AT_low_pc(InitAudioInterface)
    1702                            .dwattr $C$DW$193, DW_AT_high_pc(0x00)
    1703                            .dwattr $C$DW$193, DW_AT_TI_symbol_name("InitAudioInterface")
    1704                            .dwattr $C$DW$193, DW_AT_external
    1705                            .dwattr $C$DW$193, DW_AT_TI_begin_file("C:/Users/Raz Aloni/OneDrive/School/EEL4924/DSP/C_Libs/
TMS320C6x Assembler PC v8.1.3 Fri Apr 14 08:40:18 2017

Tools Copyright (c) 1996-2015 Texas Instruments Incorporated
AudioInterface.asm                                                   PAGE   32

    1706                            .dwattr $C$DW$193, DW_AT_TI_begin_line(0x1f7)
    1707                            .dwattr $C$DW$193, DW_AT_TI_begin_column(0x06)
    1708                            .dwattr $C$DW$193, DW_AT_decl_file("C:/Users/Raz Aloni/OneDrive/School/EEL4924/DSP/C_Libs/Audi
    1709                            .dwattr $C$DW$193, DW_AT_decl_line(0x1f7)
    1710                            .dwattr $C$DW$193, DW_AT_decl_column(0x06)
    1711                            .dwattr $C$DW$193, DW_AT_TI_max_frame_size(0x18)
    1712                            .dwpsn  file "C:/Users/Raz Aloni/OneDrive/School/EEL4924/DSP/C_Libs/AudioInterface/src/AudioIn
    1713                    
    1714                            .dwfde $C$DW$CIE, InitAudioInterface
    1715                    
    1716                    ;******************************************************************************
    1717                    ;* FUNCTION NAME: InitAudioInterface                                          *
    1718                    ;*                                                                            *
    1719                    ;*   Regs Modified     : A0,A1,A2,A3,A4,A5,A6,A7,A8,A9,A10,A11,A16,A17,A18,   *
    1720                    ;*                           A19,A20,A21,A22,A23,A24,A25,A26,A27,A28,A29,A30, *
    1721                    ;*                           A31,B0,B1,B2,B3,B4,B5,B6,B7,B8,B9,B13,SP,B16,B17,*
    1722                    ;*                           B18,B19,B20,B21,B22,B23,B24,B25,B26,B27,B28,B29, *
    1723                    ;*                           B30,B31                                          *
    1724                    ;*   Regs Used         : A0,A1,A2,A3,A4,A5,A6,A7,A8,A9,A10,A11,A16,A17,A18,   *
    1725                    ;*                           A19,A20,A21,A22,A23,A24,A25,A26,A27,A28,A29,A30, *
    1726                    ;*                           A31,B0,B1,B2,B3,B4,B5,B6,B7,B8,B9,B13,DP,SP,B16, *
    1727                    ;*                           B17,B18,B19,B20,B21,B22,B23,B24,B25,B26,B27,B28, *
    1728                    ;*                           B29,B30,B31                                      *
    1729                    ;*   Local Frame Size  : 0 Args + 0 Auto + 24 Save = 24 byte                  *
    1730                    ;******************************************************************************
    1731                    InitAudioInterface:
    1732                    ;** --------------------------------------------------------------------------*
    1733                    $C$DW$194       .dwtag  DW_TAG_variable
    1734                            .dwattr $C$DW$194, DW_AT_name("savePinMux")
    1735                            .dwattr $C$DW$194, DW_AT_TI_symbol_name("savePinMux")
    1736                            .dwattr $C$DW$194, DW_AT_type(*$C$DW$T$11)
    1737                            .dwattr $C$DW$194, DW_AT_location[DW_OP_reg20]
    1738                    
    1739                    $C$DW$195       .dwtag  DW_TAG_variable
    1740                            .dwattr $C$DW$195, DW_AT_name("savePinMux")
    1741                            .dwattr $C$DW$195, DW_AT_TI_symbol_name("savePinMux")
    1742                            .dwattr $C$DW$195, DW_AT_type(*$C$DW$T$11)
    1743                            .dwattr $C$DW$195, DW_AT_location[DW_OP_reg20]
    1744                    
    1745                            .dwcfi  cfa_offset, 0
    1746 00000270     36f7             STW     .D2T2   B13,*SP++(-8)     ; [B_D64P] |504| 
    1747                            .dwcfi  cfa_offset, 8
    1748                            .dwcfi  save_reg_to_mem, 29, 0
    1749                    $C$DW$196       .dwtag  DW_TAG_TI_branch
    1750                            .dwattr $C$DW$196, DW_AT_low_pc(0x00)
    1751                            .dwattr $C$DW$196, DW_AT_name("AudioAICInit")
    1752                            .dwattr $C$DW$196, DW_AT_TI_call
    1753                    
    1754                    
    1755 00000272     da1b             CALLP   .S2     AudioAICInit,B3   ; [B_Sb674] |508| 
    1756 00000274     8577  ||         STDW    .D2T1   A11:A10,*SP++(-8) ; [B_D64P] |504| 
    1757 00000276     a5c7  ||         MV      .L2     B3,B13            ; [B_L674] |504| 
    1758                    
    1759                            .dwcfi  cfa_offset, 16
    1760                            .dwcfi  save_reg_to_mem, 11, -4
TMS320C6x Assembler PC v8.1.3 Fri Apr 14 08:40:18 2017

Tools Copyright (c) 1996-2015 Texas Instruments Incorporated
AudioInterface.asm                                                   PAGE   33

    1761                            .dwcfi  save_reg_to_mem, 10, -8
    1762                            .dwcfi  save_reg_to_reg, 19, 29
    1763                            .dwpsn  file "C:/Users/Raz Aloni/OneDrive/School/EEL4924/DSP/C_Libs/AudioInterface/src/AudioIn
    1764 00000278           $C$RL20:   ; CALLP OCCURS {AudioAICInit} {0}  ; [] |508| 
    1765                            .dwpsn  file "C:/Users/Raz Aloni/OneDrive/School/EEL4924/DSP/C_Libs/AudioInterface/src/AudioIn
    1766 00000278     0626             ZERO    .L1     A4                ; [A_L674] |374| 
    1767                    $C$DW$197       .dwtag  DW_TAG_TI_branch
    1768                            .dwattr $C$DW$197, DW_AT_low_pc(0x00)
    1769                            .dwattr $C$DW$197, DW_AT_name("PSCModuleControl")
    1770                            .dwattr $C$DW$197, DW_AT_TI_call
    1771                    
    1772                    
    1773 00000284 10000013!            CALLP   .S2     PSCModuleControl,B3 ; [B_Sb674] |374| 
    1774 00000280 0200e0e9  ||         MVKH    .S1     0x1c10000,A4      ; [A_S674] |374| 
    1775 0000027a     6727  ||         MVK     .L2     3,B6              ; [B_L674] |374| 
    1776 00000288     1a77  ||         ZERO    .D2     B4                ; [B_D64P] |374| 
    1777 0000028a     0726  ||         ZERO    .L1     A6                ; [A_L674] |374| 
    1778                    
    1779 0000028c           $C$RL22:   ; CALLP OCCURS {PSCModuleControl} {0}  ; [] |374| 
    1780                            .dwpsn  file "C:/Users/Raz Aloni/OneDrive/School/EEL4924/DSP/C_Libs/AudioInterface/src/AudioIn
    1781 0000028c     0626             ZERO    .L1     A4                ; [A_L674] |375| 
    1782                    $C$DW$198       .dwtag  DW_TAG_TI_branch
    1783                            .dwattr $C$DW$198, DW_AT_low_pc(0x00)
    1784                            .dwattr $C$DW$198, DW_AT_name("PSCModuleControl")
    1785                            .dwattr $C$DW$198, DW_AT_TI_call
    1786                    
    1787                    
    1788 00000294 10000013!            CALLP   .S2     PSCModuleControl,B3 ; [B_Sb674] |375| 
    1789 00000290 0200e0e9  ||         MVKH    .S1     0x1c10000,A4      ; [A_S674] |375| 
    1790 0000028e     6727  ||         MVK     .L2     3,B6              ; [B_L674] |375| 
    1791 00000298     3a77  ||         MVK     .D2     1,B4              ; [B_D64P] |375| 
    1792 0000029a     0726  ||         ZERO    .L1     A6                ; [A_L674] |375| 
    1793                    
    1794 000002a0           $C$RL24:   ; CALLP OCCURS {PSCModuleControl} {0}  ; [] |375| 
    1795                            .dwpsn  file "C:/Users/Raz Aloni/OneDrive/School/EEL4924/DSP/C_Libs/AudioInterface/src/AudioIn
    1796 000002a0     0626             ZERO    .L1     A4                ; [A_L674] |378| 
    1797                    $C$DW$199       .dwtag  DW_TAG_TI_branch
    1798                            .dwattr $C$DW$199, DW_AT_low_pc(0x00)
    1799                            .dwattr $C$DW$199, DW_AT_name("EDMA3Init")
    1800                            .dwattr $C$DW$199, DW_AT_TI_call
    1801                    
    1802                    
    1803 000002a8 10000012!            CALLP   .S2     EDMA3Init,B3      ; [B_Sb674] |378| 
    1804 000002a4 0212d889  ||         SET     .S1     A4,22,24,A4       ; [A_S674] |378| 
    1805 000002a2     0627  ||         ZERO    .L2     B4                ; [B_L674] |378| 
    1806                    
    1807 000002ac           $C$RL26:   ; CALLP OCCURS {EDMA3Init} {0}    ; [] |378| 
    1808                            .dwpsn  file "C:/Users/Raz Aloni/OneDrive/School/EEL4924/DSP/C_Libs/AudioInterface/src/AudioIn
    1809 000002ac     0626             ZERO    .L1     A4                ; [A_L674] |381| 
    1810                    $C$DW$200       .dwtag  DW_TAG_TI_branch
    1811                            .dwattr $C$DW$200, DW_AT_low_pc(0x00)
    1812                            .dwattr $C$DW$200, DW_AT_name("EDMA3EnableTransfer")
    1813                            .dwattr $C$DW$200, DW_AT_TI_call
    1814                    
    1815                    
TMS320C6x Assembler PC v8.1.3 Fri Apr 14 08:40:18 2017

Tools Copyright (c) 1996-2015 Texas Instruments Incorporated
AudioInterface.asm                                                   PAGE   34

    1816 000002b4 10000013!            CALLP   .S2     EDMA3EnableTransfer,B3 ; [B_Sb674] |381| 
    1817 000002b0 0212d889  ||         SET     .S1     A4,22,24,A4       ; [A_S674] |381| 
    1818 000002ae     0627  ||         ZERO    .L2     B4                ; [B_L674] |381| 
    1819 000002b8     4726  ||         MVK     .L1     2,A6              ; [A_L674] |381| 
    1820                    
    1821 000002ba           $C$RL28:   ; CALLP OCCURS {EDMA3EnableTransfer} {0}  ; [] |381| 
    1822                            .dwpsn  file "C:/Users/Raz Aloni/OneDrive/School/EEL4924/DSP/C_Libs/AudioInterface/src/AudioIn
    1823 000002ba     0626             ZERO    .L1     A4                ; [A_L674] |382| 
    1824                    $C$DW$201       .dwtag  DW_TAG_TI_branch
    1825                            .dwattr $C$DW$201, DW_AT_low_pc(0x00)
    1826                            .dwattr $C$DW$201, DW_AT_name("EDMA3EnableTransfer")
    1827                            .dwattr $C$DW$201, DW_AT_TI_call
    1828                    
    1829                    
    1830 000002c0 10000013!            CALLP   .S2     EDMA3EnableTransfer,B3 ; [B_Sb674] |382| 
    1831 000002c4 0212d889  ||         SET     .S1     A4,22,24,A4       ; [A_S674] |382| 
    1832 000002c8     2627  ||         MVK     .L2     1,B4              ; [B_L674] |382| 
    1833 000002ca     4726  ||         MVK     .L1     2,A6              ; [A_L674] |382| 
    1834                    
    1835 000002cc           $C$RL30:   ; CALLP OCCURS {EDMA3EnableTransfer} {0}  ; [] |382| 
    1836                    ;** --------------------------------------------------------------------------*
    1837                            .dwpsn  file "C:/Users/Raz Aloni/OneDrive/School/EEL4924/DSP/C_Libs/AudioInterface/src/AudioIn
    1838                    $C$DW$202       .dwtag  DW_TAG_TI_branch
    1839                            .dwattr $C$DW$202, DW_AT_low_pc(0x00)
    1840                            .dwattr $C$DW$202, DW_AT_name("AudioEDMAInitParams")
    1841                            .dwattr $C$DW$202, DW_AT_TI_call
    1842                    
    1843 000002cc 1fffc312             CALLP   .S2     AudioEDMAInitParams,B3 ; [B_Sb674] |388| 
    1844 000002d0           $C$RL32:   ; CALLP OCCURS {AudioEDMAInitParams} {0}  ; [] |388| 
    1845                            .dwpsn  file "C:/Users/Raz Aloni/OneDrive/School/EEL4924/DSP/C_Libs/AudioInterface/src/AudioIn
    1846 000002d0     2727             MVK     .L2     1,B6              ; [B_L674] |391| 
    1847 000002d2     0626             ZERO    .L1     A4                ; [A_L674] |391| 
    1848                    $C$DW$203       .dwtag  DW_TAG_TI_branch
    1849                            .dwattr $C$DW$203, DW_AT_low_pc(0x08)
    1850                            .dwattr $C$DW$203, DW_AT_name("EDMA3RequestChannel")
    1851                            .dwattr $C$DW$203, DW_AT_TI_call
    1852                    
    1853                    
    1854 000002d4     d346             MV      .L1X    B6,A6             ; [A_L674] |391| 
    1855 000002e0 0212d889  ||         SET     .S1     A4,22,24,A4       ; [A_S674] |391| 
    1856 000002d8 10000013! ||         CALLP   .S2     EDMA3RequestChannel,B3 ; [B_Sb674] |391| 
    1857 000002d6     0627  ||         ZERO    .L2     B4                ; [B_L674] |391| 
    1858 000002e4 04000040  ||         ZERO    .D1     A8                ; [A_D64P] |391| 
    1859                    
    1860 000002e8           $C$RL34:   ; CALLP OCCURS {EDMA3RequestChannel} {0}  ; [] |391| 
    1861                            .dwpsn  file "C:/Users/Raz Aloni/OneDrive/School/EEL4924/DSP/C_Libs/AudioInterface/src/AudioIn
    1862 000002e8     0626             ZERO    .L1     A4                ; [A_L674] |392| 
    1863                    $C$DW$204       .dwtag  DW_TAG_TI_branch
    1864                            .dwattr $C$DW$204, DW_AT_low_pc(0x04)
    1865                            .dwattr $C$DW$204, DW_AT_name("EDMA3RequestChannel")
    1866                            .dwattr $C$DW$204, DW_AT_TI_call
    1867                    
    1868                    
    1869 000002f0 0212d889             SET     .S1     A4,22,24,A4       ; [A_S674] |392| 
    1870 000002ec 10000013! ||         CALLP   .S2     EDMA3RequestChannel,B3 ; [B_Sb674] |392| 
TMS320C6x Assembler PC v8.1.3 Fri Apr 14 08:40:18 2017

Tools Copyright (c) 1996-2015 Texas Instruments Incorporated
AudioInterface.asm                                                   PAGE   35

    1871 000002ea     0727  ||         ZERO    .L2     B6                ; [B_L674] |392| 
    1872 000002f4     1a77  ||         ZERO    .D2     B4                ; [B_D64P] |392| 
    1873 000002f8 0400a358  ||         ZERO    .L1     A8                ; [A_L674] |392| 
    1874 000002f6     1b76  ||         ZERO    .D1     A6                ; [A_D64P] |392| 
    1875                    
    1876 00000300           $C$RL36:   ; CALLP OCCURS {EDMA3RequestChannel} {0}  ; [] |392| 
    1877                            .dwpsn  file "C:/Users/Raz Aloni/OneDrive/School/EEL4924/DSP/C_Libs/AudioInterface/src/AudioIn
    1878 00000300 02380028             MVKL    .S1     0x1e27000,A4      ; [A_S674] |399| 
    1879                    $C$DW$205       .dwtag  DW_TAG_TI_branch
    1880                            .dwattr $C$DW$205, DW_AT_low_pc(0x04)
    1881                            .dwattr $C$DW$205, DW_AT_name("PSCModuleControl")
    1882                            .dwattr $C$DW$205, DW_AT_TI_call
    1883                    
    1884                    
    1885 00000304 0200f169             MVKH    .S1     0x1e27000,A4      ; [A_S674] |399| 
    1886 00000308 10000013! ||         CALLP   .S2     PSCModuleControl,B3 ; [B_Sb674] |399| 
    1887 0000030c     6727  ||         MVK     .L2     3,B6              ; [B_L674] |399| 
    1888 00000310 0200e042  ||         MVK     .D2     7,B4              ; [B_D64P] |399| 
    1889 0000030e     0726  ||         ZERO    .L1     A6                ; [A_L674] |399| 
    1890                    
    1891 00000314           $C$RL38:   ; CALLP OCCURS {PSCModuleControl} {0}  ; [] |399| 
    1892                            .dwpsn  file "C:/Users/Raz Aloni/OneDrive/School/EEL4924/DSP/C_Libs/AudioInterface/src/AudioIn
    1893 00000314 02a0902a             MVKL    .S2     0x1c14120,B5      ; [B_Sb674] |224| 
    1894 00000318 0280e0ea             MVKH    .S2     0x1c14120,B5      ; [B_Sb674] |224| 
    1895 00000320 021402e6             LDW     .D2T2   *B5(0),B4         ; [B_D64P] |224| 
    1896                            .dwpsn  file "C:/Users/Raz Aloni/OneDrive/School/EEL4924/DSP/C_Libs/AudioInterface/src/AudioIn
    1897 00000324 020888a8             MVKL    .S1     0x1111111,A4      ; [A_S674] |237| 
    1898 00000328 020088e8             MVKH    .S1     0x1111111,A4      ; [A_S674] |237| 
    1899 0000032c     72c6             MV      .L1X    B5,A3             ; [A_L674] |237| 
    1900 0000032e     86d1             ADD     .L2     4,B5,B5           ; [B_L674] 
    1901                            .dwpsn  file "C:/Users/Raz Aloni/OneDrive/School/EEL4924/DSP/C_Libs/AudioInterface/src/AudioIn
    1902 00000330 02101bca             CLR     .S2     B4,0,27,B4        ; [B_Sb674] |224| 
    1903                            .dwpsn  file "C:/Users/Raz Aloni/OneDrive/School/EEL4924/DSP/C_Libs/AudioInterface/src/AudioIn
    1904 00000334 0300882a             MVK     .S2     272,B6            ; [B_Sb674] |255| 
    1905                            .dwpsn  file "C:/Users/Raz Aloni/OneDrive/School/EEL4924/DSP/C_Libs/AudioInterface/src/AudioIn
    1906 00000338 02109ff8             OR      .L1X    A4,B4,A4          ; [A_L674] |237| 
    1907 00000340 020c0274             STW     .D1T1   A4,*A3(0)         ; [A_D64P] |237| 
    1908                            .dwpsn  file "C:/Users/Raz Aloni/OneDrive/School/EEL4924/DSP/C_Libs/AudioInterface/src/AudioIn
    1909 00000344 021402e6             LDW     .D2T2   *B5(0),B4         ; [B_D64P] |247| 
    1910                            .dwpsn  file "C:/Users/Raz Aloni/OneDrive/School/EEL4924/DSP/C_Libs/AudioInterface/src/AudioIn
    1911 00000348 0500a358             ZERO    .L1     A10               ; [A_L674] |406| 
    1912 0000034c 0500e868             MVKH    .S1     0x1d00000,A10     ; [A_S674] |406| 
    1913 00000350     8506             MV      .L1     A10,A4            ; [A_L674] |406| 
    1914 00000352     0c6e             NOP             1                 ; [A_L674] 
    1915                            .dwpsn  file "C:/Users/Raz Aloni/OneDrive/School/EEL4924/DSP/C_Libs/AudioInterface/src/AudioIn
    1916 00000354 02108bca             CLR     .S2     B4,4,11,B4        ; [B_Sb674] |247| 
    1917                            .dwpsn  file "C:/Users/Raz Aloni/OneDrive/School/EEL4924/DSP/C_Libs/AudioInterface/src/AudioIn
    1918 00000358 0210cffa             OR      .L2     B6,B4,B4          ; [B_L674] |255| 
    1919                    $C$DW$206       .dwtag  DW_TAG_TI_branch
    1920                            .dwattr $C$DW$206, DW_AT_low_pc(0x00)
    1921                            .dwattr $C$DW$206, DW_AT_name("McASPRxReset")
    1922                            .dwattr $C$DW$206, DW_AT_TI_call
    1923                    
    1924                    
    1925 00000360 10000013!            CALLP   .S2     McASPRxReset,B3   ; [B_Sb674] |406| 
TMS320C6x Assembler PC v8.1.3 Fri Apr 14 08:40:18 2017

Tools Copyright (c) 1996-2015 Texas Instruments Incorporated
AudioInterface.asm                                                   PAGE   36

    1926 00000364 021402f6  ||         STW     .D2T2   B4,*B5(0)         ; [B_D64P] |255| 
    1927                    
    1928                            .dwpsn  file "C:/Users/Raz Aloni/OneDrive/School/EEL4924/DSP/C_Libs/AudioInterface/src/AudioIn
    1929                    $C$RL40:   ; CALLP OCCURS {McASPRxReset} {0}  ; [] |406| 
    1930                    $C$DW$207       .dwtag  DW_TAG_TI_branch
    1931                            .dwattr $C$DW$207, DW_AT_low_pc(0x04)
    1932                            .dwattr $C$DW$207, DW_AT_name("McASPTxReset")
    1933                            .dwattr $C$DW$207, DW_AT_TI_call
    1934                    
    1935                    
    1936 00000368 02280fd9             MV      .L1     A10,A4            ; [A_L674] |406| 
    1937 0000036c 10000012! ||         CALLP   .S2     McASPTxReset,B3   ; [B_Sb674] |407| 
    1938                    
    1939                            .dwpsn  file "C:/Users/Raz Aloni/OneDrive/School/EEL4924/DSP/C_Libs/AudioInterface/src/AudioIn
    1940 00000370           $C$RL42:   ; CALLP OCCURS {McASPTxReset} {0}  ; [] |407| 
    1941                    ;** --------------------------------------------------------------------------*
    1942                            .dwpsn  file "C:/Users/Raz Aloni/OneDrive/School/EEL4924/DSP/C_Libs/AudioInterface/src/AudioIn
    1943 00000370 0204a35a             MVK     .L2     1,B4              ; [B_L674] |410| 
    1944 00000374 02080029             MVKL    .S1     0x1d01000,A4      ; [A_S674] |410| 
    1945                    $C$DW$208       .dwtag  DW_TAG_TI_branch
    1946                            .dwattr $C$DW$208, DW_AT_low_pc(0x08)
    1947                            .dwattr $C$DW$208, DW_AT_name("McASPReadFifoEnable")
    1948                            .dwattr $C$DW$208, DW_AT_TI_call
    1949                    
    1950                    
    1951 00000384     d246             MV      .L1X    B4,A6             ; [A_L674] |410| 
    1952 00000380 0200e869  ||         MVKH    .S1     0x1d01000,A4      ; [A_S674] |410| 
    1953 0000037c 10000013! ||         CALLP   .S2     McASPReadFifoEnable,B3 ; [B_Sb674] |410| 
    1954                    
    1955 00000386           $C$RL44:   ; CALLP OCCURS {McASPReadFifoEnable} {0}  ; [] |410| 
    1956                            .dwpsn  file "C:/Users/Raz Aloni/OneDrive/School/EEL4924/DSP/C_Libs/AudioInterface/src/AudioIn
    1957 00000386     2627             MVK     .L2     1,B4              ; [B_L674] |411| 
    1958 00000388 02080028             MVKL    .S1     0x1d01000,A4      ; [A_S674] |411| 
    1959                    $C$DW$209       .dwtag  DW_TAG_TI_branch
    1960                            .dwattr $C$DW$209, DW_AT_low_pc(0x08)
    1961                            .dwattr $C$DW$209, DW_AT_name("McASPWriteFifoEnable")
    1962                            .dwattr $C$DW$209, DW_AT_TI_call
    1963                    
    1964                    
    1965 00000394     d246             MV      .L1X    B4,A6             ; [A_L674] |411| 
    1966 00000390 0200e869  ||         MVKH    .S1     0x1d01000,A4      ; [A_S674] |411| 
    1967 0000038c 10000013! ||         CALLP   .S2     McASPWriteFifoEnable,B3 ; [B_Sb674] |411| 
    1968                    
    1969 00000396           $C$RL46:   ; CALLP OCCURS {McASPWriteFifoEnable} {0}  ; [] |411| 
    1970                            .dwpsn  file "C:/Users/Raz Aloni/OneDrive/School/EEL4924/DSP/C_Libs/AudioInterface/src/AudioIn
    1971 00000396     1213             MVK     .S2     0x10,B4           ; [B_Sb674] |414| 
    1972 00000398     0727             ZERO    .L2     B6                ; [B_L674] |414| 
    1973                            .dwpsn  file "C:/Users/Raz Aloni/OneDrive/School/EEL4924/DSP/C_Libs/AudioInterface/src/AudioIn
    1974                    $C$DW$210       .dwtag  DW_TAG_TI_branch
    1975                            .dwattr $C$DW$210, DW_AT_low_pc(0x08)
    1976                            .dwattr $C$DW$210, DW_AT_name("McASPRxFmtI2SSet")
    1977                            .dwattr $C$DW$210, DW_AT_TI_call
    1978                    
    1979                    
    1980 0000039a     8506             MV      .L1     A10,A4            ; [A_L674] |411| 
TMS320C6x Assembler PC v8.1.3 Fri Apr 14 08:40:18 2017

Tools Copyright (c) 1996-2015 Texas Instruments Incorporated
AudioInterface.asm                                                   PAGE   37

    1981 000003a4     d24e  ||         MV      .S1X    B4,A6             ; [A_S674] |414| 
    1982 000003a0 10000013! ||         CALLP   .S2     McASPRxFmtI2SSet,B3 ; [B_Sb674] |414| 
    1983                    
    1984                            .dwpsn  file "C:/Users/Raz Aloni/OneDrive/School/EEL4924/DSP/C_Libs/AudioInterface/src/AudioIn
    1985 000003a6           $C$RL48:   ; CALLP OCCURS {McASPRxFmtI2SSet} {0}  ; [] |414| 
    1986                            .dwpsn  file "C:/Users/Raz Aloni/OneDrive/School/EEL4924/DSP/C_Libs/AudioInterface/src/AudioIn
    1987 000003a6     1213             MVK     .S2     0x10,B4           ; [B_Sb674] |416| 
    1988 000003a8     0727             ZERO    .L2     B6                ; [B_L674] |416| 
    1989                            .dwpsn  file "C:/Users/Raz Aloni/OneDrive/School/EEL4924/DSP/C_Libs/AudioInterface/src/AudioIn
    1990                    $C$DW$211       .dwtag  DW_TAG_TI_branch
    1991                            .dwattr $C$DW$211, DW_AT_low_pc(0x08)
    1992                            .dwattr $C$DW$211, DW_AT_name("McASPTxFmtI2SSet")
    1993                            .dwattr $C$DW$211, DW_AT_TI_call
    1994                    
    1995                    
    1996 000003aa     8506             MV      .L1     A10,A4            ; [A_L674] |414| 
    1997 000003b0     d24e  ||         MV      .S1X    B4,A6             ; [A_S674] |416| 
    1998 000003ac 10000013! ||         CALLP   .S2     McASPTxFmtI2SSet,B3 ; [B_Sb674] |416| 
    1999                    
    2000                            .dwpsn  file "C:/Users/Raz Aloni/OneDrive/School/EEL4924/DSP/C_Libs/AudioInterface/src/AudioIn
    2001                    $C$RL50:   ; CALLP OCCURS {McASPTxFmtI2SSet} {0}  ; [] |416| 
    2002                    $C$DW$212       .dwtag  DW_TAG_TI_branch
    2003                            .dwattr $C$DW$212, DW_AT_low_pc(0x00)
    2004                            .dwattr $C$DW$212, DW_AT_name("McASPRxFrameSyncCfg")
    2005                            .dwattr $C$DW$212, DW_AT_TI_call
    2006                    
    2007                    
    2008 000003c0 10000013!            CALLP   .S2     McASPRxFrameSyncCfg,B3 ; [B_Sb674] |420| 
    2009 000003c4 0304a35b  ||         MVK     .L2     1,B6              ; [B_L674] |420| 
    2010 000003cc 02004043  ||         MVK     .D2     2,B4              ; [B_D64P] |420| 
    2011 000003c8 03000829  ||         MVK     .S1     0x10,A6           ; [A_S674] |420| 
    2012 000003d0 02280fd9  ||         MV      .L1     A10,A4            ; [A_L674] |416| 
    2013                    
    2014                            .dwpsn  file "C:/Users/Raz Aloni/OneDrive/School/EEL4924/DSP/C_Libs/AudioInterface/src/AudioIn
    2015                    $C$RL52:   ; CALLP OCCURS {McASPRxFrameSyncCfg} {0}  ; [] |420| 
    2016                    $C$DW$213       .dwtag  DW_TAG_TI_branch
    2017                            .dwattr $C$DW$213, DW_AT_low_pc(0x00)
    2018                            .dwattr $C$DW$213, DW_AT_name("McASPTxFrameSyncCfg")
    2019                            .dwattr $C$DW$213, DW_AT_TI_call
    2020                    
    2021                    
    2022 000003e0 10000013!            CALLP   .S2     McASPTxFrameSyncCfg,B3 ; [B_Sb674] |422| 
    2023 000003e4     0727  ||         ZERO    .L2     B6                ; [B_L674] |422| 
    2024 000003e8 02004043  ||         MVK     .D2     2,B4              ; [B_D64P] |422| 
    2025 000003e6     1312  ||         MVK     .S1     0x10,A6           ; [A_S674] |422| 
    2026 000003ec 02280fd8  ||         MV      .L1     A10,A4            ; [A_L674] |420| 
    2027                    
    2028                            .dwpsn  file "C:/Users/Raz Aloni/OneDrive/School/EEL4924/DSP/C_Libs/AudioInterface/src/AudioIn
    2029                    $C$RL54:   ; CALLP OCCURS {McASPTxFrameSyncCfg} {0}  ; [] |422| 
    2030                    $C$DW$214       .dwtag  DW_TAG_TI_branch
    2031                            .dwattr $C$DW$214, DW_AT_low_pc(0x00)
    2032                            .dwattr $C$DW$214, DW_AT_name("McASPRxClkCfg")
    2033                            .dwattr $C$DW$214, DW_AT_TI_call
    2034                    
    2035                    
TMS320C6x Assembler PC v8.1.3 Fri Apr 14 08:40:18 2017

Tools Copyright (c) 1996-2015 Texas Instruments Incorporated
AudioInterface.asm                                                   PAGE   38

    2036 000003f0 10000013!            CALLP   .S2     McASPRxClkCfg,B3  ; [B_Sb674] |426| 
    2037 000003f4     0727  ||         ZERO    .L2     B6                ; [B_L674] |426| 
    2038 000003f6     1a77  ||         ZERO    .D2     B4                ; [B_D64P] |426| 
    2039 000003f8     0726  ||         ZERO    .L1     A6                ; [A_L674] |426| 
    2040 000003fa     850e  ||         MV      .S1     A10,A4            ; [A_S674] |422| 
    2041                    
    2042                            .dwpsn  file "C:/Users/Raz Aloni/OneDrive/School/EEL4924/DSP/C_Libs/AudioInterface/src/AudioIn
    2043 00000400           $C$RL56:   ; CALLP OCCURS {McASPRxClkCfg} {0}  ; [] |426| 
    2044                            .dwpsn  file "C:/Users/Raz Aloni/OneDrive/School/EEL4924/DSP/C_Libs/AudioInterface/src/AudioIn
    2045 00000400 0200402a             MVK     .S2     0x80,B4           ; [B_Sb674] |427| 
    2046                            .dwpsn  file "C:/Users/Raz Aloni/OneDrive/School/EEL4924/DSP/C_Libs/AudioInterface/src/AudioIn
    2047                    $C$DW$215       .dwtag  DW_TAG_TI_branch
    2048                            .dwattr $C$DW$215, DW_AT_low_pc(0x00)
    2049                            .dwattr $C$DW$215, DW_AT_name("McASPRxClkPolaritySet")
    2050                            .dwattr $C$DW$215, DW_AT_TI_call
    2051                    
    2052                    
    2053 00000408 10000012!            CALLP   .S2     McASPRxClkPolaritySet,B3 ; [B_Sb674] |427| 
    2054 00000404 02280fd9  ||         MV      .L1     A10,A4            ; [A_L674] |426| 
    2055                    
    2056                            .dwpsn  file "C:/Users/Raz Aloni/OneDrive/School/EEL4924/DSP/C_Libs/AudioInterface/src/AudioIn
    2057 0000040c           $C$RL58:   ; CALLP OCCURS {McASPRxClkPolaritySet} {0}  ; [] |427| 
    2058                            .dwpsn  file "C:/Users/Raz Aloni/OneDrive/School/EEL4924/DSP/C_Libs/AudioInterface/src/AudioIn
    2059 0000040c 03007faa             MVK     .S2     0xff,B6           ; [B_Sb674] |428| 
    2060                            .dwpsn  file "C:/Users/Raz Aloni/OneDrive/School/EEL4924/DSP/C_Libs/AudioInterface/src/AudioIn
    2061                    $C$DW$216       .dwtag  DW_TAG_TI_branch
    2062                            .dwattr $C$DW$216, DW_AT_low_pc(0x00)
    2063                            .dwattr $C$DW$216, DW_AT_name("McASPRxClkCheckConfig")
    2064                            .dwattr $C$DW$216, DW_AT_TI_call
    2065                    
    2066                    
    2067 00000414 10000013!            CALLP   .S2     McASPRxClkCheckConfig,B3 ; [B_Sb674] |428| 
    2068 00000410 0214a35b  ||         MVK     .L2     5,B4              ; [B_L674] |428| 
    2069 00000418 0300a359  ||         ZERO    .L1     A6                ; [A_L674] |428| 
    2070 0000041c 022806a0  ||         MV      .S1     A10,A4            ; [A_S674] |427| 
    2071                    
    2072                            .dwpsn  file "C:/Users/Raz Aloni/OneDrive/School/EEL4924/DSP/C_Libs/AudioInterface/src/AudioIn
    2073 00000420           $C$RL60:   ; CALLP OCCURS {McASPRxClkCheckConfig} {0}  ; [] |428| 
    2074                    ;** --------------------------------------------------------------------------*
    2075                            .dwpsn  file "C:/Users/Raz Aloni/OneDrive/School/EEL4924/DSP/C_Libs/AudioInterface/src/AudioIn
    2076                    $C$DW$217       .dwtag  DW_TAG_TI_branch
    2077                            .dwattr $C$DW$217, DW_AT_low_pc(0x00)
    2078                            .dwattr $C$DW$217, DW_AT_name("McASPTxClkCfg")
    2079                            .dwattr $C$DW$217, DW_AT_TI_call
    2080                    
    2081                    
    2082 00000420 10000013!            CALLP   .S2     McASPTxClkCfg,B3  ; [B_Sb674] |432| 
    2083 00000424     0727  ||         ZERO    .L2     B6                ; [B_L674] |432| 
    2084 00000426     1a77  ||         ZERO    .D2     B4                ; [B_D64P] |432| 
    2085 00000428     0726  ||         ZERO    .L1     A6                ; [A_L674] |432| 
    2086 0000042a     850e  ||         MV      .S1     A10,A4            ; [A_S674] 
    2087                    
    2088 0000042c           $C$RL62:   ; CALLP OCCURS {McASPTxClkCfg} {0}  ; [] |432| 
    2089                            .dwpsn  file "C:/Users/Raz Aloni/OneDrive/School/EEL4924/DSP/C_Libs/AudioInterface/src/AudioIn
    2090 0000042c     0613             MVK     .S2     0x80,B4           ; [B_Sb674] |433| 
TMS320C6x Assembler PC v8.1.3 Fri Apr 14 08:40:18 2017

Tools Copyright (c) 1996-2015 Texas Instruments Incorporated
AudioInterface.asm                                                   PAGE   39

    2091                            .dwpsn  file "C:/Users/Raz Aloni/OneDrive/School/EEL4924/DSP/C_Libs/AudioInterface/src/AudioIn
    2092                    $C$DW$218       .dwtag  DW_TAG_TI_branch
    2093                            .dwattr $C$DW$218, DW_AT_low_pc(0x00)
    2094                            .dwattr $C$DW$218, DW_AT_name("McASPTxClkPolaritySet")
    2095                            .dwattr $C$DW$218, DW_AT_TI_call
    2096                    
    2097                    
    2098 00000430 10000012!            CALLP   .S2     McASPTxClkPolaritySet,B3 ; [B_Sb674] |433| 
    2099 0000042e     8506  ||         MV      .L1     A10,A4            ; [A_L674] |432| 
    2100                    
    2101                            .dwpsn  file "C:/Users/Raz Aloni/OneDrive/School/EEL4924/DSP/C_Libs/AudioInterface/src/AudioIn
    2102 00000434           $C$RL64:   ; CALLP OCCURS {McASPTxClkPolaritySet} {0}  ; [] |433| 
    2103                            .dwpsn  file "C:/Users/Raz Aloni/OneDrive/School/EEL4924/DSP/C_Libs/AudioInterface/src/AudioIn
    2104 00000434     ff73             MVK     .S2     0xff,B6           ; [B_Sb674] |434| 
    2105                            .dwpsn  file "C:/Users/Raz Aloni/OneDrive/School/EEL4924/DSP/C_Libs/AudioInterface/src/AudioIn
    2106                    $C$DW$219       .dwtag  DW_TAG_TI_branch
    2107                            .dwattr $C$DW$219, DW_AT_low_pc(0x00)
    2108                            .dwattr $C$DW$219, DW_AT_name("McASPTxClkCheckConfig")
    2109                            .dwattr $C$DW$219, DW_AT_TI_call
    2110                    
    2111                    
    2112 00000438 10000013!            CALLP   .S2     McASPTxClkCheckConfig,B3 ; [B_Sb674] |434| 
    2113 00000436     a627  ||         MVK     .L2     5,B4              ; [B_L674] |434| 
    2114 00000440     0726  ||         ZERO    .L1     A6                ; [A_L674] |434| 
    2115 00000442     850e  ||         MV      .S1     A10,A4            ; [A_S674] |433| 
    2116                    
    2117                            .dwpsn  file "C:/Users/Raz Aloni/OneDrive/School/EEL4924/DSP/C_Libs/AudioInterface/src/AudioIn
    2118                    $C$RL66:   ; CALLP OCCURS {McASPTxClkCheckConfig} {0}  ; [] |434| 
    2119                    $C$DW$220       .dwtag  DW_TAG_TI_branch
    2120                            .dwattr $C$DW$220, DW_AT_low_pc(0x00)
    2121                            .dwattr $C$DW$220, DW_AT_name("McASPTxRxClkSyncEnable")
    2122                            .dwattr $C$DW$220, DW_AT_TI_call
    2123                    
    2124                    
    2125 00000444 10000013!            CALLP   .S2     McASPTxRxClkSyncEnable,B3 ; [B_Sb674] |438| 
    2126 00000448 02280fd8  ||         MV      .L1     A10,A4            ; [A_L674] |434| 
    2127                    
    2128                            .dwpsn  file "C:/Users/Raz Aloni/OneDrive/School/EEL4924/DSP/C_Libs/AudioInterface/src/AudioIn
    2129                    $C$RL68:   ; CALLP OCCURS {McASPTxRxClkSyncEnable} {0}  ; [] |438| 
    2130                    $C$DW$221       .dwtag  DW_TAG_TI_branch
    2131                            .dwattr $C$DW$221, DW_AT_low_pc(0x00)
    2132                            .dwattr $C$DW$221, DW_AT_name("McASPRxTimeSlotSet")
    2133                            .dwattr $C$DW$221, DW_AT_TI_call
    2134                    
    2135                    
    2136 0000044c 10000013!            CALLP   .S2     McASPRxTimeSlotSet,B3 ; [B_Sb674] |441| 
    2137 00000450     6627  ||         MVK     .L2     3,B4              ; [B_L674] |441| 
    2138 00000452     8506  ||         MV      .L1     A10,A4            ; [A_L674] |438| 
    2139                    
    2140                            .dwpsn  file "C:/Users/Raz Aloni/OneDrive/School/EEL4924/DSP/C_Libs/AudioInterface/src/AudioIn
    2141                    $C$RL70:   ; CALLP OCCURS {McASPRxTimeSlotSet} {0}  ; [] |441| 
    2142                    $C$DW$222       .dwtag  DW_TAG_TI_branch
    2143                            .dwattr $C$DW$222, DW_AT_low_pc(0x00)
    2144                            .dwattr $C$DW$222, DW_AT_name("McASPTxTimeSlotSet")
    2145                            .dwattr $C$DW$222, DW_AT_TI_call
TMS320C6x Assembler PC v8.1.3 Fri Apr 14 08:40:18 2017

Tools Copyright (c) 1996-2015 Texas Instruments Incorporated
AudioInterface.asm                                                   PAGE   40

    2146                    
    2147                    
    2148 00000454 10000013!            CALLP   .S2     McASPTxTimeSlotSet,B3 ; [B_Sb674] |442| 
    2149 00000458     6627  ||         MVK     .L2     3,B4              ; [B_L674] |442| 
    2150 0000045a     8506  ||         MV      .L1     A10,A4            ; [A_L674] |441| 
    2151                    
    2152                            .dwpsn  file "C:/Users/Raz Aloni/OneDrive/School/EEL4924/DSP/C_Libs/AudioInterface/src/AudioIn
    2153                    $C$RL72:   ; CALLP OCCURS {McASPTxTimeSlotSet} {0}  ; [] |442| 
    2154                    $C$DW$223       .dwtag  DW_TAG_TI_branch
    2155                            .dwattr $C$DW$223, DW_AT_low_pc(0x00)
    2156                            .dwattr $C$DW$223, DW_AT_name("McASPTxIntEnable")
    2157                            .dwattr $C$DW$223, DW_AT_TI_call
    2158                    
    2159                    
    2160 00000460 10000013!            CALLP   .S2     McASPTxIntEnable,B3 ; [B_Sb674] |445| 
    2161 00000464 0224a35b  ||         MVK     .L2     9,B4              ; [B_L674] |445| 
    2162 00000468 02280fd8  ||         MV      .L1     A10,A4            ; [A_L674] |442| 
    2163                    
    2164                            .dwpsn  file "C:/Users/Raz Aloni/OneDrive/School/EEL4924/DSP/C_Libs/AudioInterface/src/AudioIn
    2165                    $C$RL74:   ; CALLP OCCURS {McASPTxIntEnable} {0}  ; [] |445| 
    2166                    $C$DW$224       .dwtag  DW_TAG_TI_branch
    2167                            .dwattr $C$DW$224, DW_AT_low_pc(0x00)
    2168                            .dwattr $C$DW$224, DW_AT_name("McASPRxIntEnable")
    2169                            .dwattr $C$DW$224, DW_AT_TI_call
    2170                    
    2171                    
    2172 0000046c 10000013!            CALLP   .S2     McASPRxIntEnable,B3 ; [B_Sb674] |446| 
    2173 00000470 0224a35b  ||         MVK     .L2     9,B4              ; [B_L674] |446| 
    2174 00000474 02280fd9  ||         MV      .L1     A10,A4            ; [A_L674] |445| 
    2175                    
    2176                            .dwpsn  file "C:/Users/Raz Aloni/OneDrive/School/EEL4924/DSP/C_Libs/AudioInterface/src/AudioIn
    2177                    $C$RL76:   ; CALLP OCCURS {McASPRxIntEnable} {0}  ; [] |446| 
    2178                    $C$DW$225       .dwtag  DW_TAG_TI_branch
    2179                            .dwattr $C$DW$225, DW_AT_low_pc(0x00)
    2180                            .dwattr $C$DW$225, DW_AT_name("McASPSerializerRxSet")
    2181                            .dwattr $C$DW$225, DW_AT_TI_call
    2182                    
    2183                    
    2184 00000480 10000013!            CALLP   .S2     McASPSerializerRxSet,B3 ; [B_Sb674] |452| 
    2185 00000484     ce27  ||         MVK     .L2     14,B4             ; [B_L674] |452| 
    2186 00000486     8506  ||         MV      .L1     A10,A4            ; [A_L674] |446| 
    2187                    
    2188                            .dwpsn  file "C:/Users/Raz Aloni/OneDrive/School/EEL4924/DSP/C_Libs/AudioInterface/src/AudioIn
    2189 00000488           $C$RL78:   ; CALLP OCCURS {McASPSerializerRxSet} {0}  ; [] |452| 
    2190                    ;** --------------------------------------------------------------------------*
    2191                            .dwpsn  file "C:/Users/Raz Aloni/OneDrive/School/EEL4924/DSP/C_Libs/AudioInterface/src/AudioIn
    2192                    $C$DW$226       .dwtag  DW_TAG_TI_branch
    2193                            .dwattr $C$DW$226, DW_AT_low_pc(0x00)
    2194                            .dwattr $C$DW$226, DW_AT_name("McASPSerializerTxSet")
    2195                            .dwattr $C$DW$226, DW_AT_TI_call
    2196                    
    2197                    
    2198 00000488 10000013!            CALLP   .S2     McASPSerializerTxSet,B3 ; [B_Sb674] |453| 
    2199 0000048c     ae27  ||         MVK     .L2     13,B4             ; [B_L674] |453| 
    2200 0000048e     8506  ||         MV      .L1     A10,A4            ; [A_L674] 
TMS320C6x Assembler PC v8.1.3 Fri Apr 14 08:40:18 2017

Tools Copyright (c) 1996-2015 Texas Instruments Incorporated
AudioInterface.asm                                                   PAGE   41

    2201                    
    2202                    $C$RL80:   ; CALLP OCCURS {McASPSerializerTxSet} {0}  ; [] |453| 
    2203                    $C$DW$227       .dwtag  DW_TAG_TI_branch
    2204                            .dwattr $C$DW$227, DW_AT_low_pc(0x00)
    2205                            .dwattr $C$DW$227, DW_AT_name("McASPPinMcASPSet")
    2206                            .dwattr $C$DW$227, DW_AT_TI_call
    2207                    
    2208                    
    2209 00000490 10000013!            CALLP   .S2     McASPPinMcASPSet,B3 ; [B_Sb674] |460| 
    2210 00000494     fe27  ||         MVK     .L2     -1,B4             ; [B_L674] |460| 
    2211 00000496     8506  ||         MV      .L1     A10,A4            ; [A_L674] |453| 
    2212                    
    2213                            .dwpsn  file "C:/Users/Raz Aloni/OneDrive/School/EEL4924/DSP/C_Libs/AudioInterface/src/AudioIn
    2214 00000498           $C$RL82:   ; CALLP OCCURS {McASPPinMcASPSet} {0}  ; [] |460| 
    2215                            .dwpsn  file "C:/Users/Raz Aloni/OneDrive/School/EEL4924/DSP/C_Libs/AudioInterface/src/AudioIn
    2216 00000498 0210002a             MVK     .S2     0x2000,B4         ; [B_Sb674] |461| 
    2217                            .dwpsn  file "C:/Users/Raz Aloni/OneDrive/School/EEL4924/DSP/C_Libs/AudioInterface/src/AudioIn
    2218                    $C$DW$228       .dwtag  DW_TAG_TI_branch
    2219                            .dwattr $C$DW$228, DW_AT_low_pc(0x00)
    2220                            .dwattr $C$DW$228, DW_AT_name("McASPPinDirOutputSet")
    2221                            .dwattr $C$DW$228, DW_AT_TI_call
    2222                    
    2223                    
    2224 000004a0 10000013!            CALLP   .S2     McASPPinDirOutputSet,B3 ; [B_Sb674] |461| 
    2225 000004a4 02280fd8  ||         MV      .L1     A10,A4            ; [A_L674] |460| 
    2226                    
    2227                            .dwpsn  file "C:/Users/Raz Aloni/OneDrive/School/EEL4924/DSP/C_Libs/AudioInterface/src/AudioIn
    2228 000004a8           $C$RL84:   ; CALLP OCCURS {McASPPinDirOutputSet} {0}  ; [] |461| 
    2229                            .dwpsn  file "C:/Users/Raz Aloni/OneDrive/School/EEL4924/DSP/C_Libs/AudioInterface/src/AudioIn
    2230 000004a8 0220002a             MVKL    .S2     0xb4004000,B4     ; [B_Sb674] |462| 
    2231 000004ac 025a006a             MVKH    .S2     0xb4004000,B4     ; [B_Sb674] |462| 
    2232                            .dwpsn  file "C:/Users/Raz Aloni/OneDrive/School/EEL4924/DSP/C_Libs/AudioInterface/src/AudioIn
    2233                    $C$DW$229       .dwtag  DW_TAG_TI_branch
    2234                            .dwattr $C$DW$229, DW_AT_low_pc(0x00)
    2235                            .dwattr $C$DW$229, DW_AT_name("McASPPinDirInputSet")
    2236                            .dwattr $C$DW$229, DW_AT_TI_call
    2237                    
    2238                    
    2239 000004b0 10000013!            CALLP   .S2     McASPPinDirInputSet,B3 ; [B_Sb674] |462| 
    2240 000004b4 02280fd9  ||         MV      .L1     A10,A4            ; [A_L674] |461| 
    2241                    
    2242                            .dwpsn  file "C:/Users/Raz Aloni/OneDrive/School/EEL4924/DSP/C_Libs/AudioInterface/src/AudioIn
    2243                    $C$RL86:   ; CALLP OCCURS {McASPPinDirInputSet} {0}  ; [] |462| 
    2244                    $C$DW$230       .dwtag  DW_TAG_TI_branch
    2245                            .dwattr $C$DW$230, DW_AT_low_pc(0x00)
    2246                            .dwattr $C$DW$230, DW_AT_name("McASPRxClkStart")
    2247                            .dwattr $C$DW$230, DW_AT_TI_call
    2248                    
    2249                    
    2250 000004c0 10000013!            CALLP   .S2     McASPRxClkStart,B3 ; [B_Sb674] |469| 
    2251 000004c4 0200a35b  ||         ZERO    .L2     B4                ; [B_L674] |469| 
    2252 000004c8 02280fd8  ||         MV      .L1     A10,A4            ; [A_L674] |462| 
    2253                    
    2254                            .dwpsn  file "C:/Users/Raz Aloni/OneDrive/School/EEL4924/DSP/C_Libs/AudioInterface/src/AudioIn
    2255                    $C$RL88:   ; CALLP OCCURS {McASPRxClkStart} {0}  ; [] |469| 
TMS320C6x Assembler PC v8.1.3 Fri Apr 14 08:40:18 2017

Tools Copyright (c) 1996-2015 Texas Instruments Incorporated
AudioInterface.asm                                                   PAGE   42

    2256                    $C$DW$231       .dwtag  DW_TAG_TI_branch
    2257                            .dwattr $C$DW$231, DW_AT_low_pc(0x00)
    2258                            .dwattr $C$DW$231, DW_AT_name("McASPTxClkStart")
    2259                            .dwattr $C$DW$231, DW_AT_TI_call
    2260                    
    2261                    
    2262 000004cc 10000013!            CALLP   .S2     McASPTxClkStart,B3 ; [B_Sb674] |470| 
    2263 000004d0 0200a35b  ||         ZERO    .L2     B4                ; [B_L674] |470| 
    2264 000004d4 02280fd8  ||         MV      .L1     A10,A4            ; [A_L674] |469| 
    2265                    
    2266                            .dwpsn  file "C:/Users/Raz Aloni/OneDrive/School/EEL4924/DSP/C_Libs/AudioInterface/src/AudioIn
    2267                    $C$RL90:   ; CALLP OCCURS {McASPTxClkStart} {0}  ; [] |470| 
    2268                    $C$DW$232       .dwtag  DW_TAG_TI_branch
    2269                            .dwattr $C$DW$232, DW_AT_low_pc(0x00)
    2270                            .dwattr $C$DW$232, DW_AT_name("McASPRxSerActivate")
    2271                            .dwattr $C$DW$232, DW_AT_TI_call
    2272                    
    2273                    
    2274 000004d8 10000013!            CALLP   .S2     McASPRxSerActivate,B3 ; [B_Sb674] |473| 
    2275 000004dc 02280fd8  ||         MV      .L1     A10,A4            ; [A_L674] |470| 
    2276                    
    2277                            .dwpsn  file "C:/Users/Raz Aloni/OneDrive/School/EEL4924/DSP/C_Libs/AudioInterface/src/AudioIn
    2278                    $C$RL92:   ; CALLP OCCURS {McASPRxSerActivate} {0}  ; [] |473| 
    2279                    $C$DW$233       .dwtag  DW_TAG_TI_branch
    2280                            .dwattr $C$DW$233, DW_AT_low_pc(0x00)
    2281                            .dwattr $C$DW$233, DW_AT_name("McASPTxSerActivate")
    2282                            .dwattr $C$DW$233, DW_AT_TI_call
    2283                    
    2284                    
    2285 000004e0 10000013!            CALLP   .S2     McASPTxSerActivate,B3 ; [B_Sb674] |474| 
    2286 000004e4 02280fd8  ||         MV      .L1     A10,A4            ; [A_L674] |473| 
    2287                    
    2288                            .dwpsn  file "C:/Users/Raz Aloni/OneDrive/School/EEL4924/DSP/C_Libs/AudioInterface/src/AudioIn
    2289                    $C$RL94:   ; CALLP OCCURS {McASPTxSerActivate} {0}  ; [] |474| 
    2290                    $C$DW$234       .dwtag  DW_TAG_TI_branch
    2291                            .dwattr $C$DW$234, DW_AT_low_pc(0x00)
    2292                            .dwattr $C$DW$234, DW_AT_name("McASPTxStatusGet")
    2293                            .dwattr $C$DW$234, DW_AT_TI_call
    2294                    
    2295                    
    2296 000004e8 10000013!            CALLP   .S2     McASPTxStatusGet,B3 ; [B_Sb674] |477| 
    2297 000004ec     8506  ||         MV      .L1     A10,A4            ; [A_L674] |474| 
    2298                    
    2299                            .dwpsn  file "C:/Users/Raz Aloni/OneDrive/School/EEL4924/DSP/C_Libs/AudioInterface/src/AudioIn
    2300 000004ee           $C$RL96:   ; CALLP OCCURS {McASPTxStatusGet} {0}  ; [] |477| 
    2301                    ;** --------------------------------------------------------------------------*
    2302 000004ee     5a02             EXTU    .S1     A4,26,31,A0       ; [A_S674] |477| 
    2303 000004f0 d0208120     [!A0]   BNOP            $C$L8,4           ; [] |477| 
    2304 000004f4 05801028             MVK     .S1     0x20,A11          ; [A_S674] |477| 
    2305                               ; BRANCHCC OCCURS {$C$L8}         ; [] |477| 
    2306                    ;** --------------------------------------------------------------------------*
    2307                    $C$DW$235       .dwtag  DW_TAG_TI_branch
    2308                            .dwattr $C$DW$235, DW_AT_low_pc(0x00)
    2309                            .dwattr $C$DW$235, DW_AT_name("McASPTxStatusGet")
    2310                            .dwattr $C$DW$235, DW_AT_TI_call
TMS320C6x Assembler PC v8.1.3 Fri Apr 14 08:40:18 2017

Tools Copyright (c) 1996-2015 Texas Instruments Incorporated
AudioInterface.asm                                                   PAGE   43

    2311                    
    2312 000004f8 00000010!            CALL    .S1     McASPTxStatusGet  ; [A_S674] |477| 
    2313 00000500     8506             MV      .L1     A10,A4            ; [A_L674] |477| 
    2314 00000502     4c6e             NOP             3                 ; [A_L674] 
    2315                    ;*----------------------------------------------------------------------------*
    2316                    ;*   SOFTWARE PIPELINE INFORMATION
    2317                    ;*      Disqualified loop: Loop contains a call
    2318                    ;*          (Performance) Loop at line 477 cannot be scheduled efficiently, as it contains a function 
    2319                    ;*      Disqualified loop: Loop contains non-pipelinable instructions
    2320                    ;*----------------------------------------------------------------------------*
    2321 00000504           $C$L7:    
    2322 00000504 01820162             ADDKPC  .S2     $C$RL98,B3,0      ; [B_Sb674] |477| 
    2323 00000508           $C$RL98:   ; CALL OCCURS {McASPTxStatusGet} {0}  ; [] |477| 
    2324                    ;** --------------------------------------------------------------------------*
    2325 00000508 00116f78             AND     .L1     A11,A4,A0         ; [A_L674] |477| 
    2326 0000050c c0000090     [ A0]   B       .S1     $C$L7             ; [A_S674] |477| 
    2327                    $C$DW$236       .dwtag  DW_TAG_TI_branch
    2328                            .dwattr $C$DW$236, DW_AT_low_pc(0x00)
    2329                            .dwattr $C$DW$236, DW_AT_name("McASPTxStatusGet")
    2330                            .dwattr $C$DW$236, DW_AT_TI_call
    2331                    
    2332 00000510 c0000010!    [ A0]   CALL    .S1     McASPTxStatusGet  ; [A_S674] |477| 
    2333 00000514 c2280fd8     [ A0]   MV      .L1     A10,A4            ; [A_L674] |477| 
    2334 00000518     4c6e             NOP             3                 ; [A_L674] 
    2335                               ; BRANCHCC OCCURS {$C$L7}         ; [] |477| 
    2336                    ;** --------------------------------------------------------------------------*
    2337 00000520           $C$L8:    
    2338                            .dwpsn  file "C:/Users/Raz Aloni/OneDrive/School/EEL4924/DSP/C_Libs/AudioInterface/src/AudioIn
    2339                    $C$DW$237       .dwtag  DW_TAG_TI_branch
    2340                            .dwattr $C$DW$237, DW_AT_low_pc(0x04)
    2341                            .dwattr $C$DW$237, DW_AT_name("McASPRxEnable")
    2342                            .dwattr $C$DW$237, DW_AT_TI_call
    2343                    
    2344                    
    2345 00000520 02280fd9             MV      .L1     A10,A4            ; [A_L674] |480| 
    2346 00000524 10000012! ||         CALLP   .S2     McASPRxEnable,B3  ; [B_Sb674] |480| 
    2347                    
    2348 00000528           $C$RL100:  ; CALLP OCCURS {McASPRxEnable} {0}  ; [] |480| 
    2349                            .dwpsn  file "C:/Users/Raz Aloni/OneDrive/School/EEL4924/DSP/C_Libs/AudioInterface/src/AudioIn
    2350                    $C$DW$238       .dwtag  DW_TAG_TI_branch
    2351                            .dwattr $C$DW$238, DW_AT_low_pc(0x00)
    2352                            .dwattr $C$DW$238, DW_AT_name("McASPTxEnable")
    2353                            .dwattr $C$DW$238, DW_AT_TI_call
    2354                    
    2355                    
    2356 00000528 10000013!            CALLP   .S2     McASPTxEnable,B3  ; [B_Sb674] |481| 
    2357 0000052c     8506  ||         MV      .L1     A10,A4            ; [A_L674] |481| 
    2358                    
    2359 0000052e           $C$RL102:  ; CALLP OCCURS {McASPTxEnable} {0}  ; [] |481| 
    2360                            .dwpsn  file "C:/Users/Raz Aloni/OneDrive/School/EEL4924/DSP/C_Libs/AudioInterface/src/AudioIn
    2361 0000052e     6687             MV      .L2     B13,B3            ; [B_L674] |518| 
    2362                            .dwcfi  restore_reg, 19
    2363                    $C$DW$239       .dwtag  DW_TAG_TI_branch
    2364                            .dwattr $C$DW$239, DW_AT_low_pc(0x00)
    2365                            .dwattr $C$DW$239, DW_AT_TI_return
TMS320C6x Assembler PC v8.1.3 Fri Apr 14 08:40:18 2017

Tools Copyright (c) 1996-2015 Texas Instruments Incorporated
AudioInterface.asm                                                   PAGE   44

    2366                    
    2367                    
    2368 00000530     01ef             RET     .S2     B3                ; [B_Sb674] |518| 
    2369 00000532     c577  ||         LDDW    .D2T1   *++SP(8),A11:A10  ; [B_D64P] |518| 
    2370                    
    2371                            .dwcfi  cfa_offset, 8
    2372                            .dwcfi  restore_reg, 11
    2373                            .dwcfi  restore_reg, 10
    2374 00000534     76f7             LDW     .D2T2   *++SP(8),B13      ; [B_D64P] |518| 
    2375                            .dwcfi  cfa_offset, 0
    2376                            .dwcfi  restore_reg, 29
    2377 00000536     6c6e             NOP             4                 ; [A_L674] 
    2378                               ; BRANCH OCCURS {B3}              ; [] |518| 
    2379                            .dwattr $C$DW$193, DW_AT_TI_end_file("C:/Users/Raz Aloni/OneDrive/School/EEL4924/DSP/C_Libs/Au
    2380                            .dwattr $C$DW$193, DW_AT_TI_end_line(0x206)
    2381                            .dwattr $C$DW$193, DW_AT_TI_end_column(0x01)
    2382                            .dwendentry
    2383                            .dwendtag $C$DW$193
    2384                    
    2385 00000538                   .sect   ".text"
    2386                            .clink
    2387                            .global AudioUpdateLeftGain
    2388                    
    2389                    $C$DW$240       .dwtag  DW_TAG_subprogram
    2390                            .dwattr $C$DW$240, DW_AT_name("AudioUpdateLeftGain")
    2391                            .dwattr $C$DW$240, DW_AT_low_pc(AudioUpdateLeftGain)
    2392                            .dwattr $C$DW$240, DW_AT_high_pc(0x00)
    2393                            .dwattr $C$DW$240, DW_AT_TI_symbol_name("AudioUpdateLeftGain")
    2394                            .dwattr $C$DW$240, DW_AT_external
    2395                            .dwattr $C$DW$240, DW_AT_TI_begin_file("C:/Users/Raz Aloni/OneDrive/School/EEL4924/DSP/C_Libs/
    2396                            .dwattr $C$DW$240, DW_AT_TI_begin_line(0x214)
    2397                            .dwattr $C$DW$240, DW_AT_TI_begin_column(0x06)
    2398                            .dwattr $C$DW$240, DW_AT_decl_file("C:/Users/Raz Aloni/OneDrive/School/EEL4924/DSP/C_Libs/Audi
    2399                            .dwattr $C$DW$240, DW_AT_decl_line(0x214)
    2400                            .dwattr $C$DW$240, DW_AT_decl_column(0x06)
    2401                            .dwattr $C$DW$240, DW_AT_TI_max_frame_size(0x08)
    2402                            .dwpsn  file "C:/Users/Raz Aloni/OneDrive/School/EEL4924/DSP/C_Libs/AudioInterface/src/AudioIn
    2403                    
    2404                            .dwfde $C$DW$CIE, AudioUpdateLeftGain
    2405                    $C$DW$241       .dwtag  DW_TAG_formal_parameter
    2406                            .dwattr $C$DW$241, DW_AT_name("gain")
    2407                            .dwattr $C$DW$241, DW_AT_TI_symbol_name("gain")
    2408                            .dwattr $C$DW$241, DW_AT_type(*$C$DW$T$159)
    2409                            .dwattr $C$DW$241, DW_AT_location[DW_OP_reg4]
    2410                    
    2411                    
    2412                    ;******************************************************************************
    2413                    ;* FUNCTION NAME: AudioUpdateLeftGain                                         *
    2414                    ;*                                                                            *
    2415                    ;*   Regs Modified     : A0,A1,A2,A3,A4,A5,A6,A7,A8,A9,A16,A17,A18,A19,A20,   *
    2416                    ;*                           A21,A22,A23,A24,A25,A26,A27,A28,A29,A30,A31,B0,  *
    2417                    ;*                           B1,B2,B3,B4,B5,B6,B7,B8,B9,B16,B17,B18,B19,B20,  *
    2418                    ;*                           B21,B22,B23,B24,B25,B26,B27,B28,B29,B30,B31      *
    2419                    ;*   Regs Used         : A0,A1,A2,A3,A4,A5,A6,A7,A8,A9,A16,A17,A18,A19,A20,   *
    2420                    ;*                           A21,A22,A23,A24,A25,A26,A27,A28,A29,A30,A31,B0,  *
TMS320C6x Assembler PC v8.1.3 Fri Apr 14 08:40:18 2017

Tools Copyright (c) 1996-2015 Texas Instruments Incorporated
AudioInterface.asm                                                   PAGE   45

    2421                    ;*                           B1,B2,B3,B4,B5,B6,B7,B8,B9,DP,SP,B16,B17,B18,B19,*
    2422                    ;*                           B20,B21,B22,B23,B24,B25,B26,B27,B28,B29,B30,B31  *
    2423                    ;*   Local Frame Size  : 0 Args + 0 Auto + 4 Save = 4 byte                    *
    2424                    ;******************************************************************************
    2425 00000538           AudioUpdateLeftGain:
    2426                    ;** --------------------------------------------------------------------------*
    2427                            .dwcfi  cfa_offset, 0
    2428                            .dwpsn  file "C:/Users/Raz Aloni/OneDrive/School/EEL4924/DSP/C_Libs/AudioInterface/src/AudioIn
    2429                    $C$DW$242       .dwtag  DW_TAG_TI_branch
    2430                            .dwattr $C$DW$242, DW_AT_low_pc(0x00)
    2431                            .dwattr $C$DW$242, DW_AT_name("AIC31LeftPGAGain")
    2432                            .dwattr $C$DW$242, DW_AT_TI_call
    2433                            .dwattr $C$DW$242, DW_AT_TI_return
    2434                    
    2435 00000538 00000010!            CALLRET .S1     AIC31LeftPGAGain  ; [A_S674] |534| 
    2436                            .dwpsn  file "C:/Users/Raz Aloni/OneDrive/School/EEL4924/DSP/C_Libs/AudioInterface/src/AudioIn
    2437 00000540 02101fda             MV      .L2X    A4,B4             ; [B_L674] |533| 
    2438                            .dwpsn  file "C:/Users/Raz Aloni/OneDrive/School/EEL4924/DSP/C_Libs/AudioInterface/src/AudioIn
    2439 00000544 02100028             MVKL    .S1     0x1c22000,A4      ; [A_S674] |534| 
    2440 00000548 0200e168             MVKH    .S1     0x1c22000,A4      ; [A_S674] |534| 
    2441 0000054c 00002000             NOP             2                 ; [A_L674] 
    2442                    $C$RL104:  ; CALL-RETURN OCCURS {AIC31LeftPGAGain} 0  ; [] |534| 
    2443                            .dwattr $C$DW$240, DW_AT_TI_end_file("C:/Users/Raz Aloni/OneDrive/School/EEL4924/DSP/C_Libs/Au
    2444                            .dwattr $C$DW$240, DW_AT_TI_end_line(0x217)
    2445                            .dwattr $C$DW$240, DW_AT_TI_end_column(0x01)
    2446                            .dwendentry
    2447                            .dwendtag $C$DW$240
    2448                    
    2449 00000550                   .sect   ".text"
    2450                            .clink
    2451                            .global AudioTxActivate
    2452                    
    2453                    $C$DW$243       .dwtag  DW_TAG_subprogram
    2454                            .dwattr $C$DW$243, DW_AT_name("AudioTxActivate")
    2455                            .dwattr $C$DW$243, DW_AT_low_pc(AudioTxActivate)
    2456                            .dwattr $C$DW$243, DW_AT_high_pc(0x00)
    2457                            .dwattr $C$DW$243, DW_AT_TI_symbol_name("AudioTxActivate")
    2458                            .dwattr $C$DW$243, DW_AT_external
    2459                            .dwattr $C$DW$243, DW_AT_TI_begin_file("C:/Users/Raz Aloni/OneDrive/School/EEL4924/DSP/C_Libs/
    2460                            .dwattr $C$DW$243, DW_AT_TI_begin_line(0x208)
    2461                            .dwattr $C$DW$243, DW_AT_TI_begin_column(0x06)
    2462                            .dwattr $C$DW$243, DW_AT_decl_file("C:/Users/Raz Aloni/OneDrive/School/EEL4924/DSP/C_Libs/Audi
    2463                            .dwattr $C$DW$243, DW_AT_decl_line(0x208)
    2464                            .dwattr $C$DW$243, DW_AT_decl_column(0x06)
    2465                            .dwattr $C$DW$243, DW_AT_TI_max_frame_size(0x00)
    2466                            .dwpsn  file "C:/Users/Raz Aloni/OneDrive/School/EEL4924/DSP/C_Libs/AudioInterface/src/AudioIn
    2467                    
    2468                            .dwfde $C$DW$CIE, AudioTxActivate
    2469                    $C$DW$244       .dwtag  DW_TAG_formal_parameter
    2470                            .dwattr $C$DW$244, DW_AT_name("index")
    2471                            .dwattr $C$DW$244, DW_AT_TI_symbol_name("index")
    2472                            .dwattr $C$DW$244, DW_AT_type(*$C$DW$T$154)
    2473                            .dwattr $C$DW$244, DW_AT_location[DW_OP_reg4]
    2474                    
    2475                    
TMS320C6x Assembler PC v8.1.3 Fri Apr 14 08:40:18 2017

Tools Copyright (c) 1996-2015 Texas Instruments Incorporated
AudioInterface.asm                                                   PAGE   46

    2476                    ;******************************************************************************
    2477                    ;* FUNCTION NAME: AudioTxActivate                                             *
    2478                    ;*                                                                            *
    2479                    ;*   Regs Modified     : A3,A4,A5,B4,B5,B6,B7,B8                              *
    2480                    ;*   Regs Used         : A3,A4,A5,B3,B4,B5,B6,B7,B8                           *
    2481                    ;*   Local Frame Size  : 0 Args + 0 Auto + 0 Save = 0 byte                    *
    2482                    ;******************************************************************************
    2483                    AudioTxActivate:
    2484                    ;** --------------------------------------------------------------------------*
    2485                    $C$DW$245       .dwtag  DW_TAG_variable
    2486                            .dwattr $C$DW$245, DW_AT_name("index")
    2487                            .dwattr $C$DW$245, DW_AT_TI_symbol_name("index")
    2488                            .dwattr $C$DW$245, DW_AT_type(*$C$DW$T$1345)
    2489                            .dwattr $C$DW$245, DW_AT_location[DW_OP_reg4]
    2490                    
    2491                    $C$DW$246       .dwtag  DW_TAG_variable
    2492                            .dwattr $C$DW$246, DW_AT_name("PingPongParams")
    2493                            .dwattr $C$DW$246, DW_AT_TI_symbol_name("PingPongParams")
    2494                            .dwattr $C$DW$246, DW_AT_type(*$C$DW$T$743)
    2495                            .dwattr $C$DW$246, DW_AT_location[DW_OP_reg20]
    2496                    
    2497                            .dwcfi  cfa_offset, 0
    2498                            .dwpsn  file "C:/Users/Raz Aloni/OneDrive/School/EEL4924/DSP/C_Libs/AudioInterface/src/AudioIn
    2499 00000550 01800028!            MVKL    .S1     TXParamRAMS,A3    ; [A_S674] |523| 
    2500 00000554 01800068!            MVKH    .S1     TXParamRAMS,A3    ; [A_S674] |523| 
    2501 00000558 020c8a66             LDW     .D1T2   *+A3[A4],B4       ; [A_D64P] |523| 
    2502                            .dwpsn  file "C:/Users/Raz Aloni/OneDrive/School/EEL4924/DSP/C_Libs/AudioInterface/src/AudioIn
    2503 0000055c 02801028             MVK     .S1     32,A5             ; [A_S674] |528| 
    2504 00000560     a63a             SHL     .S1     A4,5,A3           ; [A_S674] |528| 
    2505 00000562     b2c7             MV      .L2X    A5,B5             ; [B_L674] |528| 
    2506                            .dwpsn  file "C:/Users/Raz Aloni/OneDrive/School/EEL4924/DSP/C_Libs/AudioInterface/src/AudioIn
    2507 00000564 0400002a!            MVKL    .S2     TXPingPong,B8     ; [B_Sb674] |527| 
    2508                            .dwpsn  file "C:/Users/Raz Aloni/OneDrive/School/EEL4924/DSP/C_Libs/AudioInterface/src/AudioIn
    2509                    
    2510 00000570     106d             LDW     .D2T2   *B4(0),B6         ; [B_D64P] |526| 
    2511 0000056c 018cadf9  ||         XOR     .L1     A5,A3,A3          ; [A_L674] |528| 
    2512 00000568 0388002b  ||         MVKL    .S2     0x101000,B7       ; [B_Sb674] |526| 
    2513                    
    2514                            .dwpsn  file "C:/Users/Raz Aloni/OneDrive/School/EEL4924/DSP/C_Libs/AudioInterface/src/AudioIn
    2515                    $C$DW$247       .dwtag  DW_TAG_TI_branch
    2516                            .dwattr $C$DW$247, DW_AT_low_pc(0x00)
    2517                            .dwattr $C$DW$247, DW_AT_TI_return
    2518                    
    2519                    
    2520 00000572     01ef             RET     .S2     B3                ; [B_Sb674] |530| 
    2521 00000578 02114ca0  ||         SHL     .S1     A4,10,A4          ; [A_S674] |527| 
    2522 00000574 01947f79  ||         AND     .L1X    B5,A3,A3          ; [A_L674] |528| 
    2523                    
    2524                            .dwpsn  file "C:/Users/Raz Aloni/OneDrive/School/EEL4924/DSP/C_Libs/AudioInterface/src/AudioIn
    2525                    
    2526 00000580 0281002b             MVK     .S2     512,B5            ; [B_Sb674] |529| 
    2527 00000584 01830050  ||         ADDK    .S1     1536,A3           ; [A_S674] |528| 
    2528                    
    2529                            .dwpsn  file "C:/Users/Raz Aloni/OneDrive/School/EEL4924/DSP/C_Libs/AudioInterface/src/AudioIn
    2530                    
TMS320C6x Assembler PC v8.1.3 Fri Apr 14 08:40:18 2017

Tools Copyright (c) 1996-2015 Texas Instruments Incorporated
AudioInterface.asm                                                   PAGE   47

    2531 00000588 0400006b!            MVKH    .S2     TXPingPong,B8     ; [B_Sb674] |527| 
    2532 0000058c     b255  ||         STH     .D2T2   B5,*B4(10)        ; [B_D64P] |529| 
    2533 0000058e     c9a2  ||         SET     .S1     A3,14,14,A3       ; [A_S674] |528| 
    2534                    
    2535                            .dwpsn  file "C:/Users/Raz Aloni/OneDrive/School/EEL4924/DSP/C_Libs/AudioInterface/src/AudioIn
    2536                    
    2537 00000590 0291107b             ADD     .L2X    B8,A4,B5          ; [B_L674] |527| 
    2538 00000594 0380086b  ||         MVKH    .S2     0x101000,B7       ; [B_Sb674] |526| 
    2539 00000598     4a35  ||         STH     .D2T1   A3,*B4(20)        ; [B_D64P] |528| 
    2540                    
    2541 0000059a     3055             STW     .D2T2   B5,*B4(4)         ; [B_D64P] |527| 
    2542 000005a0 0298effa  ||         OR      .L2     B7,B6,B5          ; [B_L674] |526| 
    2543                    
    2544 000005a4 029002f6             STW     .D2T2   B5,*B4(0)         ; [B_D64P] |526| 
    2545                            .dwpsn  file "C:/Users/Raz Aloni/OneDrive/School/EEL4924/DSP/C_Libs/AudioInterface/src/AudioIn
    2546                               ; BRANCH OCCURS {B3}              ; [] |530| 
    2547                            .dwattr $C$DW$243, DW_AT_TI_end_file("C:/Users/Raz Aloni/OneDrive/School/EEL4924/DSP/C_Libs/Au
    2548                            .dwattr $C$DW$243, DW_AT_TI_end_line(0x212)
    2549                            .dwattr $C$DW$243, DW_AT_TI_end_column(0x01)
    2550                            .dwendentry
    2551                            .dwendtag $C$DW$243
    2552                    
    2553 000005a8                   .sect   ".text"
    2554                            .clink
    2555                            .global AudioTransferErrors
    2556                    
    2557                    $C$DW$248       .dwtag  DW_TAG_subprogram
    2558                            .dwattr $C$DW$248, DW_AT_name("AudioTransferErrors")
    2559                            .dwattr $C$DW$248, DW_AT_low_pc(AudioTransferErrors)
    2560                            .dwattr $C$DW$248, DW_AT_high_pc(0x00)
    2561                            .dwattr $C$DW$248, DW_AT_TI_symbol_name("AudioTransferErrors")
    2562                            .dwattr $C$DW$248, DW_AT_external
    2563                            .dwattr $C$DW$248, DW_AT_TI_begin_file("C:/Users/Raz Aloni/OneDrive/School/EEL4924/DSP/C_Libs/
    2564                            .dwattr $C$DW$248, DW_AT_TI_begin_line(0x21e)
    2565                            .dwattr $C$DW$248, DW_AT_TI_begin_column(0x06)
    2566                            .dwattr $C$DW$248, DW_AT_decl_file("C:/Users/Raz Aloni/OneDrive/School/EEL4924/DSP/C_Libs/Audi
    2567                            .dwattr $C$DW$248, DW_AT_decl_line(0x21e)
    2568                            .dwattr $C$DW$248, DW_AT_decl_column(0x06)
    2569                            .dwattr $C$DW$248, DW_AT_TI_max_frame_size(0x08)
    2570                            .dwpsn  file "C:/Users/Raz Aloni/OneDrive/School/EEL4924/DSP/C_Libs/AudioInterface/src/AudioIn
    2571                    
    2572                            .dwfde $C$DW$CIE, AudioTransferErrors
    2573                    
    2574                    ;******************************************************************************
    2575                    ;* FUNCTION NAME: AudioTransferErrors                                         *
    2576                    ;*                                                                            *
    2577                    ;*   Regs Modified     : A0,A1,A2,A3,A4,A5,A6,A7,A8,A9,A10,A11,A16,A17,A18,   *
    2578                    ;*                           A19,A20,A21,A22,A23,A24,A25,A26,A27,A28,A29,A30, *
    2579                    ;*                           A31,B0,B1,B2,B3,B4,B5,B6,B7,B8,B9,SP,B16,B17,B18,*
    2580                    ;*                           B19,B20,B21,B22,B23,B24,B25,B26,B27,B28,B29,B30, *
    2581                    ;*                           B31                                              *
    2582                    ;*   Regs Used         : A0,A1,A2,A3,A4,A5,A6,A7,A8,A9,A10,A11,A16,A17,A18,   *
    2583                    ;*                           A19,A20,A21,A22,A23,A24,A25,A26,A27,A28,A29,A30, *
    2584                    ;*                           A31,B0,B1,B2,B3,B4,B5,B6,B7,B8,B9,DP,SP,B16,B17, *
    2585                    ;*                           B18,B19,B20,B21,B22,B23,B24,B25,B26,B27,B28,B29, *
TMS320C6x Assembler PC v8.1.3 Fri Apr 14 08:40:18 2017

Tools Copyright (c) 1996-2015 Texas Instruments Incorporated
AudioInterface.asm                                                   PAGE   48

    2586                    ;*                           B30,B31                                          *
    2587                    ;*   Local Frame Size  : 0 Args + 0 Auto + 8 Save = 8 byte                    *
    2588                    ;******************************************************************************
    2589                    AudioTransferErrors:
    2590                    ;** --------------------------------------------------------------------------*
    2591                    $C$DW$249       .dwtag  DW_TAG_variable
    2592                            .dwattr $C$DW$249, DW_AT_name("xstat")
    2593                            .dwattr $C$DW$249, DW_AT_TI_symbol_name("xstat")
    2594                            .dwattr $C$DW$249, DW_AT_type(*$C$DW$T$154)
    2595                            .dwattr $C$DW$249, DW_AT_location[DW_OP_reg10]
    2596                    
    2597                            .dwcfi  cfa_offset, 0
    2598                    
    2599 000005a8     25f7             STW     .D2T1   A11,*SP++(-8)     ; [B_D64P] |543| 
    2600 000005aa     0626  ||         ZERO    .L1     A4                ; [A_L674] |544| 
    2601                    
    2602                            .dwcfi  cfa_offset, 8
    2603                            .dwcfi  save_reg_to_mem, 11, 0
    2604                    $C$DW$250       .dwtag  DW_TAG_TI_branch
    2605                            .dwattr $C$DW$250, DW_AT_low_pc(0x08)
    2606                            .dwattr $C$DW$250, DW_AT_name("McASPTxStatusGet")
    2607                            .dwattr $C$DW$250, DW_AT_TI_call
    2608                    
    2609                    
    2610 000005ac 053c22f5             STW     .D2T1   A10,*SP(4)        ; [B_D64P] |543| 
    2611 000005b8     75c6  ||         MV      .L1X    B3,A11            ; [A_L674] |543| 
    2612 000005b4 10000013! ||         CALLP   .S2     McASPTxStatusGet,B3 ; [B_Sb674] |544| 
    2613 000005b0 0200e869  ||         MVKH    .S1     0x1d00000,A4      ; [A_S674] |544| 
    2614                    
    2615                            .dwcfi  save_reg_to_mem, 10, -4
    2616                            .dwcfi  save_reg_to_reg, 19, 11
    2617                            .dwpsn  file "C:/Users/Raz Aloni/OneDrive/School/EEL4924/DSP/C_Libs/AudioInterface/src/AudioIn
    2618 000005c0           $C$RL106:  ; CALLP OCCURS {McASPTxStatusGet} {0}  ; [] |544| 
    2619                    
    2620 000005c0     4646             MV      .L1     A4,A10            ; [A_L674] |544| 
    2621 000005c2     0212  ||         ZERO    .S1     A4                ; [A_S674] |545| 
    2622                    
    2623                            .dwpsn  file "C:/Users/Raz Aloni/OneDrive/School/EEL4924/DSP/C_Libs/AudioInterface/src/AudioIn
    2624                    $C$DW$251       .dwtag  DW_TAG_TI_branch
    2625                            .dwattr $C$DW$251, DW_AT_low_pc(0x04)
    2626                            .dwattr $C$DW$251, DW_AT_name("McASPRxStatusGet")
    2627                            .dwattr $C$DW$251, DW_AT_TI_call
    2628                    
    2629                    
    2630 000005c4 0200e869             MVKH    .S1     0x1d00000,A4      ; [A_S674] |545| 
    2631 000005c8 10000012! ||         CALLP   .S2     McASPRxStatusGet,B3 ; [B_Sb674] |545| 
    2632                    
    2633 000005cc           $C$RL108:  ; CALLP OCCURS {McASPRxStatusGet} {0}  ; [] |545| 
    2634                            .dwpsn  file "C:/Users/Raz Aloni/OneDrive/School/EEL4924/DSP/C_Libs/AudioInterface/src/AudioIn
    2635 000005cc 02006028             MVKL    .S1     0x1d000c0,A4      ; [A_S674] |549| 
    2636 000005d0 0200e868             MVKH    .S1     0x1d000c0,A4      ; [A_S674] |549| 
    2637                    
    2638 000005d4     104c             LDW     .D1T2   *A4(0),B4         ; [A_D64P] |549| 
    2639 000005d6     7587  ||         MV      .L2X    A11,B3            ; [B_L674] |551| 
    2640                    
TMS320C6x Assembler PC v8.1.3 Fri Apr 14 08:40:18 2017

Tools Copyright (c) 1996-2015 Texas Instruments Incorporated
AudioInterface.asm                                                   PAGE   49

    2641                            .dwcfi  restore_reg, 19
    2642                    $C$DW$252       .dwtag  DW_TAG_TI_branch
    2643                            .dwattr $C$DW$252, DW_AT_low_pc(0x00)
    2644                            .dwattr $C$DW$252, DW_AT_TI_return
    2645                    
    2646                    
    2647 000005e4     01ef             RET     .S2     B3                ; [B_Sb674] |551| 
    2648 000005e0 01a82f59  ||         AND     .L1     1,A10,A3          ; [A_L674] |549| 
    2649 000005d8 053c22e5  ||         LDW     .D2T1   *SP(4),A10        ; [B_D64P] |551| 
    2650                    
    2651                            .dwcfi  restore_reg, 10
    2652                            .dwpsn  file "C:/Users/Raz Aloni/OneDrive/School/EEL4924/DSP/C_Libs/AudioInterface/src/AudioIn
    2653 000005e6     65f7             LDW     .D2T1   *++SP(8),A11      ; [B_D64P] |551| 
    2654                            .dwcfi  cfa_offset, 0
    2655                            .dwcfi  restore_reg, 11
    2656 000005e8 00002000             NOP             2                 ; [A_L674] 
    2657                            .dwpsn  file "C:/Users/Raz Aloni/OneDrive/School/EEL4924/DSP/C_Libs/AudioInterface/src/AudioIn
    2658 000005ec 01907ff8             OR      .L1X    A3,B4,A3          ; [A_L674] |549| 
    2659 000005f0 01900274             STW     .D1T1   A3,*A4(0)         ; [A_D64P] |549| 
    2660                            .dwpsn  file "C:/Users/Raz Aloni/OneDrive/School/EEL4924/DSP/C_Libs/AudioInterface/src/AudioIn
    2661                               ; BRANCH OCCURS {B3}              ; [] |551| 
    2662                            .dwattr $C$DW$248, DW_AT_TI_end_file("C:/Users/Raz Aloni/OneDrive/School/EEL4924/DSP/C_Libs/Au
    2663                            .dwattr $C$DW$248, DW_AT_TI_end_line(0x227)
    2664                            .dwattr $C$DW$248, DW_AT_TI_end_column(0x01)
    2665                            .dwendentry
    2666                            .dwendtag $C$DW$248
    2667                    
    2668 000005f4                   .sect   ".text"
    2669                            .clink
    2670                            .global AudioDataReady
    2671                    
    2672                    $C$DW$253       .dwtag  DW_TAG_subprogram
    2673                            .dwattr $C$DW$253, DW_AT_name("AudioDataReady")
    2674                            .dwattr $C$DW$253, DW_AT_low_pc(AudioDataReady)
    2675                            .dwattr $C$DW$253, DW_AT_high_pc(0x00)
    2676                            .dwattr $C$DW$253, DW_AT_TI_symbol_name("AudioDataReady")
    2677                            .dwattr $C$DW$253, DW_AT_external
    2678                            .dwattr $C$DW$253, DW_AT_TI_begin_file("C:/Users/Raz Aloni/OneDrive/School/EEL4924/DSP/C_Libs/
    2679                            .dwattr $C$DW$253, DW_AT_TI_begin_line(0x22c)
    2680                            .dwattr $C$DW$253, DW_AT_TI_begin_column(0x06)
    2681                            .dwattr $C$DW$253, DW_AT_decl_file("C:/Users/Raz Aloni/OneDrive/School/EEL4924/DSP/C_Libs/Audi
    2682                            .dwattr $C$DW$253, DW_AT_decl_line(0x22c)
    2683                            .dwattr $C$DW$253, DW_AT_decl_column(0x06)
    2684                            .dwattr $C$DW$253, DW_AT_TI_max_frame_size(0x18)
    2685                            .dwpsn  file "C:/Users/Raz Aloni/OneDrive/School/EEL4924/DSP/C_Libs/AudioInterface/src/AudioIn
    2686                    
    2687                            .dwfde $C$DW$CIE, AudioDataReady
    2688                    $C$DW$254       .dwtag  DW_TAG_variable
    2689                            .dwattr $C$DW$254, DW_AT_name("RxBuffIndex")
    2690                            .dwattr $C$DW$254, DW_AT_TI_symbol_name("RxBuffIndex$1")
    2691                            .dwattr $C$DW$254, DW_AT_type(*$C$DW$T$154)
    2692                            .dwattr $C$DW$254, DW_AT_location[DW_OP_addr RxBuffIndex$1]
    2693                    
    2694                    $C$DW$255       .dwtag  DW_TAG_variable
    2695                            .dwattr $C$DW$255, DW_AT_name("Msg")
TMS320C6x Assembler PC v8.1.3 Fri Apr 14 08:40:18 2017

Tools Copyright (c) 1996-2015 Texas Instruments Incorporated
AudioInterface.asm                                                   PAGE   50

    2696                            .dwattr $C$DW$255, DW_AT_TI_symbol_name("Msg$2")
    2697                            .dwattr $C$DW$255, DW_AT_type(*$C$DW$T$714)
    2698                            .dwattr $C$DW$255, DW_AT_location[DW_OP_addr Msg$2]
    2699                    
    2700                    $C$DW$256       .dwtag  DW_TAG_variable
    2701                            .dwattr $C$DW$256, DW_AT_name("TxBuffIndex")
    2702                            .dwattr $C$DW$256, DW_AT_TI_symbol_name("TxBuffIndex$3")
    2703                            .dwattr $C$DW$256, DW_AT_type(*$C$DW$T$154)
    2704                            .dwattr $C$DW$256, DW_AT_location[DW_OP_addr TxBuffIndex$3]
    2705                    
    2706                    
    2707                    ;******************************************************************************
    2708                    ;* FUNCTION NAME: AudioDataReady                                              *
    2709                    ;*                                                                            *
    2710                    ;*   Regs Modified     : A0,A1,A2,A3,A4,A5,A6,A7,A8,A9,A10,A11,A16,A17,A18,   *
    2711                    ;*                           A19,A20,A21,A22,A23,A24,A25,A26,A27,A28,A29,A30, *
    2712                    ;*                           A31,B0,B1,B2,B3,B4,B5,B6,B7,B8,B9,B10,B11,SP,B16,*
    2713                    ;*                           B17,B18,B19,B20,B21,B22,B23,B24,B25,B26,B27,B28, *
    2714                    ;*                           B29,B30,B31                                      *
    2715                    ;*   Regs Used         : A0,A1,A2,A3,A4,A5,A6,A7,A8,A9,A10,A11,A16,A17,A18,   *
    2716                    ;*                           A19,A20,A21,A22,A23,A24,A25,A26,A27,A28,A29,A30, *
    2717                    ;*                           A31,B0,B1,B2,B3,B4,B5,B6,B7,B8,B9,B10,B11,DP,SP, *
    2718                    ;*                           B16,B17,B18,B19,B20,B21,B22,B23,B24,B25,B26,B27, *
    2719                    ;*                           B28,B29,B30,B31                                  *
    2720                    ;*   Local Frame Size  : 0 Args + 0 Auto + 24 Save = 24 byte                  *
    2721                    ;******************************************************************************
    2722                    AudioDataReady:
    2723                    ;** --------------------------------------------------------------------------*
    2724                    $C$DW$257       .dwtag  DW_TAG_variable
    2725                            .dwattr $C$DW$257, DW_AT_name("PingPongParams")
    2726                            .dwattr $C$DW$257, DW_AT_TI_symbol_name("PingPongParams")
    2727                            .dwattr $C$DW$257, DW_AT_type(*$C$DW$T$743)
    2728                            .dwattr $C$DW$257, DW_AT_location[DW_OP_reg21]
    2729                    
    2730                    $C$DW$258       .dwtag  DW_TAG_variable
    2731                            .dwattr $C$DW$258, DW_AT_name("edmaIntrStatus")
    2732                            .dwattr $C$DW$258, DW_AT_TI_symbol_name("edmaIntrStatus")
    2733                            .dwattr $C$DW$258, DW_AT_type(*$C$DW$T$154)
    2734                            .dwattr $C$DW$258, DW_AT_location[DW_OP_reg26]
    2735                    
    2736                            .dwcfi  cfa_offset, 0
    2737 000005f4     25f7             STW     .D2T1   A11,*SP++(-8)     ; [B_D64P] |557| 
    2738                            .dwcfi  cfa_offset, 8
    2739                            .dwcfi  save_reg_to_mem, 11, 0
    2740 000005f6     9577             STDW    .D2T2   B11:B10,*SP++(-8) ; [B_D64P] |557| 
    2741                            .dwcfi  cfa_offset, 16
    2742                            .dwcfi  save_reg_to_mem, 27, -4
    2743                            .dwcfi  save_reg_to_mem, 26, -8
    2744                    
    2745 000005f8 0500a359             ZERO    .L1     A10               ; [A_L674] |563| 
    2746 00000600 053c54f4  ||         STW     .D2T1   A10,*SP++(-8)     ; [B_D64P] |557| 
    2747                    
    2748                            .dwcfi  cfa_offset, 24
    2749                            .dwcfi  save_reg_to_mem, 10, -16
    2750                            .dwpsn  file "C:/Users/Raz Aloni/OneDrive/School/EEL4924/DSP/C_Libs/AudioInterface/src/AudioIn
TMS320C6x Assembler PC v8.1.3 Fri Apr 14 08:40:18 2017

Tools Copyright (c) 1996-2015 Texas Instruments Incorporated
AudioInterface.asm                                                   PAGE   51

    2751 00000604 052ad888             SET     .S1     A10,22,24,A10     ; [A_S674] |563| 
    2752                            .dwpsn  file "C:/Users/Raz Aloni/OneDrive/School/EEL4924/DSP/C_Libs/AudioInterface/src/AudioIn
    2753                    $C$DW$259       .dwtag  DW_TAG_TI_branch
    2754                            .dwattr $C$DW$259, DW_AT_low_pc(0x00)
    2755                            .dwattr $C$DW$259, DW_AT_name("EDMA3GetIntrStatus")
    2756                            .dwattr $C$DW$259, DW_AT_TI_call
    2757                    
    2758                    
    2759 00000608 10000013!            CALLP   .S2     EDMA3GetIntrStatus,B3 ; [B_Sb674] |563| 
    2760 0000060c     8506  ||         MV      .L1     A10,A4            ; [A_L674] |563| 
    2761 0000060e     65c7  ||         MV      .L2     B3,B11            ; [B_L674] |557| 
    2762                    
    2763                            .dwcfi  save_reg_to_reg, 19, 27
    2764                            .dwpsn  file "C:/Users/Raz Aloni/OneDrive/School/EEL4924/DSP/C_Libs/AudioInterface/src/AudioIn
    2765 00000610           $C$RL110:  ; CALLP OCCURS {EDMA3GetIntrStatus} {0}  ; [] |563| 
    2766                    ;** --------------------------------------------------------------------------*
    2767                    
    2768 00000610     5647             MV      .L2X    A4,B10            ; [B_L674] |563| 
    2769 00000614 05800029! ||         MVKL    .S1     Msg$2,A11         ; [A_S674] |572| 
    2770 00000612     8506  ||         MV      .L1     A10,A4            ; [A_L674] |566| 
    2771 00000618 0200002a  ||         ZERO    .S2     B4                ; [B_Sb674] |569| 
    2772                    
    2773                            .dwpsn  file "C:/Users/Raz Aloni/OneDrive/School/EEL4924/DSP/C_Libs/AudioInterface/src/AudioIn
    2774                    
    2775 00000620 00282f5b             AND     .L2     1,B10,B0          ; [B_L674] |566| 
    2776 00000624 05800068! ||         MVKH    .S1     Msg$2,A11         ; [A_S674] |572| 
    2777                    
    2778 00000628 30001113     [!B0]   B       .S2     $C$L9             ; [B_Sb674] |566| 
    2779 0000062c 00800fda  ||         MV      .L2     B0,B1             ; [B_L674] guard predicate rewrite
    2780                    
    2781                            .dwpsn  file "C:/Users/Raz Aloni/OneDrive/School/EEL4924/DSP/C_Libs/AudioInterface/src/AudioIn
    2782                    $C$DW$260       .dwtag  DW_TAG_TI_branch
    2783                            .dwattr $C$DW$260, DW_AT_low_pc(0x00)
    2784                            .dwattr $C$DW$260, DW_AT_name("EDMA3ClrIntr")
    2785                            .dwattr $C$DW$260, DW_AT_TI_call
    2786                    
    2787                    
    2788 00000630 20000011!    [ B0]   CALL    .S1     EDMA3ClrIntr      ; [A_S674] |569| 
    2789 00000634 30284f5b  || [!B0]   AND     .L2     2,B10,B0          ; [B_L674] |581| 
    2790 00000638 5500002b! || [!B1]   MVKL    .S2     LoopBuffer,B10    ; [B_Sb674] |493| 
    2791 0000063c 52280fd9  || [!B1]   MV      .L1     A10,A4            ; [A_L674] |583| 
    2792 00000640 52002042  || [!B1]   MVK     .D2     1,B4              ; [B_D64P] |583| 
    2793                    
    2794                            .dwpsn  file "C:/Users/Raz Aloni/OneDrive/School/EEL4924/DSP/C_Libs/AudioInterface/src/AudioIn
    2795                    
    2796 00000644 4004a35b     [ B1]   MVK     .L2     1,B0              ; [B_L674] |583| nullify predicate
    2797 00000648 55800029! || [!B1]   MVKL    .S1     TXParamRAMS,A11   ; [A_S674] |487| 
    2798 0000064c 5500006a! || [!B1]   MVKH    .S2     LoopBuffer,B10    ; [B_Sb674] |493| 
    2799                    
    2800                            .dwpsn  file "C:/Users/Raz Aloni/OneDrive/School/EEL4924/DSP/C_Libs/AudioInterface/src/AudioIn
    2801 00000650 30332120     [!B0]   BNOP            $C$L10,1          ; [] |581| 
    2802                            .dwpsn  file "C:/Users/Raz Aloni/OneDrive/School/EEL4924/DSP/C_Libs/AudioInterface/src/AudioIn
    2803 00000654 55800068!    [!B1]   MVKH    .S1     TXParamRAMS,A11   ; [A_S674] |487| 
    2804                            .dwpsn  file "C:/Users/Raz Aloni/OneDrive/School/EEL4924/DSP/C_Libs/AudioInterface/src/AudioIn
    2805                               ; BRANCHCC OCCURS {$C$L9}         ; [] |566| 
TMS320C6x Assembler PC v8.1.3 Fri Apr 14 08:40:18 2017

Tools Copyright (c) 1996-2015 Texas Instruments Incorporated
AudioInterface.asm                                                   PAGE   52

    2806                    ;** --------------------------------------------------------------------------*
    2807                            .dwpsn  file "C:/Users/Raz Aloni/OneDrive/School/EEL4924/DSP/C_Libs/AudioInterface/src/AudioIn
    2808 00000658 01870162             ADDKPC  .S2     $C$RL112,B3,0     ; [B_Sb674] |569| 
    2809 0000065c           $C$RL112:  ; CALL OCCURS {EDMA3ClrIntr} {0}  ; [] |569| 
    2810                    ;** --------------------------------------------------------------------------*
    2811                            .dwpsn  file "C:/Users/Raz Aloni/OneDrive/School/EEL4924/DSP/C_Libs/AudioInterface/src/AudioIn
    2812 0000065c 0180006c!            LDW     .D2T1   *+DP(RxBuffIndex$1),A3 ; [B_D64P] |572| 
    2813                            .dwpsn  file "C:/Users/Raz Aloni/OneDrive/School/EEL4924/DSP/C_Libs/AudioInterface/src/AudioIn
    2814 00000660 0200006c!            LDW     .D2T1   *+DP(AudioRxBufferQueue),A4 ; [B_D64P] |573| 
    2815 00000664     9587             MV      .L2X    A11,B4            ; [B_L674] |573| 
    2816 00000666     2c6e             NOP             2                 ; [A_L674] 
    2817                            .dwpsn  file "C:/Users/Raz Aloni/OneDrive/School/EEL4924/DSP/C_Libs/AudioInterface/src/AudioIn
    2818                    $C$DW$261       .dwtag  DW_TAG_TI_branch
    2819                            .dwattr $C$DW$261, DW_AT_low_pc(0x00)
    2820                            .dwattr $C$DW$261, DW_AT_name("ti_sysbios_knl_Queue_put__E")
    2821                            .dwattr $C$DW$261, DW_AT_TI_call
    2822                    
    2823                    
    2824 00000668 10000013!            CALLP   .S2     ti_sysbios_knl_Queue_put__E,B3 ; [B_Sb674] |573| 
    2825 0000066c 01ac4274  ||         STW     .D1T1   A3,*A11(8)        ; [A_D64P] |572| 
    2826                    
    2827                            .dwpsn  file "C:/Users/Raz Aloni/OneDrive/School/EEL4924/DSP/C_Libs/AudioInterface/src/AudioIn
    2828 00000670           $C$RL114:  ; CALLP OCCURS {ti_sysbios_knl_Queue_put__E} {0}  ; [] |573| 
    2829                            .dwpsn  file "C:/Users/Raz Aloni/OneDrive/School/EEL4924/DSP/C_Libs/AudioInterface/src/AudioIn
    2830                    $C$DW$262       .dwtag  DW_TAG_TI_branch
    2831                            .dwattr $C$DW$262, DW_AT_low_pc(0x00)
    2832                            .dwattr $C$DW$262, DW_AT_name("ti_sysbios_knl_Semaphore_post__E")
    2833                            .dwattr $C$DW$262, DW_AT_TI_call
    2834                    
    2835                    
    2836 00000670 10000013!            CALLP   .S2     ti_sysbios_knl_Semaphore_post__E,B3 ; [B_Sb674] |574| 
    2837 00000674 0200006c! ||         LDW     .D2T1   *+DP(AudioRxQueueSem),A4 ; [B_D64P] |574| 
    2838                    
    2839 00000678           $C$RL116:  ; CALLP OCCURS {ti_sysbios_knl_Semaphore_post__E} {0}  ; [] |574| 
    2840                            .dwpsn  file "C:/Users/Raz Aloni/OneDrive/School/EEL4924/DSP/C_Libs/AudioInterface/src/AudioIn
    2841 00000678 0200006e!            LDW     .D2T2   *+DP(RxBuffIndex$1),B4 ; [B_D64P] |577| 
    2842                            .dwpsn  file "C:/Users/Raz Aloni/OneDrive/School/EEL4924/DSP/C_Libs/AudioInterface/src/AudioIn
    2843 00000680 00284f5a             AND     .L2     2,B10,B0          ; [B_L674] |581| 
    2844                            .dwpsn  file "C:/Users/Raz Aloni/OneDrive/School/EEL4924/DSP/C_Libs/AudioInterface/src/AudioIn
    2845 00000684 05800028!            MVKL    .S1     TXParamRAMS,A11   ; [A_S674] |487| 
    2846                            .dwpsn  file "C:/Users/Raz Aloni/OneDrive/School/EEL4924/DSP/C_Libs/AudioInterface/src/AudioIn
    2847 00000688 0500002a!            MVKL    .S2     LoopBuffer,B10    ; [B_Sb674] |493| 
    2848                            .dwpsn  file "C:/Users/Raz Aloni/OneDrive/School/EEL4924/DSP/C_Libs/AudioInterface/src/AudioIn
    2849 0000068c 05800068!            MVKH    .S1     TXParamRAMS,A11   ; [A_S674] |487| 
    2850                            .dwpsn  file "C:/Users/Raz Aloni/OneDrive/School/EEL4924/DSP/C_Libs/AudioInterface/src/AudioIn
    2851                    
    2852 00000690 0210205b             ADD     .L2     1,B4,B4           ; [B_L674] |577| 
    2853 00000694 30001190  || [!B0]   B       .S1     $C$L10            ; [A_S674] |581| 
    2854                    
    2855 00000698 0210ef5a             AND     .L2     7,B4,B4           ; [B_L674] |577| 
    2856                            .dwpsn  file "C:/Users/Raz Aloni/OneDrive/School/EEL4924/DSP/C_Libs/AudioInterface/src/AudioIn
    2857                    
    2858 0000069c 0500006b!            MVKH    .S2     LoopBuffer,B10    ; [B_Sb674] |493| 
    2859 000006a0     8506  ||         MV      .L1     A10,A4            ; [A_L674] |583| 
    2860 000006a4 0200007e! ||         STW     .D2T2   B4,*+DP(RxBuffIndex$1) ; [B_D64P] |577| 
TMS320C6x Assembler PC v8.1.3 Fri Apr 14 08:40:18 2017

Tools Copyright (c) 1996-2015 Texas Instruments Incorporated
AudioInterface.asm                                                   PAGE   53

    2861 000006a2     2627  ||         MVK     .L2     1,B4              ; [B_L674] |583| 
    2862                    
    2863                    ;** --------------------------------------------------------------------------*
    2864 000006a8           $C$L9:    
    2865                            .dwpsn  file "C:/Users/Raz Aloni/OneDrive/School/EEL4924/DSP/C_Libs/AudioInterface/src/AudioIn
    2866                    $C$DW$263       .dwtag  DW_TAG_TI_branch
    2867                            .dwattr $C$DW$263, DW_AT_low_pc(0x00)
    2868                            .dwattr $C$DW$263, DW_AT_name("EDMA3ClrIntr")
    2869                            .dwattr $C$DW$263, DW_AT_TI_call
    2870                    
    2871                    
    2872 000006a8 20000011!    [ B0]   CALL    .S1     EDMA3ClrIntr      ; [A_S674] |583| 
    2873 000006ac 353c52e5  || [!B0]   LDW     .D2T1   *++SP(8),A10      ; [B_D64P] |587| 
    2874 000006b0 31ac0fda  || [!B0]   MV      .L2     B11,B3            ; [B_L674] |587| 
    2875                    
    2876                            .dwpsn  file "C:/Users/Raz Aloni/OneDrive/School/EEL4924/DSP/C_Libs/AudioInterface/src/AudioIn
    2877                    $C$DW$264       .dwtag  DW_TAG_TI_branch
    2878                            .dwattr $C$DW$264, DW_AT_low_pc(0x00)
    2879                            .dwattr $C$DW$264, DW_AT_TI_return
    2880                    
    2881                    
    2882 000006b4 300c0363     [!B0]   RET     .S2     B3                ; [B_Sb674] |587| 
    2883 000006b8 353c33e6  || [!B0]   LDDW    .D2T2   *++SP(8),B11:B10  ; [B_D64P] |587| 
    2884                    
    2885 000006c0 35bc52e4     [!B0]   LDW     .D2T1   *++SP(8),A11      ; [B_D64P] |587| 
    2886                            .dwpsn  file "C:/Users/Raz Aloni/OneDrive/School/EEL4924/DSP/C_Libs/AudioInterface/src/AudioIn
    2887                               ; BRANCHCC OCCURS {$C$L10}        ; [] |581| 
    2888                    ;** --------------------------------------------------------------------------*
    2889                            .dwpsn  file "C:/Users/Raz Aloni/OneDrive/School/EEL4924/DSP/C_Libs/AudioInterface/src/AudioIn
    2890 000006c4 01824162             ADDKPC  .S2     $C$RL118,B3,2     ; [B_Sb674] |583| 
    2891 000006c8           $C$RL118:  ; CALL OCCURS {EDMA3ClrIntr} {0}  ; [] |583| 
    2892                    ;** --------------------------------------------------------------------------*
    2893                            .dwpsn  file "C:/Users/Raz Aloni/OneDrive/School/EEL4924/DSP/C_Libs/AudioInterface/src/AudioIn
    2894 000006c8 0200006c!            LDW     .D2T1   *+DP(TxBuffIndex$3),A4 ; [B_D64P] |487| 
    2895                            .dwpsn  file "C:/Users/Raz Aloni/OneDrive/School/EEL4924/DSP/C_Libs/AudioInterface/src/AudioIn
    2896 000006cc     6587             MV      .L2     B11,B3            ; [B_L674] |587| 
    2897                            .dwcfi  restore_reg, 19
    2898 000006ce     4c6e             NOP             3                 ; [A_L674] 
    2899                            .dwpsn  file "C:/Users/Raz Aloni/OneDrive/School/EEL4924/DSP/C_Libs/AudioInterface/src/AudioIn
    2900 000006d0 02ac8a66             LDW     .D1T2   *+A11[A4],B5      ; [A_D64P] |487| 
    2901                            .dwpsn  file "C:/Users/Raz Aloni/OneDrive/School/EEL4924/DSP/C_Libs/AudioInterface/src/AudioIn
    2902 000006d4 01902dd8             XOR     .L1     1,A4,A3           ; [A_L674] |585| 
    2903 000006d8 018c2f58             AND     .L1     1,A3,A3           ; [A_L674] |585| 
    2904 000006e0 0180007c!            STW     .D2T1   A3,*+DP(TxBuffIndex$3) ; [B_D64P] |585| 
    2905                            .dwpsn  file "C:/Users/Raz Aloni/OneDrive/School/EEL4924/DSP/C_Libs/AudioInterface/src/AudioIn
    2906 000006e4     a602             SHL     .S1     A4,5,A4           ; [A_S674] |490| 
    2907                            .dwpsn  file "C:/Users/Raz Aloni/OneDrive/School/EEL4924/DSP/C_Libs/AudioInterface/src/AudioIn
    2908 000006e6     10cd             LDW     .D2T2   *B5(0),B4         ; [B_D64P] |496| 
    2909                            .dwpsn  file "C:/Users/Raz Aloni/OneDrive/School/EEL4924/DSP/C_Libs/AudioInterface/src/AudioIn
    2910 000006e8 051422f6             STW     .D2T2   B10,*B5(4)        ; [B_D64P] |493| 
    2911                            .dwpsn  file "C:/Users/Raz Aloni/OneDrive/School/EEL4924/DSP/C_Libs/AudioInterface/src/AudioIn
    2912 000006ec     6577             LDW     .D2T1   *++SP(8),A10      ; [B_D64P] |587| 
    2913                            .dwcfi  cfa_offset, 16
    2914                            .dwcfi  restore_reg, 10
    2915 000006ee     d577             LDDW    .D2T2   *++SP(8),B11:B10  ; [B_D64P] |587| 
TMS320C6x Assembler PC v8.1.3 Fri Apr 14 08:40:18 2017

Tools Copyright (c) 1996-2015 Texas Instruments Incorporated
AudioInterface.asm                                                   PAGE   54

    2916                            .dwcfi  cfa_offset, 8
    2917                            .dwcfi  restore_reg, 27
    2918                            .dwcfi  restore_reg, 26
    2919                            .dwpsn  file "C:/Users/Raz Aloni/OneDrive/School/EEL4924/DSP/C_Libs/AudioInterface/src/AudioIn
    2920 000006f0 02030050             ADDK    .S1     1536,A4           ; [A_S674] |490| 
    2921                            .dwpsn  file "C:/Users/Raz Aloni/OneDrive/School/EEL4924/DSP/C_Libs/AudioInterface/src/AudioIn
    2922 000006f4     9243             CLR     .S2     B4,20,20,B4       ; [B_Sb674] |496| 
    2923 000006f6     10c5             STW     .D2T2   B4,*B5(0)         ; [B_D64P] |496| 
    2924                            .dwpsn  file "C:/Users/Raz Aloni/OneDrive/School/EEL4924/DSP/C_Libs/AudioInterface/src/AudioIn
    2925                    $C$DW$265       .dwtag  DW_TAG_TI_branch
    2926                            .dwattr $C$DW$265, DW_AT_low_pc(0x04)
    2927                            .dwattr $C$DW$265, DW_AT_TI_return
    2928                    
    2929                    
    2930 000006f8 0191ce89             SET     .S1     A4,14,14,A3       ; [A_S674] |490| 
    2931 00000700 000c0363  ||         RET     .S2     B3                ; [B_Sb674] |587| 
    2932 00000704 05bc52e4  ||         LDW     .D2T1   *++SP(8),A11      ; [B_D64P] |587| 
    2933                    
    2934                            .dwcfi  cfa_offset, 0
    2935                            .dwcfi  restore_reg, 11
    2936 00000708 019542d4             STH     .D2T1   A3,*B5(20)        ; [B_D64P] |490| 
    2937                    ;** --------------------------------------------------------------------------*
    2938 0000070c           $C$L10:    
    2939                            .dwcfi  restore_reg, 19
    2940                            .dwcfi  cfa_offset, 16
    2941                            .dwcfi  restore_reg, 10
    2942                            .dwcfi  cfa_offset, 8
    2943                            .dwcfi  restore_reg, 27
    2944                            .dwcfi  restore_reg, 26
    2945                            .dwcfi  cfa_offset, 0
    2946                            .dwcfi  restore_reg, 11
    2947 0000070c 00006000             NOP             4                 ; [A_L674] 
    2948                            .dwpsn  file "C:/Users/Raz Aloni/OneDrive/School/EEL4924/DSP/C_Libs/AudioInterface/src/AudioIn
    2949                               ; BRANCH OCCURS {B3}              ; [] |587| 
    2950                            .dwattr $C$DW$253, DW_AT_TI_end_file("C:/Users/Raz Aloni/OneDrive/School/EEL4924/DSP/C_Libs/Au
    2951                            .dwattr $C$DW$253, DW_AT_TI_end_line(0x24b)
    2952                            .dwattr $C$DW$253, DW_AT_TI_end_column(0x01)
    2953                            .dwendentry
    2954                            .dwendtag $C$DW$253
    2955                    
    2956                    ;*****************************************************************************
    2957                    ;* UNDEFINED EXTERNAL REFERENCES                                             *
    2958                    ;*****************************************************************************
    2959                            .global ti_sysbios_knl_Queue_put__E
    2960                            .global ti_sysbios_knl_Semaphore_post__E
    2961                            .global McASPTxReset
    2962                            .global McASPRxReset
    2963                            .global McASPWriteFifoEnable
    2964                            .global McASPReadFifoEnable
    2965                            .global McASPTxFmtI2SSet
    2966                            .global McASPRxFmtI2SSet
    2967                            .global McASPTxFrameSyncCfg
    2968                            .global McASPRxFrameSyncCfg
    2969                            .global McASPTxClkCfg
    2970                            .global McASPRxClkCfg
TMS320C6x Assembler PC v8.1.3 Fri Apr 14 08:40:18 2017

Tools Copyright (c) 1996-2015 Texas Instruments Incorporated
AudioInterface.asm                                                   PAGE   55

    2971                            .global McASPTxClkPolaritySet
    2972                            .global McASPRxClkPolaritySet
    2973                            .global McASPTxRxClkSyncEnable
    2974                            .global McASPSerializerTxSet
    2975                            .global McASPSerializerRxSet
    2976                            .global McASPPinDirOutputSet
    2977                            .global McASPPinDirInputSet
    2978                            .global McASPPinMcASPSet
    2979                            .global McASPTxTimeSlotSet
    2980                            .global McASPRxTimeSlotSet
    2981                            .global McASPTxIntEnable
    2982                            .global McASPRxIntEnable
    2983                            .global McASPTxClkStart
    2984                            .global McASPRxClkStart
    2985                            .global McASPTxSerActivate
    2986                            .global McASPRxSerActivate
    2987                            .global McASPTxEnable
    2988                            .global McASPRxEnable
    2989                            .global McASPTxClkCheckConfig
    2990                            .global McASPRxClkCheckConfig
    2991                            .global McASPTxStatusGet
    2992                            .global McASPRxStatusGet
    2993                            .global PSCModuleControl
    2994                            .global EDMA3Init
    2995                            .global EDMA3GetIntrStatus
    2996                            .global EDMA3ClrIntr
    2997                            .global EDMA3SetPaRAM
    2998                            .global EDMA3RequestChannel
    2999                            .global EDMA3EnableTransfer
    3000                            .global I2CCodecIfInit
    3001                            .global AIC31Reset
    3002                            .global AIC31DataConfig
    3003                            .global AIC31SampleRateConfig
    3004                            .global AIC31ADCInit
    3005                            .global AIC31LeftPGAGain
    3006                            .global AudioRxBufferQueue
    3007                            .global AudioRxQueueSem
    3008                            .global memcpy
    3009                    
    3010                    ;******************************************************************************
    3011                    ;* BUILD ATTRIBUTES                                                           *
    3012                    ;******************************************************************************
    3013                            .battr "TI", Tag_File, 1, Tag_Long_Precision_Bits(2)
    3014                            .battr "TI", Tag_File, 1, Tag_Bitfield_layout(2)
    3015                            .battr "TI", Tag_File, 1, Tag_ABI_enum_size(2)
    3016                            .battr "c6xabi", Tag_File, 1, Tag_ABI_wchar_t(1)
    3017                            .battr "c6xabi", Tag_File, 1, Tag_ABI_array_object_alignment(0)
    3018                            .battr "c6xabi", Tag_File, 1, Tag_ABI_array_object_align_expected(0)
    3019                            .battr "c6xabi", Tag_File, 1, Tag_ABI_PIC(0)
    3020                            .battr "c6xabi", Tag_File, 1, Tag_ABI_PID(0)
    3021                            .battr "c6xabi", Tag_File, 1, Tag_ABI_DSBT(0)
    3022                            .battr "c6xabi", Tag_File, 1, Tag_ABI_stack_align_needed(0)
    3023                            .battr "c6xabi", Tag_File, 1, Tag_ABI_stack_align_preserved(0)
    3024                            .battr "TI", Tag_File, 1, Tag_Tramps_Use_SOC(1)
    3025                    
TMS320C6x Assembler PC v8.1.3 Fri Apr 14 08:40:18 2017

Tools Copyright (c) 1996-2015 Texas Instruments Incorporated
AudioInterface.asm                                                   PAGE   56

    3026                    ;******************************************************************************
    3027                    ;* TYPE INFORMATION                                                           *
    3028                    ;******************************************************************************
    3029                    
    3030                    $C$DW$T$684     .dwtag  DW_TAG_enumeration_type
    3031                            .dwattr $C$DW$T$684, DW_AT_byte_size(0x04)
    3032                    $C$DW$266       .dwtag  DW_TAG_enumerator
    3033                            .dwattr $C$DW$266, DW_AT_name("CSL_PSC_CC0")
    3034                            .dwattr $C$DW$266, DW_AT_const_value(0x00)
    3035                            .dwattr $C$DW$266, DW_AT_decl_file("C:/ti/pdk_OMAPL138_1_01_00_02/packages/ti/csl/cslr_psc_C67
    3036                            .dwattr $C$DW$266, DW_AT_decl_line(0x42)
    3037                            .dwattr $C$DW$266, DW_AT_decl_column(0x05)
    3038                    
    3039                    $C$DW$267       .dwtag  DW_TAG_enumerator
    3040                            .dwattr $C$DW$267, DW_AT_name("CSL_PSC_TC0")
    3041                            .dwattr $C$DW$267, DW_AT_const_value(0x01)
    3042                            .dwattr $C$DW$267, DW_AT_decl_file("C:/ti/pdk_OMAPL138_1_01_00_02/packages/ti/csl/cslr_psc_C67
    3043                            .dwattr $C$DW$267, DW_AT_decl_line(0x43)
    3044                            .dwattr $C$DW$267, DW_AT_decl_column(0x05)
    3045                    
    3046                    $C$DW$268       .dwtag  DW_TAG_enumerator
    3047                            .dwattr $C$DW$268, DW_AT_name("CSL_PSC_TC1")
    3048                            .dwattr $C$DW$268, DW_AT_const_value(0x02)
    3049                            .dwattr $C$DW$268, DW_AT_decl_file("C:/ti/pdk_OMAPL138_1_01_00_02/packages/ti/csl/cslr_psc_C67
    3050                            .dwattr $C$DW$268, DW_AT_decl_line(0x44)
    3051                            .dwattr $C$DW$268, DW_AT_decl_column(0x05)
    3052                    
    3053                    $C$DW$269       .dwtag  DW_TAG_enumerator
    3054                            .dwattr $C$DW$269, DW_AT_name("CSL_PSC_EMIFA")
    3055                            .dwattr $C$DW$269, DW_AT_const_value(0x03)
    3056                            .dwattr $C$DW$269, DW_AT_decl_file("C:/ti/pdk_OMAPL138_1_01_00_02/packages/ti/csl/cslr_psc_C67
    3057                            .dwattr $C$DW$269, DW_AT_decl_line(0x45)
    3058                            .dwattr $C$DW$269, DW_AT_decl_column(0x05)
    3059                    
    3060                    $C$DW$270       .dwtag  DW_TAG_enumerator
    3061                            .dwattr $C$DW$270, DW_AT_name("CSL_PSC_SPI0")
    3062                            .dwattr $C$DW$270, DW_AT_const_value(0x04)
    3063                            .dwattr $C$DW$270, DW_AT_decl_file("C:/ti/pdk_OMAPL138_1_01_00_02/packages/ti/csl/cslr_psc_C67
    3064                            .dwattr $C$DW$270, DW_AT_decl_line(0x46)
    3065                            .dwattr $C$DW$270, DW_AT_decl_column(0x05)
    3066                    
    3067                    $C$DW$271       .dwtag  DW_TAG_enumerator
    3068                            .dwattr $C$DW$271, DW_AT_name("CSL_PSC_MMCSD0")
    3069                            .dwattr $C$DW$271, DW_AT_const_value(0x05)
    3070                            .dwattr $C$DW$271, DW_AT_decl_file("C:/ti/pdk_OMAPL138_1_01_00_02/packages/ti/csl/cslr_psc_C67
    3071                            .dwattr $C$DW$271, DW_AT_decl_line(0x47)
    3072                            .dwattr $C$DW$271, DW_AT_decl_column(0x05)
    3073                    
    3074                    $C$DW$272       .dwtag  DW_TAG_enumerator
    3075                            .dwattr $C$DW$272, DW_AT_name("CSL_PSC_UART0")
    3076                            .dwattr $C$DW$272, DW_AT_const_value(0x09)
    3077                            .dwattr $C$DW$272, DW_AT_decl_file("C:/ti/pdk_OMAPL138_1_01_00_02/packages/ti/csl/cslr_psc_C67
    3078                            .dwattr $C$DW$272, DW_AT_decl_line(0x48)
    3079                            .dwattr $C$DW$272, DW_AT_decl_column(0x05)
    3080                    
TMS320C6x Assembler PC v8.1.3 Fri Apr 14 08:40:18 2017

Tools Copyright (c) 1996-2015 Texas Instruments Incorporated
AudioInterface.asm                                                   PAGE   57

    3081                    $C$DW$273       .dwtag  DW_TAG_enumerator
    3082                            .dwattr $C$DW$273, DW_AT_name("CSL_PSC_SCR0_SS")
    3083                            .dwattr $C$DW$273, DW_AT_const_value(0x0a)
    3084                            .dwattr $C$DW$273, DW_AT_decl_file("C:/ti/pdk_OMAPL138_1_01_00_02/packages/ti/csl/cslr_psc_C67
    3085                            .dwattr $C$DW$273, DW_AT_decl_line(0x49)
    3086                            .dwattr $C$DW$273, DW_AT_decl_column(0x05)
    3087                    
    3088                    $C$DW$274       .dwtag  DW_TAG_enumerator
    3089                            .dwattr $C$DW$274, DW_AT_name("CSL_PSC_SCR1_SS")
    3090                            .dwattr $C$DW$274, DW_AT_const_value(0x0b)
    3091                            .dwattr $C$DW$274, DW_AT_decl_file("C:/ti/pdk_OMAPL138_1_01_00_02/packages/ti/csl/cslr_psc_C67
    3092                            .dwattr $C$DW$274, DW_AT_decl_line(0x4a)
    3093                            .dwattr $C$DW$274, DW_AT_decl_column(0x05)
    3094                    
    3095                    $C$DW$275       .dwtag  DW_TAG_enumerator
    3096                            .dwattr $C$DW$275, DW_AT_name("CSL_PSC_SCR2_SS")
    3097                            .dwattr $C$DW$275, DW_AT_const_value(0x0c)
    3098                            .dwattr $C$DW$275, DW_AT_decl_file("C:/ti/pdk_OMAPL138_1_01_00_02/packages/ti/csl/cslr_psc_C67
    3099                            .dwattr $C$DW$275, DW_AT_decl_line(0x4b)
    3100                            .dwattr $C$DW$275, DW_AT_decl_column(0x05)
    3101                    
    3102                    $C$DW$276       .dwtag  DW_TAG_enumerator
    3103                            .dwattr $C$DW$276, DW_AT_name("CSL_PSC_PRU")
    3104                            .dwattr $C$DW$276, DW_AT_const_value(0x0d)
    3105                            .dwattr $C$DW$276, DW_AT_decl_file("C:/ti/pdk_OMAPL138_1_01_00_02/packages/ti/csl/cslr_psc_C67
    3106                            .dwattr $C$DW$276, DW_AT_decl_line(0x4c)
    3107                            .dwattr $C$DW$276, DW_AT_decl_column(0x05)
    3108                    
    3109                    $C$DW$277       .dwtag  DW_TAG_enumerator
    3110                            .dwattr $C$DW$277, DW_AT_name("CSL_PSC_DSP")
    3111                            .dwattr $C$DW$277, DW_AT_const_value(0x0f)
    3112                            .dwattr $C$DW$277, DW_AT_decl_file("C:/ti/pdk_OMAPL138_1_01_00_02/packages/ti/csl/cslr_psc_C67
    3113                            .dwattr $C$DW$277, DW_AT_decl_line(0x4d)
    3114                            .dwattr $C$DW$277, DW_AT_decl_column(0x05)
    3115                    
    3116                            .dwattr $C$DW$T$684, DW_AT_decl_file("C:/ti/pdk_OMAPL138_1_01_00_02/packages/ti/csl/cslr_psc_C
    3117                            .dwattr $C$DW$T$684, DW_AT_decl_line(0x41)
    3118                            .dwattr $C$DW$T$684, DW_AT_decl_column(0x0e)
    3119                            .dwendtag $C$DW$T$684
    3120                    
    3121                    $C$DW$T$685     .dwtag  DW_TAG_typedef
    3122                            .dwattr $C$DW$T$685, DW_AT_name("CSL_Psc0Peripheral")
    3123                            .dwattr $C$DW$T$685, DW_AT_type(*$C$DW$T$684)
    3124                            .dwattr $C$DW$T$685, DW_AT_language(DW_LANG_C)
    3125                            .dwattr $C$DW$T$685, DW_AT_decl_file("C:/ti/pdk_OMAPL138_1_01_00_02/packages/ti/csl/cslr_psc_C
    3126                            .dwattr $C$DW$T$685, DW_AT_decl_line(0x4f)
    3127                            .dwattr $C$DW$T$685, DW_AT_decl_column(0x03)
    3128                    
    3129                    
    3130                    $C$DW$T$686     .dwtag  DW_TAG_enumeration_type
    3131                            .dwattr $C$DW$T$686, DW_AT_byte_size(0x04)
    3132                    $C$DW$278       .dwtag  DW_TAG_enumerator
    3133                            .dwattr $C$DW$278, DW_AT_name("CSL_PSC_CC1")
    3134                            .dwattr $C$DW$278, DW_AT_const_value(0x00)
    3135                            .dwattr $C$DW$278, DW_AT_decl_file("C:/ti/pdk_OMAPL138_1_01_00_02/packages/ti/csl/cslr_psc_C67
TMS320C6x Assembler PC v8.1.3 Fri Apr 14 08:40:18 2017

Tools Copyright (c) 1996-2015 Texas Instruments Incorporated
AudioInterface.asm                                                   PAGE   58

    3136                            .dwattr $C$DW$278, DW_AT_decl_line(0x52)
    3137                            .dwattr $C$DW$278, DW_AT_decl_column(0x05)
    3138                    
    3139                    $C$DW$279       .dwtag  DW_TAG_enumerator
    3140                            .dwattr $C$DW$279, DW_AT_name("CSL_PSC_USB0")
    3141                            .dwattr $C$DW$279, DW_AT_const_value(0x01)
    3142                            .dwattr $C$DW$279, DW_AT_decl_file("C:/ti/pdk_OMAPL138_1_01_00_02/packages/ti/csl/cslr_psc_C67
    3143                            .dwattr $C$DW$279, DW_AT_decl_line(0x53)
    3144                            .dwattr $C$DW$279, DW_AT_decl_column(0x05)
    3145                    
    3146                    $C$DW$280       .dwtag  DW_TAG_enumerator
    3147                            .dwattr $C$DW$280, DW_AT_name("CSL_PSC_USB1")
    3148                            .dwattr $C$DW$280, DW_AT_const_value(0x02)
